
relaxation.elf:     file format elf64-x86-64


Disassembly of section .init:

00000000004027b8 <_init>:
  4027b8:	48 83 ec 08          	sub    $0x8,%rsp
  4027bc:	e8 e3 22 00 00       	callq  404aa4 <call_gmon_start>
  4027c1:	48 83 c4 08          	add    $0x8,%rsp
  4027c5:	c3                   	retq   

Disassembly of section .plt:

00000000004027d0 <_ZNSo3putEc@plt-0x10>:
  4027d0:	ff 35 1a f8 20 00    	pushq  0x20f81a(%rip)        # 611ff0 <_GLOBAL_OFFSET_TABLE_+0x8>
  4027d6:	ff 25 1c f8 20 00    	jmpq   *0x20f81c(%rip)        # 611ff8 <_GLOBAL_OFFSET_TABLE_+0x10>
  4027dc:	0f 1f 40 00          	nopl   0x0(%rax)

00000000004027e0 <_ZNSo3putEc@plt>:
  4027e0:	ff 25 1a f8 20 00    	jmpq   *0x20f81a(%rip)        # 612000 <_GLOBAL_OFFSET_TABLE_+0x18>
  4027e6:	68 00 00 00 00       	pushq  $0x0
  4027eb:	e9 e0 ff ff ff       	jmpq   4027d0 <_init+0x18>

00000000004027f0 <GOMP_parallel_end@plt>:
  4027f0:	ff 25 12 f8 20 00    	jmpq   *0x20f812(%rip)        # 612008 <_GLOBAL_OFFSET_TABLE_+0x20>
  4027f6:	68 01 00 00 00       	pushq  $0x1
  4027fb:	e9 d0 ff ff ff       	jmpq   4027d0 <_init+0x18>

0000000000402800 <_ZSt29_Rb_tree_insert_and_rebalancebPSt18_Rb_tree_node_baseS0_RS_@plt>:
  402800:	ff 25 0a f8 20 00    	jmpq   *0x20f80a(%rip)        # 612010 <_GLOBAL_OFFSET_TABLE_+0x28>
  402806:	68 02 00 00 00       	pushq  $0x2
  40280b:	e9 c0 ff ff ff       	jmpq   4027d0 <_init+0x18>

0000000000402810 <_ZNSs6appendEPKcm@plt>:
  402810:	ff 25 02 f8 20 00    	jmpq   *0x20f802(%rip)        # 612018 <_GLOBAL_OFFSET_TABLE_+0x30>
  402816:	68 03 00 00 00       	pushq  $0x3
  40281b:	e9 b0 ff ff ff       	jmpq   4027d0 <_init+0x18>

0000000000402820 <_ZNSdD2Ev@plt>:
  402820:	ff 25 fa f7 20 00    	jmpq   *0x20f7fa(%rip)        # 612020 <_GLOBAL_OFFSET_TABLE_+0x38>
  402826:	68 04 00 00 00       	pushq  $0x4
  40282b:	e9 a0 ff ff ff       	jmpq   4027d0 <_init+0x18>

0000000000402830 <_ZNSs12_M_leak_hardEv@plt>:
  402830:	ff 25 f2 f7 20 00    	jmpq   *0x20f7f2(%rip)        # 612028 <_GLOBAL_OFFSET_TABLE_+0x40>
  402836:	68 05 00 00 00       	pushq  $0x5
  40283b:	e9 90 ff ff ff       	jmpq   4027d0 <_init+0x18>

0000000000402840 <_ZNSt13basic_filebufIcSt11char_traitsIcEE5closeEv@plt>:
  402840:	ff 25 ea f7 20 00    	jmpq   *0x20f7ea(%rip)        # 612030 <_GLOBAL_OFFSET_TABLE_+0x48>
  402846:	68 06 00 00 00       	pushq  $0x6
  40284b:	e9 80 ff ff ff       	jmpq   4027d0 <_init+0x18>

0000000000402850 <_ZNSt14basic_ifstreamIcSt11char_traitsIcEED1Ev@plt>:
  402850:	ff 25 e2 f7 20 00    	jmpq   *0x20f7e2(%rip)        # 612038 <_GLOBAL_OFFSET_TABLE_+0x50>
  402856:	68 07 00 00 00       	pushq  $0x7
  40285b:	e9 70 ff ff ff       	jmpq   4027d0 <_init+0x18>

0000000000402860 <_ZNSt8ios_baseC2Ev@plt>:
  402860:	ff 25 da f7 20 00    	jmpq   *0x20f7da(%rip)        # 612040 <_GLOBAL_OFFSET_TABLE_+0x58>
  402866:	68 08 00 00 00       	pushq  $0x8
  40286b:	e9 60 ff ff ff       	jmpq   4027d0 <_init+0x18>

0000000000402870 <_ZNSt8ios_baseD2Ev@plt>:
  402870:	ff 25 d2 f7 20 00    	jmpq   *0x20f7d2(%rip)        # 612048 <_GLOBAL_OFFSET_TABLE_+0x60>
  402876:	68 09 00 00 00       	pushq  $0x9
  40287b:	e9 50 ff ff ff       	jmpq   4027d0 <_init+0x18>

0000000000402880 <__cxa_begin_catch@plt>:
  402880:	ff 25 ca f7 20 00    	jmpq   *0x20f7ca(%rip)        # 612050 <_GLOBAL_OFFSET_TABLE_+0x68>
  402886:	68 0a 00 00 00       	pushq  $0xa
  40288b:	e9 40 ff ff ff       	jmpq   4027d0 <_init+0x18>

0000000000402890 <strlen@plt>:
  402890:	ff 25 c2 f7 20 00    	jmpq   *0x20f7c2(%rip)        # 612058 <_GLOBAL_OFFSET_TABLE_+0x70>
  402896:	68 0b 00 00 00       	pushq  $0xb
  40289b:	e9 30 ff ff ff       	jmpq   4027d0 <_init+0x18>

00000000004028a0 <memcmp@plt>:
  4028a0:	ff 25 ba f7 20 00    	jmpq   *0x20f7ba(%rip)        # 612060 <_GLOBAL_OFFSET_TABLE_+0x78>
  4028a6:	68 0c 00 00 00       	pushq  $0xc
  4028ab:	e9 20 ff ff ff       	jmpq   4027d0 <_init+0x18>

00000000004028b0 <_ZStrsIcSt11char_traitsIcESaIcEERSt13basic_istreamIT_T0_ES7_RSbIS4_S5_T1_E@plt>:
  4028b0:	ff 25 b2 f7 20 00    	jmpq   *0x20f7b2(%rip)        # 612068 <_GLOBAL_OFFSET_TABLE_+0x80>
  4028b6:	68 0d 00 00 00       	pushq  $0xd
  4028bb:	e9 10 ff ff ff       	jmpq   4027d0 <_init+0x18>

00000000004028c0 <_ZSt4endlIcSt11char_traitsIcEERSt13basic_ostreamIT_T0_ES6_@plt>:
  4028c0:	ff 25 aa f7 20 00    	jmpq   *0x20f7aa(%rip)        # 612070 <_GLOBAL_OFFSET_TABLE_+0x88>
  4028c6:	68 0e 00 00 00       	pushq  $0xe
  4028cb:	e9 00 ff ff ff       	jmpq   4027d0 <_init+0x18>

00000000004028d0 <__cxa_allocate_exception@plt>:
  4028d0:	ff 25 a2 f7 20 00    	jmpq   *0x20f7a2(%rip)        # 612078 <_GLOBAL_OFFSET_TABLE_+0x90>
  4028d6:	68 0f 00 00 00       	pushq  $0xf
  4028db:	e9 f0 fe ff ff       	jmpq   4027d0 <_init+0x18>

00000000004028e0 <_ZNKSt9basic_iosIcSt11char_traitsIcEE4fillEv@plt>:
  4028e0:	ff 25 9a f7 20 00    	jmpq   *0x20f79a(%rip)        # 612080 <_GLOBAL_OFFSET_TABLE_+0x98>
  4028e6:	68 10 00 00 00       	pushq  $0x10
  4028eb:	e9 e0 fe ff ff       	jmpq   4027d0 <_init+0x18>

00000000004028f0 <memset@plt>:
  4028f0:	ff 25 92 f7 20 00    	jmpq   *0x20f792(%rip)        # 612088 <_GLOBAL_OFFSET_TABLE_+0xa0>
  4028f6:	68 11 00 00 00       	pushq  $0x11
  4028fb:	e9 d0 fe ff ff       	jmpq   4027d0 <_init+0x18>

0000000000402900 <GOMP_parallel_start@plt>:
  402900:	ff 25 8a f7 20 00    	jmpq   *0x20f78a(%rip)        # 612090 <_GLOBAL_OFFSET_TABLE_+0xa8>
  402906:	68 12 00 00 00       	pushq  $0x12
  40290b:	e9 c0 fe ff ff       	jmpq   4027d0 <_init+0x18>

0000000000402910 <_ZNSsC1ERKSs@plt>:
  402910:	ff 25 82 f7 20 00    	jmpq   *0x20f782(%rip)        # 612098 <_GLOBAL_OFFSET_TABLE_+0xb0>
  402916:	68 13 00 00 00       	pushq  $0x13
  40291b:	e9 b0 fe ff ff       	jmpq   4027d0 <_init+0x18>

0000000000402920 <_ZSt28_Rb_tree_rebalance_for_erasePSt18_Rb_tree_node_baseRS_@plt>:
  402920:	ff 25 7a f7 20 00    	jmpq   *0x20f77a(%rip)        # 6120a0 <_GLOBAL_OFFSET_TABLE_+0xb8>
  402926:	68 14 00 00 00       	pushq  $0x14
  40292b:	e9 a0 fe ff ff       	jmpq   4027d0 <_init+0x18>

0000000000402930 <_ZNSirsERi@plt>:
  402930:	ff 25 72 f7 20 00    	jmpq   *0x20f772(%rip)        # 6120a8 <_GLOBAL_OFFSET_TABLE_+0xc0>
  402936:	68 15 00 00 00       	pushq  $0x15
  40293b:	e9 90 fe ff ff       	jmpq   4027d0 <_init+0x18>

0000000000402940 <_ZNSs4_Rep10_M_disposeERKSaIcE@plt>:
  402940:	ff 25 6a f7 20 00    	jmpq   *0x20f76a(%rip)        # 6120b0 <_GLOBAL_OFFSET_TABLE_+0xc8>
  402946:	68 16 00 00 00       	pushq  $0x16
  40294b:	e9 80 fe ff ff       	jmpq   4027d0 <_init+0x18>

0000000000402950 <vsnprintf@plt>:
  402950:	ff 25 62 f7 20 00    	jmpq   *0x20f762(%rip)        # 6120b8 <_GLOBAL_OFFSET_TABLE_+0xd0>
  402956:	68 17 00 00 00       	pushq  $0x17
  40295b:	e9 70 fe ff ff       	jmpq   4027d0 <_init+0x18>

0000000000402960 <_ZNSi10_M_extractIdEERSiRT_@plt>:
  402960:	ff 25 5a f7 20 00    	jmpq   *0x20f75a(%rip)        # 6120c0 <_GLOBAL_OFFSET_TABLE_+0xd8>
  402966:	68 18 00 00 00       	pushq  $0x18
  40296b:	e9 60 fe ff ff       	jmpq   4027d0 <_init+0x18>

0000000000402970 <_ZNSo5flushEv@plt>:
  402970:	ff 25 52 f7 20 00    	jmpq   *0x20f752(%rip)        # 6120c8 <_GLOBAL_OFFSET_TABLE_+0xe0>
  402976:	68 19 00 00 00       	pushq  $0x19
  40297b:	e9 50 fe ff ff       	jmpq   4027d0 <_init+0x18>

0000000000402980 <_ZSt18_Rb_tree_incrementPSt18_Rb_tree_node_base@plt>:
  402980:	ff 25 4a f7 20 00    	jmpq   *0x20f74a(%rip)        # 6120d0 <_GLOBAL_OFFSET_TABLE_+0xe8>
  402986:	68 1a 00 00 00       	pushq  $0x1a
  40298b:	e9 40 fe ff ff       	jmpq   4027d0 <_init+0x18>

0000000000402990 <__cxa_free_exception@plt>:
  402990:	ff 25 42 f7 20 00    	jmpq   *0x20f742(%rip)        # 6120d8 <_GLOBAL_OFFSET_TABLE_+0xf0>
  402996:	68 1b 00 00 00       	pushq  $0x1b
  40299b:	e9 30 fe ff ff       	jmpq   4027d0 <_init+0x18>

00000000004029a0 <sqrt@plt>:
  4029a0:	ff 25 3a f7 20 00    	jmpq   *0x20f73a(%rip)        # 6120e0 <_GLOBAL_OFFSET_TABLE_+0xf8>
  4029a6:	68 1c 00 00 00       	pushq  $0x1c
  4029ab:	e9 20 fe ff ff       	jmpq   4027d0 <_init+0x18>

00000000004029b0 <_ZNSs7reserveEm@plt>:
  4029b0:	ff 25 32 f7 20 00    	jmpq   *0x20f732(%rip)        # 6120e8 <_GLOBAL_OFFSET_TABLE_+0x100>
  4029b6:	68 1d 00 00 00       	pushq  $0x1d
  4029bb:	e9 10 fe ff ff       	jmpq   4027d0 <_init+0x18>

00000000004029c0 <_ZNSs4_Rep10_M_destroyERKSaIcE@plt>:
  4029c0:	ff 25 2a f7 20 00    	jmpq   *0x20f72a(%rip)        # 6120f0 <_GLOBAL_OFFSET_TABLE_+0x108>
  4029c6:	68 1e 00 00 00       	pushq  $0x1e
  4029cb:	e9 00 fe ff ff       	jmpq   4027d0 <_init+0x18>

00000000004029d0 <__vsnprintf_chk@plt>:
  4029d0:	ff 25 22 f7 20 00    	jmpq   *0x20f722(%rip)        # 6120f8 <_GLOBAL_OFFSET_TABLE_+0x110>
  4029d6:	68 1f 00 00 00       	pushq  $0x1f
  4029db:	e9 f0 fd ff ff       	jmpq   4027d0 <_init+0x18>

00000000004029e0 <memcpy@plt>:
  4029e0:	ff 25 1a f7 20 00    	jmpq   *0x20f71a(%rip)        # 612100 <_GLOBAL_OFFSET_TABLE_+0x118>
  4029e6:	68 20 00 00 00       	pushq  $0x20
  4029eb:	e9 e0 fd ff ff       	jmpq   4027d0 <_init+0x18>

00000000004029f0 <system@plt>:
  4029f0:	ff 25 12 f7 20 00    	jmpq   *0x20f712(%rip)        # 612108 <_GLOBAL_OFFSET_TABLE_+0x120>
  4029f6:	68 21 00 00 00       	pushq  $0x21
  4029fb:	e9 d0 fd ff ff       	jmpq   4027d0 <_init+0x18>

0000000000402a00 <_ZNSt11logic_errorC1ERKSs@plt>:
  402a00:	ff 25 0a f7 20 00    	jmpq   *0x20f70a(%rip)        # 612110 <_GLOBAL_OFFSET_TABLE_+0x128>
  402a06:	68 22 00 00 00       	pushq  $0x22
  402a0b:	e9 c0 fd ff ff       	jmpq   4027d0 <_init+0x18>

0000000000402a10 <__cxa_atexit@plt>:
  402a10:	ff 25 02 f7 20 00    	jmpq   *0x20f702(%rip)        # 612118 <_GLOBAL_OFFSET_TABLE_+0x130>
  402a16:	68 23 00 00 00       	pushq  $0x23
  402a1b:	e9 b0 fd ff ff       	jmpq   4027d0 <_init+0x18>

0000000000402a20 <_ZNSt13basic_filebufIcSt11char_traitsIcEE4openEPKcSt13_Ios_Openmode@plt>:
  402a20:	ff 25 fa f6 20 00    	jmpq   *0x20f6fa(%rip)        # 612120 <_GLOBAL_OFFSET_TABLE_+0x138>
  402a26:	68 24 00 00 00       	pushq  $0x24
  402a2b:	e9 a0 fd ff ff       	jmpq   4027d0 <_init+0x18>

0000000000402a30 <_ZdlPv@plt>:
  402a30:	ff 25 f2 f6 20 00    	jmpq   *0x20f6f2(%rip)        # 612128 <_GLOBAL_OFFSET_TABLE_+0x140>
  402a36:	68 25 00 00 00       	pushq  $0x25
  402a3b:	e9 90 fd ff ff       	jmpq   4027d0 <_init+0x18>

0000000000402a40 <_ZNSo9_M_insertIlEERSoT_@plt>:
  402a40:	ff 25 ea f6 20 00    	jmpq   *0x20f6ea(%rip)        # 612130 <_GLOBAL_OFFSET_TABLE_+0x148>
  402a46:	68 26 00 00 00       	pushq  $0x26
  402a4b:	e9 80 fd ff ff       	jmpq   4027d0 <_init+0x18>

0000000000402a50 <_ZStlsISt11char_traitsIcEERSt13basic_ostreamIcT_ES5_PKc@plt>:
  402a50:	ff 25 e2 f6 20 00    	jmpq   *0x20f6e2(%rip)        # 612138 <_GLOBAL_OFFSET_TABLE_+0x150>
  402a56:	68 27 00 00 00       	pushq  $0x27
  402a5b:	e9 70 fd ff ff       	jmpq   4027d0 <_init+0x18>

0000000000402a60 <_Znwm@plt>:
  402a60:	ff 25 da f6 20 00    	jmpq   *0x20f6da(%rip)        # 612140 <_GLOBAL_OFFSET_TABLE_+0x158>
  402a66:	68 28 00 00 00       	pushq  $0x28
  402a6b:	e9 60 fd ff ff       	jmpq   4027d0 <_init+0x18>

0000000000402a70 <__xstat@plt>:
  402a70:	ff 25 d2 f6 20 00    	jmpq   *0x20f6d2(%rip)        # 612148 <_GLOBAL_OFFSET_TABLE_+0x160>
  402a76:	68 29 00 00 00       	pushq  $0x29
  402a7b:	e9 50 fd ff ff       	jmpq   4027d0 <_init+0x18>

0000000000402a80 <_ZNSt13basic_filebufIcSt11char_traitsIcEEC1Ev@plt>:
  402a80:	ff 25 ca f6 20 00    	jmpq   *0x20f6ca(%rip)        # 612150 <_GLOBAL_OFFSET_TABLE_+0x168>
  402a86:	68 2a 00 00 00       	pushq  $0x2a
  402a8b:	e9 40 fd ff ff       	jmpq   4027d0 <_init+0x18>

0000000000402a90 <_ZSt18_Rb_tree_decrementPSt18_Rb_tree_node_base@plt>:
  402a90:	ff 25 c2 f6 20 00    	jmpq   *0x20f6c2(%rip)        # 612158 <_GLOBAL_OFFSET_TABLE_+0x170>
  402a96:	68 2b 00 00 00       	pushq  $0x2b
  402a9b:	e9 30 fd ff ff       	jmpq   4027d0 <_init+0x18>

0000000000402aa0 <_ZNSs6appendERKSs@plt>:
  402aa0:	ff 25 ba f6 20 00    	jmpq   *0x20f6ba(%rip)        # 612160 <_GLOBAL_OFFSET_TABLE_+0x178>
  402aa6:	68 2c 00 00 00       	pushq  $0x2c
  402aab:	e9 20 fd ff ff       	jmpq   4027d0 <_init+0x18>

0000000000402ab0 <__stack_chk_fail@plt>:
  402ab0:	ff 25 b2 f6 20 00    	jmpq   *0x20f6b2(%rip)        # 612168 <_GLOBAL_OFFSET_TABLE_+0x180>
  402ab6:	68 2d 00 00 00       	pushq  $0x2d
  402abb:	e9 10 fd ff ff       	jmpq   4027d0 <_init+0x18>

0000000000402ac0 <omp_set_num_threads@plt>:
  402ac0:	ff 25 aa f6 20 00    	jmpq   *0x20f6aa(%rip)        # 612170 <_GLOBAL_OFFSET_TABLE_+0x188>
  402ac6:	68 2e 00 00 00       	pushq  $0x2e
  402acb:	e9 00 fd ff ff       	jmpq   4027d0 <_init+0x18>

0000000000402ad0 <_ZNSsC1EPKcRKSaIcE@plt>:
  402ad0:	ff 25 a2 f6 20 00    	jmpq   *0x20f6a2(%rip)        # 612178 <_GLOBAL_OFFSET_TABLE_+0x190>
  402ad6:	68 2f 00 00 00       	pushq  $0x2f
  402adb:	e9 f0 fc ff ff       	jmpq   4027d0 <_init+0x18>

0000000000402ae0 <_ZSt16__ostream_insertIcSt11char_traitsIcEERSt13basic_ostreamIT_T0_ES6_PKS3_l@plt>:
  402ae0:	ff 25 9a f6 20 00    	jmpq   *0x20f69a(%rip)        # 612180 <_GLOBAL_OFFSET_TABLE_+0x198>
  402ae6:	68 30 00 00 00       	pushq  $0x30
  402aeb:	e9 e0 fc ff ff       	jmpq   4027d0 <_init+0x18>

0000000000402af0 <_ZNKSt5ctypeIcE13_M_widen_initEv@plt>:
  402af0:	ff 25 92 f6 20 00    	jmpq   *0x20f692(%rip)        # 612188 <_GLOBAL_OFFSET_TABLE_+0x1a0>
  402af6:	68 31 00 00 00       	pushq  $0x31
  402afb:	e9 d0 fc ff ff       	jmpq   4027d0 <_init+0x18>

0000000000402b00 <_ZSt18_Rb_tree_incrementPKSt18_Rb_tree_node_base@plt>:
  402b00:	ff 25 8a f6 20 00    	jmpq   *0x20f68a(%rip)        # 612190 <_GLOBAL_OFFSET_TABLE_+0x1a8>
  402b06:	68 32 00 00 00       	pushq  $0x32
  402b0b:	e9 c0 fc ff ff       	jmpq   4027d0 <_init+0x18>

0000000000402b10 <_ZNSt11logic_errorD1Ev@plt>:
  402b10:	ff 25 82 f6 20 00    	jmpq   *0x20f682(%rip)        # 612198 <_GLOBAL_OFFSET_TABLE_+0x1b0>
  402b16:	68 33 00 00 00       	pushq  $0x33
  402b1b:	e9 b0 fc ff ff       	jmpq   4027d0 <_init+0x18>

0000000000402b20 <_ZNSt14basic_ofstreamIcSt11char_traitsIcEE4openERKSsSt13_Ios_Openmode@plt>:
  402b20:	ff 25 7a f6 20 00    	jmpq   *0x20f67a(%rip)        # 6121a0 <_GLOBAL_OFFSET_TABLE_+0x1b8>
  402b26:	68 34 00 00 00       	pushq  $0x34
  402b2b:	e9 a0 fc ff ff       	jmpq   4027d0 <_init+0x18>

0000000000402b30 <__cxa_get_exception_ptr@plt>:
  402b30:	ff 25 72 f6 20 00    	jmpq   *0x20f672(%rip)        # 6121a8 <_GLOBAL_OFFSET_TABLE_+0x1c0>
  402b36:	68 35 00 00 00       	pushq  $0x35
  402b3b:	e9 90 fc ff ff       	jmpq   4027d0 <_init+0x18>

0000000000402b40 <_ZSt16__throw_bad_castv@plt>:
  402b40:	ff 25 6a f6 20 00    	jmpq   *0x20f66a(%rip)        # 6121b0 <_GLOBAL_OFFSET_TABLE_+0x1c8>
  402b46:	68 36 00 00 00       	pushq  $0x36
  402b4b:	e9 80 fc ff ff       	jmpq   4027d0 <_init+0x18>

0000000000402b50 <__cxa_call_unexpected@plt>:
  402b50:	ff 25 62 f6 20 00    	jmpq   *0x20f662(%rip)        # 6121b8 <_GLOBAL_OFFSET_TABLE_+0x1d0>
  402b56:	68 37 00 00 00       	pushq  $0x37
  402b5b:	e9 70 fc ff ff       	jmpq   4027d0 <_init+0x18>

0000000000402b60 <_ZdaPv@plt>:
  402b60:	ff 25 5a f6 20 00    	jmpq   *0x20f65a(%rip)        # 6121c0 <_GLOBAL_OFFSET_TABLE_+0x1d8>
  402b66:	68 38 00 00 00       	pushq  $0x38
  402b6b:	e9 60 fc ff ff       	jmpq   4027d0 <_init+0x18>

0000000000402b70 <_ZNSs6assignERKSs@plt>:
  402b70:	ff 25 52 f6 20 00    	jmpq   *0x20f652(%rip)        # 6121c8 <_GLOBAL_OFFSET_TABLE_+0x1e0>
  402b76:	68 39 00 00 00       	pushq  $0x39
  402b7b:	e9 50 fc ff ff       	jmpq   4027d0 <_init+0x18>

0000000000402b80 <_ZNSt9basic_iosIcSt11char_traitsIcEE4initEPSt15basic_streambufIcS1_E@plt>:
  402b80:	ff 25 4a f6 20 00    	jmpq   *0x20f64a(%rip)        # 6121d0 <_GLOBAL_OFFSET_TABLE_+0x1e8>
  402b86:	68 3a 00 00 00       	pushq  $0x3a
  402b8b:	e9 40 fc ff ff       	jmpq   4027d0 <_init+0x18>

0000000000402b90 <_ZNSt6localeD1Ev@plt>:
  402b90:	ff 25 42 f6 20 00    	jmpq   *0x20f642(%rip)        # 6121d8 <_GLOBAL_OFFSET_TABLE_+0x1f0>
  402b96:	68 3b 00 00 00       	pushq  $0x3b
  402b9b:	e9 30 fc ff ff       	jmpq   4027d0 <_init+0x18>

0000000000402ba0 <_ZNSt14basic_ofstreamIcSt11char_traitsIcEE5closeEv@plt>:
  402ba0:	ff 25 3a f6 20 00    	jmpq   *0x20f63a(%rip)        # 6121e0 <_GLOBAL_OFFSET_TABLE_+0x1f8>
  402ba6:	68 3c 00 00 00       	pushq  $0x3c
  402bab:	e9 20 fc ff ff       	jmpq   4027d0 <_init+0x18>

0000000000402bb0 <_ZSt20__throw_out_of_rangePKc@plt>:
  402bb0:	ff 25 32 f6 20 00    	jmpq   *0x20f632(%rip)        # 6121e8 <_GLOBAL_OFFSET_TABLE_+0x200>
  402bb6:	68 3d 00 00 00       	pushq  $0x3d
  402bbb:	e9 10 fc ff ff       	jmpq   4027d0 <_init+0x18>

0000000000402bc0 <__cxa_rethrow@plt>:
  402bc0:	ff 25 2a f6 20 00    	jmpq   *0x20f62a(%rip)        # 6121f0 <_GLOBAL_OFFSET_TABLE_+0x208>
  402bc6:	68 3e 00 00 00       	pushq  $0x3e
  402bcb:	e9 00 fc ff ff       	jmpq   4027d0 <_init+0x18>

0000000000402bd0 <_ZNSt14basic_ofstreamIcSt11char_traitsIcEED1Ev@plt>:
  402bd0:	ff 25 22 f6 20 00    	jmpq   *0x20f622(%rip)        # 6121f8 <_GLOBAL_OFFSET_TABLE_+0x210>
  402bd6:	68 3f 00 00 00       	pushq  $0x3f
  402bdb:	e9 f0 fb ff ff       	jmpq   4027d0 <_init+0x18>

0000000000402be0 <_ZNSt18basic_stringstreamIcSt11char_traitsIcESaIcEED1Ev@plt>:
  402be0:	ff 25 1a f6 20 00    	jmpq   *0x20f61a(%rip)        # 612200 <_GLOBAL_OFFSET_TABLE_+0x218>
  402be6:	68 40 00 00 00       	pushq  $0x40
  402beb:	e9 e0 fb ff ff       	jmpq   4027d0 <_init+0x18>

0000000000402bf0 <_ZNSt8ios_base4InitC1Ev@plt>:
  402bf0:	ff 25 12 f6 20 00    	jmpq   *0x20f612(%rip)        # 612208 <_GLOBAL_OFFSET_TABLE_+0x220>
  402bf6:	68 41 00 00 00       	pushq  $0x41
  402bfb:	e9 d0 fb ff ff       	jmpq   4027d0 <_init+0x18>

0000000000402c00 <_ZNSsC1ERKSsmm@plt>:
  402c00:	ff 25 0a f6 20 00    	jmpq   *0x20f60a(%rip)        # 612210 <_GLOBAL_OFFSET_TABLE_+0x228>
  402c06:	68 42 00 00 00       	pushq  $0x42
  402c0b:	e9 c0 fb ff ff       	jmpq   4027d0 <_init+0x18>

0000000000402c10 <_ZNSt13basic_filebufIcSt11char_traitsIcEED1Ev@plt>:
  402c10:	ff 25 02 f6 20 00    	jmpq   *0x20f602(%rip)        # 612218 <_GLOBAL_OFFSET_TABLE_+0x230>
  402c16:	68 43 00 00 00       	pushq  $0x43
  402c1b:	e9 b0 fb ff ff       	jmpq   4027d0 <_init+0x18>

0000000000402c20 <omp_get_thread_num@plt>:
  402c20:	ff 25 fa f5 20 00    	jmpq   *0x20f5fa(%rip)        # 612220 <_GLOBAL_OFFSET_TABLE_+0x238>
  402c26:	68 44 00 00 00       	pushq  $0x44
  402c2b:	e9 a0 fb ff ff       	jmpq   4027d0 <_init+0x18>

0000000000402c30 <__cxa_end_catch@plt>:
  402c30:	ff 25 f2 f5 20 00    	jmpq   *0x20f5f2(%rip)        # 612228 <_GLOBAL_OFFSET_TABLE_+0x240>
  402c36:	68 45 00 00 00       	pushq  $0x45
  402c3b:	e9 90 fb ff ff       	jmpq   4027d0 <_init+0x18>

0000000000402c40 <__gxx_personality_v0@plt>:
  402c40:	ff 25 ea f5 20 00    	jmpq   *0x20f5ea(%rip)        # 612230 <_GLOBAL_OFFSET_TABLE_+0x248>
  402c46:	68 46 00 00 00       	pushq  $0x46
  402c4b:	e9 80 fb ff ff       	jmpq   4027d0 <_init+0x18>

0000000000402c50 <__pthread_key_create@plt>:
  402c50:	ff 25 e2 f5 20 00    	jmpq   *0x20f5e2(%rip)        # 612238 <_GLOBAL_OFFSET_TABLE_+0x250>
  402c56:	68 47 00 00 00       	pushq  $0x47
  402c5b:	e9 70 fb ff ff       	jmpq   4027d0 <_init+0x18>

0000000000402c60 <omp_get_max_threads@plt>:
  402c60:	ff 25 da f5 20 00    	jmpq   *0x20f5da(%rip)        # 612240 <_GLOBAL_OFFSET_TABLE_+0x258>
  402c66:	68 48 00 00 00       	pushq  $0x48
  402c6b:	e9 60 fb ff ff       	jmpq   4027d0 <_init+0x18>

0000000000402c70 <_ZNSt9basic_iosIcSt11char_traitsIcEE5clearESt12_Ios_Iostate@plt>:
  402c70:	ff 25 d2 f5 20 00    	jmpq   *0x20f5d2(%rip)        # 612248 <_GLOBAL_OFFSET_TABLE_+0x260>
  402c76:	68 49 00 00 00       	pushq  $0x49
  402c7b:	e9 50 fb ff ff       	jmpq   4027d0 <_init+0x18>

0000000000402c80 <_ZNSt14basic_ofstreamIcSt11char_traitsIcEEC1Ev@plt>:
  402c80:	ff 25 ca f5 20 00    	jmpq   *0x20f5ca(%rip)        # 612250 <_GLOBAL_OFFSET_TABLE_+0x268>
  402c86:	68 4a 00 00 00       	pushq  $0x4a
  402c8b:	e9 40 fb ff ff       	jmpq   4027d0 <_init+0x18>

0000000000402c90 <__cxa_throw@plt>:
  402c90:	ff 25 c2 f5 20 00    	jmpq   *0x20f5c2(%rip)        # 612258 <_GLOBAL_OFFSET_TABLE_+0x270>
  402c96:	68 4b 00 00 00       	pushq  $0x4b
  402c9b:	e9 30 fb ff ff       	jmpq   4027d0 <_init+0x18>

0000000000402ca0 <_ZNSolsEi@plt>:
  402ca0:	ff 25 ba f5 20 00    	jmpq   *0x20f5ba(%rip)        # 612260 <_GLOBAL_OFFSET_TABLE_+0x278>
  402ca6:	68 4c 00 00 00       	pushq  $0x4c
  402cab:	e9 20 fb ff ff       	jmpq   4027d0 <_init+0x18>

0000000000402cb0 <_Unwind_Resume@plt>:
  402cb0:	ff 25 b2 f5 20 00    	jmpq   *0x20f5b2(%rip)        # 612268 <_GLOBAL_OFFSET_TABLE_+0x280>
  402cb6:	68 4d 00 00 00       	pushq  $0x4d
  402cbb:	e9 10 fb ff ff       	jmpq   4027d0 <_init+0x18>

0000000000402cc0 <_ZNSt9exceptionD2Ev@plt>:
  402cc0:	ff 25 aa f5 20 00    	jmpq   *0x20f5aa(%rip)        # 612270 <_GLOBAL_OFFSET_TABLE_+0x288>
  402cc6:	68 4e 00 00 00       	pushq  $0x4e
  402ccb:	e9 00 fb ff ff       	jmpq   4027d0 <_init+0x18>

0000000000402cd0 <_ZNSt12__basic_fileIcED1Ev@plt>:
  402cd0:	ff 25 a2 f5 20 00    	jmpq   *0x20f5a2(%rip)        # 612278 <_GLOBAL_OFFSET_TABLE_+0x290>
  402cd6:	68 4f 00 00 00       	pushq  $0x4f
  402cdb:	e9 f0 fa ff ff       	jmpq   4027d0 <_init+0x18>

0000000000402ce0 <__libc_start_main@plt>:
  402ce0:	ff 25 9a f5 20 00    	jmpq   *0x20f59a(%rip)        # 612280 <_GLOBAL_OFFSET_TABLE_+0x298>
  402ce6:	68 50 00 00 00       	pushq  $0x50
  402ceb:	e9 e0 fa ff ff       	jmpq   4027d0 <_init+0x18>

0000000000402cf0 <omp_get_num_threads@plt>:
  402cf0:	ff 25 92 f5 20 00    	jmpq   *0x20f592(%rip)        # 612288 <_GLOBAL_OFFSET_TABLE_+0x2a0>
  402cf6:	68 51 00 00 00       	pushq  $0x51
  402cfb:	e9 d0 fa ff ff       	jmpq   4027d0 <_init+0x18>

0000000000402d00 <__cxa_pure_virtual@plt>:
  402d00:	ff 25 8a f5 20 00    	jmpq   *0x20f58a(%rip)        # 612290 <_GLOBAL_OFFSET_TABLE_+0x2a8>
  402d06:	68 52 00 00 00       	pushq  $0x52
  402d0b:	e9 c0 fa ff ff       	jmpq   4027d0 <_init+0x18>

0000000000402d10 <_ZNSs4_Rep9_S_createEmmRKSaIcE@plt>:
  402d10:	ff 25 82 f5 20 00    	jmpq   *0x20f582(%rip)        # 612298 <_GLOBAL_OFFSET_TABLE_+0x2b0>
  402d16:	68 53 00 00 00       	pushq  $0x53
  402d1b:	e9 b0 fa ff ff       	jmpq   4027d0 <_init+0x18>

0000000000402d20 <_ZNKSt9exception4whatEv@plt>:
  402d20:	ff 25 7a f5 20 00    	jmpq   *0x20f57a(%rip)        # 6122a0 <_GLOBAL_OFFSET_TABLE_+0x2b8>
  402d26:	68 54 00 00 00       	pushq  $0x54
  402d2b:	e9 a0 fa ff ff       	jmpq   4027d0 <_init+0x18>

0000000000402d30 <_ZNSi10_M_extractIfEERSiRT_@plt>:
  402d30:	ff 25 72 f5 20 00    	jmpq   *0x20f572(%rip)        # 6122a8 <_GLOBAL_OFFSET_TABLE_+0x2c0>
  402d36:	68 55 00 00 00       	pushq  $0x55
  402d3b:	e9 90 fa ff ff       	jmpq   4027d0 <_init+0x18>

0000000000402d40 <_ZNSt6localeC1Ev@plt>:
  402d40:	ff 25 6a f5 20 00    	jmpq   *0x20f56a(%rip)        # 6122b0 <_GLOBAL_OFFSET_TABLE_+0x2c8>
  402d46:	68 56 00 00 00       	pushq  $0x56
  402d4b:	e9 80 fa ff ff       	jmpq   4027d0 <_init+0x18>

0000000000402d50 <_ZNSt8ios_base4InitD1Ev@plt>:
  402d50:	ff 25 62 f5 20 00    	jmpq   *0x20f562(%rip)        # 6122b8 <_GLOBAL_OFFSET_TABLE_+0x2d0>
  402d56:	68 57 00 00 00       	pushq  $0x57
  402d5b:	e9 70 fa ff ff       	jmpq   4027d0 <_init+0x18>

Disassembly of section .text:

0000000000402d60 <main>:
  402d60:	41 56                	push   %r14
  402d62:	48 89 f2             	mov    %rsi,%rdx
  402d65:	41 55                	push   %r13
  402d67:	41 54                	push   %r12
  402d69:	55                   	push   %rbp
  402d6a:	53                   	push   %rbx
  402d6b:	48 89 f3             	mov    %rsi,%rbx
  402d6e:	89 fe                	mov    %edi,%esi
  402d70:	48 81 ec f0 04 00 00 	sub    $0x4f0,%rsp
  402d77:	48 8d bc 24 c0 01 00 	lea    0x1c0(%rsp),%rdi
  402d7e:	00 
  402d7f:	64 48 8b 04 25 28 00 	mov    %fs:0x28,%rax
  402d86:	00 00 
  402d88:	48 89 84 24 e8 04 00 	mov    %rax,0x4e8(%rsp)
  402d8f:	00 
  402d90:	31 c0                	xor    %eax,%eax
  402d92:	e8 99 58 00 00       	callq  408630 <_ZN6GetOpt9GetOpt_ppC1EiPKPKc>
  402d97:	48 8d 94 24 90 01 00 	lea    0x190(%rsp),%rdx
  402d9e:	00 
  402d9f:	48 8d 7c 24 10       	lea    0x10(%rsp),%rdi
  402da4:	be 6d f5 40 00       	mov    $0x40f56d,%esi
  402da9:	c7 84 24 20 02 00 00 	movl   $0x6,0x220(%rsp)
  402db0:	06 00 00 00 
  402db4:	e8 17 fd ff ff       	callq  402ad0 <_ZNSsC1EPKcRKSaIcE@plt>
  402db9:	48 8d 84 24 60 01 00 	lea    0x160(%rsp),%rax
  402dc0:	00 
  402dc1:	48 8d 74 24 10       	lea    0x10(%rsp),%rsi
  402dc6:	48 c7 84 24 60 01 00 	movq   $0x40fa90,0x160(%rsp)
  402dcd:	00 90 fa 40 00 
  402dd2:	c6 84 24 68 01 00 00 	movb   $0x73,0x168(%rsp)
  402dd9:	73 
  402dda:	48 8d 78 10          	lea    0x10(%rax),%rdi
  402dde:	e8 2d fb ff ff       	callq  402910 <_ZNSsC1ERKSs@plt>
  402de3:	48 8d b4 24 60 01 00 	lea    0x160(%rsp),%rsi
  402dea:	00 
  402deb:	48 8d bc 24 c0 01 00 	lea    0x1c0(%rsp),%rdi
  402df2:	00 
  402df3:	48 c7 84 24 78 01 00 	movq   $0x612960,0x178(%rsp)
  402dfa:	00 60 29 61 00 
  402dff:	48 c7 84 24 60 01 00 	movq   $0x40fad0,0x160(%rsp)
  402e06:	00 d0 fa 40 00 
  402e0b:	c7 84 24 80 01 00 00 	movl   $0x64,0x180(%rsp)
  402e12:	64 00 00 00 
  402e16:	e8 c5 23 00 00       	callq  4051e0 <_ZN6GetOpt9GetOpt_pprsERKNS_7_OptionE>
  402e1b:	48 8b 84 24 70 01 00 	mov    0x170(%rsp),%rax
  402e22:	00 
  402e23:	48 8d ac 24 50 02 00 	lea    0x250(%rsp),%rbp
  402e2a:	00 
  402e2b:	48 c7 84 24 60 01 00 	movq   $0x40fa90,0x160(%rsp)
  402e32:	00 90 fa 40 00 
  402e37:	48 89 ee             	mov    %rbp,%rsi
  402e3a:	48 8d 78 e8          	lea    -0x18(%rax),%rdi
  402e3e:	e8 fd fa ff ff       	callq  402940 <_ZNSs4_Rep10_M_disposeERKSaIcE@plt>
  402e43:	48 8b 44 24 10       	mov    0x10(%rsp),%rax
  402e48:	48 89 ee             	mov    %rbp,%rsi
  402e4b:	48 8d 78 e8          	lea    -0x18(%rax),%rdi
  402e4f:	e8 ec fa ff ff       	callq  402940 <_ZNSs4_Rep10_M_disposeERKSaIcE@plt>
  402e54:	48 8d 94 24 60 01 00 	lea    0x160(%rsp),%rdx
  402e5b:	00 
  402e5c:	48 8d 7c 24 20       	lea    0x20(%rsp),%rdi
  402e61:	be 73 f5 40 00       	mov    $0x40f573,%esi
  402e66:	e8 65 fc ff ff       	callq  402ad0 <_ZNSsC1EPKcRKSaIcE@plt>
  402e6b:	48 8d 84 24 90 01 00 	lea    0x190(%rsp),%rax
  402e72:	00 
  402e73:	48 8d 74 24 20       	lea    0x20(%rsp),%rsi
  402e78:	48 c7 84 24 90 01 00 	movq   $0x40fa90,0x190(%rsp)
  402e7f:	00 90 fa 40 00 
  402e84:	c6 84 24 98 01 00 00 	movb   $0x72,0x198(%rsp)
  402e8b:	72 
  402e8c:	48 8d 78 10          	lea    0x10(%rax),%rdi
  402e90:	e8 7b fa ff ff       	callq  402910 <_ZNSsC1ERKSs@plt>
  402e95:	48 8d b4 24 90 01 00 	lea    0x190(%rsp),%rsi
  402e9c:	00 
  402e9d:	48 8d bc 24 c0 01 00 	lea    0x1c0(%rsp),%rdi
  402ea4:	00 
  402ea5:	48 c7 84 24 a8 01 00 	movq   $0x612950,0x1a8(%rsp)
  402eac:	00 50 29 61 00 
  402eb1:	48 c7 84 24 90 01 00 	movq   $0x40fad0,0x190(%rsp)
  402eb8:	00 d0 fa 40 00 
  402ebd:	c7 84 24 b0 01 00 00 	movl   $0x3,0x1b0(%rsp)
  402ec4:	03 00 00 00 
  402ec8:	e8 13 23 00 00       	callq  4051e0 <_ZN6GetOpt9GetOpt_pprsERKNS_7_OptionE>
  402ecd:	48 8b 84 24 a0 01 00 	mov    0x1a0(%rsp),%rax
  402ed4:	00 
  402ed5:	48 89 ee             	mov    %rbp,%rsi
  402ed8:	48 c7 84 24 90 01 00 	movq   $0x40fa90,0x190(%rsp)
  402edf:	00 90 fa 40 00 
  402ee4:	48 8d 78 e8          	lea    -0x18(%rax),%rdi
  402ee8:	e8 53 fa ff ff       	callq  402940 <_ZNSs4_Rep10_M_disposeERKSaIcE@plt>
  402eed:	48 8b 44 24 20       	mov    0x20(%rsp),%rax
  402ef2:	48 89 ee             	mov    %rbp,%rsi
  402ef5:	48 8d 78 e8          	lea    -0x18(%rax),%rdi
  402ef9:	e8 42 fa ff ff       	callq  402940 <_ZNSs4_Rep10_M_disposeERKSaIcE@plt>
  402efe:	48 8d 94 24 60 01 00 	lea    0x160(%rsp),%rdx
  402f05:	00 
  402f06:	48 8d 7c 24 30       	lea    0x30(%rsp),%rdi
  402f0b:	be 7a f5 40 00       	mov    $0x40f57a,%esi
  402f10:	e8 bb fb ff ff       	callq  402ad0 <_ZNSsC1EPKcRKSaIcE@plt>
  402f15:	48 8d 7d 10          	lea    0x10(%rbp),%rdi
  402f19:	48 8d 74 24 30       	lea    0x30(%rsp),%rsi
  402f1e:	48 c7 84 24 50 02 00 	movq   $0x40fb10,0x250(%rsp)
  402f25:	00 10 fb 40 00 
  402f2a:	c6 84 24 58 02 00 00 	movb   $0x68,0x258(%rsp)
  402f31:	68 
  402f32:	e8 d9 f9 ff ff       	callq  402910 <_ZNSsC1ERKSs@plt>
  402f37:	f2 0f 10 05 71 cc 00 	movsd  0xcc71(%rip),%xmm0        # 40fbb0 <_ZTVN6GetOpt13_DefValOptionIdNS_8_OptionTIdEEEE+0x70>
  402f3e:	00 
  402f3f:	48 8d bc 24 c0 01 00 	lea    0x1c0(%rsp),%rdi
  402f46:	00 
  402f47:	48 89 ee             	mov    %rbp,%rsi
  402f4a:	48 c7 84 24 68 02 00 	movq   $0x612948,0x268(%rsp)
  402f51:	00 48 29 61 00 
  402f56:	48 c7 84 24 50 02 00 	movq   $0x40fb50,0x250(%rsp)
  402f5d:	00 50 fb 40 00 
  402f62:	f2 0f 11 84 24 70 02 	movsd  %xmm0,0x270(%rsp)
  402f69:	00 00 
  402f6b:	e8 70 22 00 00       	callq  4051e0 <_ZN6GetOpt9GetOpt_pprsERKNS_7_OptionE>
  402f70:	48 8b 84 24 60 02 00 	mov    0x260(%rsp),%rax
  402f77:	00 
  402f78:	48 8d b4 24 90 01 00 	lea    0x190(%rsp),%rsi
  402f7f:	00 
  402f80:	48 c7 84 24 50 02 00 	movq   $0x40fb10,0x250(%rsp)
  402f87:	00 10 fb 40 00 
  402f8c:	48 8d 78 e8          	lea    -0x18(%rax),%rdi
  402f90:	e8 ab f9 ff ff       	callq  402940 <_ZNSs4_Rep10_M_disposeERKSaIcE@plt>
  402f95:	48 8b 44 24 30       	mov    0x30(%rsp),%rax
  402f9a:	48 89 ee             	mov    %rbp,%rsi
  402f9d:	48 8d 78 e8          	lea    -0x18(%rax),%rdi
  402fa1:	e8 9a f9 ff ff       	callq  402940 <_ZNSs4_Rep10_M_disposeERKSaIcE@plt>
  402fa6:	48 8d 7c 24 40       	lea    0x40(%rsp),%rdi
  402fab:	48 89 ea             	mov    %rbp,%rdx
  402fae:	be 7f f5 40 00       	mov    $0x40f57f,%esi
  402fb3:	e8 18 fb ff ff       	callq  402ad0 <_ZNSsC1EPKcRKSaIcE@plt>
  402fb8:	48 8b 74 24 40       	mov    0x40(%rsp),%rsi
  402fbd:	48 89 ea             	mov    %rbp,%rdx
  402fc0:	bf 01 00 00 00       	mov    $0x1,%edi
  402fc5:	e8 a6 fa ff ff       	callq  402a70 <__xstat@plt>
  402fca:	85 c0                	test   %eax,%eax
  402fcc:	74 63                	je     403031 <main+0x2d1>
  402fce:	48 8b 44 24 40       	mov    0x40(%rsp),%rax
  402fd3:	48 8d 7c 24 50       	lea    0x50(%rsp),%rdi
  402fd8:	48 c7 44 24 50 18 23 	movq   $0x612318,0x50(%rsp)
  402fdf:	61 00 
  402fe1:	48 8b 70 e8          	mov    -0x18(%rax),%rsi
  402fe5:	48 83 c6 06          	add    $0x6,%rsi
  402fe9:	e8 c2 f9 ff ff       	callq  4029b0 <_ZNSs7reserveEm@plt>
  402fee:	48 8d 7c 24 50       	lea    0x50(%rsp),%rdi
  402ff3:	ba 06 00 00 00       	mov    $0x6,%edx
  402ff8:	be 8f f5 40 00       	mov    $0x40f58f,%esi
  402ffd:	e8 0e f8 ff ff       	callq  402810 <_ZNSs6appendEPKcm@plt>
  403002:	48 8d 74 24 40       	lea    0x40(%rsp),%rsi
  403007:	48 8d 7c 24 50       	lea    0x50(%rsp),%rdi
  40300c:	e8 8f fa ff ff       	callq  402aa0 <_ZNSs6appendERKSs@plt>
  403011:	48 8b 7c 24 50       	mov    0x50(%rsp),%rdi
  403016:	e8 d5 f9 ff ff       	callq  4029f0 <system@plt>
  40301b:	48 8b 44 24 50       	mov    0x50(%rsp),%rax
  403020:	48 8d b4 24 90 01 00 	lea    0x190(%rsp),%rsi
  403027:	00 
  403028:	48 8d 78 e8          	lea    -0x18(%rax),%rdi
  40302c:	e8 0f f9 ff ff       	callq  402940 <_ZNSs4_Rep10_M_disposeERKSaIcE@plt>
  403031:	48 8d bc 24 e0 02 00 	lea    0x2e0(%rsp),%rdi
  403038:	00 
  403039:	e8 42 fc ff ff       	callq  402c80 <_ZNSt14basic_ofstreamIcSt11char_traitsIcEEC1Ev@plt>
  40303e:	48 8d 74 24 40       	lea    0x40(%rsp),%rsi
  403043:	48 8d bc 24 90 01 00 	lea    0x190(%rsp),%rdi
  40304a:	00 
  40304b:	ba 96 f5 40 00       	mov    $0x40f596,%edx
  403050:	e8 bb 6f 00 00       	callq  40a010 <_ZStplIcSt11char_traitsIcESaIcEESbIT_T0_T1_ERKS6_PKS3_>
  403055:	48 8b b4 24 90 01 00 	mov    0x190(%rsp),%rsi
  40305c:	00 
  40305d:	48 89 ea             	mov    %rbp,%rdx
  403060:	bf 01 00 00 00       	mov    $0x1,%edi
  403065:	e8 06 fa ff ff       	callq  402a70 <__xstat@plt>
  40306a:	48 8d b4 24 90 01 00 	lea    0x190(%rsp),%rsi
  403071:	00 
  403072:	48 8d bc 24 e0 02 00 	lea    0x2e0(%rsp),%rdi
  403079:	00 
  40307a:	ba 01 00 00 00       	mov    $0x1,%edx
  40307f:	89 c3                	mov    %eax,%ebx
  403081:	e8 9a fa ff ff       	callq  402b20 <_ZNSt14basic_ofstreamIcSt11char_traitsIcEE4openERKSsSt13_Ios_Openmode@plt>
  403086:	85 db                	test   %ebx,%ebx
  403088:	74 1a                	je     4030a4 <main+0x344>
  40308a:	48 8d bc 24 e0 02 00 	lea    0x2e0(%rsp),%rdi
  403091:	00 
  403092:	be 48 f7 40 00       	mov    $0x40f748,%esi
  403097:	e8 b4 f9 ff ff       	callq  402a50 <_ZStlsISt11char_traitsIcEERSt13basic_ostreamIcT_ES5_PKc@plt>
  40309c:	48 89 c7             	mov    %rax,%rdi
  40309f:	e8 1c f8 ff ff       	callq  4028c0 <_ZSt4endlIcSt11char_traitsIcEERSt13basic_ostreamIT_T0_ES6_@plt>
  4030a4:	48 8d 7c 24 60       	lea    0x60(%rsp),%rdi
  4030a9:	41 b8 64 00 00 00    	mov    $0x64,%r8d
  4030af:	b9 09 f5 40 00       	mov    $0x40f509,%ecx
  4030b4:	ba 10 00 00 00       	mov    $0x10,%edx
  4030b9:	be 50 29 40 00       	mov    $0x402950,%esi
  4030be:	31 c0                	xor    %eax,%eax
  4030c0:	e8 ab 6a 00 00       	callq  409b70 <_ZN9__gnu_cxx12__to_xstringISscEET_PFiPT0_mPKS2_P13__va_list_tagEmS5_z.constprop.69>
  4030c5:	48 8b 84 24 e0 02 00 	mov    0x2e0(%rsp),%rax
  4030cc:	00 
  4030cd:	48 8d 9c 24 e0 02 00 	lea    0x2e0(%rsp),%rbx
  4030d4:	00 
  4030d5:	48 03 58 e8          	add    -0x18(%rax),%rbx
  4030d9:	48 89 df             	mov    %rbx,%rdi
  4030dc:	e8 ff f7 ff ff       	callq  4028e0 <_ZNKSt9basic_iosIcSt11char_traitsIcEE4fillEv@plt>
  4030e1:	c6 83 e0 00 00 00 20 	movb   $0x20,0xe0(%rbx)
  4030e8:	48 8b 84 24 e0 02 00 	mov    0x2e0(%rsp),%rax
  4030ef:	00 
  4030f0:	48 8d bc 24 e0 02 00 	lea    0x2e0(%rsp),%rdi
  4030f7:	00 
  4030f8:	48 8b 74 24 60       	mov    0x60(%rsp),%rsi
  4030fd:	48 8b 40 e8          	mov    -0x18(%rax),%rax
  403101:	48 c7 84 04 f0 02 00 	movq   $0x6,0x2f0(%rsp,%rax,1)
  403108:	00 06 00 00 00 
  40310d:	48 8b 56 e8          	mov    -0x18(%rsi),%rdx
  403111:	e8 ca f9 ff ff       	callq  402ae0 <_ZSt16__ostream_insertIcSt11char_traitsIcEERSt13basic_ostreamIT_T0_ES6_PKS3_l@plt>
  403116:	48 8b 44 24 60       	mov    0x60(%rsp),%rax
  40311b:	48 89 ee             	mov    %rbp,%rsi
  40311e:	41 be 06 00 00 00    	mov    $0x6,%r14d
  403124:	41 bd 01 00 00 00    	mov    $0x1,%r13d
  40312a:	48 8d 78 e8          	lea    -0x18(%rax),%rdi
  40312e:	e8 0d f8 ff ff       	callq  402940 <_ZNSs4_Rep10_M_disposeERKSaIcE@plt>
  403133:	e9 e3 00 00 00       	jmpq   40321b <main+0x4bb>
  403138:	0f 1f 84 00 00 00 00 	nopl   0x0(%rax,%rax,1)
  40313f:	00 
  403140:	41 0f b6 44 24 43    	movzbl 0x43(%r12),%eax
  403146:	0f be f0             	movsbl %al,%esi
  403149:	48 89 df             	mov    %rbx,%rdi
  40314c:	e8 8f f6 ff ff       	callq  4027e0 <_ZNSo3putEc@plt>
  403151:	48 89 c7             	mov    %rax,%rdi
  403154:	e8 17 f8 ff ff       	callq  402970 <_ZNSo5flushEv@plt>
  403159:	44 89 ef             	mov    %r13d,%edi
  40315c:	e8 af 77 00 00       	callq  40a910 <_Z9benchmarkIfLl100EEmi>
  403161:	48 8d 7c 24 70       	lea    0x70(%rsp),%rdi
  403166:	41 89 c0             	mov    %eax,%r8d
  403169:	b9 09 f5 40 00       	mov    $0x40f509,%ecx
  40316e:	ba 10 00 00 00       	mov    $0x10,%edx
  403173:	be 50 29 40 00       	mov    $0x402950,%esi
  403178:	31 c0                	xor    %eax,%eax
  40317a:	e8 f1 69 00 00       	callq  409b70 <_ZN9__gnu_cxx12__to_xstringISscEET_PFiPT0_mPKS2_P13__va_list_tagEmS5_z.constprop.69>
  40317f:	48 8b 94 24 e0 02 00 	mov    0x2e0(%rsp),%rdx
  403186:	00 
  403187:	48 8d 9c 24 e0 02 00 	lea    0x2e0(%rsp),%rbx
  40318e:	00 
  40318f:	48 03 5a e8          	add    -0x18(%rdx),%rbx
  403193:	80 bb e1 00 00 00 00 	cmpb   $0x0,0xe1(%rbx)
  40319a:	75 2f                	jne    4031cb <main+0x46b>
  40319c:	4c 8b a3 f0 00 00 00 	mov    0xf0(%rbx),%r12
  4031a3:	4d 85 e4             	test   %r12,%r12
  4031a6:	0f 84 5e 14 00 00    	je     40460a <main+0x18aa>
  4031ac:	41 80 7c 24 38 00    	cmpb   $0x0,0x38(%r12)
  4031b2:	0f 84 e0 00 00 00    	je     403298 <main+0x538>
  4031b8:	41 0f b6 44 24 59    	movzbl 0x59(%r12),%eax
  4031be:	88 83 e0 00 00 00    	mov    %al,0xe0(%rbx)
  4031c4:	c6 83 e1 00 00 00 01 	movb   $0x1,0xe1(%rbx)
  4031cb:	c6 83 e0 00 00 00 20 	movb   $0x20,0xe0(%rbx)
  4031d2:	48 8b 74 24 70       	mov    0x70(%rsp),%rsi
  4031d7:	48 8d bc 24 e0 02 00 	lea    0x2e0(%rsp),%rdi
  4031de:	00 
  4031df:	48 8b 42 e8          	mov    -0x18(%rdx),%rax
  4031e3:	48 c7 84 04 f0 02 00 	movq   $0x14,0x2f0(%rsp,%rax,1)
  4031ea:	00 14 00 00 00 
  4031ef:	48 8b 56 e8          	mov    -0x18(%rsi),%rdx
  4031f3:	e8 e8 f8 ff ff       	callq  402ae0 <_ZSt16__ostream_insertIcSt11char_traitsIcEERSt13basic_ostreamIT_T0_ES6_PKS3_l@plt>
  4031f8:	48 8b 44 24 70       	mov    0x70(%rsp),%rax
  4031fd:	48 8d 78 e8          	lea    -0x18(%rax),%rdi
  403201:	48 81 ff 00 23 61 00 	cmp    $0x612300,%rdi
  403208:	0f 85 20 13 00 00    	jne    40452e <main+0x17ce>
  40320e:	45 01 ed             	add    %r13d,%r13d
  403211:	41 83 ee 01          	sub    $0x1,%r14d
  403215:	0f 84 a5 00 00 00    	je     4032c0 <main+0x560>
  40321b:	ba 09 00 00 00       	mov    $0x9,%edx
  403220:	be b2 f5 40 00       	mov    $0x40f5b2,%esi
  403225:	bf e0 24 61 00       	mov    $0x6124e0,%edi
  40322a:	e8 b1 f8 ff ff       	callq  402ae0 <_ZSt16__ostream_insertIcSt11char_traitsIcEERSt13basic_ostreamIT_T0_ES6_PKS3_l@plt>
  40322f:	44 89 ee             	mov    %r13d,%esi
  403232:	bf e0 24 61 00       	mov    $0x6124e0,%edi
  403237:	e8 64 fa ff ff       	callq  402ca0 <_ZNSolsEi@plt>
  40323c:	ba 09 00 00 00       	mov    $0x9,%edx
  403241:	be 1f f5 40 00       	mov    $0x40f51f,%esi
  403246:	48 89 c7             	mov    %rax,%rdi
  403249:	48 89 c3             	mov    %rax,%rbx
  40324c:	e8 8f f8 ff ff       	callq  402ae0 <_ZSt16__ostream_insertIcSt11char_traitsIcEERSt13basic_ostreamIT_T0_ES6_PKS3_l@plt>
  403251:	48 8b 03             	mov    (%rbx),%rax
  403254:	48 8b 40 e8          	mov    -0x18(%rax),%rax
  403258:	4c 8b a4 03 f0 00 00 	mov    0xf0(%rbx,%rax,1),%r12
  40325f:	00 
  403260:	4d 85 e4             	test   %r12,%r12
  403263:	0f 84 f3 12 00 00    	je     40455c <main+0x17fc>
  403269:	41 80 7c 24 38 00    	cmpb   $0x0,0x38(%r12)
  40326f:	0f 85 cb fe ff ff    	jne    403140 <main+0x3e0>
  403275:	4c 89 e7             	mov    %r12,%rdi
  403278:	e8 73 f8 ff ff       	callq  402af0 <_ZNKSt5ctypeIcE13_M_widen_initEv@plt>
  40327d:	49 8b 04 24          	mov    (%r12),%rax
  403281:	be 0a 00 00 00       	mov    $0xa,%esi
  403286:	4c 89 e7             	mov    %r12,%rdi
  403289:	ff 50 30             	callq  *0x30(%rax)
  40328c:	e9 b5 fe ff ff       	jmpq   403146 <main+0x3e6>
  403291:	0f 1f 80 00 00 00 00 	nopl   0x0(%rax)
  403298:	4c 89 e7             	mov    %r12,%rdi
  40329b:	e8 50 f8 ff ff       	callq  402af0 <_ZNKSt5ctypeIcE13_M_widen_initEv@plt>
  4032a0:	49 8b 04 24          	mov    (%r12),%rax
  4032a4:	be 20 00 00 00       	mov    $0x20,%esi
  4032a9:	4c 89 e7             	mov    %r12,%rdi
  4032ac:	ff 50 30             	callq  *0x30(%rax)
  4032af:	48 8b 94 24 e0 02 00 	mov    0x2e0(%rsp),%rdx
  4032b6:	00 
  4032b7:	e9 02 ff ff ff       	jmpq   4031be <main+0x45e>
  4032bc:	0f 1f 40 00          	nopl   0x0(%rax)
  4032c0:	48 8d bc 24 e0 02 00 	lea    0x2e0(%rsp),%rdi
  4032c7:	00 
  4032c8:	e8 f3 f5 ff ff       	callq  4028c0 <_ZSt4endlIcSt11char_traitsIcEERSt13basic_ostreamIT_T0_ES6_@plt>
  4032cd:	48 8d bc 24 80 00 00 	lea    0x80(%rsp),%rdi
  4032d4:	00 
  4032d5:	41 b8 f4 01 00 00    	mov    $0x1f4,%r8d
  4032db:	b9 09 f5 40 00       	mov    $0x40f509,%ecx
  4032e0:	ba 10 00 00 00       	mov    $0x10,%edx
  4032e5:	be 50 29 40 00       	mov    $0x402950,%esi
  4032ea:	31 c0                	xor    %eax,%eax
  4032ec:	e8 7f 68 00 00       	callq  409b70 <_ZN9__gnu_cxx12__to_xstringISscEET_PFiPT0_mPKS2_P13__va_list_tagEmS5_z.constprop.69>
  4032f1:	48 8b 84 24 e0 02 00 	mov    0x2e0(%rsp),%rax
  4032f8:	00 
  4032f9:	48 8d 9c 24 e0 02 00 	lea    0x2e0(%rsp),%rbx
  403300:	00 
  403301:	48 03 58 e8          	add    -0x18(%rax),%rbx
  403305:	48 89 df             	mov    %rbx,%rdi
  403308:	e8 d3 f5 ff ff       	callq  4028e0 <_ZNKSt9basic_iosIcSt11char_traitsIcEE4fillEv@plt>
  40330d:	c6 83 e0 00 00 00 20 	movb   $0x20,0xe0(%rbx)
  403314:	48 8b 84 24 e0 02 00 	mov    0x2e0(%rsp),%rax
  40331b:	00 
  40331c:	48 8d bc 24 e0 02 00 	lea    0x2e0(%rsp),%rdi
  403323:	00 
  403324:	48 8b b4 24 80 00 00 	mov    0x80(%rsp),%rsi
  40332b:	00 
  40332c:	48 8b 40 e8          	mov    -0x18(%rax),%rax
  403330:	48 c7 84 04 f0 02 00 	movq   $0x6,0x2f0(%rsp,%rax,1)
  403337:	00 06 00 00 00 
  40333c:	48 8b 56 e8          	mov    -0x18(%rsi),%rdx
  403340:	e8 9b f7 ff ff       	callq  402ae0 <_ZSt16__ostream_insertIcSt11char_traitsIcEERSt13basic_ostreamIT_T0_ES6_PKS3_l@plt>
  403345:	48 8b 84 24 80 00 00 	mov    0x80(%rsp),%rax
  40334c:	00 
  40334d:	48 89 ee             	mov    %rbp,%rsi
  403350:	41 be 06 00 00 00    	mov    $0x6,%r14d
  403356:	41 bd 01 00 00 00    	mov    $0x1,%r13d
  40335c:	48 8d 78 e8          	lea    -0x18(%rax),%rdi
  403360:	e8 db f5 ff ff       	callq  402940 <_ZNSs4_Rep10_M_disposeERKSaIcE@plt>
  403365:	e9 ea 00 00 00       	jmpq   403454 <main+0x6f4>
  40336a:	66 0f 1f 44 00 00    	nopw   0x0(%rax,%rax,1)
  403370:	41 0f b6 44 24 43    	movzbl 0x43(%r12),%eax
  403376:	0f be f0             	movsbl %al,%esi
  403379:	48 89 df             	mov    %rbx,%rdi
  40337c:	e8 5f f4 ff ff       	callq  4027e0 <_ZNSo3putEc@plt>
  403381:	48 89 c7             	mov    %rax,%rdi
  403384:	e8 e7 f5 ff ff       	callq  402970 <_ZNSo5flushEv@plt>
  403389:	44 89 ef             	mov    %r13d,%edi
  40338c:	e8 2f 7e 00 00       	callq  40b1c0 <_Z9benchmarkIfLl500EEmi>
  403391:	48 8d bc 24 90 00 00 	lea    0x90(%rsp),%rdi
  403398:	00 
  403399:	41 89 c0             	mov    %eax,%r8d
  40339c:	b9 09 f5 40 00       	mov    $0x40f509,%ecx
  4033a1:	ba 10 00 00 00       	mov    $0x10,%edx
  4033a6:	be 50 29 40 00       	mov    $0x402950,%esi
  4033ab:	31 c0                	xor    %eax,%eax
  4033ad:	e8 be 67 00 00       	callq  409b70 <_ZN9__gnu_cxx12__to_xstringISscEET_PFiPT0_mPKS2_P13__va_list_tagEmS5_z.constprop.69>
  4033b2:	48 8b 94 24 e0 02 00 	mov    0x2e0(%rsp),%rdx
  4033b9:	00 
  4033ba:	48 8d 9c 24 e0 02 00 	lea    0x2e0(%rsp),%rbx
  4033c1:	00 
  4033c2:	48 03 5a e8          	add    -0x18(%rdx),%rbx
  4033c6:	80 bb e1 00 00 00 00 	cmpb   $0x0,0xe1(%rbx)
  4033cd:	75 2f                	jne    4033fe <main+0x69e>
  4033cf:	4c 8b a3 f0 00 00 00 	mov    0xf0(%rbx),%r12
  4033d6:	4d 85 e4             	test   %r12,%r12
  4033d9:	0f 84 0a 12 00 00    	je     4045e9 <main+0x1889>
  4033df:	41 80 7c 24 38 00    	cmpb   $0x0,0x38(%r12)
  4033e5:	0f 84 e5 00 00 00    	je     4034d0 <main+0x770>
  4033eb:	41 0f b6 44 24 59    	movzbl 0x59(%r12),%eax
  4033f1:	88 83 e0 00 00 00    	mov    %al,0xe0(%rbx)
  4033f7:	c6 83 e1 00 00 00 01 	movb   $0x1,0xe1(%rbx)
  4033fe:	c6 83 e0 00 00 00 20 	movb   $0x20,0xe0(%rbx)
  403405:	48 8b b4 24 90 00 00 	mov    0x90(%rsp),%rsi
  40340c:	00 
  40340d:	48 8d bc 24 e0 02 00 	lea    0x2e0(%rsp),%rdi
  403414:	00 
  403415:	48 8b 42 e8          	mov    -0x18(%rdx),%rax
  403419:	48 c7 84 04 f0 02 00 	movq   $0x14,0x2f0(%rsp,%rax,1)
  403420:	00 14 00 00 00 
  403425:	48 8b 56 e8          	mov    -0x18(%rsi),%rdx
  403429:	e8 b2 f6 ff ff       	callq  402ae0 <_ZSt16__ostream_insertIcSt11char_traitsIcEERSt13basic_ostreamIT_T0_ES6_PKS3_l@plt>
  40342e:	48 8b 84 24 90 00 00 	mov    0x90(%rsp),%rax
  403435:	00 
  403436:	48 8d 78 e8          	lea    -0x18(%rax),%rdi
  40343a:	48 81 ff 00 23 61 00 	cmp    $0x612300,%rdi
  403441:	0f 85 81 10 00 00    	jne    4044c8 <main+0x1768>
  403447:	45 01 ed             	add    %r13d,%r13d
  40344a:	41 83 ee 01          	sub    $0x1,%r14d
  40344e:	0f 84 a4 00 00 00    	je     4034f8 <main+0x798>
  403454:	ba 09 00 00 00       	mov    $0x9,%edx
  403459:	be b2 f5 40 00       	mov    $0x40f5b2,%esi
  40345e:	bf e0 24 61 00       	mov    $0x6124e0,%edi
  403463:	e8 78 f6 ff ff       	callq  402ae0 <_ZSt16__ostream_insertIcSt11char_traitsIcEERSt13basic_ostreamIT_T0_ES6_PKS3_l@plt>
  403468:	44 89 ee             	mov    %r13d,%esi
  40346b:	bf e0 24 61 00       	mov    $0x6124e0,%edi
  403470:	e8 2b f8 ff ff       	callq  402ca0 <_ZNSolsEi@plt>
  403475:	ba 09 00 00 00       	mov    $0x9,%edx
  40347a:	be 1f f5 40 00       	mov    $0x40f51f,%esi
  40347f:	48 89 c7             	mov    %rax,%rdi
  403482:	48 89 c3             	mov    %rax,%rbx
  403485:	e8 56 f6 ff ff       	callq  402ae0 <_ZSt16__ostream_insertIcSt11char_traitsIcEERSt13basic_ostreamIT_T0_ES6_PKS3_l@plt>
  40348a:	48 8b 03             	mov    (%rbx),%rax
  40348d:	48 8b 40 e8          	mov    -0x18(%rax),%rax
  403491:	4c 8b a4 03 f0 00 00 	mov    0xf0(%rbx,%rax,1),%r12
  403498:	00 
  403499:	4d 85 e4             	test   %r12,%r12
  40349c:	0f 84 54 10 00 00    	je     4044f6 <main+0x1796>
  4034a2:	41 80 7c 24 38 00    	cmpb   $0x0,0x38(%r12)
  4034a8:	0f 85 c2 fe ff ff    	jne    403370 <main+0x610>
  4034ae:	4c 89 e7             	mov    %r12,%rdi
  4034b1:	e8 3a f6 ff ff       	callq  402af0 <_ZNKSt5ctypeIcE13_M_widen_initEv@plt>
  4034b6:	49 8b 04 24          	mov    (%r12),%rax
  4034ba:	be 0a 00 00 00       	mov    $0xa,%esi
  4034bf:	4c 89 e7             	mov    %r12,%rdi
  4034c2:	ff 50 30             	callq  *0x30(%rax)
  4034c5:	e9 ac fe ff ff       	jmpq   403376 <main+0x616>
  4034ca:	66 0f 1f 44 00 00    	nopw   0x0(%rax,%rax,1)
  4034d0:	4c 89 e7             	mov    %r12,%rdi
  4034d3:	e8 18 f6 ff ff       	callq  402af0 <_ZNKSt5ctypeIcE13_M_widen_initEv@plt>
  4034d8:	49 8b 04 24          	mov    (%r12),%rax
  4034dc:	be 20 00 00 00       	mov    $0x20,%esi
  4034e1:	4c 89 e7             	mov    %r12,%rdi
  4034e4:	ff 50 30             	callq  *0x30(%rax)
  4034e7:	48 8b 94 24 e0 02 00 	mov    0x2e0(%rsp),%rdx
  4034ee:	00 
  4034ef:	e9 fd fe ff ff       	jmpq   4033f1 <main+0x691>
  4034f4:	0f 1f 40 00          	nopl   0x0(%rax)
  4034f8:	48 8d bc 24 e0 02 00 	lea    0x2e0(%rsp),%rdi
  4034ff:	00 
  403500:	e8 bb f3 ff ff       	callq  4028c0 <_ZSt4endlIcSt11char_traitsIcEERSt13basic_ostreamIT_T0_ES6_@plt>
  403505:	48 8d bc 24 a0 00 00 	lea    0xa0(%rsp),%rdi
  40350c:	00 
  40350d:	41 b8 e8 03 00 00    	mov    $0x3e8,%r8d
  403513:	b9 09 f5 40 00       	mov    $0x40f509,%ecx
  403518:	ba 10 00 00 00       	mov    $0x10,%edx
  40351d:	be 50 29 40 00       	mov    $0x402950,%esi
  403522:	31 c0                	xor    %eax,%eax
  403524:	e8 47 66 00 00       	callq  409b70 <_ZN9__gnu_cxx12__to_xstringISscEET_PFiPT0_mPKS2_P13__va_list_tagEmS5_z.constprop.69>
  403529:	48 8b 84 24 e0 02 00 	mov    0x2e0(%rsp),%rax
  403530:	00 
  403531:	48 8d 9c 24 e0 02 00 	lea    0x2e0(%rsp),%rbx
  403538:	00 
  403539:	48 03 58 e8          	add    -0x18(%rax),%rbx
  40353d:	48 89 df             	mov    %rbx,%rdi
  403540:	e8 9b f3 ff ff       	callq  4028e0 <_ZNKSt9basic_iosIcSt11char_traitsIcEE4fillEv@plt>
  403545:	c6 83 e0 00 00 00 20 	movb   $0x20,0xe0(%rbx)
  40354c:	48 8b 84 24 e0 02 00 	mov    0x2e0(%rsp),%rax
  403553:	00 
  403554:	48 8d bc 24 e0 02 00 	lea    0x2e0(%rsp),%rdi
  40355b:	00 
  40355c:	48 8b b4 24 a0 00 00 	mov    0xa0(%rsp),%rsi
  403563:	00 
  403564:	48 8b 40 e8          	mov    -0x18(%rax),%rax
  403568:	48 c7 84 04 f0 02 00 	movq   $0x6,0x2f0(%rsp,%rax,1)
  40356f:	00 06 00 00 00 
  403574:	48 8b 56 e8          	mov    -0x18(%rsi),%rdx
  403578:	e8 63 f5 ff ff       	callq  402ae0 <_ZSt16__ostream_insertIcSt11char_traitsIcEERSt13basic_ostreamIT_T0_ES6_PKS3_l@plt>
  40357d:	48 8b 84 24 a0 00 00 	mov    0xa0(%rsp),%rax
  403584:	00 
  403585:	48 89 ee             	mov    %rbp,%rsi
  403588:	41 be 06 00 00 00    	mov    $0x6,%r14d
  40358e:	41 bd 01 00 00 00    	mov    $0x1,%r13d
  403594:	48 8d 78 e8          	lea    -0x18(%rax),%rdi
  403598:	e8 a3 f3 ff ff       	callq  402940 <_ZNSs4_Rep10_M_disposeERKSaIcE@plt>
  40359d:	e9 ea 00 00 00       	jmpq   40368c <main+0x92c>
  4035a2:	66 0f 1f 44 00 00    	nopw   0x0(%rax,%rax,1)
  4035a8:	41 0f b6 44 24 43    	movzbl 0x43(%r12),%eax
  4035ae:	0f be f0             	movsbl %al,%esi
  4035b1:	48 89 df             	mov    %rbx,%rdi
  4035b4:	e8 27 f2 ff ff       	callq  4027e0 <_ZNSo3putEc@plt>
  4035b9:	48 89 c7             	mov    %rax,%rdi
  4035bc:	e8 af f3 ff ff       	callq  402970 <_ZNSo5flushEv@plt>
  4035c1:	44 89 ef             	mov    %r13d,%edi
  4035c4:	e8 a7 84 00 00       	callq  40ba70 <_Z9benchmarkIfLl1000EEmi>
  4035c9:	48 8d bc 24 b0 00 00 	lea    0xb0(%rsp),%rdi
  4035d0:	00 
  4035d1:	41 89 c0             	mov    %eax,%r8d
  4035d4:	b9 09 f5 40 00       	mov    $0x40f509,%ecx
  4035d9:	ba 10 00 00 00       	mov    $0x10,%edx
  4035de:	be 50 29 40 00       	mov    $0x402950,%esi
  4035e3:	31 c0                	xor    %eax,%eax
  4035e5:	e8 86 65 00 00       	callq  409b70 <_ZN9__gnu_cxx12__to_xstringISscEET_PFiPT0_mPKS2_P13__va_list_tagEmS5_z.constprop.69>
  4035ea:	48 8b 94 24 e0 02 00 	mov    0x2e0(%rsp),%rdx
  4035f1:	00 
  4035f2:	48 8d 9c 24 e0 02 00 	lea    0x2e0(%rsp),%rbx
  4035f9:	00 
  4035fa:	48 03 5a e8          	add    -0x18(%rdx),%rbx
  4035fe:	80 bb e1 00 00 00 00 	cmpb   $0x0,0xe1(%rbx)
  403605:	75 2f                	jne    403636 <main+0x8d6>
  403607:	4c 8b a3 f0 00 00 00 	mov    0xf0(%rbx),%r12
  40360e:	4d 85 e4             	test   %r12,%r12
  403611:	0f 84 32 10 00 00    	je     404649 <main+0x18e9>
  403617:	41 80 7c 24 38 00    	cmpb   $0x0,0x38(%r12)
  40361d:	0f 84 e5 00 00 00    	je     403708 <main+0x9a8>
  403623:	41 0f b6 44 24 59    	movzbl 0x59(%r12),%eax
  403629:	88 83 e0 00 00 00    	mov    %al,0xe0(%rbx)
  40362f:	c6 83 e1 00 00 00 01 	movb   $0x1,0xe1(%rbx)
  403636:	c6 83 e0 00 00 00 20 	movb   $0x20,0xe0(%rbx)
  40363d:	48 8b b4 24 b0 00 00 	mov    0xb0(%rsp),%rsi
  403644:	00 
  403645:	48 8d bc 24 e0 02 00 	lea    0x2e0(%rsp),%rdi
  40364c:	00 
  40364d:	48 8b 42 e8          	mov    -0x18(%rdx),%rax
  403651:	48 c7 84 04 f0 02 00 	movq   $0x14,0x2f0(%rsp,%rax,1)
  403658:	00 14 00 00 00 
  40365d:	48 8b 56 e8          	mov    -0x18(%rsi),%rdx
  403661:	e8 7a f4 ff ff       	callq  402ae0 <_ZSt16__ostream_insertIcSt11char_traitsIcEERSt13basic_ostreamIT_T0_ES6_PKS3_l@plt>
  403666:	48 8b 84 24 b0 00 00 	mov    0xb0(%rsp),%rax
  40366d:	00 
  40366e:	48 8d 78 e8          	lea    -0x18(%rax),%rdi
  403672:	48 81 ff 00 23 61 00 	cmp    $0x612300,%rdi
  403679:	0f 85 7c 0e 00 00    	jne    4044fb <main+0x179b>
  40367f:	45 01 ed             	add    %r13d,%r13d
  403682:	41 83 ee 01          	sub    $0x1,%r14d
  403686:	0f 84 a4 00 00 00    	je     403730 <main+0x9d0>
  40368c:	ba 09 00 00 00       	mov    $0x9,%edx
  403691:	be b2 f5 40 00       	mov    $0x40f5b2,%esi
  403696:	bf e0 24 61 00       	mov    $0x6124e0,%edi
  40369b:	e8 40 f4 ff ff       	callq  402ae0 <_ZSt16__ostream_insertIcSt11char_traitsIcEERSt13basic_ostreamIT_T0_ES6_PKS3_l@plt>
  4036a0:	44 89 ee             	mov    %r13d,%esi
  4036a3:	bf e0 24 61 00       	mov    $0x6124e0,%edi
  4036a8:	e8 f3 f5 ff ff       	callq  402ca0 <_ZNSolsEi@plt>
  4036ad:	ba 09 00 00 00       	mov    $0x9,%edx
  4036b2:	be 1f f5 40 00       	mov    $0x40f51f,%esi
  4036b7:	48 89 c7             	mov    %rax,%rdi
  4036ba:	48 89 c3             	mov    %rax,%rbx
  4036bd:	e8 1e f4 ff ff       	callq  402ae0 <_ZSt16__ostream_insertIcSt11char_traitsIcEERSt13basic_ostreamIT_T0_ES6_PKS3_l@plt>
  4036c2:	48 8b 03             	mov    (%rbx),%rax
  4036c5:	48 8b 40 e8          	mov    -0x18(%rax),%rax
  4036c9:	4c 8b a4 03 f0 00 00 	mov    0xf0(%rbx,%rax,1),%r12
  4036d0:	00 
  4036d1:	4d 85 e4             	test   %r12,%r12
  4036d4:	0f 84 4f 0e 00 00    	je     404529 <main+0x17c9>
  4036da:	41 80 7c 24 38 00    	cmpb   $0x0,0x38(%r12)
  4036e0:	0f 85 c2 fe ff ff    	jne    4035a8 <main+0x848>
  4036e6:	4c 89 e7             	mov    %r12,%rdi
  4036e9:	e8 02 f4 ff ff       	callq  402af0 <_ZNKSt5ctypeIcE13_M_widen_initEv@plt>
  4036ee:	49 8b 04 24          	mov    (%r12),%rax
  4036f2:	be 0a 00 00 00       	mov    $0xa,%esi
  4036f7:	4c 89 e7             	mov    %r12,%rdi
  4036fa:	ff 50 30             	callq  *0x30(%rax)
  4036fd:	e9 ac fe ff ff       	jmpq   4035ae <main+0x84e>
  403702:	66 0f 1f 44 00 00    	nopw   0x0(%rax,%rax,1)
  403708:	4c 89 e7             	mov    %r12,%rdi
  40370b:	e8 e0 f3 ff ff       	callq  402af0 <_ZNKSt5ctypeIcE13_M_widen_initEv@plt>
  403710:	49 8b 04 24          	mov    (%r12),%rax
  403714:	be 20 00 00 00       	mov    $0x20,%esi
  403719:	4c 89 e7             	mov    %r12,%rdi
  40371c:	ff 50 30             	callq  *0x30(%rax)
  40371f:	48 8b 94 24 e0 02 00 	mov    0x2e0(%rsp),%rdx
  403726:	00 
  403727:	e9 fd fe ff ff       	jmpq   403629 <main+0x8c9>
  40372c:	0f 1f 40 00          	nopl   0x0(%rax)
  403730:	48 8d bc 24 e0 02 00 	lea    0x2e0(%rsp),%rdi
  403737:	00 
  403738:	e8 83 f1 ff ff       	callq  4028c0 <_ZSt4endlIcSt11char_traitsIcEERSt13basic_ostreamIT_T0_ES6_@plt>
  40373d:	48 8d bc 24 c0 00 00 	lea    0xc0(%rsp),%rdi
  403744:	00 
  403745:	41 b8 10 27 00 00    	mov    $0x2710,%r8d
  40374b:	b9 09 f5 40 00       	mov    $0x40f509,%ecx
  403750:	ba 10 00 00 00       	mov    $0x10,%edx
  403755:	be 50 29 40 00       	mov    $0x402950,%esi
  40375a:	31 c0                	xor    %eax,%eax
  40375c:	e8 0f 64 00 00       	callq  409b70 <_ZN9__gnu_cxx12__to_xstringISscEET_PFiPT0_mPKS2_P13__va_list_tagEmS5_z.constprop.69>
  403761:	48 8b 84 24 e0 02 00 	mov    0x2e0(%rsp),%rax
  403768:	00 
  403769:	48 8d 9c 24 e0 02 00 	lea    0x2e0(%rsp),%rbx
  403770:	00 
  403771:	48 03 58 e8          	add    -0x18(%rax),%rbx
  403775:	48 89 df             	mov    %rbx,%rdi
  403778:	e8 63 f1 ff ff       	callq  4028e0 <_ZNKSt9basic_iosIcSt11char_traitsIcEE4fillEv@plt>
  40377d:	c6 83 e0 00 00 00 20 	movb   $0x20,0xe0(%rbx)
  403784:	48 8b 84 24 e0 02 00 	mov    0x2e0(%rsp),%rax
  40378b:	00 
  40378c:	48 8d bc 24 e0 02 00 	lea    0x2e0(%rsp),%rdi
  403793:	00 
  403794:	48 8b b4 24 c0 00 00 	mov    0xc0(%rsp),%rsi
  40379b:	00 
  40379c:	48 8b 40 e8          	mov    -0x18(%rax),%rax
  4037a0:	48 c7 84 04 f0 02 00 	movq   $0x6,0x2f0(%rsp,%rax,1)
  4037a7:	00 06 00 00 00 
  4037ac:	48 8b 56 e8          	mov    -0x18(%rsi),%rdx
  4037b0:	e8 2b f3 ff ff       	callq  402ae0 <_ZSt16__ostream_insertIcSt11char_traitsIcEERSt13basic_ostreamIT_T0_ES6_PKS3_l@plt>
  4037b5:	48 8b 84 24 c0 00 00 	mov    0xc0(%rsp),%rax
  4037bc:	00 
  4037bd:	48 89 ee             	mov    %rbp,%rsi
  4037c0:	41 be 06 00 00 00    	mov    $0x6,%r14d
  4037c6:	41 bd 01 00 00 00    	mov    $0x1,%r13d
  4037cc:	48 8d 78 e8          	lea    -0x18(%rax),%rdi
  4037d0:	e8 6b f1 ff ff       	callq  402940 <_ZNSs4_Rep10_M_disposeERKSaIcE@plt>
  4037d5:	e9 ea 00 00 00       	jmpq   4038c4 <main+0xb64>
  4037da:	66 0f 1f 44 00 00    	nopw   0x0(%rax,%rax,1)
  4037e0:	41 0f b6 44 24 43    	movzbl 0x43(%r12),%eax
  4037e6:	0f be f0             	movsbl %al,%esi
  4037e9:	48 89 df             	mov    %rbx,%rdi
  4037ec:	e8 ef ef ff ff       	callq  4027e0 <_ZNSo3putEc@plt>
  4037f1:	48 89 c7             	mov    %rax,%rdi
  4037f4:	e8 77 f1 ff ff       	callq  402970 <_ZNSo5flushEv@plt>
  4037f9:	44 89 ef             	mov    %r13d,%edi
  4037fc:	e8 ef 89 00 00       	callq  40c1f0 <_Z9benchmarkIfLl10000EEmi>
  403801:	48 8d bc 24 d0 00 00 	lea    0xd0(%rsp),%rdi
  403808:	00 
  403809:	41 89 c0             	mov    %eax,%r8d
  40380c:	b9 09 f5 40 00       	mov    $0x40f509,%ecx
  403811:	ba 10 00 00 00       	mov    $0x10,%edx
  403816:	be 50 29 40 00       	mov    $0x402950,%esi
  40381b:	31 c0                	xor    %eax,%eax
  40381d:	e8 4e 63 00 00       	callq  409b70 <_ZN9__gnu_cxx12__to_xstringISscEET_PFiPT0_mPKS2_P13__va_list_tagEmS5_z.constprop.69>
  403822:	48 8b 94 24 e0 02 00 	mov    0x2e0(%rsp),%rdx
  403829:	00 
  40382a:	48 8d 9c 24 e0 02 00 	lea    0x2e0(%rsp),%rbx
  403831:	00 
  403832:	48 03 5a e8          	add    -0x18(%rdx),%rbx
  403836:	80 bb e1 00 00 00 00 	cmpb   $0x0,0xe1(%rbx)
  40383d:	75 2f                	jne    40386e <main+0xb0e>
  40383f:	4c 8b a3 f0 00 00 00 	mov    0xf0(%rbx),%r12
  403846:	4d 85 e4             	test   %r12,%r12
  403849:	0f 84 d9 0d 00 00    	je     404628 <main+0x18c8>
  40384f:	41 80 7c 24 38 00    	cmpb   $0x0,0x38(%r12)
  403855:	0f 84 e5 00 00 00    	je     403940 <main+0xbe0>
  40385b:	41 0f b6 44 24 59    	movzbl 0x59(%r12),%eax
  403861:	88 83 e0 00 00 00    	mov    %al,0xe0(%rbx)
  403867:	c6 83 e1 00 00 00 01 	movb   $0x1,0xe1(%rbx)
  40386e:	c6 83 e0 00 00 00 20 	movb   $0x20,0xe0(%rbx)
  403875:	48 8b b4 24 d0 00 00 	mov    0xd0(%rsp),%rsi
  40387c:	00 
  40387d:	48 8d bc 24 e0 02 00 	lea    0x2e0(%rsp),%rdi
  403884:	00 
  403885:	48 8b 42 e8          	mov    -0x18(%rdx),%rax
  403889:	48 c7 84 04 f0 02 00 	movq   $0x14,0x2f0(%rsp,%rax,1)
  403890:	00 14 00 00 00 
  403895:	48 8b 56 e8          	mov    -0x18(%rsi),%rdx
  403899:	e8 42 f2 ff ff       	callq  402ae0 <_ZSt16__ostream_insertIcSt11char_traitsIcEERSt13basic_ostreamIT_T0_ES6_PKS3_l@plt>
  40389e:	48 8b 84 24 d0 00 00 	mov    0xd0(%rsp),%rax
  4038a5:	00 
  4038a6:	48 8d 78 e8          	lea    -0x18(%rax),%rdi
  4038aa:	48 81 ff 00 23 61 00 	cmp    $0x612300,%rdi
  4038b1:	0f 85 bc 0a 00 00    	jne    404373 <main+0x1613>
  4038b7:	45 01 ed             	add    %r13d,%r13d
  4038ba:	41 83 ee 01          	sub    $0x1,%r14d
  4038be:	0f 84 a4 00 00 00    	je     403968 <main+0xc08>
  4038c4:	ba 09 00 00 00       	mov    $0x9,%edx
  4038c9:	be b2 f5 40 00       	mov    $0x40f5b2,%esi
  4038ce:	bf e0 24 61 00       	mov    $0x6124e0,%edi
  4038d3:	e8 08 f2 ff ff       	callq  402ae0 <_ZSt16__ostream_insertIcSt11char_traitsIcEERSt13basic_ostreamIT_T0_ES6_PKS3_l@plt>
  4038d8:	44 89 ee             	mov    %r13d,%esi
  4038db:	bf e0 24 61 00       	mov    $0x6124e0,%edi
  4038e0:	e8 bb f3 ff ff       	callq  402ca0 <_ZNSolsEi@plt>
  4038e5:	ba 09 00 00 00       	mov    $0x9,%edx
  4038ea:	be 1f f5 40 00       	mov    $0x40f51f,%esi
  4038ef:	48 89 c7             	mov    %rax,%rdi
  4038f2:	48 89 c3             	mov    %rax,%rbx
  4038f5:	e8 e6 f1 ff ff       	callq  402ae0 <_ZSt16__ostream_insertIcSt11char_traitsIcEERSt13basic_ostreamIT_T0_ES6_PKS3_l@plt>
  4038fa:	48 8b 03             	mov    (%rbx),%rax
  4038fd:	48 8b 40 e8          	mov    -0x18(%rax),%rax
  403901:	4c 8b a4 03 f0 00 00 	mov    0xf0(%rbx,%rax,1),%r12
  403908:	00 
  403909:	4d 85 e4             	test   %r12,%r12
  40390c:	0f 84 8f 0a 00 00    	je     4043a1 <main+0x1641>
  403912:	41 80 7c 24 38 00    	cmpb   $0x0,0x38(%r12)
  403918:	0f 85 c2 fe ff ff    	jne    4037e0 <main+0xa80>
  40391e:	4c 89 e7             	mov    %r12,%rdi
  403921:	e8 ca f1 ff ff       	callq  402af0 <_ZNKSt5ctypeIcE13_M_widen_initEv@plt>
  403926:	49 8b 04 24          	mov    (%r12),%rax
  40392a:	be 0a 00 00 00       	mov    $0xa,%esi
  40392f:	4c 89 e7             	mov    %r12,%rdi
  403932:	ff 50 30             	callq  *0x30(%rax)
  403935:	e9 ac fe ff ff       	jmpq   4037e6 <main+0xa86>
  40393a:	66 0f 1f 44 00 00    	nopw   0x0(%rax,%rax,1)
  403940:	4c 89 e7             	mov    %r12,%rdi
  403943:	e8 a8 f1 ff ff       	callq  402af0 <_ZNKSt5ctypeIcE13_M_widen_initEv@plt>
  403948:	49 8b 04 24          	mov    (%r12),%rax
  40394c:	be 20 00 00 00       	mov    $0x20,%esi
  403951:	4c 89 e7             	mov    %r12,%rdi
  403954:	ff 50 30             	callq  *0x30(%rax)
  403957:	48 8b 94 24 e0 02 00 	mov    0x2e0(%rsp),%rdx
  40395e:	00 
  40395f:	e9 fd fe ff ff       	jmpq   403861 <main+0xb01>
  403964:	0f 1f 40 00          	nopl   0x0(%rax)
  403968:	48 8d bc 24 e0 02 00 	lea    0x2e0(%rsp),%rdi
  40396f:	00 
  403970:	e8 4b ef ff ff       	callq  4028c0 <_ZSt4endlIcSt11char_traitsIcEERSt13basic_ostreamIT_T0_ES6_@plt>
  403975:	48 8d bc 24 e0 02 00 	lea    0x2e0(%rsp),%rdi
  40397c:	00 
  40397d:	e8 1e f2 ff ff       	callq  402ba0 <_ZNSt14basic_ofstreamIcSt11char_traitsIcEE5closeEv@plt>
  403982:	48 8b 84 24 90 01 00 	mov    0x190(%rsp),%rax
  403989:	00 
  40398a:	48 89 ee             	mov    %rbp,%rsi
  40398d:	48 8d 78 e8          	lea    -0x18(%rax),%rdi
  403991:	e8 aa ef ff ff       	callq  402940 <_ZNSs4_Rep10_M_disposeERKSaIcE@plt>
  403996:	48 8d bc 24 e0 02 00 	lea    0x2e0(%rsp),%rdi
  40399d:	00 
  40399e:	e8 2d f2 ff ff       	callq  402bd0 <_ZNSt14basic_ofstreamIcSt11char_traitsIcEED1Ev@plt>
  4039a3:	48 8d bc 24 e0 02 00 	lea    0x2e0(%rsp),%rdi
  4039aa:	00 
  4039ab:	e8 d0 f2 ff ff       	callq  402c80 <_ZNSt14basic_ofstreamIcSt11char_traitsIcEEC1Ev@plt>
  4039b0:	48 8d 74 24 40       	lea    0x40(%rsp),%rsi
  4039b5:	48 8d bc 24 90 01 00 	lea    0x190(%rsp),%rdi
  4039bc:	00 
  4039bd:	ba bc f5 40 00       	mov    $0x40f5bc,%edx
  4039c2:	e8 49 66 00 00       	callq  40a010 <_ZStplIcSt11char_traitsIcESaIcEESbIT_T0_T1_ERKS6_PKS3_>
  4039c7:	48 8b b4 24 90 01 00 	mov    0x190(%rsp),%rsi
  4039ce:	00 
  4039cf:	48 89 ea             	mov    %rbp,%rdx
  4039d2:	bf 01 00 00 00       	mov    $0x1,%edi
  4039d7:	e8 94 f0 ff ff       	callq  402a70 <__xstat@plt>
  4039dc:	48 8d b4 24 90 01 00 	lea    0x190(%rsp),%rsi
  4039e3:	00 
  4039e4:	48 8d bc 24 e0 02 00 	lea    0x2e0(%rsp),%rdi
  4039eb:	00 
  4039ec:	ba 01 00 00 00       	mov    $0x1,%edx
  4039f1:	89 c3                	mov    %eax,%ebx
  4039f3:	e8 28 f1 ff ff       	callq  402b20 <_ZNSt14basic_ofstreamIcSt11char_traitsIcEE4openERKSsSt13_Ios_Openmode@plt>
  4039f8:	85 db                	test   %ebx,%ebx
  4039fa:	0f 85 54 09 00 00    	jne    404354 <main+0x15f4>
  403a00:	48 8d bc 24 e0 00 00 	lea    0xe0(%rsp),%rdi
  403a07:	00 
  403a08:	41 b8 64 00 00 00    	mov    $0x64,%r8d
  403a0e:	b9 09 f5 40 00       	mov    $0x40f509,%ecx
  403a13:	ba 10 00 00 00       	mov    $0x10,%edx
  403a18:	be 50 29 40 00       	mov    $0x402950,%esi
  403a1d:	31 c0                	xor    %eax,%eax
  403a1f:	e8 4c 61 00 00       	callq  409b70 <_ZN9__gnu_cxx12__to_xstringISscEET_PFiPT0_mPKS2_P13__va_list_tagEmS5_z.constprop.69>
  403a24:	48 8b 84 24 e0 02 00 	mov    0x2e0(%rsp),%rax
  403a2b:	00 
  403a2c:	48 8d 9c 24 e0 02 00 	lea    0x2e0(%rsp),%rbx
  403a33:	00 
  403a34:	48 03 58 e8          	add    -0x18(%rax),%rbx
  403a38:	48 89 df             	mov    %rbx,%rdi
  403a3b:	e8 a0 ee ff ff       	callq  4028e0 <_ZNKSt9basic_iosIcSt11char_traitsIcEE4fillEv@plt>
  403a40:	c6 83 e0 00 00 00 20 	movb   $0x20,0xe0(%rbx)
  403a47:	48 8b 84 24 e0 02 00 	mov    0x2e0(%rsp),%rax
  403a4e:	00 
  403a4f:	48 8d bc 24 e0 02 00 	lea    0x2e0(%rsp),%rdi
  403a56:	00 
  403a57:	48 8b b4 24 e0 00 00 	mov    0xe0(%rsp),%rsi
  403a5e:	00 
  403a5f:	48 8b 40 e8          	mov    -0x18(%rax),%rax
  403a63:	48 c7 84 04 f0 02 00 	movq   $0x6,0x2f0(%rsp,%rax,1)
  403a6a:	00 06 00 00 00 
  403a6f:	48 8b 56 e8          	mov    -0x18(%rsi),%rdx
  403a73:	e8 68 f0 ff ff       	callq  402ae0 <_ZSt16__ostream_insertIcSt11char_traitsIcEERSt13basic_ostreamIT_T0_ES6_PKS3_l@plt>
  403a78:	48 8b 84 24 e0 00 00 	mov    0xe0(%rsp),%rax
  403a7f:	00 
  403a80:	48 89 ee             	mov    %rbp,%rsi
  403a83:	41 be 06 00 00 00    	mov    $0x6,%r14d
  403a89:	41 bd 01 00 00 00    	mov    $0x1,%r13d
  403a8f:	48 8d 78 e8          	lea    -0x18(%rax),%rdi
  403a93:	e8 a8 ee ff ff       	callq  402940 <_ZNSs4_Rep10_M_disposeERKSaIcE@plt>
  403a98:	e9 e7 00 00 00       	jmpq   403b84 <main+0xe24>
  403a9d:	0f 1f 00             	nopl   (%rax)
  403aa0:	41 0f b6 44 24 43    	movzbl 0x43(%r12),%eax
  403aa6:	0f be f0             	movsbl %al,%esi
  403aa9:	48 89 df             	mov    %rbx,%rdi
  403aac:	e8 2f ed ff ff       	callq  4027e0 <_ZNSo3putEc@plt>
  403ab1:	48 89 c7             	mov    %rax,%rdi
  403ab4:	e8 b7 ee ff ff       	callq  402970 <_ZNSo5flushEv@plt>
  403ab9:	44 89 ef             	mov    %r13d,%edi
  403abc:	e8 ef 8f 00 00       	callq  40cab0 <_Z9benchmarkIdLl100EEmi>
  403ac1:	48 8d bc 24 f0 00 00 	lea    0xf0(%rsp),%rdi
  403ac8:	00 
  403ac9:	41 89 c0             	mov    %eax,%r8d
  403acc:	b9 09 f5 40 00       	mov    $0x40f509,%ecx
  403ad1:	ba 10 00 00 00       	mov    $0x10,%edx
  403ad6:	be 50 29 40 00       	mov    $0x402950,%esi
  403adb:	31 c0                	xor    %eax,%eax
  403add:	e8 8e 60 00 00       	callq  409b70 <_ZN9__gnu_cxx12__to_xstringISscEET_PFiPT0_mPKS2_P13__va_list_tagEmS5_z.constprop.69>
  403ae2:	48 8b 94 24 e0 02 00 	mov    0x2e0(%rsp),%rdx
  403ae9:	00 
  403aea:	48 8d 9c 24 e0 02 00 	lea    0x2e0(%rsp),%rbx
  403af1:	00 
  403af2:	48 03 5a e8          	add    -0x18(%rdx),%rbx
  403af6:	80 bb e1 00 00 00 00 	cmpb   $0x0,0xe1(%rbx)
  403afd:	75 2f                	jne    403b2e <main+0xdce>
  403aff:	4c 8b a3 f0 00 00 00 	mov    0xf0(%rbx),%r12
  403b06:	4d 85 e4             	test   %r12,%r12
  403b09:	0f 84 56 0a 00 00    	je     404565 <main+0x1805>
  403b0f:	41 80 7c 24 38 00    	cmpb   $0x0,0x38(%r12)
  403b15:	0f 84 e5 00 00 00    	je     403c00 <main+0xea0>
  403b1b:	41 0f b6 44 24 59    	movzbl 0x59(%r12),%eax
  403b21:	88 83 e0 00 00 00    	mov    %al,0xe0(%rbx)
  403b27:	c6 83 e1 00 00 00 01 	movb   $0x1,0xe1(%rbx)
  403b2e:	c6 83 e0 00 00 00 20 	movb   $0x20,0xe0(%rbx)
  403b35:	48 8b b4 24 f0 00 00 	mov    0xf0(%rsp),%rsi
  403b3c:	00 
  403b3d:	48 8d bc 24 e0 02 00 	lea    0x2e0(%rsp),%rdi
  403b44:	00 
  403b45:	48 8b 42 e8          	mov    -0x18(%rdx),%rax
  403b49:	48 c7 84 04 f0 02 00 	movq   $0x14,0x2f0(%rsp,%rax,1)
  403b50:	00 14 00 00 00 
  403b55:	48 8b 56 e8          	mov    -0x18(%rsi),%rdx
  403b59:	e8 82 ef ff ff       	callq  402ae0 <_ZSt16__ostream_insertIcSt11char_traitsIcEERSt13basic_ostreamIT_T0_ES6_PKS3_l@plt>
  403b5e:	48 8b 84 24 f0 00 00 	mov    0xf0(%rsp),%rax
  403b65:	00 
  403b66:	48 8d 78 e8          	lea    -0x18(%rax),%rdi
  403b6a:	48 81 ff 00 23 61 00 	cmp    $0x612300,%rdi
  403b71:	0f 85 e6 08 00 00    	jne    40445d <main+0x16fd>
  403b77:	45 01 ed             	add    %r13d,%r13d
  403b7a:	41 83 ee 01          	sub    $0x1,%r14d
  403b7e:	0f 84 a4 00 00 00    	je     403c28 <main+0xec8>
  403b84:	ba 09 00 00 00       	mov    $0x9,%edx
  403b89:	be b2 f5 40 00       	mov    $0x40f5b2,%esi
  403b8e:	bf e0 24 61 00       	mov    $0x6124e0,%edi
  403b93:	e8 48 ef ff ff       	callq  402ae0 <_ZSt16__ostream_insertIcSt11char_traitsIcEERSt13basic_ostreamIT_T0_ES6_PKS3_l@plt>
  403b98:	44 89 ee             	mov    %r13d,%esi
  403b9b:	bf e0 24 61 00       	mov    $0x6124e0,%edi
  403ba0:	e8 fb f0 ff ff       	callq  402ca0 <_ZNSolsEi@plt>
  403ba5:	ba 09 00 00 00       	mov    $0x9,%edx
  403baa:	be 1f f5 40 00       	mov    $0x40f51f,%esi
  403baf:	48 89 c7             	mov    %rax,%rdi
  403bb2:	48 89 c3             	mov    %rax,%rbx
  403bb5:	e8 26 ef ff ff       	callq  402ae0 <_ZSt16__ostream_insertIcSt11char_traitsIcEERSt13basic_ostreamIT_T0_ES6_PKS3_l@plt>
  403bba:	48 8b 03             	mov    (%rbx),%rax
  403bbd:	48 8b 40 e8          	mov    -0x18(%rax),%rax
  403bc1:	4c 8b a4 03 f0 00 00 	mov    0xf0(%rbx,%rax,1),%r12
  403bc8:	00 
  403bc9:	4d 85 e4             	test   %r12,%r12
  403bcc:	0f 84 b9 08 00 00    	je     40448b <main+0x172b>
  403bd2:	41 80 7c 24 38 00    	cmpb   $0x0,0x38(%r12)
  403bd8:	0f 85 c2 fe ff ff    	jne    403aa0 <main+0xd40>
  403bde:	4c 89 e7             	mov    %r12,%rdi
  403be1:	e8 0a ef ff ff       	callq  402af0 <_ZNKSt5ctypeIcE13_M_widen_initEv@plt>
  403be6:	49 8b 04 24          	mov    (%r12),%rax
  403bea:	be 0a 00 00 00       	mov    $0xa,%esi
  403bef:	4c 89 e7             	mov    %r12,%rdi
  403bf2:	ff 50 30             	callq  *0x30(%rax)
  403bf5:	e9 ac fe ff ff       	jmpq   403aa6 <main+0xd46>
  403bfa:	66 0f 1f 44 00 00    	nopw   0x0(%rax,%rax,1)
  403c00:	4c 89 e7             	mov    %r12,%rdi
  403c03:	e8 e8 ee ff ff       	callq  402af0 <_ZNKSt5ctypeIcE13_M_widen_initEv@plt>
  403c08:	49 8b 04 24          	mov    (%r12),%rax
  403c0c:	be 20 00 00 00       	mov    $0x20,%esi
  403c11:	4c 89 e7             	mov    %r12,%rdi
  403c14:	ff 50 30             	callq  *0x30(%rax)
  403c17:	48 8b 94 24 e0 02 00 	mov    0x2e0(%rsp),%rdx
  403c1e:	00 
  403c1f:	e9 fd fe ff ff       	jmpq   403b21 <main+0xdc1>
  403c24:	0f 1f 40 00          	nopl   0x0(%rax)
  403c28:	48 8d bc 24 e0 02 00 	lea    0x2e0(%rsp),%rdi
  403c2f:	00 
  403c30:	e8 8b ec ff ff       	callq  4028c0 <_ZSt4endlIcSt11char_traitsIcEERSt13basic_ostreamIT_T0_ES6_@plt>
  403c35:	48 8d bc 24 00 01 00 	lea    0x100(%rsp),%rdi
  403c3c:	00 
  403c3d:	41 b8 f4 01 00 00    	mov    $0x1f4,%r8d
  403c43:	b9 09 f5 40 00       	mov    $0x40f509,%ecx
  403c48:	ba 10 00 00 00       	mov    $0x10,%edx
  403c4d:	be 50 29 40 00       	mov    $0x402950,%esi
  403c52:	31 c0                	xor    %eax,%eax
  403c54:	e8 17 5f 00 00       	callq  409b70 <_ZN9__gnu_cxx12__to_xstringISscEET_PFiPT0_mPKS2_P13__va_list_tagEmS5_z.constprop.69>
  403c59:	48 8b 84 24 e0 02 00 	mov    0x2e0(%rsp),%rax
  403c60:	00 
  403c61:	48 8d 9c 24 e0 02 00 	lea    0x2e0(%rsp),%rbx
  403c68:	00 
  403c69:	48 03 58 e8          	add    -0x18(%rax),%rbx
  403c6d:	48 89 df             	mov    %rbx,%rdi
  403c70:	e8 6b ec ff ff       	callq  4028e0 <_ZNKSt9basic_iosIcSt11char_traitsIcEE4fillEv@plt>
  403c75:	c6 83 e0 00 00 00 20 	movb   $0x20,0xe0(%rbx)
  403c7c:	48 8b 84 24 e0 02 00 	mov    0x2e0(%rsp),%rax
  403c83:	00 
  403c84:	48 8d bc 24 e0 02 00 	lea    0x2e0(%rsp),%rdi
  403c8b:	00 
  403c8c:	48 8b b4 24 00 01 00 	mov    0x100(%rsp),%rsi
  403c93:	00 
  403c94:	48 8b 40 e8          	mov    -0x18(%rax),%rax
  403c98:	48 c7 84 04 f0 02 00 	movq   $0x6,0x2f0(%rsp,%rax,1)
  403c9f:	00 06 00 00 00 
  403ca4:	48 8b 56 e8          	mov    -0x18(%rsi),%rdx
  403ca8:	e8 33 ee ff ff       	callq  402ae0 <_ZSt16__ostream_insertIcSt11char_traitsIcEERSt13basic_ostreamIT_T0_ES6_PKS3_l@plt>
  403cad:	48 8b 84 24 00 01 00 	mov    0x100(%rsp),%rax
  403cb4:	00 
  403cb5:	48 89 ee             	mov    %rbp,%rsi
  403cb8:	41 be 06 00 00 00    	mov    $0x6,%r14d
  403cbe:	41 bd 01 00 00 00    	mov    $0x1,%r13d
  403cc4:	48 8d 78 e8          	lea    -0x18(%rax),%rdi
  403cc8:	e8 73 ec ff ff       	callq  402940 <_ZNSs4_Rep10_M_disposeERKSaIcE@plt>
  403ccd:	e9 ea 00 00 00       	jmpq   403dbc <main+0x105c>
  403cd2:	66 0f 1f 44 00 00    	nopw   0x0(%rax,%rax,1)
  403cd8:	41 0f b6 44 24 43    	movzbl 0x43(%r12),%eax
  403cde:	0f be f0             	movsbl %al,%esi
  403ce1:	48 89 df             	mov    %rbx,%rdi
  403ce4:	e8 f7 ea ff ff       	callq  4027e0 <_ZNSo3putEc@plt>
  403ce9:	48 89 c7             	mov    %rax,%rdi
  403cec:	e8 7f ec ff ff       	callq  402970 <_ZNSo5flushEv@plt>
  403cf1:	44 89 ef             	mov    %r13d,%edi
  403cf4:	e8 17 96 00 00       	callq  40d310 <_Z9benchmarkIdLl500EEmi>
  403cf9:	48 8d bc 24 10 01 00 	lea    0x110(%rsp),%rdi
  403d00:	00 
  403d01:	41 89 c0             	mov    %eax,%r8d
  403d04:	b9 09 f5 40 00       	mov    $0x40f509,%ecx
  403d09:	ba 10 00 00 00       	mov    $0x10,%edx
  403d0e:	be 50 29 40 00       	mov    $0x402950,%esi
  403d13:	31 c0                	xor    %eax,%eax
  403d15:	e8 56 5e 00 00       	callq  409b70 <_ZN9__gnu_cxx12__to_xstringISscEET_PFiPT0_mPKS2_P13__va_list_tagEmS5_z.constprop.69>
  403d1a:	48 8b 94 24 e0 02 00 	mov    0x2e0(%rsp),%rdx
  403d21:	00 
  403d22:	48 8d 9c 24 e0 02 00 	lea    0x2e0(%rsp),%rbx
  403d29:	00 
  403d2a:	48 03 5a e8          	add    -0x18(%rdx),%rbx
  403d2e:	80 bb e1 00 00 00 00 	cmpb   $0x0,0xe1(%rbx)
  403d35:	75 2f                	jne    403d66 <main+0x1006>
  403d37:	4c 8b a3 f0 00 00 00 	mov    0xf0(%rbx),%r12
  403d3e:	4d 85 e4             	test   %r12,%r12
  403d41:	0f 84 3f 08 00 00    	je     404586 <main+0x1826>
  403d47:	41 80 7c 24 38 00    	cmpb   $0x0,0x38(%r12)
  403d4d:	0f 84 e5 00 00 00    	je     403e38 <main+0x10d8>
  403d53:	41 0f b6 44 24 59    	movzbl 0x59(%r12),%eax
  403d59:	88 83 e0 00 00 00    	mov    %al,0xe0(%rbx)
  403d5f:	c6 83 e1 00 00 00 01 	movb   $0x1,0xe1(%rbx)
  403d66:	c6 83 e0 00 00 00 20 	movb   $0x20,0xe0(%rbx)
  403d6d:	48 8b b4 24 10 01 00 	mov    0x110(%rsp),%rsi
  403d74:	00 
  403d75:	48 8d bc 24 e0 02 00 	lea    0x2e0(%rsp),%rdi
  403d7c:	00 
  403d7d:	48 8b 42 e8          	mov    -0x18(%rdx),%rax
  403d81:	48 c7 84 04 f0 02 00 	movq   $0x14,0x2f0(%rsp,%rax,1)
  403d88:	00 14 00 00 00 
  403d8d:	48 8b 56 e8          	mov    -0x18(%rsi),%rdx
  403d91:	e8 4a ed ff ff       	callq  402ae0 <_ZSt16__ostream_insertIcSt11char_traitsIcEERSt13basic_ostreamIT_T0_ES6_PKS3_l@plt>
  403d96:	48 8b 84 24 10 01 00 	mov    0x110(%rsp),%rax
  403d9d:	00 
  403d9e:	48 8d 78 e8          	lea    -0x18(%rax),%rdi
  403da2:	48 81 ff 00 23 61 00 	cmp    $0x612300,%rdi
  403da9:	0f 85 7b 06 00 00    	jne    40442a <main+0x16ca>
  403daf:	45 01 ed             	add    %r13d,%r13d
  403db2:	41 83 ee 01          	sub    $0x1,%r14d
  403db6:	0f 84 a4 00 00 00    	je     403e60 <main+0x1100>
  403dbc:	ba 09 00 00 00       	mov    $0x9,%edx
  403dc1:	be b2 f5 40 00       	mov    $0x40f5b2,%esi
  403dc6:	bf e0 24 61 00       	mov    $0x6124e0,%edi
  403dcb:	e8 10 ed ff ff       	callq  402ae0 <_ZSt16__ostream_insertIcSt11char_traitsIcEERSt13basic_ostreamIT_T0_ES6_PKS3_l@plt>
  403dd0:	44 89 ee             	mov    %r13d,%esi
  403dd3:	bf e0 24 61 00       	mov    $0x6124e0,%edi
  403dd8:	e8 c3 ee ff ff       	callq  402ca0 <_ZNSolsEi@plt>
  403ddd:	ba 09 00 00 00       	mov    $0x9,%edx
  403de2:	be 1f f5 40 00       	mov    $0x40f51f,%esi
  403de7:	48 89 c7             	mov    %rax,%rdi
  403dea:	48 89 c3             	mov    %rax,%rbx
  403ded:	e8 ee ec ff ff       	callq  402ae0 <_ZSt16__ostream_insertIcSt11char_traitsIcEERSt13basic_ostreamIT_T0_ES6_PKS3_l@plt>
  403df2:	48 8b 03             	mov    (%rbx),%rax
  403df5:	48 8b 40 e8          	mov    -0x18(%rax),%rax
  403df9:	4c 8b a4 03 f0 00 00 	mov    0xf0(%rbx,%rax,1),%r12
  403e00:	00 
  403e01:	4d 85 e4             	test   %r12,%r12
  403e04:	0f 84 4e 06 00 00    	je     404458 <main+0x16f8>
  403e0a:	41 80 7c 24 38 00    	cmpb   $0x0,0x38(%r12)
  403e10:	0f 85 c2 fe ff ff    	jne    403cd8 <main+0xf78>
  403e16:	4c 89 e7             	mov    %r12,%rdi
  403e19:	e8 d2 ec ff ff       	callq  402af0 <_ZNKSt5ctypeIcE13_M_widen_initEv@plt>
  403e1e:	49 8b 04 24          	mov    (%r12),%rax
  403e22:	be 0a 00 00 00       	mov    $0xa,%esi
  403e27:	4c 89 e7             	mov    %r12,%rdi
  403e2a:	ff 50 30             	callq  *0x30(%rax)
  403e2d:	e9 ac fe ff ff       	jmpq   403cde <main+0xf7e>
  403e32:	66 0f 1f 44 00 00    	nopw   0x0(%rax,%rax,1)
  403e38:	4c 89 e7             	mov    %r12,%rdi
  403e3b:	e8 b0 ec ff ff       	callq  402af0 <_ZNKSt5ctypeIcE13_M_widen_initEv@plt>
  403e40:	49 8b 04 24          	mov    (%r12),%rax
  403e44:	be 20 00 00 00       	mov    $0x20,%esi
  403e49:	4c 89 e7             	mov    %r12,%rdi
  403e4c:	ff 50 30             	callq  *0x30(%rax)
  403e4f:	48 8b 94 24 e0 02 00 	mov    0x2e0(%rsp),%rdx
  403e56:	00 
  403e57:	e9 fd fe ff ff       	jmpq   403d59 <main+0xff9>
  403e5c:	0f 1f 40 00          	nopl   0x0(%rax)
  403e60:	48 8d bc 24 e0 02 00 	lea    0x2e0(%rsp),%rdi
  403e67:	00 
  403e68:	e8 53 ea ff ff       	callq  4028c0 <_ZSt4endlIcSt11char_traitsIcEERSt13basic_ostreamIT_T0_ES6_@plt>
  403e6d:	48 8d bc 24 20 01 00 	lea    0x120(%rsp),%rdi
  403e74:	00 
  403e75:	41 b8 e8 03 00 00    	mov    $0x3e8,%r8d
  403e7b:	b9 09 f5 40 00       	mov    $0x40f509,%ecx
  403e80:	ba 10 00 00 00       	mov    $0x10,%edx
  403e85:	be 50 29 40 00       	mov    $0x402950,%esi
  403e8a:	31 c0                	xor    %eax,%eax
  403e8c:	e8 df 5c 00 00       	callq  409b70 <_ZN9__gnu_cxx12__to_xstringISscEET_PFiPT0_mPKS2_P13__va_list_tagEmS5_z.constprop.69>
  403e91:	48 8b 84 24 e0 02 00 	mov    0x2e0(%rsp),%rax
  403e98:	00 
  403e99:	48 8d 9c 24 e0 02 00 	lea    0x2e0(%rsp),%rbx
  403ea0:	00 
  403ea1:	48 03 58 e8          	add    -0x18(%rax),%rbx
  403ea5:	48 89 df             	mov    %rbx,%rdi
  403ea8:	e8 33 ea ff ff       	callq  4028e0 <_ZNKSt9basic_iosIcSt11char_traitsIcEE4fillEv@plt>
  403ead:	c6 83 e0 00 00 00 20 	movb   $0x20,0xe0(%rbx)
  403eb4:	48 8b 84 24 e0 02 00 	mov    0x2e0(%rsp),%rax
  403ebb:	00 
  403ebc:	48 8d bc 24 e0 02 00 	lea    0x2e0(%rsp),%rdi
  403ec3:	00 
  403ec4:	48 8b b4 24 20 01 00 	mov    0x120(%rsp),%rsi
  403ecb:	00 
  403ecc:	48 8b 40 e8          	mov    -0x18(%rax),%rax
  403ed0:	48 c7 84 04 f0 02 00 	movq   $0x6,0x2f0(%rsp,%rax,1)
  403ed7:	00 06 00 00 00 
  403edc:	48 8b 56 e8          	mov    -0x18(%rsi),%rdx
  403ee0:	e8 fb eb ff ff       	callq  402ae0 <_ZSt16__ostream_insertIcSt11char_traitsIcEERSt13basic_ostreamIT_T0_ES6_PKS3_l@plt>
  403ee5:	48 8b 84 24 20 01 00 	mov    0x120(%rsp),%rax
  403eec:	00 
  403eed:	48 89 ee             	mov    %rbp,%rsi
  403ef0:	41 be 06 00 00 00    	mov    $0x6,%r14d
  403ef6:	41 bd 01 00 00 00    	mov    $0x1,%r13d
  403efc:	48 8d 78 e8          	lea    -0x18(%rax),%rdi
  403f00:	e8 3b ea ff ff       	callq  402940 <_ZNSs4_Rep10_M_disposeERKSaIcE@plt>
  403f05:	e9 ea 00 00 00       	jmpq   403ff4 <main+0x1294>
  403f0a:	66 0f 1f 44 00 00    	nopw   0x0(%rax,%rax,1)
  403f10:	41 0f b6 44 24 43    	movzbl 0x43(%r12),%eax
  403f16:	0f be f0             	movsbl %al,%esi
  403f19:	48 89 df             	mov    %rbx,%rdi
  403f1c:	e8 bf e8 ff ff       	callq  4027e0 <_ZNSo3putEc@plt>
  403f21:	48 89 c7             	mov    %rax,%rdi
  403f24:	e8 47 ea ff ff       	callq  402970 <_ZNSo5flushEv@plt>
  403f29:	44 89 ef             	mov    %r13d,%edi
  403f2c:	e8 3f 9c 00 00       	callq  40db70 <_Z9benchmarkIdLl1000EEmi>
  403f31:	48 8d bc 24 30 01 00 	lea    0x130(%rsp),%rdi
  403f38:	00 
  403f39:	41 89 c0             	mov    %eax,%r8d
  403f3c:	b9 09 f5 40 00       	mov    $0x40f509,%ecx
  403f41:	ba 10 00 00 00       	mov    $0x10,%edx
  403f46:	be 50 29 40 00       	mov    $0x402950,%esi
  403f4b:	31 c0                	xor    %eax,%eax
  403f4d:	e8 1e 5c 00 00       	callq  409b70 <_ZN9__gnu_cxx12__to_xstringISscEET_PFiPT0_mPKS2_P13__va_list_tagEmS5_z.constprop.69>
  403f52:	48 8b 94 24 e0 02 00 	mov    0x2e0(%rsp),%rdx
  403f59:	00 
  403f5a:	48 8d 9c 24 e0 02 00 	lea    0x2e0(%rsp),%rbx
  403f61:	00 
  403f62:	48 03 5a e8          	add    -0x18(%rdx),%rbx
  403f66:	80 bb e1 00 00 00 00 	cmpb   $0x0,0xe1(%rbx)
  403f6d:	75 2f                	jne    403f9e <main+0x123e>
  403f6f:	4c 8b a3 f0 00 00 00 	mov    0xf0(%rbx),%r12
  403f76:	4d 85 e4             	test   %r12,%r12
  403f79:	0f 84 49 06 00 00    	je     4045c8 <main+0x1868>
  403f7f:	41 80 7c 24 38 00    	cmpb   $0x0,0x38(%r12)
  403f85:	0f 84 e5 00 00 00    	je     404070 <main+0x1310>
  403f8b:	41 0f b6 44 24 59    	movzbl 0x59(%r12),%eax
  403f91:	88 83 e0 00 00 00    	mov    %al,0xe0(%rbx)
  403f97:	c6 83 e1 00 00 00 01 	movb   $0x1,0xe1(%rbx)
  403f9e:	c6 83 e0 00 00 00 20 	movb   $0x20,0xe0(%rbx)
  403fa5:	48 8b b4 24 30 01 00 	mov    0x130(%rsp),%rsi
  403fac:	00 
  403fad:	48 8d bc 24 e0 02 00 	lea    0x2e0(%rsp),%rdi
  403fb4:	00 
  403fb5:	48 8b 42 e8          	mov    -0x18(%rdx),%rax
  403fb9:	48 c7 84 04 f0 02 00 	movq   $0x14,0x2f0(%rsp,%rax,1)
  403fc0:	00 14 00 00 00 
  403fc5:	48 8b 56 e8          	mov    -0x18(%rsi),%rdx
  403fc9:	e8 12 eb ff ff       	callq  402ae0 <_ZSt16__ostream_insertIcSt11char_traitsIcEERSt13basic_ostreamIT_T0_ES6_PKS3_l@plt>
  403fce:	48 8b 84 24 30 01 00 	mov    0x130(%rsp),%rax
  403fd5:	00 
  403fd6:	48 8d 78 e8          	lea    -0x18(%rax),%rdi
  403fda:	48 81 ff 00 23 61 00 	cmp    $0x612300,%rdi
  403fe1:	0f 85 ae 04 00 00    	jne    404495 <main+0x1735>
  403fe7:	45 01 ed             	add    %r13d,%r13d
  403fea:	41 83 ee 01          	sub    $0x1,%r14d
  403fee:	0f 84 a4 00 00 00    	je     404098 <main+0x1338>
  403ff4:	ba 09 00 00 00       	mov    $0x9,%edx
  403ff9:	be b2 f5 40 00       	mov    $0x40f5b2,%esi
  403ffe:	bf e0 24 61 00       	mov    $0x6124e0,%edi
  404003:	e8 d8 ea ff ff       	callq  402ae0 <_ZSt16__ostream_insertIcSt11char_traitsIcEERSt13basic_ostreamIT_T0_ES6_PKS3_l@plt>
  404008:	44 89 ee             	mov    %r13d,%esi
  40400b:	bf e0 24 61 00       	mov    $0x6124e0,%edi
  404010:	e8 8b ec ff ff       	callq  402ca0 <_ZNSolsEi@plt>
  404015:	ba 09 00 00 00       	mov    $0x9,%edx
  40401a:	be 1f f5 40 00       	mov    $0x40f51f,%esi
  40401f:	48 89 c7             	mov    %rax,%rdi
  404022:	48 89 c3             	mov    %rax,%rbx
  404025:	e8 b6 ea ff ff       	callq  402ae0 <_ZSt16__ostream_insertIcSt11char_traitsIcEERSt13basic_ostreamIT_T0_ES6_PKS3_l@plt>
  40402a:	48 8b 03             	mov    (%rbx),%rax
  40402d:	48 8b 40 e8          	mov    -0x18(%rax),%rax
  404031:	4c 8b a4 03 f0 00 00 	mov    0xf0(%rbx,%rax,1),%r12
  404038:	00 
  404039:	4d 85 e4             	test   %r12,%r12
  40403c:	0f 84 81 04 00 00    	je     4044c3 <main+0x1763>
  404042:	41 80 7c 24 38 00    	cmpb   $0x0,0x38(%r12)
  404048:	0f 85 c2 fe ff ff    	jne    403f10 <main+0x11b0>
  40404e:	4c 89 e7             	mov    %r12,%rdi
  404051:	e8 9a ea ff ff       	callq  402af0 <_ZNKSt5ctypeIcE13_M_widen_initEv@plt>
  404056:	49 8b 04 24          	mov    (%r12),%rax
  40405a:	be 0a 00 00 00       	mov    $0xa,%esi
  40405f:	4c 89 e7             	mov    %r12,%rdi
  404062:	ff 50 30             	callq  *0x30(%rax)
  404065:	e9 ac fe ff ff       	jmpq   403f16 <main+0x11b6>
  40406a:	66 0f 1f 44 00 00    	nopw   0x0(%rax,%rax,1)
  404070:	4c 89 e7             	mov    %r12,%rdi
  404073:	e8 78 ea ff ff       	callq  402af0 <_ZNKSt5ctypeIcE13_M_widen_initEv@plt>
  404078:	49 8b 04 24          	mov    (%r12),%rax
  40407c:	be 20 00 00 00       	mov    $0x20,%esi
  404081:	4c 89 e7             	mov    %r12,%rdi
  404084:	ff 50 30             	callq  *0x30(%rax)
  404087:	48 8b 94 24 e0 02 00 	mov    0x2e0(%rsp),%rdx
  40408e:	00 
  40408f:	e9 fd fe ff ff       	jmpq   403f91 <main+0x1231>
  404094:	0f 1f 40 00          	nopl   0x0(%rax)
  404098:	48 8d bc 24 e0 02 00 	lea    0x2e0(%rsp),%rdi
  40409f:	00 
  4040a0:	e8 1b e8 ff ff       	callq  4028c0 <_ZSt4endlIcSt11char_traitsIcEERSt13basic_ostreamIT_T0_ES6_@plt>
  4040a5:	48 8d bc 24 40 01 00 	lea    0x140(%rsp),%rdi
  4040ac:	00 
  4040ad:	41 b8 10 27 00 00    	mov    $0x2710,%r8d
  4040b3:	b9 09 f5 40 00       	mov    $0x40f509,%ecx
  4040b8:	ba 10 00 00 00       	mov    $0x10,%edx
  4040bd:	be 50 29 40 00       	mov    $0x402950,%esi
  4040c2:	31 c0                	xor    %eax,%eax
  4040c4:	e8 a7 5a 00 00       	callq  409b70 <_ZN9__gnu_cxx12__to_xstringISscEET_PFiPT0_mPKS2_P13__va_list_tagEmS5_z.constprop.69>
  4040c9:	48 8b 84 24 e0 02 00 	mov    0x2e0(%rsp),%rax
  4040d0:	00 
  4040d1:	48 8d 9c 24 e0 02 00 	lea    0x2e0(%rsp),%rbx
  4040d8:	00 
  4040d9:	48 03 58 e8          	add    -0x18(%rax),%rbx
  4040dd:	48 89 df             	mov    %rbx,%rdi
  4040e0:	e8 fb e7 ff ff       	callq  4028e0 <_ZNKSt9basic_iosIcSt11char_traitsIcEE4fillEv@plt>
  4040e5:	c6 83 e0 00 00 00 20 	movb   $0x20,0xe0(%rbx)
  4040ec:	48 8b 84 24 e0 02 00 	mov    0x2e0(%rsp),%rax
  4040f3:	00 
  4040f4:	48 8d bc 24 e0 02 00 	lea    0x2e0(%rsp),%rdi
  4040fb:	00 
  4040fc:	48 8b b4 24 40 01 00 	mov    0x140(%rsp),%rsi
  404103:	00 
  404104:	48 8b 40 e8          	mov    -0x18(%rax),%rax
  404108:	48 c7 84 04 f0 02 00 	movq   $0x6,0x2f0(%rsp,%rax,1)
  40410f:	00 06 00 00 00 
  404114:	48 8b 56 e8          	mov    -0x18(%rsi),%rdx
  404118:	e8 c3 e9 ff ff       	callq  402ae0 <_ZSt16__ostream_insertIcSt11char_traitsIcEERSt13basic_ostreamIT_T0_ES6_PKS3_l@plt>
  40411d:	48 8b 84 24 40 01 00 	mov    0x140(%rsp),%rax
  404124:	00 
  404125:	48 89 ee             	mov    %rbp,%rsi
  404128:	41 be 06 00 00 00    	mov    $0x6,%r14d
  40412e:	41 bd 01 00 00 00    	mov    $0x1,%r13d
  404134:	48 8d 78 e8          	lea    -0x18(%rax),%rdi
  404138:	e8 03 e8 ff ff       	callq  402940 <_ZNSs4_Rep10_M_disposeERKSaIcE@plt>
  40413d:	e9 ea 00 00 00       	jmpq   40422c <main+0x14cc>
  404142:	66 0f 1f 44 00 00    	nopw   0x0(%rax,%rax,1)
  404148:	41 0f b6 44 24 43    	movzbl 0x43(%r12),%eax
  40414e:	0f be f0             	movsbl %al,%esi
  404151:	48 89 df             	mov    %rbx,%rdi
  404154:	e8 87 e6 ff ff       	callq  4027e0 <_ZNSo3putEc@plt>
  404159:	48 89 c7             	mov    %rax,%rdi
  40415c:	e8 0f e8 ff ff       	callq  402970 <_ZNSo5flushEv@plt>
  404161:	44 89 ef             	mov    %r13d,%edi
  404164:	e8 37 a1 00 00       	callq  40e2a0 <_Z9benchmarkIdLl10000EEmi>
  404169:	48 8d bc 24 50 01 00 	lea    0x150(%rsp),%rdi
  404170:	00 
  404171:	41 89 c0             	mov    %eax,%r8d
  404174:	b9 09 f5 40 00       	mov    $0x40f509,%ecx
  404179:	ba 10 00 00 00       	mov    $0x10,%edx
  40417e:	be 50 29 40 00       	mov    $0x402950,%esi
  404183:	31 c0                	xor    %eax,%eax
  404185:	e8 e6 59 00 00       	callq  409b70 <_ZN9__gnu_cxx12__to_xstringISscEET_PFiPT0_mPKS2_P13__va_list_tagEmS5_z.constprop.69>
  40418a:	48 8b 94 24 e0 02 00 	mov    0x2e0(%rsp),%rdx
  404191:	00 
  404192:	48 8d 9c 24 e0 02 00 	lea    0x2e0(%rsp),%rbx
  404199:	00 
  40419a:	48 03 5a e8          	add    -0x18(%rdx),%rbx
  40419e:	80 bb e1 00 00 00 00 	cmpb   $0x0,0xe1(%rbx)
  4041a5:	75 2f                	jne    4041d6 <main+0x1476>
  4041a7:	4c 8b a3 f0 00 00 00 	mov    0xf0(%rbx),%r12
  4041ae:	4d 85 e4             	test   %r12,%r12
  4041b1:	0f 84 f0 03 00 00    	je     4045a7 <main+0x1847>
  4041b7:	41 80 7c 24 38 00    	cmpb   $0x0,0x38(%r12)
  4041bd:	0f 84 e5 00 00 00    	je     4042a8 <main+0x1548>
  4041c3:	41 0f b6 44 24 59    	movzbl 0x59(%r12),%eax
  4041c9:	88 83 e0 00 00 00    	mov    %al,0xe0(%rbx)
  4041cf:	c6 83 e1 00 00 00 01 	movb   $0x1,0xe1(%rbx)
  4041d6:	c6 83 e0 00 00 00 20 	movb   $0x20,0xe0(%rbx)
  4041dd:	48 8b b4 24 50 01 00 	mov    0x150(%rsp),%rsi
  4041e4:	00 
  4041e5:	48 8d bc 24 e0 02 00 	lea    0x2e0(%rsp),%rdi
  4041ec:	00 
  4041ed:	48 8b 42 e8          	mov    -0x18(%rdx),%rax
  4041f1:	48 c7 84 04 f0 02 00 	movq   $0x14,0x2f0(%rsp,%rax,1)
  4041f8:	00 14 00 00 00 
  4041fd:	48 8b 56 e8          	mov    -0x18(%rsi),%rdx
  404201:	e8 da e8 ff ff       	callq  402ae0 <_ZSt16__ostream_insertIcSt11char_traitsIcEERSt13basic_ostreamIT_T0_ES6_PKS3_l@plt>
  404206:	48 8b 84 24 50 01 00 	mov    0x150(%rsp),%rax
  40420d:	00 
  40420e:	48 8d 78 e8          	lea    -0x18(%rax),%rdi
  404212:	48 81 ff 00 23 61 00 	cmp    $0x612300,%rdi
  404219:	0f 85 d1 01 00 00    	jne    4043f0 <main+0x1690>
  40421f:	45 01 ed             	add    %r13d,%r13d
  404222:	41 83 ee 01          	sub    $0x1,%r14d
  404226:	0f 84 a4 00 00 00    	je     4042d0 <main+0x1570>
  40422c:	ba 09 00 00 00       	mov    $0x9,%edx
  404231:	be b2 f5 40 00       	mov    $0x40f5b2,%esi
  404236:	bf e0 24 61 00       	mov    $0x6124e0,%edi
  40423b:	e8 a0 e8 ff ff       	callq  402ae0 <_ZSt16__ostream_insertIcSt11char_traitsIcEERSt13basic_ostreamIT_T0_ES6_PKS3_l@plt>
  404240:	44 89 ee             	mov    %r13d,%esi
  404243:	bf e0 24 61 00       	mov    $0x6124e0,%edi
  404248:	e8 53 ea ff ff       	callq  402ca0 <_ZNSolsEi@plt>
  40424d:	ba 09 00 00 00       	mov    $0x9,%edx
  404252:	be 1f f5 40 00       	mov    $0x40f51f,%esi
  404257:	48 89 c7             	mov    %rax,%rdi
  40425a:	48 89 c3             	mov    %rax,%rbx
  40425d:	e8 7e e8 ff ff       	callq  402ae0 <_ZSt16__ostream_insertIcSt11char_traitsIcEERSt13basic_ostreamIT_T0_ES6_PKS3_l@plt>
  404262:	48 8b 03             	mov    (%rbx),%rax
  404265:	48 8b 40 e8          	mov    -0x18(%rax),%rax
  404269:	4c 8b a4 03 f0 00 00 	mov    0xf0(%rbx,%rax,1),%r12
  404270:	00 
  404271:	4d 85 e4             	test   %r12,%r12
  404274:	0f 84 a4 01 00 00    	je     40441e <main+0x16be>
  40427a:	41 80 7c 24 38 00    	cmpb   $0x0,0x38(%r12)
  404280:	0f 85 c2 fe ff ff    	jne    404148 <main+0x13e8>
  404286:	4c 89 e7             	mov    %r12,%rdi
  404289:	e8 62 e8 ff ff       	callq  402af0 <_ZNKSt5ctypeIcE13_M_widen_initEv@plt>
  40428e:	49 8b 04 24          	mov    (%r12),%rax
  404292:	be 0a 00 00 00       	mov    $0xa,%esi
  404297:	4c 89 e7             	mov    %r12,%rdi
  40429a:	ff 50 30             	callq  *0x30(%rax)
  40429d:	e9 ac fe ff ff       	jmpq   40414e <main+0x13ee>
  4042a2:	66 0f 1f 44 00 00    	nopw   0x0(%rax,%rax,1)
  4042a8:	4c 89 e7             	mov    %r12,%rdi
  4042ab:	e8 40 e8 ff ff       	callq  402af0 <_ZNKSt5ctypeIcE13_M_widen_initEv@plt>
  4042b0:	49 8b 04 24          	mov    (%r12),%rax
  4042b4:	be 20 00 00 00       	mov    $0x20,%esi
  4042b9:	4c 89 e7             	mov    %r12,%rdi
  4042bc:	ff 50 30             	callq  *0x30(%rax)
  4042bf:	48 8b 94 24 e0 02 00 	mov    0x2e0(%rsp),%rdx
  4042c6:	00 
  4042c7:	e9 fd fe ff ff       	jmpq   4041c9 <main+0x1469>
  4042cc:	0f 1f 40 00          	nopl   0x0(%rax)
  4042d0:	48 8d bc 24 e0 02 00 	lea    0x2e0(%rsp),%rdi
  4042d7:	00 
  4042d8:	e8 e3 e5 ff ff       	callq  4028c0 <_ZSt4endlIcSt11char_traitsIcEERSt13basic_ostreamIT_T0_ES6_@plt>
  4042dd:	48 8d bc 24 e0 02 00 	lea    0x2e0(%rsp),%rdi
  4042e4:	00 
  4042e5:	e8 b6 e8 ff ff       	callq  402ba0 <_ZNSt14basic_ofstreamIcSt11char_traitsIcEE5closeEv@plt>
  4042ea:	48 8b 84 24 90 01 00 	mov    0x190(%rsp),%rax
  4042f1:	00 
  4042f2:	48 89 ee             	mov    %rbp,%rsi
  4042f5:	31 db                	xor    %ebx,%ebx
  4042f7:	48 8d 78 e8          	lea    -0x18(%rax),%rdi
  4042fb:	e8 40 e6 ff ff       	callq  402940 <_ZNSs4_Rep10_M_disposeERKSaIcE@plt>
  404300:	48 8d bc 24 e0 02 00 	lea    0x2e0(%rsp),%rdi
  404307:	00 
  404308:	e8 c3 e8 ff ff       	callq  402bd0 <_ZNSt14basic_ofstreamIcSt11char_traitsIcEED1Ev@plt>
  40430d:	48 8b 44 24 40       	mov    0x40(%rsp),%rax
  404312:	48 89 ee             	mov    %rbp,%rsi
  404315:	48 8d 78 e8          	lea    -0x18(%rax),%rdi
  404319:	e8 22 e6 ff ff       	callq  402940 <_ZNSs4_Rep10_M_disposeERKSaIcE@plt>
  40431e:	48 8d bc 24 c0 01 00 	lea    0x1c0(%rsp),%rdi
  404325:	00 
  404326:	e8 f5 60 00 00       	callq  40a420 <_ZN6GetOpt9GetOpt_ppD1Ev>
  40432b:	48 8b 8c 24 e8 04 00 	mov    0x4e8(%rsp),%rcx
  404332:	00 
  404333:	64 48 33 0c 25 28 00 	xor    %fs:0x28,%rcx
  40433a:	00 00 
  40433c:	89 d8                	mov    %ebx,%eax
  40433e:	0f 85 26 03 00 00    	jne    40466a <main+0x190a>
  404344:	48 81 c4 f0 04 00 00 	add    $0x4f0,%rsp
  40434b:	5b                   	pop    %rbx
  40434c:	5d                   	pop    %rbp
  40434d:	41 5c                	pop    %r12
  40434f:	41 5d                	pop    %r13
  404351:	41 5e                	pop    %r14
  404353:	c3                   	retq   
  404354:	48 8d bc 24 e0 02 00 	lea    0x2e0(%rsp),%rdi
  40435b:	00 
  40435c:	be 48 f7 40 00       	mov    $0x40f748,%esi
  404361:	e8 ea e6 ff ff       	callq  402a50 <_ZStlsISt11char_traitsIcEERSt13basic_ostreamIcT_ES5_PKc@plt>
  404366:	48 89 c7             	mov    %rax,%rdi
  404369:	e8 52 e5 ff ff       	callq  4028c0 <_ZSt4endlIcSt11char_traitsIcEERSt13basic_ostreamIT_T0_ES6_@plt>
  40436e:	e9 8d f6 ff ff       	jmpq   403a00 <main+0xca0>
  404373:	b9 50 2c 40 00       	mov    $0x402c50,%ecx
  404378:	48 8d 57 10          	lea    0x10(%rdi),%rdx
  40437c:	48 85 c9             	test   %rcx,%rcx
  40437f:	0f 84 5f 03 00 00    	je     4046e4 <main+0x1984>
  404385:	83 c8 ff             	or     $0xffffffff,%eax
  404388:	f0 0f c1 02          	lock xadd %eax,(%rdx)
  40438c:	85 c0                	test   %eax,%eax
  40438e:	0f 8f 23 f5 ff ff    	jg     4038b7 <main+0xb57>
  404394:	48 89 ee             	mov    %rbp,%rsi
  404397:	e8 24 e6 ff ff       	callq  4029c0 <_ZNSs4_Rep10_M_destroyERKSaIcE@plt>
  40439c:	e9 16 f5 ff ff       	jmpq   4038b7 <main+0xb57>
  4043a1:	e8 9a e7 ff ff       	callq  402b40 <_ZSt16__throw_bad_castv@plt>
  4043a6:	48 89 c3             	mov    %rax,%rbx
  4043a9:	48 8b 84 24 90 01 00 	mov    0x190(%rsp),%rax
  4043b0:	00 
  4043b1:	48 89 ee             	mov    %rbp,%rsi
  4043b4:	48 8d 78 e8          	lea    -0x18(%rax),%rdi
  4043b8:	e8 83 e5 ff ff       	callq  402940 <_ZNSs4_Rep10_M_disposeERKSaIcE@plt>
  4043bd:	48 8d bc 24 e0 02 00 	lea    0x2e0(%rsp),%rdi
  4043c4:	00 
  4043c5:	e8 06 e8 ff ff       	callq  402bd0 <_ZNSt14basic_ofstreamIcSt11char_traitsIcEED1Ev@plt>
  4043ca:	48 8b 44 24 40       	mov    0x40(%rsp),%rax
  4043cf:	48 89 ee             	mov    %rbp,%rsi
  4043d2:	48 8d 78 e8          	lea    -0x18(%rax),%rdi
  4043d6:	e8 65 e5 ff ff       	callq  402940 <_ZNSs4_Rep10_M_disposeERKSaIcE@plt>
  4043db:	48 8d bc 24 c0 01 00 	lea    0x1c0(%rsp),%rdi
  4043e2:	00 
  4043e3:	e8 38 60 00 00       	callq  40a420 <_ZN6GetOpt9GetOpt_ppD1Ev>
  4043e8:	48 89 df             	mov    %rbx,%rdi
  4043eb:	e8 c0 e8 ff ff       	callq  402cb0 <_Unwind_Resume@plt>
  4043f0:	b9 50 2c 40 00       	mov    $0x402c50,%ecx
  4043f5:	48 8d 57 10          	lea    0x10(%rdi),%rdx
  4043f9:	48 85 c9             	test   %rcx,%rcx
  4043fc:	0f 84 ed 05 00 00    	je     4049ef <main+0x1c8f>
  404402:	83 c8 ff             	or     $0xffffffff,%eax
  404405:	f0 0f c1 02          	lock xadd %eax,(%rdx)
  404409:	85 c0                	test   %eax,%eax
  40440b:	0f 8f 0e fe ff ff    	jg     40421f <main+0x14bf>
  404411:	48 89 ee             	mov    %rbp,%rsi
  404414:	e8 a7 e5 ff ff       	callq  4029c0 <_ZNSs4_Rep10_M_destroyERKSaIcE@plt>
  404419:	e9 01 fe ff ff       	jmpq   40421f <main+0x14bf>
  40441e:	66 90                	xchg   %ax,%ax
  404420:	e8 1b e7 ff ff       	callq  402b40 <_ZSt16__throw_bad_castv@plt>
  404425:	e9 7c ff ff ff       	jmpq   4043a6 <main+0x1646>
  40442a:	b9 50 2c 40 00       	mov    $0x402c50,%ecx
  40442f:	48 8d 57 10          	lea    0x10(%rdi),%rdx
  404433:	48 85 c9             	test   %rcx,%rcx
  404436:	0f 84 93 05 00 00    	je     4049cf <main+0x1c6f>
  40443c:	83 c8 ff             	or     $0xffffffff,%eax
  40443f:	f0 0f c1 02          	lock xadd %eax,(%rdx)
  404443:	85 c0                	test   %eax,%eax
  404445:	0f 8f 64 f9 ff ff    	jg     403daf <main+0x104f>
  40444b:	48 89 ee             	mov    %rbp,%rsi
  40444e:	e8 6d e5 ff ff       	callq  4029c0 <_ZNSs4_Rep10_M_destroyERKSaIcE@plt>
  404453:	e9 57 f9 ff ff       	jmpq   403daf <main+0x104f>
  404458:	e8 e3 e6 ff ff       	callq  402b40 <_ZSt16__throw_bad_castv@plt>
  40445d:	b9 50 2c 40 00       	mov    $0x402c50,%ecx
  404462:	48 8d 57 10          	lea    0x10(%rdi),%rdx
  404466:	48 85 c9             	test   %rcx,%rcx
  404469:	0f 84 70 05 00 00    	je     4049df <main+0x1c7f>
  40446f:	83 c8 ff             	or     $0xffffffff,%eax
  404472:	f0 0f c1 02          	lock xadd %eax,(%rdx)
  404476:	85 c0                	test   %eax,%eax
  404478:	0f 8f f9 f6 ff ff    	jg     403b77 <main+0xe17>
  40447e:	48 89 ee             	mov    %rbp,%rsi
  404481:	e8 3a e5 ff ff       	callq  4029c0 <_ZNSs4_Rep10_M_destroyERKSaIcE@plt>
  404486:	e9 ec f6 ff ff       	jmpq   403b77 <main+0xe17>
  40448b:	0f 1f 44 00 00       	nopl   0x0(%rax,%rax,1)
  404490:	e8 ab e6 ff ff       	callq  402b40 <_ZSt16__throw_bad_castv@plt>
  404495:	b9 50 2c 40 00       	mov    $0x402c50,%ecx
  40449a:	48 8d 57 10          	lea    0x10(%rdi),%rdx
  40449e:	48 85 c9             	test   %rcx,%rcx
  4044a1:	0f 84 5a 05 00 00    	je     404a01 <main+0x1ca1>
  4044a7:	83 c8 ff             	or     $0xffffffff,%eax
  4044aa:	f0 0f c1 02          	lock xadd %eax,(%rdx)
  4044ae:	85 c0                	test   %eax,%eax
  4044b0:	0f 8f 31 fb ff ff    	jg     403fe7 <main+0x1287>
  4044b6:	48 89 ee             	mov    %rbp,%rsi
  4044b9:	e8 02 e5 ff ff       	callq  4029c0 <_ZNSs4_Rep10_M_destroyERKSaIcE@plt>
  4044be:	e9 24 fb ff ff       	jmpq   403fe7 <main+0x1287>
  4044c3:	e8 78 e6 ff ff       	callq  402b40 <_ZSt16__throw_bad_castv@plt>
  4044c8:	b9 50 2c 40 00       	mov    $0x402c50,%ecx
  4044cd:	48 8d 57 10          	lea    0x10(%rdi),%rdx
  4044d1:	48 85 c9             	test   %rcx,%rcx
  4044d4:	0f 84 37 05 00 00    	je     404a11 <main+0x1cb1>
  4044da:	83 c8 ff             	or     $0xffffffff,%eax
  4044dd:	f0 0f c1 02          	lock xadd %eax,(%rdx)
  4044e1:	85 c0                	test   %eax,%eax
  4044e3:	0f 8f 5e ef ff ff    	jg     403447 <main+0x6e7>
  4044e9:	48 89 ee             	mov    %rbp,%rsi
  4044ec:	e8 cf e4 ff ff       	callq  4029c0 <_ZNSs4_Rep10_M_destroyERKSaIcE@plt>
  4044f1:	e9 51 ef ff ff       	jmpq   403447 <main+0x6e7>
  4044f6:	e8 45 e6 ff ff       	callq  402b40 <_ZSt16__throw_bad_castv@plt>
  4044fb:	b9 50 2c 40 00       	mov    $0x402c50,%ecx
  404500:	48 8d 57 10          	lea    0x10(%rdi),%rdx
  404504:	48 85 c9             	test   %rcx,%rcx
  404507:	0f 84 14 05 00 00    	je     404a21 <main+0x1cc1>
  40450d:	83 c8 ff             	or     $0xffffffff,%eax
  404510:	f0 0f c1 02          	lock xadd %eax,(%rdx)
  404514:	85 c0                	test   %eax,%eax
  404516:	0f 8f 63 f1 ff ff    	jg     40367f <main+0x91f>
  40451c:	48 89 ee             	mov    %rbp,%rsi
  40451f:	e8 9c e4 ff ff       	callq  4029c0 <_ZNSs4_Rep10_M_destroyERKSaIcE@plt>
  404524:	e9 56 f1 ff ff       	jmpq   40367f <main+0x91f>
  404529:	e8 12 e6 ff ff       	callq  402b40 <_ZSt16__throw_bad_castv@plt>
  40452e:	b9 50 2c 40 00       	mov    $0x402c50,%ecx
  404533:	48 8d 57 10          	lea    0x10(%rdi),%rdx
  404537:	48 85 c9             	test   %rcx,%rcx
  40453a:	0f 84 f1 04 00 00    	je     404a31 <main+0x1cd1>
  404540:	83 c8 ff             	or     $0xffffffff,%eax
  404543:	f0 0f c1 02          	lock xadd %eax,(%rdx)
  404547:	85 c0                	test   %eax,%eax
  404549:	0f 8f bf ec ff ff    	jg     40320e <main+0x4ae>
  40454f:	48 89 ee             	mov    %rbp,%rsi
  404552:	e8 69 e4 ff ff       	callq  4029c0 <_ZNSs4_Rep10_M_destroyERKSaIcE@plt>
  404557:	e9 b2 ec ff ff       	jmpq   40320e <main+0x4ae>
  40455c:	0f 1f 40 00          	nopl   0x0(%rax)
  404560:	e8 db e5 ff ff       	callq  402b40 <_ZSt16__throw_bad_castv@plt>
  404565:	e8 d6 e5 ff ff       	callq  402b40 <_ZSt16__throw_bad_castv@plt>
  40456a:	48 89 c3             	mov    %rax,%rbx
  40456d:	48 8b 84 24 f0 00 00 	mov    0xf0(%rsp),%rax
  404574:	00 
  404575:	48 89 ee             	mov    %rbp,%rsi
  404578:	48 8d 78 e8          	lea    -0x18(%rax),%rdi
  40457c:	e8 bf e3 ff ff       	callq  402940 <_ZNSs4_Rep10_M_disposeERKSaIcE@plt>
  404581:	e9 23 fe ff ff       	jmpq   4043a9 <main+0x1649>
  404586:	e8 b5 e5 ff ff       	callq  402b40 <_ZSt16__throw_bad_castv@plt>
  40458b:	48 89 c3             	mov    %rax,%rbx
  40458e:	48 8b 84 24 10 01 00 	mov    0x110(%rsp),%rax
  404595:	00 
  404596:	48 89 ee             	mov    %rbp,%rsi
  404599:	48 8d 78 e8          	lea    -0x18(%rax),%rdi
  40459d:	e8 9e e3 ff ff       	callq  402940 <_ZNSs4_Rep10_M_disposeERKSaIcE@plt>
  4045a2:	e9 02 fe ff ff       	jmpq   4043a9 <main+0x1649>
  4045a7:	e8 94 e5 ff ff       	callq  402b40 <_ZSt16__throw_bad_castv@plt>
  4045ac:	48 89 c3             	mov    %rax,%rbx
  4045af:	48 8b 84 24 50 01 00 	mov    0x150(%rsp),%rax
  4045b6:	00 
  4045b7:	48 89 ee             	mov    %rbp,%rsi
  4045ba:	48 8d 78 e8          	lea    -0x18(%rax),%rdi
  4045be:	e8 7d e3 ff ff       	callq  402940 <_ZNSs4_Rep10_M_disposeERKSaIcE@plt>
  4045c3:	e9 e1 fd ff ff       	jmpq   4043a9 <main+0x1649>
  4045c8:	e8 73 e5 ff ff       	callq  402b40 <_ZSt16__throw_bad_castv@plt>
  4045cd:	48 89 c3             	mov    %rax,%rbx
  4045d0:	48 8b 84 24 30 01 00 	mov    0x130(%rsp),%rax
  4045d7:	00 
  4045d8:	48 89 ee             	mov    %rbp,%rsi
  4045db:	48 8d 78 e8          	lea    -0x18(%rax),%rdi
  4045df:	e8 5c e3 ff ff       	callq  402940 <_ZNSs4_Rep10_M_disposeERKSaIcE@plt>
  4045e4:	e9 c0 fd ff ff       	jmpq   4043a9 <main+0x1649>
  4045e9:	e8 52 e5 ff ff       	callq  402b40 <_ZSt16__throw_bad_castv@plt>
  4045ee:	48 89 c3             	mov    %rax,%rbx
  4045f1:	48 8b 84 24 90 00 00 	mov    0x90(%rsp),%rax
  4045f8:	00 
  4045f9:	48 89 ee             	mov    %rbp,%rsi
  4045fc:	48 8d 78 e8          	lea    -0x18(%rax),%rdi
  404600:	e8 3b e3 ff ff       	callq  402940 <_ZNSs4_Rep10_M_disposeERKSaIcE@plt>
  404605:	e9 9f fd ff ff       	jmpq   4043a9 <main+0x1649>
  40460a:	e8 31 e5 ff ff       	callq  402b40 <_ZSt16__throw_bad_castv@plt>
  40460f:	48 89 c3             	mov    %rax,%rbx
  404612:	48 8b 44 24 70       	mov    0x70(%rsp),%rax
  404617:	48 89 ee             	mov    %rbp,%rsi
  40461a:	48 8d 78 e8          	lea    -0x18(%rax),%rdi
  40461e:	e8 1d e3 ff ff       	callq  402940 <_ZNSs4_Rep10_M_disposeERKSaIcE@plt>
  404623:	e9 81 fd ff ff       	jmpq   4043a9 <main+0x1649>
  404628:	e8 13 e5 ff ff       	callq  402b40 <_ZSt16__throw_bad_castv@plt>
  40462d:	48 89 c3             	mov    %rax,%rbx
  404630:	48 8b 84 24 d0 00 00 	mov    0xd0(%rsp),%rax
  404637:	00 
  404638:	48 89 ee             	mov    %rbp,%rsi
  40463b:	48 8d 78 e8          	lea    -0x18(%rax),%rdi
  40463f:	e8 fc e2 ff ff       	callq  402940 <_ZNSs4_Rep10_M_disposeERKSaIcE@plt>
  404644:	e9 60 fd ff ff       	jmpq   4043a9 <main+0x1649>
  404649:	e8 f2 e4 ff ff       	callq  402b40 <_ZSt16__throw_bad_castv@plt>
  40464e:	48 89 c3             	mov    %rax,%rbx
  404651:	48 8b 84 24 b0 00 00 	mov    0xb0(%rsp),%rax
  404658:	00 
  404659:	48 89 ee             	mov    %rbp,%rsi
  40465c:	48 8d 78 e8          	lea    -0x18(%rax),%rdi
  404660:	e8 db e2 ff ff       	callq  402940 <_ZNSs4_Rep10_M_disposeERKSaIcE@plt>
  404665:	e9 3f fd ff ff       	jmpq   4043a9 <main+0x1649>
  40466a:	e8 41 e4 ff ff       	callq  402ab0 <__stack_chk_fail@plt>
  40466f:	48 89 c3             	mov    %rax,%rbx
  404672:	e9 53 fd ff ff       	jmpq   4043ca <main+0x166a>
  404677:	48 89 c3             	mov    %rax,%rbx
  40467a:	48 8b 84 24 40 01 00 	mov    0x140(%rsp),%rax
  404681:	00 
  404682:	48 89 ee             	mov    %rbp,%rsi
  404685:	48 8d 78 e8          	lea    -0x18(%rax),%rdi
  404689:	e8 b2 e2 ff ff       	callq  402940 <_ZNSs4_Rep10_M_disposeERKSaIcE@plt>
  40468e:	e9 16 fd ff ff       	jmpq   4043a9 <main+0x1649>
  404693:	48 89 c3             	mov    %rax,%rbx
  404696:	48 8b 84 24 20 01 00 	mov    0x120(%rsp),%rax
  40469d:	00 
  40469e:	48 89 ee             	mov    %rbp,%rsi
  4046a1:	48 8d 78 e8          	lea    -0x18(%rax),%rdi
  4046a5:	e8 96 e2 ff ff       	callq  402940 <_ZNSs4_Rep10_M_disposeERKSaIcE@plt>
  4046aa:	e9 fa fc ff ff       	jmpq   4043a9 <main+0x1649>
  4046af:	48 89 c3             	mov    %rax,%rbx
  4046b2:	48 8b 84 24 80 00 00 	mov    0x80(%rsp),%rax
  4046b9:	00 
  4046ba:	48 89 ee             	mov    %rbp,%rsi
  4046bd:	48 8d 78 e8          	lea    -0x18(%rax),%rdi
  4046c1:	e8 7a e2 ff ff       	callq  402940 <_ZNSs4_Rep10_M_disposeERKSaIcE@plt>
  4046c6:	e9 de fc ff ff       	jmpq   4043a9 <main+0x1649>
  4046cb:	48 89 c3             	mov    %rax,%rbx
  4046ce:	48 8b 44 24 60       	mov    0x60(%rsp),%rax
  4046d3:	48 89 ee             	mov    %rbp,%rsi
  4046d6:	48 8d 78 e8          	lea    -0x18(%rax),%rdi
  4046da:	e8 61 e2 ff ff       	callq  402940 <_ZNSs4_Rep10_M_disposeERKSaIcE@plt>
  4046df:	e9 c5 fc ff ff       	jmpq   4043a9 <main+0x1649>
  4046e4:	8b 50 f8             	mov    -0x8(%rax),%edx
  4046e7:	8d 4a ff             	lea    -0x1(%rdx),%ecx
  4046ea:	89 48 f8             	mov    %ecx,-0x8(%rax)
  4046ed:	89 d0                	mov    %edx,%eax
  4046ef:	e9 98 fc ff ff       	jmpq   40438c <main+0x162c>
  4046f4:	48 89 c5             	mov    %rax,%rbp
  4046f7:	48 83 ea 01          	sub    $0x1,%rdx
  4046fb:	74 6b                	je     404768 <main+0x1a08>
  4046fd:	48 89 eb             	mov    %rbp,%rbx
  404700:	e9 d6 fc ff ff       	jmpq   4043db <main+0x167b>
  404705:	49 89 c5             	mov    %rax,%r13
  404708:	48 8b 84 24 70 01 00 	mov    0x170(%rsp),%rax
  40470f:	00 
  404710:	48 8d ac 24 50 02 00 	lea    0x250(%rsp),%rbp
  404717:	00 
  404718:	49 89 d4             	mov    %rdx,%r12
  40471b:	48 c7 84 24 60 01 00 	movq   $0x40fa90,0x160(%rsp)
  404722:	00 90 fa 40 00 
  404727:	48 89 ee             	mov    %rbp,%rsi
  40472a:	48 8d 78 e8          	lea    -0x18(%rax),%rdi
  40472e:	e8 0d e2 ff ff       	callq  402940 <_ZNSs4_Rep10_M_disposeERKSaIcE@plt>
  404733:	48 8b 44 24 10       	mov    0x10(%rsp),%rax
  404738:	48 8d 78 e8          	lea    -0x18(%rax),%rdi
  40473c:	48 89 ee             	mov    %rbp,%rsi
  40473f:	4c 89 ed             	mov    %r13,%rbp
  404742:	e8 f9 e1 ff ff       	callq  402940 <_ZNSs4_Rep10_M_disposeERKSaIcE@plt>
  404747:	4c 89 e2             	mov    %r12,%rdx
  40474a:	eb ab                	jmp    4046f7 <main+0x1997>
  40474c:	48 c7 84 24 60 01 00 	movq   $0x40fa50,0x160(%rsp)
  404753:	00 50 fa 40 00 
  404758:	49 89 c5             	mov    %rax,%r13
  40475b:	49 89 d4             	mov    %rdx,%r12
  40475e:	48 8d ac 24 50 02 00 	lea    0x250(%rsp),%rbp
  404765:	00 
  404766:	eb cb                	jmp    404733 <main+0x19d3>
  404768:	48 89 ef             	mov    %rbp,%rdi
  40476b:	e8 c0 e3 ff ff       	callq  402b30 <__cxa_get_exception_ptr@plt>
  404770:	48 89 ef             	mov    %rbp,%rdi
  404773:	48 c7 84 24 50 01 00 	movq   $0x40f370,0x150(%rsp)
  40477a:	00 70 f3 40 00 
  40477f:	e8 fc e0 ff ff       	callq  402880 <__cxa_begin_catch@plt>
  404784:	be d9 f5 40 00       	mov    $0x40f5d9,%esi
  404789:	bf 00 28 61 00       	mov    $0x612800,%edi
  40478e:	e8 bd e2 ff ff       	callq  402a50 <_ZStlsISt11char_traitsIcEERSt13basic_ostreamIcT_ES5_PKc@plt>
  404793:	48 89 c7             	mov    %rax,%rdi
  404796:	e8 25 e1 ff ff       	callq  4028c0 <_ZSt4endlIcSt11char_traitsIcEERSt13basic_ostreamIT_T0_ES6_@plt>
  40479b:	be ec f5 40 00       	mov    $0x40f5ec,%esi
  4047a0:	bf 00 28 61 00       	mov    $0x612800,%edi
  4047a5:	48 8b 1b             	mov    (%rbx),%rbx
  4047a8:	e8 a3 e2 ff ff       	callq  402a50 <_ZStlsISt11char_traitsIcEERSt13basic_ostreamIcT_ES5_PKc@plt>
  4047ad:	48 89 de             	mov    %rbx,%rsi
  4047b0:	48 89 c7             	mov    %rax,%rdi
  4047b3:	e8 98 e2 ff ff       	callq  402a50 <_ZStlsISt11char_traitsIcEERSt13basic_ostreamIcT_ES5_PKc@plt>
  4047b8:	be f4 f5 40 00       	mov    $0x40f5f4,%esi
  4047bd:	48 89 c7             	mov    %rax,%rdi
  4047c0:	e8 8b e2 ff ff       	callq  402a50 <_ZStlsISt11char_traitsIcEERSt13basic_ostreamIcT_ES5_PKc@plt>
  4047c5:	48 89 c7             	mov    %rax,%rdi
  4047c8:	e8 f3 e0 ff ff       	callq  4028c0 <_ZSt4endlIcSt11char_traitsIcEERSt13basic_ostreamIT_T0_ES6_@plt>
  4047cd:	be ff f5 40 00       	mov    $0x40f5ff,%esi
  4047d2:	bf 00 28 61 00       	mov    $0x612800,%edi
  4047d7:	e8 74 e2 ff ff       	callq  402a50 <_ZStlsISt11char_traitsIcEERSt13basic_ostreamIcT_ES5_PKc@plt>
  4047dc:	48 89 c7             	mov    %rax,%rdi
  4047df:	e8 dc e0 ff ff       	callq  4028c0 <_ZSt4endlIcSt11char_traitsIcEERSt13basic_ostreamIT_T0_ES6_@plt>
  4047e4:	be a8 f7 40 00       	mov    $0x40f7a8,%esi
  4047e9:	bf 00 28 61 00       	mov    $0x612800,%edi
  4047ee:	e8 5d e2 ff ff       	callq  402a50 <_ZStlsISt11char_traitsIcEERSt13basic_ostreamIcT_ES5_PKc@plt>
  4047f3:	48 89 c7             	mov    %rax,%rdi
  4047f6:	e8 c5 e0 ff ff       	callq  4028c0 <_ZSt4endlIcSt11char_traitsIcEERSt13basic_ostreamIT_T0_ES6_@plt>
  4047fb:	be e0 f7 40 00       	mov    $0x40f7e0,%esi
  404800:	bf 00 28 61 00       	mov    $0x612800,%edi
  404805:	e8 46 e2 ff ff       	callq  402a50 <_ZStlsISt11char_traitsIcEERSt13basic_ostreamIcT_ES5_PKc@plt>
  40480a:	48 89 c7             	mov    %rax,%rdi
  40480d:	e8 ae e0 ff ff       	callq  4028c0 <_ZSt4endlIcSt11char_traitsIcEERSt13basic_ostreamIT_T0_ES6_@plt>
  404812:	be 18 f8 40 00       	mov    $0x40f818,%esi
  404817:	bf 00 28 61 00       	mov    $0x612800,%edi
  40481c:	e8 2f e2 ff ff       	callq  402a50 <_ZStlsISt11char_traitsIcEERSt13basic_ostreamIcT_ES5_PKc@plt>
  404821:	48 89 c7             	mov    %rax,%rdi
  404824:	e8 97 e0 ff ff       	callq  4028c0 <_ZSt4endlIcSt11char_traitsIcEERSt13basic_ostreamIT_T0_ES6_@plt>
  404829:	48 8d bc 24 50 01 00 	lea    0x150(%rsp),%rdi
  404830:	00 
  404831:	48 c7 84 24 50 01 00 	movq   $0x40f370,0x150(%rsp)
  404838:	00 70 f3 40 00 
  40483d:	83 cb ff             	or     $0xffffffff,%ebx
  404840:	e8 7b e4 ff ff       	callq  402cc0 <_ZNSt9exceptionD2Ev@plt>
  404845:	e8 e6 e3 ff ff       	callq  402c30 <__cxa_end_catch@plt>
  40484a:	e9 cf fa ff ff       	jmpq   40431e <main+0x15be>
  40484f:	48 89 c3             	mov    %rax,%rbx
  404852:	48 8b 84 24 c0 00 00 	mov    0xc0(%rsp),%rax
  404859:	00 
  40485a:	48 89 ee             	mov    %rbp,%rsi
  40485d:	48 8d 78 e8          	lea    -0x18(%rax),%rdi
  404861:	e8 da e0 ff ff       	callq  402940 <_ZNSs4_Rep10_M_disposeERKSaIcE@plt>
  404866:	e9 3e fb ff ff       	jmpq   4043a9 <main+0x1649>
  40486b:	48 89 c3             	mov    %rax,%rbx
  40486e:	48 8b 84 24 00 01 00 	mov    0x100(%rsp),%rax
  404875:	00 
  404876:	48 89 ee             	mov    %rbp,%rsi
  404879:	48 8d 78 e8          	lea    -0x18(%rax),%rdi
  40487d:	e8 be e0 ff ff       	callq  402940 <_ZNSs4_Rep10_M_disposeERKSaIcE@plt>
  404882:	e9 22 fb ff ff       	jmpq   4043a9 <main+0x1649>
  404887:	48 89 c3             	mov    %rax,%rbx
  40488a:	48 8b 84 24 e0 00 00 	mov    0xe0(%rsp),%rax
  404891:	00 
  404892:	48 89 ee             	mov    %rbp,%rsi
  404895:	48 8d 78 e8          	lea    -0x18(%rax),%rdi
  404899:	e8 a2 e0 ff ff       	callq  402940 <_ZNSs4_Rep10_M_disposeERKSaIcE@plt>
  40489e:	e9 06 fb ff ff       	jmpq   4043a9 <main+0x1649>
  4048a3:	48 89 c3             	mov    %rax,%rbx
  4048a6:	48 8b 84 24 a0 00 00 	mov    0xa0(%rsp),%rax
  4048ad:	00 
  4048ae:	48 89 ee             	mov    %rbp,%rsi
  4048b1:	48 8d 78 e8          	lea    -0x18(%rax),%rdi
  4048b5:	e8 86 e0 ff ff       	callq  402940 <_ZNSs4_Rep10_M_disposeERKSaIcE@plt>
  4048ba:	e9 ea fa ff ff       	jmpq   4043a9 <main+0x1649>
  4048bf:	48 8d bc 24 50 01 00 	lea    0x150(%rsp),%rdi
  4048c6:	00 
  4048c7:	48 89 c3             	mov    %rax,%rbx
  4048ca:	48 c7 84 24 50 01 00 	movq   $0x40f370,0x150(%rsp)
  4048d1:	00 70 f3 40 00 
  4048d6:	e8 e5 e3 ff ff       	callq  402cc0 <_ZNSt9exceptionD2Ev@plt>
  4048db:	e8 50 e3 ff ff       	callq  402c30 <__cxa_end_catch@plt>
  4048e0:	e9 f6 fa ff ff       	jmpq   4043db <main+0x167b>
  4048e5:	48 89 c5             	mov    %rax,%rbp
  4048e8:	48 8b 84 24 60 02 00 	mov    0x260(%rsp),%rax
  4048ef:	00 
  4048f0:	48 8d b4 24 90 01 00 	lea    0x190(%rsp),%rsi
  4048f7:	00 
  4048f8:	49 89 d4             	mov    %rdx,%r12
  4048fb:	48 c7 84 24 50 02 00 	movq   $0x40fb10,0x250(%rsp)
  404902:	00 10 fb 40 00 
  404907:	48 8d 78 e8          	lea    -0x18(%rax),%rdi
  40490b:	e8 30 e0 ff ff       	callq  402940 <_ZNSs4_Rep10_M_disposeERKSaIcE@plt>
  404910:	48 8b 44 24 30       	mov    0x30(%rsp),%rax
  404915:	48 8d b4 24 90 01 00 	lea    0x190(%rsp),%rsi
  40491c:	00 
  40491d:	48 8d 78 e8          	lea    -0x18(%rax),%rdi
  404921:	e8 1a e0 ff ff       	callq  402940 <_ZNSs4_Rep10_M_disposeERKSaIcE@plt>
  404926:	4c 89 e2             	mov    %r12,%rdx
  404929:	e9 c9 fd ff ff       	jmpq   4046f7 <main+0x1997>
  40492e:	48 c7 84 24 50 02 00 	movq   $0x40fa50,0x250(%rsp)
  404935:	00 50 fa 40 00 
  40493a:	48 89 c5             	mov    %rax,%rbp
  40493d:	49 89 d4             	mov    %rdx,%r12
  404940:	eb ce                	jmp    404910 <main+0x1bb0>
  404942:	49 89 c5             	mov    %rax,%r13
  404945:	48 8b 84 24 a0 01 00 	mov    0x1a0(%rsp),%rax
  40494c:	00 
  40494d:	48 89 ee             	mov    %rbp,%rsi
  404950:	49 89 d4             	mov    %rdx,%r12
  404953:	48 c7 84 24 90 01 00 	movq   $0x40fa90,0x190(%rsp)
  40495a:	00 90 fa 40 00 
  40495f:	48 8d 78 e8          	lea    -0x18(%rax),%rdi
  404963:	e8 d8 df ff ff       	callq  402940 <_ZNSs4_Rep10_M_disposeERKSaIcE@plt>
  404968:	48 8b 44 24 20       	mov    0x20(%rsp),%rax
  40496d:	e9 c6 fd ff ff       	jmpq   404738 <main+0x19d8>
  404972:	48 c7 84 24 90 01 00 	movq   $0x40fa50,0x190(%rsp)
  404979:	00 50 fa 40 00 
  40497e:	49 89 c5             	mov    %rax,%r13
  404981:	49 89 d4             	mov    %rdx,%r12
  404984:	eb e2                	jmp    404968 <main+0x1c08>
  404986:	48 89 c3             	mov    %rax,%rbx
  404989:	48 8b 44 24 50       	mov    0x50(%rsp),%rax
  40498e:	48 8d 74 24 0f       	lea    0xf(%rsp),%rsi
  404993:	48 8d 78 e8          	lea    -0x18(%rax),%rdi
  404997:	e8 a4 df ff ff       	callq  402940 <_ZNSs4_Rep10_M_disposeERKSaIcE@plt>
  40499c:	e9 29 fa ff ff       	jmpq   4043ca <main+0x166a>
  4049a1:	48 89 c3             	mov    %rax,%rbx
  4049a4:	e9 32 fa ff ff       	jmpq   4043db <main+0x167b>
  4049a9:	48 89 c3             	mov    %rax,%rbx
  4049ac:	48 8b 44 24 50       	mov    0x50(%rsp),%rax
  4049b1:	48 8d b4 24 90 01 00 	lea    0x190(%rsp),%rsi
  4049b8:	00 
  4049b9:	48 8d 78 e8          	lea    -0x18(%rax),%rdi
  4049bd:	e8 7e df ff ff       	callq  402940 <_ZNSs4_Rep10_M_disposeERKSaIcE@plt>
  4049c2:	e9 03 fa ff ff       	jmpq   4043ca <main+0x166a>
  4049c7:	48 89 c3             	mov    %rax,%rbx
  4049ca:	e9 ee f9 ff ff       	jmpq   4043bd <main+0x165d>
  4049cf:	8b 50 f8             	mov    -0x8(%rax),%edx
  4049d2:	8d 4a ff             	lea    -0x1(%rdx),%ecx
  4049d5:	89 48 f8             	mov    %ecx,-0x8(%rax)
  4049d8:	89 d0                	mov    %edx,%eax
  4049da:	e9 64 fa ff ff       	jmpq   404443 <main+0x16e3>
  4049df:	8b 50 f8             	mov    -0x8(%rax),%edx
  4049e2:	8d 4a ff             	lea    -0x1(%rdx),%ecx
  4049e5:	89 48 f8             	mov    %ecx,-0x8(%rax)
  4049e8:	89 d0                	mov    %edx,%eax
  4049ea:	e9 87 fa ff ff       	jmpq   404476 <main+0x1716>
  4049ef:	8b 50 f8             	mov    -0x8(%rax),%edx
  4049f2:	8d 4a ff             	lea    -0x1(%rdx),%ecx
  4049f5:	89 48 f8             	mov    %ecx,-0x8(%rax)
  4049f8:	89 d0                	mov    %edx,%eax
  4049fa:	e9 0a fa ff ff       	jmpq   404409 <main+0x16a9>
  4049ff:	eb c6                	jmp    4049c7 <main+0x1c67>
  404a01:	8b 50 f8             	mov    -0x8(%rax),%edx
  404a04:	8d 4a ff             	lea    -0x1(%rdx),%ecx
  404a07:	89 48 f8             	mov    %ecx,-0x8(%rax)
  404a0a:	89 d0                	mov    %edx,%eax
  404a0c:	e9 9d fa ff ff       	jmpq   4044ae <main+0x174e>
  404a11:	8b 50 f8             	mov    -0x8(%rax),%edx
  404a14:	8d 4a ff             	lea    -0x1(%rdx),%ecx
  404a17:	89 48 f8             	mov    %ecx,-0x8(%rax)
  404a1a:	89 d0                	mov    %edx,%eax
  404a1c:	e9 c0 fa ff ff       	jmpq   4044e1 <main+0x1781>
  404a21:	8b 50 f8             	mov    -0x8(%rax),%edx
  404a24:	8d 4a ff             	lea    -0x1(%rdx),%ecx
  404a27:	89 48 f8             	mov    %ecx,-0x8(%rax)
  404a2a:	89 d0                	mov    %edx,%eax
  404a2c:	e9 e3 fa ff ff       	jmpq   404514 <main+0x17b4>
  404a31:	8b 50 f8             	mov    -0x8(%rax),%edx
  404a34:	8d 4a ff             	lea    -0x1(%rdx),%ecx
  404a37:	89 48 f8             	mov    %ecx,-0x8(%rax)
  404a3a:	89 d0                	mov    %edx,%eax
  404a3c:	e9 06 fb ff ff       	jmpq   404547 <main+0x17e7>
  404a41:	90                   	nop
  404a42:	90                   	nop
  404a43:	90                   	nop
  404a44:	90                   	nop
  404a45:	90                   	nop
  404a46:	90                   	nop
  404a47:	90                   	nop
  404a48:	90                   	nop
  404a49:	90                   	nop
  404a4a:	90                   	nop
  404a4b:	90                   	nop
  404a4c:	90                   	nop
  404a4d:	90                   	nop
  404a4e:	90                   	nop
  404a4f:	90                   	nop

0000000000404a50 <_GLOBAL__sub_I_steps>:
  404a50:	48 83 ec 08          	sub    $0x8,%rsp
  404a54:	bf 64 29 61 00       	mov    $0x612964,%edi
  404a59:	e8 92 e1 ff ff       	callq  402bf0 <_ZNSt8ios_base4InitC1Ev@plt>
  404a5e:	ba c0 22 61 00       	mov    $0x6122c0,%edx
  404a63:	be 64 29 61 00       	mov    $0x612964,%esi
  404a68:	bf 50 2d 40 00       	mov    $0x402d50,%edi
  404a6d:	48 83 c4 08          	add    $0x8,%rsp
  404a71:	e9 9a df ff ff       	jmpq   402a10 <__cxa_atexit@plt>
  404a76:	90                   	nop
  404a77:	90                   	nop

0000000000404a78 <_start>:
  404a78:	31 ed                	xor    %ebp,%ebp
  404a7a:	49 89 d1             	mov    %rdx,%r9
  404a7d:	5e                   	pop    %rsi
  404a7e:	48 89 e2             	mov    %rsp,%rdx
  404a81:	48 83 e4 f0          	and    $0xfffffffffffffff0,%rsp
  404a85:	50                   	push   %rax
  404a86:	54                   	push   %rsp
  404a87:	49 c7 c0 50 f1 40 00 	mov    $0x40f150,%r8
  404a8e:	48 c7 c1 c0 f0 40 00 	mov    $0x40f0c0,%rcx
  404a95:	48 c7 c7 60 2d 40 00 	mov    $0x402d60,%rdi
  404a9c:	e8 3f e2 ff ff       	callq  402ce0 <__libc_start_main@plt>
  404aa1:	f4                   	hlt    
  404aa2:	90                   	nop
  404aa3:	90                   	nop

0000000000404aa4 <call_gmon_start>:
  404aa4:	48 83 ec 08          	sub    $0x8,%rsp
  404aa8:	48 8b 05 31 d5 20 00 	mov    0x20d531(%rip),%rax        # 611fe0 <_DYNAMIC+0x220>
  404aaf:	48 85 c0             	test   %rax,%rax
  404ab2:	74 02                	je     404ab6 <call_gmon_start+0x12>
  404ab4:	ff d0                	callq  *%rax
  404ab6:	48 83 c4 08          	add    $0x8,%rsp
  404aba:	c3                   	retq   
  404abb:	90                   	nop
  404abc:	90                   	nop
  404abd:	90                   	nop
  404abe:	90                   	nop
  404abf:	90                   	nop

0000000000404ac0 <deregister_tm_clones>:
  404ac0:	b8 cf 22 61 00       	mov    $0x6122cf,%eax
  404ac5:	55                   	push   %rbp
  404ac6:	48 2d c8 22 61 00    	sub    $0x6122c8,%rax
  404acc:	48 83 f8 0e          	cmp    $0xe,%rax
  404ad0:	48 89 e5             	mov    %rsp,%rbp
  404ad3:	77 02                	ja     404ad7 <deregister_tm_clones+0x17>
  404ad5:	5d                   	pop    %rbp
  404ad6:	c3                   	retq   
  404ad7:	b8 00 00 00 00       	mov    $0x0,%eax
  404adc:	48 85 c0             	test   %rax,%rax
  404adf:	74 f4                	je     404ad5 <deregister_tm_clones+0x15>
  404ae1:	5d                   	pop    %rbp
  404ae2:	bf c8 22 61 00       	mov    $0x6122c8,%edi
  404ae7:	ff e0                	jmpq   *%rax
  404ae9:	0f 1f 80 00 00 00 00 	nopl   0x0(%rax)

0000000000404af0 <register_tm_clones>:
  404af0:	b8 c8 22 61 00       	mov    $0x6122c8,%eax
  404af5:	55                   	push   %rbp
  404af6:	48 2d c8 22 61 00    	sub    $0x6122c8,%rax
  404afc:	48 c1 f8 03          	sar    $0x3,%rax
  404b00:	48 89 e5             	mov    %rsp,%rbp
  404b03:	48 89 c2             	mov    %rax,%rdx
  404b06:	48 c1 ea 3f          	shr    $0x3f,%rdx
  404b0a:	48 01 d0             	add    %rdx,%rax
  404b0d:	48 d1 f8             	sar    %rax
  404b10:	75 02                	jne    404b14 <register_tm_clones+0x24>
  404b12:	5d                   	pop    %rbp
  404b13:	c3                   	retq   
  404b14:	ba 00 00 00 00       	mov    $0x0,%edx
  404b19:	48 85 d2             	test   %rdx,%rdx
  404b1c:	74 f4                	je     404b12 <register_tm_clones+0x22>
  404b1e:	5d                   	pop    %rbp
  404b1f:	48 89 c6             	mov    %rax,%rsi
  404b22:	bf c8 22 61 00       	mov    $0x6122c8,%edi
  404b27:	ff e2                	jmpq   *%rdx
  404b29:	0f 1f 80 00 00 00 00 	nopl   0x0(%rax)

0000000000404b30 <__do_global_dtors_aux>:
  404b30:	80 3d 09 de 20 00 00 	cmpb   $0x0,0x20de09(%rip)        # 612940 <completed.6976>
  404b37:	75 11                	jne    404b4a <__do_global_dtors_aux+0x1a>
  404b39:	55                   	push   %rbp
  404b3a:	48 89 e5             	mov    %rsp,%rbp
  404b3d:	e8 7e ff ff ff       	callq  404ac0 <deregister_tm_clones>
  404b42:	5d                   	pop    %rbp
  404b43:	c6 05 f6 dd 20 00 01 	movb   $0x1,0x20ddf6(%rip)        # 612940 <completed.6976>
  404b4a:	f3 c3                	repz retq 
  404b4c:	0f 1f 40 00          	nopl   0x0(%rax)

0000000000404b50 <frame_dummy>:
  404b50:	48 83 3d 60 d2 20 00 	cmpq   $0x0,0x20d260(%rip)        # 611db8 <__JCR_END__>
  404b57:	00 
  404b58:	74 1e                	je     404b78 <frame_dummy+0x28>
  404b5a:	b8 00 00 00 00       	mov    $0x0,%eax
  404b5f:	48 85 c0             	test   %rax,%rax
  404b62:	74 14                	je     404b78 <frame_dummy+0x28>
  404b64:	55                   	push   %rbp
  404b65:	bf b8 1d 61 00       	mov    $0x611db8,%edi
  404b6a:	48 89 e5             	mov    %rsp,%rbp
  404b6d:	ff d0                	callq  *%rax
  404b6f:	5d                   	pop    %rbp
  404b70:	e9 7b ff ff ff       	jmpq   404af0 <register_tm_clones>
  404b75:	0f 1f 00             	nopl   (%rax)
  404b78:	e9 73 ff ff ff       	jmpq   404af0 <register_tm_clones>
  404b7d:	90                   	nop
  404b7e:	90                   	nop
  404b7f:	90                   	nop

0000000000404b80 <_ZN6GetOpt8GetOptExD1Ev>:
  404b80:	48 c7 07 70 f3 40 00 	movq   $0x40f370,(%rdi)
  404b87:	e9 34 e1 ff ff       	jmpq   402cc0 <_ZNSt9exceptionD2Ev@plt>
  404b8c:	90                   	nop
  404b8d:	90                   	nop
  404b8e:	90                   	nop
  404b8f:	90                   	nop

0000000000404b90 <_ZN6GetOpt8GetOptExD0Ev>:
  404b90:	53                   	push   %rbx
  404b91:	48 89 fb             	mov    %rdi,%rbx
  404b94:	48 c7 07 70 f3 40 00 	movq   $0x40f370,(%rdi)
  404b9b:	e8 20 e1 ff ff       	callq  402cc0 <_ZNSt9exceptionD2Ev@plt>
  404ba0:	48 89 df             	mov    %rbx,%rdi
  404ba3:	5b                   	pop    %rbx
  404ba4:	e9 87 de ff ff       	jmpq   402a30 <_ZdlPv@plt>
  404ba9:	90                   	nop
  404baa:	90                   	nop
  404bab:	90                   	nop
  404bac:	90                   	nop
  404bad:	90                   	nop
  404bae:	90                   	nop
  404baf:	90                   	nop

0000000000404bb0 <_ZN6GetOpt16OptionNotFoundExD1Ev>:
  404bb0:	48 c7 07 70 f3 40 00 	movq   $0x40f370,(%rdi)
  404bb7:	e9 04 e1 ff ff       	jmpq   402cc0 <_ZNSt9exceptionD2Ev@plt>
  404bbc:	90                   	nop
  404bbd:	90                   	nop
  404bbe:	90                   	nop
  404bbf:	90                   	nop

0000000000404bc0 <_ZN6GetOpt16OptionNotFoundExD0Ev>:
  404bc0:	53                   	push   %rbx
  404bc1:	48 89 fb             	mov    %rdi,%rbx
  404bc4:	48 c7 07 70 f3 40 00 	movq   $0x40f370,(%rdi)
  404bcb:	e8 f0 e0 ff ff       	callq  402cc0 <_ZNSt9exceptionD2Ev@plt>
  404bd0:	48 89 df             	mov    %rbx,%rdi
  404bd3:	5b                   	pop    %rbx
  404bd4:	e9 57 de ff ff       	jmpq   402a30 <_ZdlPv@plt>
  404bd9:	90                   	nop
  404bda:	90                   	nop
  404bdb:	90                   	nop
  404bdc:	90                   	nop
  404bdd:	90                   	nop
  404bde:	90                   	nop
  404bdf:	90                   	nop

0000000000404be0 <_ZN6GetOpt18TooManyArgumentsExD1Ev>:
  404be0:	48 c7 07 70 f3 40 00 	movq   $0x40f370,(%rdi)
  404be7:	e9 d4 e0 ff ff       	jmpq   402cc0 <_ZNSt9exceptionD2Ev@plt>
  404bec:	90                   	nop
  404bed:	90                   	nop
  404bee:	90                   	nop
  404bef:	90                   	nop

0000000000404bf0 <_ZN6GetOpt18TooManyArgumentsExD0Ev>:
  404bf0:	53                   	push   %rbx
  404bf1:	48 89 fb             	mov    %rdi,%rbx
  404bf4:	48 c7 07 70 f3 40 00 	movq   $0x40f370,(%rdi)
  404bfb:	e8 c0 e0 ff ff       	callq  402cc0 <_ZNSt9exceptionD2Ev@plt>
  404c00:	48 89 df             	mov    %rbx,%rdi
  404c03:	5b                   	pop    %rbx
  404c04:	e9 27 de ff ff       	jmpq   402a30 <_ZdlPv@plt>
  404c09:	90                   	nop
  404c0a:	90                   	nop
  404c0b:	90                   	nop
  404c0c:	90                   	nop
  404c0d:	90                   	nop
  404c0e:	90                   	nop
  404c0f:	90                   	nop

0000000000404c10 <_ZN6GetOpt18ArgumentNotFoundExD1Ev>:
  404c10:	48 c7 07 70 f3 40 00 	movq   $0x40f370,(%rdi)
  404c17:	e9 a4 e0 ff ff       	jmpq   402cc0 <_ZNSt9exceptionD2Ev@plt>
  404c1c:	90                   	nop
  404c1d:	90                   	nop
  404c1e:	90                   	nop
  404c1f:	90                   	nop

0000000000404c20 <_ZN6GetOpt18ArgumentNotFoundExD0Ev>:
  404c20:	53                   	push   %rbx
  404c21:	48 89 fb             	mov    %rdi,%rbx
  404c24:	48 c7 07 70 f3 40 00 	movq   $0x40f370,(%rdi)
  404c2b:	e8 90 e0 ff ff       	callq  402cc0 <_ZNSt9exceptionD2Ev@plt>
  404c30:	48 89 df             	mov    %rbx,%rdi
  404c33:	5b                   	pop    %rbx
  404c34:	e9 f7 dd ff ff       	jmpq   402a30 <_ZdlPv@plt>
  404c39:	90                   	nop
  404c3a:	90                   	nop
  404c3b:	90                   	nop
  404c3c:	90                   	nop
  404c3d:	90                   	nop
  404c3e:	90                   	nop
  404c3f:	90                   	nop

0000000000404c40 <_ZN6GetOpt15InvalidFormatExD1Ev>:
  404c40:	48 c7 07 70 f3 40 00 	movq   $0x40f370,(%rdi)
  404c47:	e9 74 e0 ff ff       	jmpq   402cc0 <_ZNSt9exceptionD2Ev@plt>
  404c4c:	90                   	nop
  404c4d:	90                   	nop
  404c4e:	90                   	nop
  404c4f:	90                   	nop

0000000000404c50 <_ZN6GetOpt15InvalidFormatExD0Ev>:
  404c50:	53                   	push   %rbx
  404c51:	48 89 fb             	mov    %rdi,%rbx
  404c54:	48 c7 07 70 f3 40 00 	movq   $0x40f370,(%rdi)
  404c5b:	e8 60 e0 ff ff       	callq  402cc0 <_ZNSt9exceptionD2Ev@plt>
  404c60:	48 89 df             	mov    %rbx,%rdi
  404c63:	5b                   	pop    %rbx
  404c64:	e9 c7 dd ff ff       	jmpq   402a30 <_ZdlPv@plt>
  404c69:	90                   	nop
  404c6a:	90                   	nop
  404c6b:	90                   	nop
  404c6c:	90                   	nop
  404c6d:	90                   	nop
  404c6e:	90                   	nop
  404c6f:	90                   	nop

0000000000404c70 <_ZN6GetOpt14ParsingErrorExD1Ev>:
  404c70:	48 c7 07 70 f3 40 00 	movq   $0x40f370,(%rdi)
  404c77:	e9 44 e0 ff ff       	jmpq   402cc0 <_ZNSt9exceptionD2Ev@plt>
  404c7c:	90                   	nop
  404c7d:	90                   	nop
  404c7e:	90                   	nop
  404c7f:	90                   	nop

0000000000404c80 <_ZN6GetOpt14ParsingErrorExD0Ev>:
  404c80:	53                   	push   %rbx
  404c81:	48 89 fb             	mov    %rdi,%rbx
  404c84:	48 c7 07 70 f3 40 00 	movq   $0x40f370,(%rdi)
  404c8b:	e8 30 e0 ff ff       	callq  402cc0 <_ZNSt9exceptionD2Ev@plt>
  404c90:	48 89 df             	mov    %rbx,%rdi
  404c93:	5b                   	pop    %rbx
  404c94:	e9 97 dd ff ff       	jmpq   402a30 <_ZdlPv@plt>
  404c99:	90                   	nop
  404c9a:	90                   	nop
  404c9b:	90                   	nop
  404c9c:	90                   	nop
  404c9d:	90                   	nop
  404c9e:	90                   	nop
  404c9f:	90                   	nop

0000000000404ca0 <_ZNSt15basic_stringbufIcSt11char_traitsIcESaIcEED1Ev>:
  404ca0:	53                   	push   %rbx
  404ca1:	48 89 fb             	mov    %rdi,%rbx
  404ca4:	48 83 ec 10          	sub    $0x10,%rsp
  404ca8:	48 8b 47 48          	mov    0x48(%rdi),%rax
  404cac:	48 c7 07 70 26 61 00 	movq   $0x612670,(%rdi)
  404cb3:	48 8d 78 e8          	lea    -0x18(%rax),%rdi
  404cb7:	48 81 ff 00 23 61 00 	cmp    $0x612300,%rdi
  404cbe:	75 16                	jne    404cd6 <_ZNSt15basic_stringbufIcSt11char_traitsIcESaIcEED1Ev+0x36>
  404cc0:	48 8d 7b 38          	lea    0x38(%rbx),%rdi
  404cc4:	48 c7 03 b0 23 61 00 	movq   $0x6123b0,(%rbx)
  404ccb:	e8 c0 de ff ff       	callq  402b90 <_ZNSt6localeD1Ev@plt>
  404cd0:	48 83 c4 10          	add    $0x10,%rsp
  404cd4:	5b                   	pop    %rbx
  404cd5:	c3                   	retq   
  404cd6:	b9 50 2c 40 00       	mov    $0x402c50,%ecx
  404cdb:	48 8d 57 10          	lea    0x10(%rdi),%rdx
  404cdf:	48 85 c9             	test   %rcx,%rcx
  404ce2:	74 17                	je     404cfb <_ZNSt15basic_stringbufIcSt11char_traitsIcESaIcEED1Ev+0x5b>
  404ce4:	83 c8 ff             	or     $0xffffffff,%eax
  404ce7:	f0 0f c1 02          	lock xadd %eax,(%rdx)
  404ceb:	85 c0                	test   %eax,%eax
  404ced:	7f d1                	jg     404cc0 <_ZNSt15basic_stringbufIcSt11char_traitsIcESaIcEED1Ev+0x20>
  404cef:	48 8d 74 24 0f       	lea    0xf(%rsp),%rsi
  404cf4:	e8 c7 dc ff ff       	callq  4029c0 <_ZNSs4_Rep10_M_destroyERKSaIcE@plt>
  404cf9:	eb c5                	jmp    404cc0 <_ZNSt15basic_stringbufIcSt11char_traitsIcESaIcEED1Ev+0x20>
  404cfb:	8b 50 f8             	mov    -0x8(%rax),%edx
  404cfe:	8d 4a ff             	lea    -0x1(%rdx),%ecx
  404d01:	89 48 f8             	mov    %ecx,-0x8(%rax)
  404d04:	89 d0                	mov    %edx,%eax
  404d06:	eb e3                	jmp    404ceb <_ZNSt15basic_stringbufIcSt11char_traitsIcESaIcEED1Ev+0x4b>
  404d08:	90                   	nop
  404d09:	90                   	nop
  404d0a:	90                   	nop
  404d0b:	90                   	nop
  404d0c:	90                   	nop
  404d0d:	90                   	nop
  404d0e:	90                   	nop
  404d0f:	90                   	nop

0000000000404d10 <_ZN6GetOpt21OptionsFileNotFoundExD1Ev>:
  404d10:	53                   	push   %rbx
  404d11:	48 89 fb             	mov    %rdi,%rbx
  404d14:	48 83 ec 10          	sub    $0x10,%rsp
  404d18:	48 8b 47 08          	mov    0x8(%rdi),%rax
  404d1c:	48 c7 07 f0 f4 40 00 	movq   $0x40f4f0,(%rdi)
  404d23:	48 8d 78 e8          	lea    -0x18(%rax),%rdi
  404d27:	48 81 ff 00 23 61 00 	cmp    $0x612300,%rdi
  404d2e:	75 15                	jne    404d45 <_ZN6GetOpt21OptionsFileNotFoundExD1Ev+0x35>
  404d30:	48 c7 03 70 f3 40 00 	movq   $0x40f370,(%rbx)
  404d37:	48 89 df             	mov    %rbx,%rdi
  404d3a:	e8 81 df ff ff       	callq  402cc0 <_ZNSt9exceptionD2Ev@plt>
  404d3f:	48 83 c4 10          	add    $0x10,%rsp
  404d43:	5b                   	pop    %rbx
  404d44:	c3                   	retq   
  404d45:	b9 50 2c 40 00       	mov    $0x402c50,%ecx
  404d4a:	48 8d 57 10          	lea    0x10(%rdi),%rdx
  404d4e:	48 85 c9             	test   %rcx,%rcx
  404d51:	74 17                	je     404d6a <_ZN6GetOpt21OptionsFileNotFoundExD1Ev+0x5a>
  404d53:	83 c8 ff             	or     $0xffffffff,%eax
  404d56:	f0 0f c1 02          	lock xadd %eax,(%rdx)
  404d5a:	85 c0                	test   %eax,%eax
  404d5c:	7f d2                	jg     404d30 <_ZN6GetOpt21OptionsFileNotFoundExD1Ev+0x20>
  404d5e:	48 8d 74 24 0f       	lea    0xf(%rsp),%rsi
  404d63:	e8 58 dc ff ff       	callq  4029c0 <_ZNSs4_Rep10_M_destroyERKSaIcE@plt>
  404d68:	eb c6                	jmp    404d30 <_ZN6GetOpt21OptionsFileNotFoundExD1Ev+0x20>
  404d6a:	8b 50 f8             	mov    -0x8(%rax),%edx
  404d6d:	8d 4a ff             	lea    -0x1(%rdx),%ecx
  404d70:	89 48 f8             	mov    %ecx,-0x8(%rax)
  404d73:	89 d0                	mov    %edx,%eax
  404d75:	eb e3                	jmp    404d5a <_ZN6GetOpt21OptionsFileNotFoundExD1Ev+0x4a>
  404d77:	90                   	nop
  404d78:	90                   	nop
  404d79:	90                   	nop
  404d7a:	90                   	nop
  404d7b:	90                   	nop
  404d7c:	90                   	nop
  404d7d:	90                   	nop
  404d7e:	90                   	nop
  404d7f:	90                   	nop

0000000000404d80 <_ZNSt15basic_stringbufIcSt11char_traitsIcESaIcEED0Ev>:
  404d80:	53                   	push   %rbx
  404d81:	48 89 fb             	mov    %rdi,%rbx
  404d84:	48 83 ec 10          	sub    $0x10,%rsp
  404d88:	48 8b 47 48          	mov    0x48(%rdi),%rax
  404d8c:	48 c7 07 70 26 61 00 	movq   $0x612670,(%rdi)
  404d93:	48 8d 78 e8          	lea    -0x18(%rax),%rdi
  404d97:	48 81 ff 00 23 61 00 	cmp    $0x612300,%rdi
  404d9e:	75 1e                	jne    404dbe <_ZNSt15basic_stringbufIcSt11char_traitsIcESaIcEED0Ev+0x3e>
  404da0:	48 8d 7b 38          	lea    0x38(%rbx),%rdi
  404da4:	48 c7 03 b0 23 61 00 	movq   $0x6123b0,(%rbx)
  404dab:	e8 e0 dd ff ff       	callq  402b90 <_ZNSt6localeD1Ev@plt>
  404db0:	48 89 df             	mov    %rbx,%rdi
  404db3:	e8 78 dc ff ff       	callq  402a30 <_ZdlPv@plt>
  404db8:	48 83 c4 10          	add    $0x10,%rsp
  404dbc:	5b                   	pop    %rbx
  404dbd:	c3                   	retq   
  404dbe:	b9 50 2c 40 00       	mov    $0x402c50,%ecx
  404dc3:	48 8d 57 10          	lea    0x10(%rdi),%rdx
  404dc7:	48 85 c9             	test   %rcx,%rcx
  404dca:	74 17                	je     404de3 <_ZNSt15basic_stringbufIcSt11char_traitsIcESaIcEED0Ev+0x63>
  404dcc:	83 c8 ff             	or     $0xffffffff,%eax
  404dcf:	f0 0f c1 02          	lock xadd %eax,(%rdx)
  404dd3:	85 c0                	test   %eax,%eax
  404dd5:	7f c9                	jg     404da0 <_ZNSt15basic_stringbufIcSt11char_traitsIcESaIcEED0Ev+0x20>
  404dd7:	48 8d 74 24 0f       	lea    0xf(%rsp),%rsi
  404ddc:	e8 df db ff ff       	callq  4029c0 <_ZNSs4_Rep10_M_destroyERKSaIcE@plt>
  404de1:	eb bd                	jmp    404da0 <_ZNSt15basic_stringbufIcSt11char_traitsIcESaIcEED0Ev+0x20>
  404de3:	8b 50 f8             	mov    -0x8(%rax),%edx
  404de6:	8d 4a ff             	lea    -0x1(%rdx),%ecx
  404de9:	89 48 f8             	mov    %ecx,-0x8(%rax)
  404dec:	89 d0                	mov    %edx,%eax
  404dee:	eb e3                	jmp    404dd3 <_ZNSt15basic_stringbufIcSt11char_traitsIcESaIcEED0Ev+0x53>

0000000000404df0 <_ZN6GetOpt21OptionsFileNotFoundExD0Ev>:
  404df0:	53                   	push   %rbx
  404df1:	48 89 fb             	mov    %rdi,%rbx
  404df4:	48 83 ec 10          	sub    $0x10,%rsp
  404df8:	48 8b 47 08          	mov    0x8(%rdi),%rax
  404dfc:	48 c7 07 f0 f4 40 00 	movq   $0x40f4f0,(%rdi)
  404e03:	48 8d 78 e8          	lea    -0x18(%rax),%rdi
  404e07:	48 81 ff 00 23 61 00 	cmp    $0x612300,%rdi
  404e0e:	75 1d                	jne    404e2d <_ZN6GetOpt21OptionsFileNotFoundExD0Ev+0x3d>
  404e10:	48 89 df             	mov    %rbx,%rdi
  404e13:	48 c7 03 70 f3 40 00 	movq   $0x40f370,(%rbx)
  404e1a:	e8 a1 de ff ff       	callq  402cc0 <_ZNSt9exceptionD2Ev@plt>
  404e1f:	48 89 df             	mov    %rbx,%rdi
  404e22:	e8 09 dc ff ff       	callq  402a30 <_ZdlPv@plt>
  404e27:	48 83 c4 10          	add    $0x10,%rsp
  404e2b:	5b                   	pop    %rbx
  404e2c:	c3                   	retq   
  404e2d:	b9 50 2c 40 00       	mov    $0x402c50,%ecx
  404e32:	48 8d 57 10          	lea    0x10(%rdi),%rdx
  404e36:	48 85 c9             	test   %rcx,%rcx
  404e39:	74 17                	je     404e52 <_ZN6GetOpt21OptionsFileNotFoundExD0Ev+0x62>
  404e3b:	83 c8 ff             	or     $0xffffffff,%eax
  404e3e:	f0 0f c1 02          	lock xadd %eax,(%rdx)
  404e42:	85 c0                	test   %eax,%eax
  404e44:	7f ca                	jg     404e10 <_ZN6GetOpt21OptionsFileNotFoundExD0Ev+0x20>
  404e46:	48 8d 74 24 0f       	lea    0xf(%rsp),%rsi
  404e4b:	e8 70 db ff ff       	callq  4029c0 <_ZNSs4_Rep10_M_destroyERKSaIcE@plt>
  404e50:	eb be                	jmp    404e10 <_ZN6GetOpt21OptionsFileNotFoundExD0Ev+0x20>
  404e52:	8b 50 f8             	mov    -0x8(%rax),%edx
  404e55:	8d 4a ff             	lea    -0x1(%rdx),%ecx
  404e58:	89 48 f8             	mov    %ecx,-0x8(%rax)
  404e5b:	89 d0                	mov    %edx,%eax
  404e5d:	eb e3                	jmp    404e42 <_ZN6GetOpt21OptionsFileNotFoundExD0Ev+0x52>
  404e5f:	90                   	nop

0000000000404e60 <_ZN6GetOpt9GetOpt_pp11_init_flagsEv>:
  404e60:	41 57                	push   %r15
  404e62:	49 89 ff             	mov    %rdi,%r15
  404e65:	41 56                	push   %r14
  404e67:	41 55                	push   %r13
  404e69:	41 54                	push   %r12
  404e6b:	55                   	push   %rbp
  404e6c:	53                   	push   %rbx
  404e6d:	48 81 ec 88 01 00 00 	sub    $0x188,%rsp
  404e74:	48 8d 7c 24 78       	lea    0x78(%rsp),%rdi
  404e79:	e8 e2 d9 ff ff       	callq  402860 <_ZNSt8ios_baseC2Ev@plt>
  404e7e:	48 8b 1d eb d8 20 00 	mov    0x20d8eb(%rip),%rbx        # 612770 <_ZTTSt18basic_stringstreamIcSt11char_traitsIcESaIcEE@@GLIBCXX_3.4+0x10>
  404e85:	c6 84 24 58 01 00 00 	movb   $0x0,0x158(%rsp)
  404e8c:	00 
  404e8d:	48 8d 7c 24 10       	lea    0x10(%rsp),%rdi
  404e92:	4c 8b 2d df d8 20 00 	mov    0x20d8df(%rip),%r13        # 612778 <_ZTTSt18basic_stringstreamIcSt11char_traitsIcESaIcEE@@GLIBCXX_3.4+0x18>
  404e99:	48 c7 44 24 78 f0 22 	movq   $0x6122f0,0x78(%rsp)
  404ea0:	61 00 
  404ea2:	31 f6                	xor    %esi,%esi
  404ea4:	48 c7 84 24 50 01 00 	movq   $0x0,0x150(%rsp)
  404eab:	00 00 00 00 00 
  404eb0:	c6 84 24 59 01 00 00 	movb   $0x0,0x159(%rsp)
  404eb7:	00 
  404eb8:	48 8b 43 e8          	mov    -0x18(%rbx),%rax
  404ebc:	48 c7 84 24 60 01 00 	movq   $0x0,0x160(%rsp)
  404ec3:	00 00 00 00 00 
  404ec8:	48 c7 84 24 68 01 00 	movq   $0x0,0x168(%rsp)
  404ecf:	00 00 00 00 00 
  404ed4:	48 c7 84 24 70 01 00 	movq   $0x0,0x170(%rsp)
  404edb:	00 00 00 00 00 
  404ee0:	48 c7 84 24 78 01 00 	movq   $0x0,0x178(%rsp)
  404ee7:	00 00 00 00 00 
  404eec:	48 89 5c 24 10       	mov    %rbx,0x10(%rsp)
  404ef1:	4c 89 6c 04 10       	mov    %r13,0x10(%rsp,%rax,1)
  404ef6:	48 c7 44 24 18 00 00 	movq   $0x0,0x18(%rsp)
  404efd:	00 00 
  404eff:	48 03 7b e8          	add    -0x18(%rbx),%rdi
  404f03:	e8 78 dc ff ff       	callq  402b80 <_ZNSt9basic_iosIcSt11char_traitsIcEE4initEPSt15basic_streambufIcS1_E@plt>
  404f08:	48 8b 2d 71 d8 20 00 	mov    0x20d871(%rip),%rbp        # 612780 <_ZTTSt18basic_stringstreamIcSt11char_traitsIcESaIcEE@@GLIBCXX_3.4+0x20>
  404f0f:	31 f6                	xor    %esi,%esi
  404f11:	48 8b 45 e8          	mov    -0x18(%rbp),%rax
  404f15:	48 89 6c 24 20       	mov    %rbp,0x20(%rsp)
  404f1a:	48 8d 7c 04 20       	lea    0x20(%rsp,%rax,1),%rdi
  404f1f:	48 8b 05 62 d8 20 00 	mov    0x20d862(%rip),%rax        # 612788 <_ZTTSt18basic_stringstreamIcSt11char_traitsIcESaIcEE@@GLIBCXX_3.4+0x28>
  404f26:	48 89 07             	mov    %rax,(%rdi)
  404f29:	e8 52 dc ff ff       	callq  402b80 <_ZNSt9basic_iosIcSt11char_traitsIcEE4initEPSt15basic_streambufIcS1_E@plt>
  404f2e:	4c 8b 25 33 d8 20 00 	mov    0x20d833(%rip),%r12        # 612768 <_ZTTSt18basic_stringstreamIcSt11char_traitsIcESaIcEE@@GLIBCXX_3.4+0x8>
  404f35:	4c 8b 35 54 d8 20 00 	mov    0x20d854(%rip),%r14        # 612790 <_ZTTSt18basic_stringstreamIcSt11char_traitsIcESaIcEE@@GLIBCXX_3.4+0x30>
  404f3c:	48 8d 7c 24 60       	lea    0x60(%rsp),%rdi
  404f41:	49 8b 44 24 e8       	mov    -0x18(%r12),%rax
  404f46:	4c 89 74 04 10       	mov    %r14,0x10(%rsp,%rax,1)
  404f4b:	48 c7 44 24 10 38 23 	movq   $0x612338,0x10(%rsp)
  404f52:	61 00 
  404f54:	48 c7 44 24 78 88 23 	movq   $0x612388,0x78(%rsp)
  404f5b:	61 00 
  404f5d:	48 c7 44 24 20 60 23 	movq   $0x612360,0x20(%rsp)
  404f64:	61 00 
  404f66:	48 c7 44 24 28 b0 23 	movq   $0x6123b0,0x28(%rsp)
  404f6d:	61 00 
  404f6f:	48 c7 44 24 30 00 00 	movq   $0x0,0x30(%rsp)
  404f76:	00 00 
  404f78:	48 c7 44 24 38 00 00 	movq   $0x0,0x38(%rsp)
  404f7f:	00 00 
  404f81:	48 c7 44 24 40 00 00 	movq   $0x0,0x40(%rsp)
  404f88:	00 00 
  404f8a:	48 c7 44 24 48 00 00 	movq   $0x0,0x48(%rsp)
  404f91:	00 00 
  404f93:	48 c7 44 24 50 00 00 	movq   $0x0,0x50(%rsp)
  404f9a:	00 00 
  404f9c:	48 c7 44 24 58 00 00 	movq   $0x0,0x58(%rsp)
  404fa3:	00 00 
  404fa5:	e8 96 dd ff ff       	callq  402d40 <_ZNSt6localeC1Ev@plt>
  404faa:	48 8d 44 24 10       	lea    0x10(%rsp),%rax
  404faf:	48 c7 44 24 28 70 26 	movq   $0x612670,0x28(%rsp)
  404fb6:	61 00 
  404fb8:	c7 44 24 68 18 00 00 	movl   $0x18,0x68(%rsp)
  404fbf:	00 
  404fc0:	48 c7 44 24 70 18 23 	movq   $0x612318,0x70(%rsp)
  404fc7:	61 00 
  404fc9:	48 8d 70 18          	lea    0x18(%rax),%rsi
  404fcd:	48 8d 78 68          	lea    0x68(%rax),%rdi
  404fd1:	e8 aa db ff ff       	callq  402b80 <_ZNSt9basic_iosIcSt11char_traitsIcEE4initEPSt15basic_streambufIcS1_E@plt>
  404fd6:	8b 84 24 90 00 00 00 	mov    0x90(%rsp),%eax
  404fdd:	48 c7 44 24 10 38 23 	movq   $0x612338,0x10(%rsp)
  404fe4:	61 00 
  404fe6:	48 c7 44 24 78 88 23 	movq   $0x612388,0x78(%rsp)
  404fed:	61 00 
  404fef:	48 c7 44 24 20 60 23 	movq   $0x612360,0x20(%rsp)
  404ff6:	61 00 
  404ff8:	48 c7 44 24 28 70 26 	movq   $0x612670,0x28(%rsp)
  404fff:	61 00 
  405001:	41 89 47 68          	mov    %eax,0x68(%r15)
  405005:	48 8b 44 24 70       	mov    0x70(%rsp),%rax
  40500a:	48 8d 78 e8          	lea    -0x18(%rax),%rdi
  40500e:	48 81 ff 00 23 61 00 	cmp    $0x612300,%rdi
  405015:	75 6e                	jne    405085 <_ZN6GetOpt9GetOpt_pp11_init_flagsEv+0x225>
  405017:	48 8d 7c 24 60       	lea    0x60(%rsp),%rdi
  40501c:	48 c7 44 24 28 b0 23 	movq   $0x6123b0,0x28(%rsp)
  405023:	61 00 
  405025:	e8 66 db ff ff       	callq  402b90 <_ZNSt6localeD1Ev@plt>
  40502a:	49 8b 44 24 e8       	mov    -0x18(%r12),%rax
  40502f:	48 8b 0d 52 d7 20 00 	mov    0x20d752(%rip),%rcx        # 612788 <_ZTTSt18basic_stringstreamIcSt11char_traitsIcESaIcEE@@GLIBCXX_3.4+0x28>
  405036:	48 8d 7c 24 78       	lea    0x78(%rsp),%rdi
  40503b:	4c 89 74 04 10       	mov    %r14,0x10(%rsp,%rax,1)
  405040:	48 8b 45 e8          	mov    -0x18(%rbp),%rax
  405044:	48 89 6c 24 20       	mov    %rbp,0x20(%rsp)
  405049:	48 89 4c 04 20       	mov    %rcx,0x20(%rsp,%rax,1)
  40504e:	48 8b 43 e8          	mov    -0x18(%rbx),%rax
  405052:	48 89 5c 24 10       	mov    %rbx,0x10(%rsp)
  405057:	4c 89 6c 04 10       	mov    %r13,0x10(%rsp,%rax,1)
  40505c:	48 c7 44 24 18 00 00 	movq   $0x0,0x18(%rsp)
  405063:	00 00 
  405065:	48 c7 44 24 78 f0 22 	movq   $0x6122f0,0x78(%rsp)
  40506c:	61 00 
  40506e:	e8 fd d7 ff ff       	callq  402870 <_ZNSt8ios_baseD2Ev@plt>
  405073:	48 81 c4 88 01 00 00 	add    $0x188,%rsp
  40507a:	5b                   	pop    %rbx
  40507b:	5d                   	pop    %rbp
  40507c:	41 5c                	pop    %r12
  40507e:	41 5d                	pop    %r13
  405080:	41 5e                	pop    %r14
  405082:	41 5f                	pop    %r15
  405084:	c3                   	retq   
  405085:	b9 50 2c 40 00       	mov    $0x402c50,%ecx
  40508a:	48 8d 57 10          	lea    0x10(%rdi),%rdx
  40508e:	48 85 c9             	test   %rcx,%rcx
  405091:	74 55                	je     4050e8 <_ZN6GetOpt9GetOpt_pp11_init_flagsEv+0x288>
  405093:	83 c8 ff             	or     $0xffffffff,%eax
  405096:	f0 0f c1 02          	lock xadd %eax,(%rdx)
  40509a:	85 c0                	test   %eax,%eax
  40509c:	0f 8f 75 ff ff ff    	jg     405017 <_ZN6GetOpt9GetOpt_pp11_init_flagsEv+0x1b7>
  4050a2:	48 8d 74 24 0f       	lea    0xf(%rsp),%rsi
  4050a7:	e8 14 d9 ff ff       	callq  4029c0 <_ZNSs4_Rep10_M_destroyERKSaIcE@plt>
  4050ac:	e9 66 ff ff ff       	jmpq   405017 <_ZN6GetOpt9GetOpt_pp11_init_flagsEv+0x1b7>
  4050b1:	48 8d 7c 24 28       	lea    0x28(%rsp),%rdi
  4050b6:	48 89 c3             	mov    %rax,%rbx
  4050b9:	e8 e2 fb ff ff       	callq  404ca0 <_ZNSt15basic_stringbufIcSt11char_traitsIcESaIcEED1Ev>
  4050be:	48 8d 7c 24 10       	lea    0x10(%rsp),%rdi
  4050c3:	be 68 27 61 00       	mov    $0x612768,%esi
  4050c8:	e8 53 d7 ff ff       	callq  402820 <_ZNSdD2Ev@plt>
  4050cd:	48 8d 7c 24 78       	lea    0x78(%rsp),%rdi
  4050d2:	48 c7 44 24 78 f0 22 	movq   $0x6122f0,0x78(%rsp)
  4050d9:	61 00 
  4050db:	e8 90 d7 ff ff       	callq  402870 <_ZNSt8ios_baseD2Ev@plt>
  4050e0:	48 89 df             	mov    %rbx,%rdi
  4050e3:	e8 c8 db ff ff       	callq  402cb0 <_Unwind_Resume@plt>
  4050e8:	8b 50 f8             	mov    -0x8(%rax),%edx
  4050eb:	8d 4a ff             	lea    -0x1(%rdx),%ecx
  4050ee:	89 48 f8             	mov    %ecx,-0x8(%rax)
  4050f1:	89 d0                	mov    %edx,%eax
  4050f3:	eb a5                	jmp    40509a <_ZN6GetOpt9GetOpt_pp11_init_flagsEv+0x23a>
  4050f5:	48 8b 53 e8          	mov    -0x18(%rbx),%rdx
  4050f9:	48 89 5c 24 10       	mov    %rbx,0x10(%rsp)
  4050fe:	48 89 c3             	mov    %rax,%rbx
  405101:	4c 89 6c 14 10       	mov    %r13,0x10(%rsp,%rdx,1)
  405106:	48 c7 44 24 18 00 00 	movq   $0x0,0x18(%rsp)
  40510d:	00 00 
  40510f:	eb bc                	jmp    4050cd <_ZN6GetOpt9GetOpt_pp11_init_flagsEv+0x26d>
  405111:	48 89 c3             	mov    %rax,%rbx
  405114:	eb b7                	jmp    4050cd <_ZN6GetOpt9GetOpt_pp11_init_flagsEv+0x26d>
  405116:	90                   	nop
  405117:	90                   	nop
  405118:	90                   	nop
  405119:	90                   	nop
  40511a:	90                   	nop
  40511b:	90                   	nop
  40511c:	90                   	nop
  40511d:	90                   	nop
  40511e:	90                   	nop
  40511f:	90                   	nop

0000000000405120 <_ZN6GetOpt9GetOpt_pp13TokensDeleterD1Ev>:
  405120:	55                   	push   %rbp
  405121:	53                   	push   %rbx
  405122:	48 83 ec 18          	sub    $0x18,%rsp
  405126:	48 8b 07             	mov    (%rdi),%rax
  405129:	48 8b 18             	mov    (%rax),%rbx
  40512c:	48 85 db             	test   %rbx,%rbx
  40512f:	74 3f                	je     405170 <_ZN6GetOpt9GetOpt_pp13TokensDeleterD1Ev+0x50>
  405131:	b8 50 2c 40 00       	mov    $0x402c50,%eax
  405136:	48 85 c0             	test   %rax,%rax
  405139:	74 56                	je     405191 <_ZN6GetOpt9GetOpt_pp13TokensDeleterD1Ev+0x71>
  40513b:	0f 1f 44 00 00       	nopl   0x0(%rax,%rax,1)
  405140:	48 8b 43 08          	mov    0x8(%rbx),%rax
  405144:	48 8b 6b 10          	mov    0x10(%rbx),%rbp
  405148:	48 8d 78 e8          	lea    -0x18(%rax),%rdi
  40514c:	48 81 ff 00 23 61 00 	cmp    $0x612300,%rdi
  405153:	75 22                	jne    405177 <_ZN6GetOpt9GetOpt_pp13TokensDeleterD1Ev+0x57>
  405155:	48 89 df             	mov    %rbx,%rdi
  405158:	e8 d3 d8 ff ff       	callq  402a30 <_ZdlPv@plt>
  40515d:	48 85 ed             	test   %rbp,%rbp
  405160:	74 0e                	je     405170 <_ZN6GetOpt9GetOpt_pp13TokensDeleterD1Ev+0x50>
  405162:	48 89 eb             	mov    %rbp,%rbx
  405165:	eb d9                	jmp    405140 <_ZN6GetOpt9GetOpt_pp13TokensDeleterD1Ev+0x20>
  405167:	66 0f 1f 84 00 00 00 	nopw   0x0(%rax,%rax,1)
  40516e:	00 00 
  405170:	48 83 c4 18          	add    $0x18,%rsp
  405174:	5b                   	pop    %rbx
  405175:	5d                   	pop    %rbp
  405176:	c3                   	retq   
  405177:	ba ff ff ff ff       	mov    $0xffffffff,%edx
  40517c:	f0 0f c1 50 f8       	lock xadd %edx,-0x8(%rax)
  405181:	85 d2                	test   %edx,%edx
  405183:	7f d0                	jg     405155 <_ZN6GetOpt9GetOpt_pp13TokensDeleterD1Ev+0x35>
  405185:	48 8d 74 24 0f       	lea    0xf(%rsp),%rsi
  40518a:	e8 31 d8 ff ff       	callq  4029c0 <_ZNSs4_Rep10_M_destroyERKSaIcE@plt>
  40518f:	eb c4                	jmp    405155 <_ZN6GetOpt9GetOpt_pp13TokensDeleterD1Ev+0x35>
  405191:	48 8b 43 08          	mov    0x8(%rbx),%rax
  405195:	48 8b 6b 10          	mov    0x10(%rbx),%rbp
  405199:	48 8d 78 e8          	lea    -0x18(%rax),%rdi
  40519d:	48 81 ff 00 23 61 00 	cmp    $0x612300,%rdi
  4051a4:	75 12                	jne    4051b8 <_ZN6GetOpt9GetOpt_pp13TokensDeleterD1Ev+0x98>
  4051a6:	48 89 df             	mov    %rbx,%rdi
  4051a9:	e8 82 d8 ff ff       	callq  402a30 <_ZdlPv@plt>
  4051ae:	48 85 ed             	test   %rbp,%rbp
  4051b1:	74 bd                	je     405170 <_ZN6GetOpt9GetOpt_pp13TokensDeleterD1Ev+0x50>
  4051b3:	48 89 eb             	mov    %rbp,%rbx
  4051b6:	eb d9                	jmp    405191 <_ZN6GetOpt9GetOpt_pp13TokensDeleterD1Ev+0x71>
  4051b8:	8b 50 f8             	mov    -0x8(%rax),%edx
  4051bb:	8d 4a ff             	lea    -0x1(%rdx),%ecx
  4051be:	85 d2                	test   %edx,%edx
  4051c0:	89 48 f8             	mov    %ecx,-0x8(%rax)
  4051c3:	7f e1                	jg     4051a6 <_ZN6GetOpt9GetOpt_pp13TokensDeleterD1Ev+0x86>
  4051c5:	48 8d 74 24 0f       	lea    0xf(%rsp),%rsi
  4051ca:	e8 f1 d7 ff ff       	callq  4029c0 <_ZNSs4_Rep10_M_destroyERKSaIcE@plt>
  4051cf:	eb d5                	jmp    4051a6 <_ZN6GetOpt9GetOpt_pp13TokensDeleterD1Ev+0x86>
  4051d1:	90                   	nop
  4051d2:	90                   	nop
  4051d3:	90                   	nop
  4051d4:	90                   	nop
  4051d5:	90                   	nop
  4051d6:	90                   	nop
  4051d7:	90                   	nop
  4051d8:	90                   	nop
  4051d9:	90                   	nop
  4051da:	90                   	nop
  4051db:	90                   	nop
  4051dc:	90                   	nop
  4051dd:	90                   	nop
  4051de:	90                   	nop
  4051df:	90                   	nop

00000000004051e0 <_ZN6GetOpt9GetOpt_pprsERKNS_7_OptionE>:
  4051e0:	53                   	push   %rbx
  4051e1:	83 7f 64 01          	cmpl   $0x1,0x64(%rdi)
  4051e5:	48 89 fb             	mov    %rdi,%rbx
  4051e8:	74 5e                	je     405248 <_ZN6GetOpt9GetOpt_pprsERKNS_7_OptionE+0x68>
  4051ea:	48 8b 06             	mov    (%rsi),%rax
  4051ed:	48 89 f7             	mov    %rsi,%rdi
  4051f0:	48 8b 4b 78          	mov    0x78(%rbx),%rcx
  4051f4:	48 8d 53 30          	lea    0x30(%rbx),%rdx
  4051f8:	44 8b 43 68          	mov    0x68(%rbx),%r8d
  4051fc:	48 89 de             	mov    %rbx,%rsi
  4051ff:	ff 10                	callq  *(%rax)
  405201:	83 f8 03             	cmp    $0x3,%eax
  405204:	89 43 64             	mov    %eax,0x64(%rbx)
  405207:	74 57                	je     405260 <_ZN6GetOpt9GetOpt_pprsERKNS_7_OptionE+0x80>
  405209:	0f 8e b1 00 00 00    	jle    4052c0 <_ZN6GetOpt9GetOpt_pprsERKNS_7_OptionE+0xe0>
  40520f:	83 f8 04             	cmp    $0x4,%eax
  405212:	74 7c                	je     405290 <_ZN6GetOpt9GetOpt_pprsERKNS_7_OptionE+0xb0>
  405214:	83 f8 05             	cmp    $0x5,%eax
  405217:	75 39                	jne    405252 <_ZN6GetOpt9GetOpt_pprsERKNS_7_OptionE+0x72>
  405219:	f6 43 60 04          	testb  $0x4,0x60(%rbx)
  40521d:	74 33                	je     405252 <_ZN6GetOpt9GetOpt_pprsERKNS_7_OptionE+0x72>
  40521f:	bf 08 00 00 00       	mov    $0x8,%edi
  405224:	e8 a7 d6 ff ff       	callq  4028d0 <__cxa_allocate_exception@plt>
  405229:	ba e0 4b 40 00       	mov    $0x404be0,%edx
  40522e:	48 c7 00 70 f4 40 00 	movq   $0x40f470,(%rax)
  405235:	be 80 f2 40 00       	mov    $0x40f280,%esi
  40523a:	48 89 c7             	mov    %rax,%rdi
  40523d:	e8 4e da ff ff       	callq  402c90 <__cxa_throw@plt>
  405242:	66 0f 1f 44 00 00    	nopw   0x0(%rax,%rax,1)
  405248:	f6 47 60 04          	testb  $0x4,0x60(%rdi)
  40524c:	0f 85 9c 00 00 00    	jne    4052ee <_ZN6GetOpt9GetOpt_pprsERKNS_7_OptionE+0x10e>
  405252:	48 89 d8             	mov    %rbx,%rax
  405255:	5b                   	pop    %rbx
  405256:	c3                   	retq   
  405257:	66 0f 1f 84 00 00 00 	nopw   0x0(%rax,%rax,1)
  40525e:	00 00 
  405260:	f6 43 60 04          	testb  $0x4,0x60(%rbx)
  405264:	74 ec                	je     405252 <_ZN6GetOpt9GetOpt_pprsERKNS_7_OptionE+0x72>
  405266:	bf 08 00 00 00       	mov    $0x8,%edi
  40526b:	e8 60 d6 ff ff       	callq  4028d0 <__cxa_allocate_exception@plt>
  405270:	ba 40 4c 40 00       	mov    $0x404c40,%edx
  405275:	48 c7 00 f0 f3 40 00 	movq   $0x40f3f0,(%rax)
  40527c:	be 00 f2 40 00       	mov    $0x40f200,%esi
  405281:	48 89 c7             	mov    %rax,%rdi
  405284:	e8 07 da ff ff       	callq  402c90 <__cxa_throw@plt>
  405289:	0f 1f 80 00 00 00 00 	nopl   0x0(%rax)
  405290:	f6 43 60 02          	testb  $0x2,0x60(%rbx)
  405294:	74 bc                	je     405252 <_ZN6GetOpt9GetOpt_pprsERKNS_7_OptionE+0x72>
  405296:	bf 08 00 00 00       	mov    $0x8,%edi
  40529b:	e8 30 d6 ff ff       	callq  4028d0 <__cxa_allocate_exception@plt>
  4052a0:	ba 10 4c 40 00       	mov    $0x404c10,%edx
  4052a5:	48 c7 00 30 f4 40 00 	movq   $0x40f430,(%rax)
  4052ac:	be 40 f2 40 00       	mov    $0x40f240,%esi
  4052b1:	48 89 c7             	mov    %rax,%rdi
  4052b4:	e8 d7 d9 ff ff       	callq  402c90 <__cxa_throw@plt>
  4052b9:	0f 1f 80 00 00 00 00 	nopl   0x0(%rax)
  4052c0:	83 f8 02             	cmp    $0x2,%eax
  4052c3:	75 8d                	jne    405252 <_ZN6GetOpt9GetOpt_pprsERKNS_7_OptionE+0x72>
  4052c5:	f6 43 60 02          	testb  $0x2,0x60(%rbx)
  4052c9:	74 87                	je     405252 <_ZN6GetOpt9GetOpt_pprsERKNS_7_OptionE+0x72>
  4052cb:	bf 08 00 00 00       	mov    $0x8,%edi
  4052d0:	e8 fb d5 ff ff       	callq  4028d0 <__cxa_allocate_exception@plt>
  4052d5:	ba b0 4b 40 00       	mov    $0x404bb0,%edx
  4052da:	48 c7 00 b0 f4 40 00 	movq   $0x40f4b0,(%rax)
  4052e1:	be c0 f2 40 00       	mov    $0x40f2c0,%esi
  4052e6:	48 89 c7             	mov    %rax,%rdi
  4052e9:	e8 a2 d9 ff ff       	callq  402c90 <__cxa_throw@plt>
  4052ee:	bf 08 00 00 00       	mov    $0x8,%edi
  4052f3:	e8 d8 d5 ff ff       	callq  4028d0 <__cxa_allocate_exception@plt>
  4052f8:	ba 70 4c 40 00       	mov    $0x404c70,%edx
  4052fd:	48 c7 00 b0 f3 40 00 	movq   $0x40f3b0,(%rax)
  405304:	be c0 f1 40 00       	mov    $0x40f1c0,%esi
  405309:	48 89 c7             	mov    %rax,%rdi
  40530c:	e8 7f d9 ff ff       	callq  402c90 <__cxa_throw@plt>
  405311:	48 83 c2 01          	add    $0x1,%rdx
  405315:	48 89 c7             	mov    %rax,%rdi
  405318:	74 05                	je     40531f <_ZN6GetOpt9GetOpt_pprsERKNS_7_OptionE+0x13f>
  40531a:	e8 91 d9 ff ff       	callq  402cb0 <_Unwind_Resume@plt>
  40531f:	e8 2c d8 ff ff       	callq  402b50 <__cxa_call_unexpected@plt>
  405324:	90                   	nop
  405325:	90                   	nop
  405326:	90                   	nop
  405327:	90                   	nop
  405328:	90                   	nop
  405329:	90                   	nop
  40532a:	90                   	nop
  40532b:	90                   	nop
  40532c:	90                   	nop
  40532d:	90                   	nop
  40532e:	90                   	nop
  40532f:	90                   	nop

0000000000405330 <_ZNSt6vectorISsSaISsEED1Ev>:
  405330:	41 54                	push   %r12
  405332:	49 89 fc             	mov    %rdi,%r12
  405335:	55                   	push   %rbp
  405336:	53                   	push   %rbx
  405337:	48 83 ec 10          	sub    $0x10,%rsp
  40533b:	48 8b 6f 08          	mov    0x8(%rdi),%rbp
  40533f:	48 8b 1f             	mov    (%rdi),%rbx
  405342:	48 39 dd             	cmp    %rbx,%rbp
  405345:	74 41                	je     405388 <_ZNSt6vectorISsSaISsEED1Ev+0x58>
  405347:	b8 50 2c 40 00       	mov    $0x402c50,%eax
  40534c:	48 85 c0             	test   %rax,%rax
  40534f:	74 56                	je     4053a7 <_ZNSt6vectorISsSaISsEED1Ev+0x77>
  405351:	0f 1f 80 00 00 00 00 	nopl   0x0(%rax)
  405358:	48 8b 03             	mov    (%rbx),%rax
  40535b:	48 8d 78 e8          	lea    -0x18(%rax),%rdi
  40535f:	48 81 ff 00 23 61 00 	cmp    $0x612300,%rdi
  405366:	75 25                	jne    40538d <_ZNSt6vectorISsSaISsEED1Ev+0x5d>
  405368:	48 83 c3 08          	add    $0x8,%rbx
  40536c:	48 39 dd             	cmp    %rbx,%rbp
  40536f:	75 e7                	jne    405358 <_ZNSt6vectorISsSaISsEED1Ev+0x28>
  405371:	49 8b 3c 24          	mov    (%r12),%rdi
  405375:	48 85 ff             	test   %rdi,%rdi
  405378:	74 05                	je     40537f <_ZNSt6vectorISsSaISsEED1Ev+0x4f>
  40537a:	e8 b1 d6 ff ff       	callq  402a30 <_ZdlPv@plt>
  40537f:	48 83 c4 10          	add    $0x10,%rsp
  405383:	5b                   	pop    %rbx
  405384:	5d                   	pop    %rbp
  405385:	41 5c                	pop    %r12
  405387:	c3                   	retq   
  405388:	48 89 ef             	mov    %rbp,%rdi
  40538b:	eb e8                	jmp    405375 <_ZNSt6vectorISsSaISsEED1Ev+0x45>
  40538d:	b9 ff ff ff ff       	mov    $0xffffffff,%ecx
  405392:	f0 0f c1 48 f8       	lock xadd %ecx,-0x8(%rax)
  405397:	85 c9                	test   %ecx,%ecx
  405399:	7f cd                	jg     405368 <_ZNSt6vectorISsSaISsEED1Ev+0x38>
  40539b:	48 8d 74 24 0f       	lea    0xf(%rsp),%rsi
  4053a0:	e8 1b d6 ff ff       	callq  4029c0 <_ZNSs4_Rep10_M_destroyERKSaIcE@plt>
  4053a5:	eb c1                	jmp    405368 <_ZNSt6vectorISsSaISsEED1Ev+0x38>
  4053a7:	48 8b 03             	mov    (%rbx),%rax
  4053aa:	48 8d 78 e8          	lea    -0x18(%rax),%rdi
  4053ae:	48 81 ff 00 23 61 00 	cmp    $0x612300,%rdi
  4053b5:	75 0b                	jne    4053c2 <_ZNSt6vectorISsSaISsEED1Ev+0x92>
  4053b7:	48 83 c3 08          	add    $0x8,%rbx
  4053bb:	48 39 dd             	cmp    %rbx,%rbp
  4053be:	75 e7                	jne    4053a7 <_ZNSt6vectorISsSaISsEED1Ev+0x77>
  4053c0:	eb af                	jmp    405371 <_ZNSt6vectorISsSaISsEED1Ev+0x41>
  4053c2:	8b 50 f8             	mov    -0x8(%rax),%edx
  4053c5:	8d 4a ff             	lea    -0x1(%rdx),%ecx
  4053c8:	85 d2                	test   %edx,%edx
  4053ca:	89 48 f8             	mov    %ecx,-0x8(%rax)
  4053cd:	7f e8                	jg     4053b7 <_ZNSt6vectorISsSaISsEED1Ev+0x87>
  4053cf:	48 8d 74 24 0f       	lea    0xf(%rsp),%rsi
  4053d4:	e8 e7 d5 ff ff       	callq  4029c0 <_ZNSs4_Rep10_M_destroyERKSaIcE@plt>
  4053d9:	eb dc                	jmp    4053b7 <_ZNSt6vectorISsSaISsEED1Ev+0x87>
  4053db:	90                   	nop
  4053dc:	90                   	nop
  4053dd:	90                   	nop
  4053de:	90                   	nop
  4053df:	90                   	nop

00000000004053e0 <_ZNSt8_Rb_treeISsSt4pairIKSsN6GetOpt10OptionDataEESt10_Select1stIS4_ESt4lessISsESaIS4_EE4findERS1_>:
  4053e0:	41 57                	push   %r15
  4053e2:	41 56                	push   %r14
  4053e4:	4c 8d 77 08          	lea    0x8(%rdi),%r14
  4053e8:	41 55                	push   %r13
  4053ea:	41 54                	push   %r12
  4053ec:	55                   	push   %rbp
  4053ed:	53                   	push   %rbx
  4053ee:	48 83 ec 08          	sub    $0x8,%rsp
  4053f2:	48 8b 5f 10          	mov    0x10(%rdi),%rbx
  4053f6:	48 85 db             	test   %rbx,%rbx
  4053f9:	0f 84 aa 00 00 00    	je     4054a9 <_ZNSt8_Rb_treeISsSt4pairIKSsN6GetOpt10OptionDataEESt10_Select1stIS4_ESt4lessISsESaIS4_EE4findERS1_+0xc9>
  4053ff:	4c 8b 26             	mov    (%rsi),%r12
  405402:	4d 89 f5             	mov    %r14,%r13
  405405:	4d 8b 7c 24 e8       	mov    -0x18(%r12),%r15
  40540a:	eb 16                	jmp    405422 <_ZNSt8_Rb_treeISsSt4pairIKSsN6GetOpt10OptionDataEESt10_Select1stIS4_ESt4lessISsESaIS4_EE4findERS1_+0x42>
  40540c:	0f 1f 40 00          	nopl   0x0(%rax)
  405410:	89 e8                	mov    %ebp,%eax
  405412:	85 c0                	test   %eax,%eax
  405414:	78 3f                	js     405455 <_ZNSt8_Rb_treeISsSt4pairIKSsN6GetOpt10OptionDataEESt10_Select1stIS4_ESt4lessISsESaIS4_EE4findERS1_+0x75>
  405416:	49 89 dd             	mov    %rbx,%r13
  405419:	48 8b 5b 10          	mov    0x10(%rbx),%rbx
  40541d:	48 85 db             	test   %rbx,%rbx
  405420:	74 3c                	je     40545e <_ZNSt8_Rb_treeISsSt4pairIKSsN6GetOpt10OptionDataEESt10_Select1stIS4_ESt4lessISsESaIS4_EE4findERS1_+0x7e>
  405422:	48 8b 7b 20          	mov    0x20(%rbx),%rdi
  405426:	4c 89 e6             	mov    %r12,%rsi
  405429:	48 8b 6f e8          	mov    -0x18(%rdi),%rbp
  40542d:	49 39 ef             	cmp    %rbp,%r15
  405430:	48 89 ea             	mov    %rbp,%rdx
  405433:	49 0f 46 d7          	cmovbe %r15,%rdx
  405437:	e8 64 d4 ff ff       	callq  4028a0 <memcmp@plt>
  40543c:	85 c0                	test   %eax,%eax
  40543e:	75 d2                	jne    405412 <_ZNSt8_Rb_treeISsSt4pairIKSsN6GetOpt10OptionDataEESt10_Select1stIS4_ESt4lessISsESaIS4_EE4findERS1_+0x32>
  405440:	4c 29 fd             	sub    %r15,%rbp
  405443:	48 81 fd ff ff ff 7f 	cmp    $0x7fffffff,%rbp
  40544a:	7f ca                	jg     405416 <_ZNSt8_Rb_treeISsSt4pairIKSsN6GetOpt10OptionDataEESt10_Select1stIS4_ESt4lessISsESaIS4_EE4findERS1_+0x36>
  40544c:	48 81 fd 00 00 00 80 	cmp    $0xffffffff80000000,%rbp
  405453:	7d bb                	jge    405410 <_ZNSt8_Rb_treeISsSt4pairIKSsN6GetOpt10OptionDataEESt10_Select1stIS4_ESt4lessISsESaIS4_EE4findERS1_+0x30>
  405455:	48 8b 5b 18          	mov    0x18(%rbx),%rbx
  405459:	48 85 db             	test   %rbx,%rbx
  40545c:	75 c4                	jne    405422 <_ZNSt8_Rb_treeISsSt4pairIKSsN6GetOpt10OptionDataEESt10_Select1stIS4_ESt4lessISsESaIS4_EE4findERS1_+0x42>
  40545e:	4d 39 ee             	cmp    %r13,%r14
  405461:	74 2a                	je     40548d <_ZNSt8_Rb_treeISsSt4pairIKSsN6GetOpt10OptionDataEESt10_Select1stIS4_ESt4lessISsESaIS4_EE4findERS1_+0xad>
  405463:	49 8b 75 20          	mov    0x20(%r13),%rsi
  405467:	4c 89 e7             	mov    %r12,%rdi
  40546a:	48 8b 5e e8          	mov    -0x18(%rsi),%rbx
  40546e:	49 39 df             	cmp    %rbx,%r15
  405471:	48 89 da             	mov    %rbx,%rdx
  405474:	49 0f 46 d7          	cmovbe %r15,%rdx
  405478:	e8 23 d4 ff ff       	callq  4028a0 <memcmp@plt>
  40547d:	85 c0                	test   %eax,%eax
  40547f:	75 32                	jne    4054b3 <_ZNSt8_Rb_treeISsSt4pairIKSsN6GetOpt10OptionDataEESt10_Select1stIS4_ESt4lessISsESaIS4_EE4findERS1_+0xd3>
  405481:	49 29 df             	sub    %rbx,%r15
  405484:	49 81 ff ff ff ff 7f 	cmp    $0x7fffffff,%r15
  40548b:	7e 13                	jle    4054a0 <_ZNSt8_Rb_treeISsSt4pairIKSsN6GetOpt10OptionDataEESt10_Select1stIS4_ESt4lessISsESaIS4_EE4findERS1_+0xc0>
  40548d:	48 83 c4 08          	add    $0x8,%rsp
  405491:	4c 89 e8             	mov    %r13,%rax
  405494:	5b                   	pop    %rbx
  405495:	5d                   	pop    %rbp
  405496:	41 5c                	pop    %r12
  405498:	41 5d                	pop    %r13
  40549a:	41 5e                	pop    %r14
  40549c:	41 5f                	pop    %r15
  40549e:	c3                   	retq   
  40549f:	90                   	nop
  4054a0:	49 81 ff 00 00 00 80 	cmp    $0xffffffff80000000,%r15
  4054a7:	7d 07                	jge    4054b0 <_ZNSt8_Rb_treeISsSt4pairIKSsN6GetOpt10OptionDataEESt10_Select1stIS4_ESt4lessISsESaIS4_EE4findERS1_+0xd0>
  4054a9:	4d 89 f5             	mov    %r14,%r13
  4054ac:	eb df                	jmp    40548d <_ZNSt8_Rb_treeISsSt4pairIKSsN6GetOpt10OptionDataEESt10_Select1stIS4_ESt4lessISsESaIS4_EE4findERS1_+0xad>
  4054ae:	66 90                	xchg   %ax,%ax
  4054b0:	44 89 f8             	mov    %r15d,%eax
  4054b3:	85 c0                	test   %eax,%eax
  4054b5:	4d 0f 48 ee          	cmovs  %r14,%r13
  4054b9:	eb d2                	jmp    40548d <_ZNSt8_Rb_treeISsSt4pairIKSsN6GetOpt10OptionDataEESt10_Select1stIS4_ESt4lessISsESaIS4_EE4findERS1_+0xad>
  4054bb:	90                   	nop
  4054bc:	90                   	nop
  4054bd:	90                   	nop
  4054be:	90                   	nop
  4054bf:	90                   	nop

00000000004054c0 <_ZNSt6vectorISsSaISsEE19_M_emplace_back_auxIIRKSsEEEvDpOT_>:
  4054c0:	41 57                	push   %r15
  4054c2:	41 56                	push   %r14
  4054c4:	41 55                	push   %r13
  4054c6:	41 54                	push   %r12
  4054c8:	55                   	push   %rbp
  4054c9:	48 89 fd             	mov    %rdi,%rbp
  4054cc:	53                   	push   %rbx
  4054cd:	48 83 ec 28          	sub    $0x28,%rsp
  4054d1:	48 8b 47 08          	mov    0x8(%rdi),%rax
  4054d5:	48 2b 07             	sub    (%rdi),%rax
  4054d8:	48 c1 f8 03          	sar    $0x3,%rax
  4054dc:	48 85 c0             	test   %rax,%rax
  4054df:	0f 84 03 01 00 00    	je     4055e8 <_ZNSt6vectorISsSaISsEE19_M_emplace_back_auxIIRKSsEEEvDpOT_+0x128>
  4054e5:	4c 8d 2c 00          	lea    (%rax,%rax,1),%r13
  4054e9:	4c 39 e8             	cmp    %r13,%rax
  4054ec:	0f 86 44 01 00 00    	jbe    405636 <_ZNSt6vectorISsSaISsEE19_M_emplace_back_auxIIRKSsEEEvDpOT_+0x176>
  4054f2:	48 c7 c7 f8 ff ff ff 	mov    $0xfffffffffffffff8,%rdi
  4054f9:	49 bd ff ff ff ff ff 	movabs $0x1fffffffffffffff,%r13
  405500:	ff ff 1f 
  405503:	48 89 74 24 08       	mov    %rsi,0x8(%rsp)
  405508:	e8 53 d5 ff ff       	callq  402a60 <_Znwm@plt>
  40550d:	4c 8b 75 08          	mov    0x8(%rbp),%r14
  405511:	49 89 c4             	mov    %rax,%r12
  405514:	48 8b 45 00          	mov    0x0(%rbp),%rax
  405518:	4c 89 f7             	mov    %r14,%rdi
  40551b:	48 29 c7             	sub    %rax,%rdi
  40551e:	48 83 e7 f8          	and    $0xfffffffffffffff8,%rdi
  405522:	4c 01 e7             	add    %r12,%rdi
  405525:	74 12                	je     405539 <_ZNSt6vectorISsSaISsEE19_M_emplace_back_auxIIRKSsEEEvDpOT_+0x79>
  405527:	48 8b 74 24 08       	mov    0x8(%rsp),%rsi
  40552c:	e8 df d3 ff ff       	callq  402910 <_ZNSsC1ERKSs@plt>
  405531:	4c 8b 75 08          	mov    0x8(%rbp),%r14
  405535:	48 8b 45 00          	mov    0x0(%rbp),%rax
  405539:	49 39 c6             	cmp    %rax,%r14
  40553c:	0f 84 b9 00 00 00    	je     4055fb <_ZNSt6vectorISsSaISsEE19_M_emplace_back_auxIIRKSsEEEvDpOT_+0x13b>
  405542:	48 89 c2             	mov    %rax,%rdx
  405545:	4c 89 e1             	mov    %r12,%rcx
  405548:	0f 1f 84 00 00 00 00 	nopl   0x0(%rax,%rax,1)
  40554f:	00 
  405550:	48 85 c9             	test   %rcx,%rcx
  405553:	74 0d                	je     405562 <_ZNSt6vectorISsSaISsEE19_M_emplace_back_auxIIRKSsEEEvDpOT_+0xa2>
  405555:	48 8b 32             	mov    (%rdx),%rsi
  405558:	48 89 31             	mov    %rsi,(%rcx)
  40555b:	48 c7 02 18 23 61 00 	movq   $0x612318,(%rdx)
  405562:	48 83 c2 08          	add    $0x8,%rdx
  405566:	48 83 c1 08          	add    $0x8,%rcx
  40556a:	4c 39 f2             	cmp    %r14,%rdx
  40556d:	75 e1                	jne    405550 <_ZNSt6vectorISsSaISsEE19_M_emplace_back_auxIIRKSsEEEvDpOT_+0x90>
  40556f:	48 8d 58 08          	lea    0x8(%rax),%rbx
  405573:	4c 89 f2             	mov    %r14,%rdx
  405576:	48 29 da             	sub    %rbx,%rdx
  405579:	48 c1 ea 03          	shr    $0x3,%rdx
  40557d:	4d 8d 7c d4 10       	lea    0x10(%r12,%rdx,8),%r15
  405582:	ba 50 2c 40 00       	mov    $0x402c50,%edx
  405587:	48 85 d2             	test   %rdx,%rdx
  40558a:	75 10                	jne    40559c <_ZNSt6vectorISsSaISsEE19_M_emplace_back_auxIIRKSsEEEvDpOT_+0xdc>
  40558c:	e9 c3 00 00 00       	jmpq   405654 <_ZNSt6vectorISsSaISsEE19_M_emplace_back_auxIIRKSsEEEvDpOT_+0x194>
  405591:	0f 1f 80 00 00 00 00 	nopl   0x0(%rax)
  405598:	48 83 c3 08          	add    $0x8,%rbx
  40559c:	48 8b 00             	mov    (%rax),%rax
  40559f:	48 8d 78 e8          	lea    -0x18(%rax),%rdi
  4055a3:	48 81 ff 00 23 61 00 	cmp    $0x612300,%rdi
  4055aa:	75 56                	jne    405602 <_ZNSt6vectorISsSaISsEE19_M_emplace_back_auxIIRKSsEEEvDpOT_+0x142>
  4055ac:	4c 39 f3             	cmp    %r14,%rbx
  4055af:	48 89 d8             	mov    %rbx,%rax
  4055b2:	75 e4                	jne    405598 <_ZNSt6vectorISsSaISsEE19_M_emplace_back_auxIIRKSsEEEvDpOT_+0xd8>
  4055b4:	4c 8b 75 00          	mov    0x0(%rbp),%r14
  4055b8:	4d 85 f6             	test   %r14,%r14
  4055bb:	74 08                	je     4055c5 <_ZNSt6vectorISsSaISsEE19_M_emplace_back_auxIIRKSsEEEvDpOT_+0x105>
  4055bd:	4c 89 f7             	mov    %r14,%rdi
  4055c0:	e8 6b d4 ff ff       	callq  402a30 <_ZdlPv@plt>
  4055c5:	4b 8d 04 ec          	lea    (%r12,%r13,8),%rax
  4055c9:	4c 89 65 00          	mov    %r12,0x0(%rbp)
  4055cd:	4c 89 7d 08          	mov    %r15,0x8(%rbp)
  4055d1:	48 89 45 10          	mov    %rax,0x10(%rbp)
  4055d5:	48 83 c4 28          	add    $0x28,%rsp
  4055d9:	5b                   	pop    %rbx
  4055da:	5d                   	pop    %rbp
  4055db:	41 5c                	pop    %r12
  4055dd:	41 5d                	pop    %r13
  4055df:	41 5e                	pop    %r14
  4055e1:	41 5f                	pop    %r15
  4055e3:	c3                   	retq   
  4055e4:	0f 1f 40 00          	nopl   0x0(%rax)
  4055e8:	41 bd 01 00 00 00    	mov    $0x1,%r13d
  4055ee:	4a 8d 3c ed 00 00 00 	lea    0x0(,%r13,8),%rdi
  4055f5:	00 
  4055f6:	e9 08 ff ff ff       	jmpq   405503 <_ZNSt6vectorISsSaISsEE19_M_emplace_back_auxIIRKSsEEEvDpOT_+0x43>
  4055fb:	4d 8d 7c 24 08       	lea    0x8(%r12),%r15
  405600:	eb b6                	jmp    4055b8 <_ZNSt6vectorISsSaISsEE19_M_emplace_back_auxIIRKSsEEEvDpOT_+0xf8>
  405602:	ba ff ff ff ff       	mov    $0xffffffff,%edx
  405607:	f0 0f c1 50 f8       	lock xadd %edx,-0x8(%rax)
  40560c:	85 d2                	test   %edx,%edx
  40560e:	7f 9c                	jg     4055ac <_ZNSt6vectorISsSaISsEE19_M_emplace_back_auxIIRKSsEEEvDpOT_+0xec>
  405610:	48 8d 74 24 1f       	lea    0x1f(%rsp),%rsi
  405615:	e8 a6 d3 ff ff       	callq  4029c0 <_ZNSs4_Rep10_M_destroyERKSaIcE@plt>
  40561a:	eb 90                	jmp    4055ac <_ZNSt6vectorISsSaISsEE19_M_emplace_back_auxIIRKSsEEEvDpOT_+0xec>
  40561c:	48 89 c7             	mov    %rax,%rdi
  40561f:	e8 5c d2 ff ff       	callq  402880 <__cxa_begin_catch@plt>
  405624:	4d 85 e4             	test   %r12,%r12
  405627:	74 5d                	je     405686 <_ZNSt6vectorISsSaISsEE19_M_emplace_back_auxIIRKSsEEEvDpOT_+0x1c6>
  405629:	4c 89 e7             	mov    %r12,%rdi
  40562c:	e8 ff d3 ff ff       	callq  402a30 <_ZdlPv@plt>
  405631:	e8 8a d5 ff ff       	callq  402bc0 <__cxa_rethrow@plt>
  405636:	48 b8 ff ff ff ff ff 	movabs $0x1fffffffffffffff,%rax
  40563d:	ff ff 1f 
  405640:	49 39 c5             	cmp    %rax,%r13
  405643:	76 a9                	jbe    4055ee <_ZNSt6vectorISsSaISsEE19_M_emplace_back_auxIIRKSsEEEvDpOT_+0x12e>
  405645:	48 c7 c7 f8 ff ff ff 	mov    $0xfffffffffffffff8,%rdi
  40564c:	49 89 c5             	mov    %rax,%r13
  40564f:	e9 af fe ff ff       	jmpq   405503 <_ZNSt6vectorISsSaISsEE19_M_emplace_back_auxIIRKSsEEEvDpOT_+0x43>
  405654:	48 8b 00             	mov    (%rax),%rax
  405657:	48 8d 78 e8          	lea    -0x18(%rax),%rdi
  40565b:	48 81 ff 00 23 61 00 	cmp    $0x612300,%rdi
  405662:	75 46                	jne    4056aa <_ZNSt6vectorISsSaISsEE19_M_emplace_back_auxIIRKSsEEEvDpOT_+0x1ea>
  405664:	4c 39 f3             	cmp    %r14,%rbx
  405667:	48 89 d8             	mov    %rbx,%rax
  40566a:	0f 84 44 ff ff ff    	je     4055b4 <_ZNSt6vectorISsSaISsEE19_M_emplace_back_auxIIRKSsEEEvDpOT_+0xf4>
  405670:	48 83 c3 08          	add    $0x8,%rbx
  405674:	eb de                	jmp    405654 <_ZNSt6vectorISsSaISsEE19_M_emplace_back_auxIIRKSsEEEvDpOT_+0x194>
  405676:	48 89 c3             	mov    %rax,%rbx
  405679:	e8 b2 d5 ff ff       	callq  402c30 <__cxa_end_catch@plt>
  40567e:	48 89 df             	mov    %rbx,%rdi
  405681:	e8 2a d6 ff ff       	callq  402cb0 <_Unwind_Resume@plt>
  405686:	48 8b 45 08          	mov    0x8(%rbp),%rax
  40568a:	48 2b 45 00          	sub    0x0(%rbp),%rax
  40568e:	48 8d 74 24 1f       	lea    0x1f(%rsp),%rsi
  405693:	48 c1 f8 03          	sar    $0x3,%rax
  405697:	48 8b 3c c5 00 00 00 	mov    0x0(,%rax,8),%rdi
  40569e:	00 
  40569f:	48 83 ef 18          	sub    $0x18,%rdi
  4056a3:	e8 98 d2 ff ff       	callq  402940 <_ZNSs4_Rep10_M_disposeERKSaIcE@plt>
  4056a8:	eb 87                	jmp    405631 <_ZNSt6vectorISsSaISsEE19_M_emplace_back_auxIIRKSsEEEvDpOT_+0x171>
  4056aa:	8b 50 f8             	mov    -0x8(%rax),%edx
  4056ad:	8d 4a ff             	lea    -0x1(%rdx),%ecx
  4056b0:	85 d2                	test   %edx,%edx
  4056b2:	89 48 f8             	mov    %ecx,-0x8(%rax)
  4056b5:	7f ad                	jg     405664 <_ZNSt6vectorISsSaISsEE19_M_emplace_back_auxIIRKSsEEEvDpOT_+0x1a4>
  4056b7:	48 8d 74 24 1f       	lea    0x1f(%rsp),%rsi
  4056bc:	e8 ff d2 ff ff       	callq  4029c0 <_ZNSs4_Rep10_M_destroyERKSaIcE@plt>
  4056c1:	eb a1                	jmp    405664 <_ZNSt6vectorISsSaISsEE19_M_emplace_back_auxIIRKSsEEEvDpOT_+0x1a4>
  4056c3:	90                   	nop
  4056c4:	90                   	nop
  4056c5:	90                   	nop
  4056c6:	90                   	nop
  4056c7:	90                   	nop
  4056c8:	90                   	nop
  4056c9:	90                   	nop
  4056ca:	90                   	nop
  4056cb:	90                   	nop
  4056cc:	90                   	nop
  4056cd:	90                   	nop
  4056ce:	90                   	nop
  4056cf:	90                   	nop

00000000004056d0 <_ZNSt8_Rb_treeIcSt4pairIKcN6GetOpt10OptionDataEESt10_Select1stIS4_ESt4lessIcESaIS4_EE8_M_eraseEPSt13_Rb_tree_nodeIS4_E>:
  4056d0:	41 57                	push   %r15
  4056d2:	41 56                	push   %r14
  4056d4:	41 55                	push   %r13
  4056d6:	41 54                	push   %r12
  4056d8:	55                   	push   %rbp
  4056d9:	53                   	push   %rbx
  4056da:	48 89 fb             	mov    %rdi,%rbx
  4056dd:	48 83 ec 38          	sub    $0x38,%rsp
  4056e1:	48 85 f6             	test   %rsi,%rsi
  4056e4:	48 89 74 24 28       	mov    %rsi,0x28(%rsp)
  4056e9:	0f 84 93 01 00 00    	je     405882 <_ZNSt8_Rb_treeIcSt4pairIKcN6GetOpt10OptionDataEESt10_Select1stIS4_ESt4lessIcESaIS4_EE8_M_eraseEPSt13_Rb_tree_nodeIS4_E+0x1b2>
  4056ef:	48 8b 44 24 28       	mov    0x28(%rsp),%rax
  4056f4:	48 8b 40 18          	mov    0x18(%rax),%rax
  4056f8:	48 85 c0             	test   %rax,%rax
  4056fb:	48 89 44 24 08       	mov    %rax,0x8(%rsp)
  405700:	0f 84 5c 01 00 00    	je     405862 <_ZNSt8_Rb_treeIcSt4pairIKcN6GetOpt10OptionDataEESt10_Select1stIS4_ESt4lessIcESaIS4_EE8_M_eraseEPSt13_Rb_tree_nodeIS4_E+0x192>
  405706:	48 8b 40 18          	mov    0x18(%rax),%rax
  40570a:	48 85 c0             	test   %rax,%rax
  40570d:	48 89 44 24 10       	mov    %rax,0x10(%rsp)
  405712:	0f 84 27 01 00 00    	je     40583f <_ZNSt8_Rb_treeIcSt4pairIKcN6GetOpt10OptionDataEESt10_Select1stIS4_ESt4lessIcESaIS4_EE8_M_eraseEPSt13_Rb_tree_nodeIS4_E+0x16f>
  405718:	48 8b 40 18          	mov    0x18(%rax),%rax
  40571c:	48 85 c0             	test   %rax,%rax
  40571f:	48 89 44 24 18       	mov    %rax,0x18(%rsp)
  405724:	0f 84 f2 00 00 00    	je     40581c <_ZNSt8_Rb_treeIcSt4pairIKcN6GetOpt10OptionDataEESt10_Select1stIS4_ESt4lessIcESaIS4_EE8_M_eraseEPSt13_Rb_tree_nodeIS4_E+0x14c>
  40572a:	48 8b 40 18          	mov    0x18(%rax),%rax
  40572e:	48 85 c0             	test   %rax,%rax
  405731:	48 89 44 24 20       	mov    %rax,0x20(%rsp)
  405736:	0f 84 bd 00 00 00    	je     4057f9 <_ZNSt8_Rb_treeIcSt4pairIKcN6GetOpt10OptionDataEESt10_Select1stIS4_ESt4lessIcESaIS4_EE8_M_eraseEPSt13_Rb_tree_nodeIS4_E+0x129>
  40573c:	4c 8b 78 18          	mov    0x18(%rax),%r15
  405740:	4d 85 ff             	test   %r15,%r15
  405743:	0f 84 92 00 00 00    	je     4057db <_ZNSt8_Rb_treeIcSt4pairIKcN6GetOpt10OptionDataEESt10_Select1stIS4_ESt4lessIcESaIS4_EE8_M_eraseEPSt13_Rb_tree_nodeIS4_E+0x10b>
  405749:	4d 8b 67 18          	mov    0x18(%r15),%r12
  40574d:	4d 85 e4             	test   %r12,%r12
  405750:	74 6b                	je     4057bd <_ZNSt8_Rb_treeIcSt4pairIKcN6GetOpt10OptionDataEESt10_Select1stIS4_ESt4lessIcESaIS4_EE8_M_eraseEPSt13_Rb_tree_nodeIS4_E+0xed>
  405752:	49 8b 6c 24 18       	mov    0x18(%r12),%rbp
  405757:	48 85 ed             	test   %rbp,%rbp
  40575a:	74 4a                	je     4057a6 <_ZNSt8_Rb_treeIcSt4pairIKcN6GetOpt10OptionDataEESt10_Select1stIS4_ESt4lessIcESaIS4_EE8_M_eraseEPSt13_Rb_tree_nodeIS4_E+0xd6>
  40575c:	0f 1f 40 00          	nopl   0x0(%rax)
  405760:	4c 8b 6d 18          	mov    0x18(%rbp),%r13
  405764:	4d 85 ed             	test   %r13,%r13
  405767:	75 0a                	jne    405773 <_ZNSt8_Rb_treeIcSt4pairIKcN6GetOpt10OptionDataEESt10_Select1stIS4_ESt4lessIcESaIS4_EE8_M_eraseEPSt13_Rb_tree_nodeIS4_E+0xa3>
  405769:	eb 25                	jmp    405790 <_ZNSt8_Rb_treeIcSt4pairIKcN6GetOpt10OptionDataEESt10_Select1stIS4_ESt4lessIcESaIS4_EE8_M_eraseEPSt13_Rb_tree_nodeIS4_E+0xc0>
  40576b:	0f 1f 44 00 00       	nopl   0x0(%rax,%rax,1)
  405770:	4d 89 f5             	mov    %r14,%r13
  405773:	49 8b 75 18          	mov    0x18(%r13),%rsi
  405777:	48 89 df             	mov    %rbx,%rdi
  40577a:	e8 51 ff ff ff       	callq  4056d0 <_ZNSt8_Rb_treeIcSt4pairIKcN6GetOpt10OptionDataEESt10_Select1stIS4_ESt4lessIcESaIS4_EE8_M_eraseEPSt13_Rb_tree_nodeIS4_E>
  40577f:	4d 8b 75 10          	mov    0x10(%r13),%r14
  405783:	4c 89 ef             	mov    %r13,%rdi
  405786:	e8 a5 d2 ff ff       	callq  402a30 <_ZdlPv@plt>
  40578b:	4d 85 f6             	test   %r14,%r14
  40578e:	75 e0                	jne    405770 <_ZNSt8_Rb_treeIcSt4pairIKcN6GetOpt10OptionDataEESt10_Select1stIS4_ESt4lessIcESaIS4_EE8_M_eraseEPSt13_Rb_tree_nodeIS4_E+0xa0>
  405790:	4c 8b 6d 10          	mov    0x10(%rbp),%r13
  405794:	48 89 ef             	mov    %rbp,%rdi
  405797:	e8 94 d2 ff ff       	callq  402a30 <_ZdlPv@plt>
  40579c:	4d 85 ed             	test   %r13,%r13
  40579f:	74 05                	je     4057a6 <_ZNSt8_Rb_treeIcSt4pairIKcN6GetOpt10OptionDataEESt10_Select1stIS4_ESt4lessIcESaIS4_EE8_M_eraseEPSt13_Rb_tree_nodeIS4_E+0xd6>
  4057a1:	4c 89 ed             	mov    %r13,%rbp
  4057a4:	eb ba                	jmp    405760 <_ZNSt8_Rb_treeIcSt4pairIKcN6GetOpt10OptionDataEESt10_Select1stIS4_ESt4lessIcESaIS4_EE8_M_eraseEPSt13_Rb_tree_nodeIS4_E+0x90>
  4057a6:	49 8b 6c 24 10       	mov    0x10(%r12),%rbp
  4057ab:	4c 89 e7             	mov    %r12,%rdi
  4057ae:	e8 7d d2 ff ff       	callq  402a30 <_ZdlPv@plt>
  4057b3:	48 85 ed             	test   %rbp,%rbp
  4057b6:	74 05                	je     4057bd <_ZNSt8_Rb_treeIcSt4pairIKcN6GetOpt10OptionDataEESt10_Select1stIS4_ESt4lessIcESaIS4_EE8_M_eraseEPSt13_Rb_tree_nodeIS4_E+0xed>
  4057b8:	49 89 ec             	mov    %rbp,%r12
  4057bb:	eb 95                	jmp    405752 <_ZNSt8_Rb_treeIcSt4pairIKcN6GetOpt10OptionDataEESt10_Select1stIS4_ESt4lessIcESaIS4_EE8_M_eraseEPSt13_Rb_tree_nodeIS4_E+0x82>
  4057bd:	49 8b 6f 10          	mov    0x10(%r15),%rbp
  4057c1:	4c 89 ff             	mov    %r15,%rdi
  4057c4:	e8 67 d2 ff ff       	callq  402a30 <_ZdlPv@plt>
  4057c9:	48 85 ed             	test   %rbp,%rbp
  4057cc:	74 08                	je     4057d6 <_ZNSt8_Rb_treeIcSt4pairIKcN6GetOpt10OptionDataEESt10_Select1stIS4_ESt4lessIcESaIS4_EE8_M_eraseEPSt13_Rb_tree_nodeIS4_E+0x106>
  4057ce:	49 89 ef             	mov    %rbp,%r15
  4057d1:	e9 73 ff ff ff       	jmpq   405749 <_ZNSt8_Rb_treeIcSt4pairIKcN6GetOpt10OptionDataEESt10_Select1stIS4_ESt4lessIcESaIS4_EE8_M_eraseEPSt13_Rb_tree_nodeIS4_E+0x79>
  4057d6:	48 8b 44 24 20       	mov    0x20(%rsp),%rax
  4057db:	48 8b 68 10          	mov    0x10(%rax),%rbp
  4057df:	48 89 c7             	mov    %rax,%rdi
  4057e2:	e8 49 d2 ff ff       	callq  402a30 <_ZdlPv@plt>
  4057e7:	48 85 ed             	test   %rbp,%rbp
  4057ea:	74 0d                	je     4057f9 <_ZNSt8_Rb_treeIcSt4pairIKcN6GetOpt10OptionDataEESt10_Select1stIS4_ESt4lessIcESaIS4_EE8_M_eraseEPSt13_Rb_tree_nodeIS4_E+0x129>
  4057ec:	48 89 6c 24 20       	mov    %rbp,0x20(%rsp)
  4057f1:	48 89 e8             	mov    %rbp,%rax
  4057f4:	e9 43 ff ff ff       	jmpq   40573c <_ZNSt8_Rb_treeIcSt4pairIKcN6GetOpt10OptionDataEESt10_Select1stIS4_ESt4lessIcESaIS4_EE8_M_eraseEPSt13_Rb_tree_nodeIS4_E+0x6c>
  4057f9:	48 8b 44 24 18       	mov    0x18(%rsp),%rax
  4057fe:	48 8b 68 10          	mov    0x10(%rax),%rbp
  405802:	48 89 c7             	mov    %rax,%rdi
  405805:	e8 26 d2 ff ff       	callq  402a30 <_ZdlPv@plt>
  40580a:	48 85 ed             	test   %rbp,%rbp
  40580d:	74 0d                	je     40581c <_ZNSt8_Rb_treeIcSt4pairIKcN6GetOpt10OptionDataEESt10_Select1stIS4_ESt4lessIcESaIS4_EE8_M_eraseEPSt13_Rb_tree_nodeIS4_E+0x14c>
  40580f:	48 89 6c 24 18       	mov    %rbp,0x18(%rsp)
  405814:	48 89 e8             	mov    %rbp,%rax
  405817:	e9 0e ff ff ff       	jmpq   40572a <_ZNSt8_Rb_treeIcSt4pairIKcN6GetOpt10OptionDataEESt10_Select1stIS4_ESt4lessIcESaIS4_EE8_M_eraseEPSt13_Rb_tree_nodeIS4_E+0x5a>
  40581c:	48 8b 44 24 10       	mov    0x10(%rsp),%rax
  405821:	48 8b 68 10          	mov    0x10(%rax),%rbp
  405825:	48 89 c7             	mov    %rax,%rdi
  405828:	e8 03 d2 ff ff       	callq  402a30 <_ZdlPv@plt>
  40582d:	48 85 ed             	test   %rbp,%rbp
  405830:	74 0d                	je     40583f <_ZNSt8_Rb_treeIcSt4pairIKcN6GetOpt10OptionDataEESt10_Select1stIS4_ESt4lessIcESaIS4_EE8_M_eraseEPSt13_Rb_tree_nodeIS4_E+0x16f>
  405832:	48 89 6c 24 10       	mov    %rbp,0x10(%rsp)
  405837:	48 89 e8             	mov    %rbp,%rax
  40583a:	e9 d9 fe ff ff       	jmpq   405718 <_ZNSt8_Rb_treeIcSt4pairIKcN6GetOpt10OptionDataEESt10_Select1stIS4_ESt4lessIcESaIS4_EE8_M_eraseEPSt13_Rb_tree_nodeIS4_E+0x48>
  40583f:	48 8b 44 24 08       	mov    0x8(%rsp),%rax
  405844:	48 8b 68 10          	mov    0x10(%rax),%rbp
  405848:	48 89 c7             	mov    %rax,%rdi
  40584b:	e8 e0 d1 ff ff       	callq  402a30 <_ZdlPv@plt>
  405850:	48 85 ed             	test   %rbp,%rbp
  405853:	74 0d                	je     405862 <_ZNSt8_Rb_treeIcSt4pairIKcN6GetOpt10OptionDataEESt10_Select1stIS4_ESt4lessIcESaIS4_EE8_M_eraseEPSt13_Rb_tree_nodeIS4_E+0x192>
  405855:	48 89 6c 24 08       	mov    %rbp,0x8(%rsp)
  40585a:	48 89 e8             	mov    %rbp,%rax
  40585d:	e9 a4 fe ff ff       	jmpq   405706 <_ZNSt8_Rb_treeIcSt4pairIKcN6GetOpt10OptionDataEESt10_Select1stIS4_ESt4lessIcESaIS4_EE8_M_eraseEPSt13_Rb_tree_nodeIS4_E+0x36>
  405862:	48 8b 44 24 28       	mov    0x28(%rsp),%rax
  405867:	48 8b 68 10          	mov    0x10(%rax),%rbp
  40586b:	48 89 c7             	mov    %rax,%rdi
  40586e:	e8 bd d1 ff ff       	callq  402a30 <_ZdlPv@plt>
  405873:	48 85 ed             	test   %rbp,%rbp
  405876:	74 0a                	je     405882 <_ZNSt8_Rb_treeIcSt4pairIKcN6GetOpt10OptionDataEESt10_Select1stIS4_ESt4lessIcESaIS4_EE8_M_eraseEPSt13_Rb_tree_nodeIS4_E+0x1b2>
  405878:	48 89 6c 24 28       	mov    %rbp,0x28(%rsp)
  40587d:	e9 6d fe ff ff       	jmpq   4056ef <_ZNSt8_Rb_treeIcSt4pairIKcN6GetOpt10OptionDataEESt10_Select1stIS4_ESt4lessIcESaIS4_EE8_M_eraseEPSt13_Rb_tree_nodeIS4_E+0x1f>
  405882:	48 83 c4 38          	add    $0x38,%rsp
  405886:	5b                   	pop    %rbx
  405887:	5d                   	pop    %rbp
  405888:	41 5c                	pop    %r12
  40588a:	41 5d                	pop    %r13
  40588c:	41 5e                	pop    %r14
  40588e:	41 5f                	pop    %r15
  405890:	c3                   	retq   
  405891:	90                   	nop
  405892:	90                   	nop
  405893:	90                   	nop
  405894:	90                   	nop
  405895:	90                   	nop
  405896:	90                   	nop
  405897:	90                   	nop
  405898:	90                   	nop
  405899:	90                   	nop
  40589a:	90                   	nop
  40589b:	90                   	nop
  40589c:	90                   	nop
  40589d:	90                   	nop
  40589e:	90                   	nop
  40589f:	90                   	nop

00000000004058a0 <_ZNSt8_Rb_treeISsSt4pairIKSsN6GetOpt10OptionDataEESt10_Select1stIS4_ESt4lessISsESaIS4_EE8_M_eraseEPSt13_Rb_tree_nodeIS4_E>:
  4058a0:	41 57                	push   %r15
  4058a2:	41 56                	push   %r14
  4058a4:	41 55                	push   %r13
  4058a6:	41 54                	push   %r12
  4058a8:	55                   	push   %rbp
  4058a9:	53                   	push   %rbx
  4058aa:	48 89 fb             	mov    %rdi,%rbx
  4058ad:	48 83 ec 48          	sub    $0x48,%rsp
  4058b1:	48 85 f6             	test   %rsi,%rsi
  4058b4:	48 89 74 24 28       	mov    %rsi,0x28(%rsp)
  4058b9:	0f 84 e8 02 00 00    	je     405ba7 <_ZNSt8_Rb_treeISsSt4pairIKSsN6GetOpt10OptionDataEESt10_Select1stIS4_ESt4lessISsESaIS4_EE8_M_eraseEPSt13_Rb_tree_nodeIS4_E+0x307>
  4058bf:	48 8b 44 24 28       	mov    0x28(%rsp),%rax
  4058c4:	48 8b 40 18          	mov    0x18(%rax),%rax
  4058c8:	48 85 c0             	test   %rax,%rax
  4058cb:	48 89 44 24 08       	mov    %rax,0x8(%rsp)
  4058d0:	0f 84 9e 02 00 00    	je     405b74 <_ZNSt8_Rb_treeISsSt4pairIKSsN6GetOpt10OptionDataEESt10_Select1stIS4_ESt4lessISsESaIS4_EE8_M_eraseEPSt13_Rb_tree_nodeIS4_E+0x2d4>
  4058d6:	48 8b 40 18          	mov    0x18(%rax),%rax
  4058da:	48 85 c0             	test   %rax,%rax
  4058dd:	48 89 44 24 10       	mov    %rax,0x10(%rsp)
  4058e2:	0f 84 b1 03 00 00    	je     405c99 <_ZNSt8_Rb_treeISsSt4pairIKSsN6GetOpt10OptionDataEESt10_Select1stIS4_ESt4lessISsESaIS4_EE8_M_eraseEPSt13_Rb_tree_nodeIS4_E+0x3f9>
  4058e8:	48 8b 40 18          	mov    0x18(%rax),%rax
  4058ec:	48 85 c0             	test   %rax,%rax
  4058ef:	48 89 44 24 18       	mov    %rax,0x18(%rsp)
  4058f4:	0f 84 69 03 00 00    	je     405c63 <_ZNSt8_Rb_treeISsSt4pairIKSsN6GetOpt10OptionDataEESt10_Select1stIS4_ESt4lessISsESaIS4_EE8_M_eraseEPSt13_Rb_tree_nodeIS4_E+0x3c3>
  4058fa:	48 8b 40 18          	mov    0x18(%rax),%rax
  4058fe:	48 85 c0             	test   %rax,%rax
  405901:	48 89 44 24 20       	mov    %rax,0x20(%rsp)
  405906:	0f 84 59 01 00 00    	je     405a65 <_ZNSt8_Rb_treeISsSt4pairIKSsN6GetOpt10OptionDataEESt10_Select1stIS4_ESt4lessISsESaIS4_EE8_M_eraseEPSt13_Rb_tree_nodeIS4_E+0x1c5>
  40590c:	4c 8b 78 18          	mov    0x18(%rax),%r15
  405910:	4d 85 ff             	test   %r15,%r15
  405913:	0f 84 16 01 00 00    	je     405a2f <_ZNSt8_Rb_treeISsSt4pairIKSsN6GetOpt10OptionDataEESt10_Select1stIS4_ESt4lessISsESaIS4_EE8_M_eraseEPSt13_Rb_tree_nodeIS4_E+0x18f>
  405919:	4d 8b 67 18          	mov    0x18(%r15),%r12
  40591d:	4d 85 e4             	test   %r12,%r12
  405920:	0f 84 ba 00 00 00    	je     4059e0 <_ZNSt8_Rb_treeISsSt4pairIKSsN6GetOpt10OptionDataEESt10_Select1stIS4_ESt4lessISsESaIS4_EE8_M_eraseEPSt13_Rb_tree_nodeIS4_E+0x140>
  405926:	49 8b 6c 24 18       	mov    0x18(%r12),%rbp
  40592b:	48 85 ed             	test   %rbp,%rbp
  40592e:	0f 84 7c 00 00 00    	je     4059b0 <_ZNSt8_Rb_treeISsSt4pairIKSsN6GetOpt10OptionDataEESt10_Select1stIS4_ESt4lessISsESaIS4_EE8_M_eraseEPSt13_Rb_tree_nodeIS4_E+0x110>
  405934:	0f 1f 40 00          	nopl   0x0(%rax)
  405938:	4c 8b 6d 18          	mov    0x18(%rbp),%r13
  40593c:	4d 85 ed             	test   %r13,%r13
  40593f:	74 44                	je     405985 <_ZNSt8_Rb_treeISsSt4pairIKSsN6GetOpt10OptionDataEESt10_Select1stIS4_ESt4lessISsESaIS4_EE8_M_eraseEPSt13_Rb_tree_nodeIS4_E+0xe5>
  405941:	ba 50 2c 40 00       	mov    $0x402c50,%edx
  405946:	48 85 d2             	test   %rdx,%rdx
  405949:	75 08                	jne    405953 <_ZNSt8_Rb_treeISsSt4pairIKSsN6GetOpt10OptionDataEESt10_Select1stIS4_ESt4lessISsESaIS4_EE8_M_eraseEPSt13_Rb_tree_nodeIS4_E+0xb3>
  40594b:	e9 91 02 00 00       	jmpq   405be1 <_ZNSt8_Rb_treeISsSt4pairIKSsN6GetOpt10OptionDataEESt10_Select1stIS4_ESt4lessISsESaIS4_EE8_M_eraseEPSt13_Rb_tree_nodeIS4_E+0x341>
  405950:	4d 89 f5             	mov    %r14,%r13
  405953:	49 8b 75 18          	mov    0x18(%r13),%rsi
  405957:	48 89 df             	mov    %rbx,%rdi
  40595a:	e8 41 ff ff ff       	callq  4058a0 <_ZNSt8_Rb_treeISsSt4pairIKSsN6GetOpt10OptionDataEESt10_Select1stIS4_ESt4lessISsESaIS4_EE8_M_eraseEPSt13_Rb_tree_nodeIS4_E>
  40595f:	49 8b 4d 20          	mov    0x20(%r13),%rcx
  405963:	4d 8b 75 10          	mov    0x10(%r13),%r14
  405967:	48 8d 79 e8          	lea    -0x18(%rcx),%rdi
  40596b:	48 81 ff 00 23 61 00 	cmp    $0x612300,%rdi
  405972:	0f 85 96 00 00 00    	jne    405a0e <_ZNSt8_Rb_treeISsSt4pairIKSsN6GetOpt10OptionDataEESt10_Select1stIS4_ESt4lessISsESaIS4_EE8_M_eraseEPSt13_Rb_tree_nodeIS4_E+0x16e>
  405978:	4c 89 ef             	mov    %r13,%rdi
  40597b:	e8 b0 d0 ff ff       	callq  402a30 <_ZdlPv@plt>
  405980:	4d 85 f6             	test   %r14,%r14
  405983:	75 cb                	jne    405950 <_ZNSt8_Rb_treeISsSt4pairIKSsN6GetOpt10OptionDataEESt10_Select1stIS4_ESt4lessISsESaIS4_EE8_M_eraseEPSt13_Rb_tree_nodeIS4_E+0xb0>
  405985:	48 8b 55 20          	mov    0x20(%rbp),%rdx
  405989:	4c 8b 6d 10          	mov    0x10(%rbp),%r13
  40598d:	48 8d 7a e8          	lea    -0x18(%rdx),%rdi
  405991:	48 81 ff 00 23 61 00 	cmp    $0x612300,%rdi
  405998:	0f 85 69 01 00 00    	jne    405b07 <_ZNSt8_Rb_treeISsSt4pairIKSsN6GetOpt10OptionDataEESt10_Select1stIS4_ESt4lessISsESaIS4_EE8_M_eraseEPSt13_Rb_tree_nodeIS4_E+0x267>
  40599e:	48 89 ef             	mov    %rbp,%rdi
  4059a1:	e8 8a d0 ff ff       	callq  402a30 <_ZdlPv@plt>
  4059a6:	4d 85 ed             	test   %r13,%r13
  4059a9:	74 05                	je     4059b0 <_ZNSt8_Rb_treeISsSt4pairIKSsN6GetOpt10OptionDataEESt10_Select1stIS4_ESt4lessISsESaIS4_EE8_M_eraseEPSt13_Rb_tree_nodeIS4_E+0x110>
  4059ab:	4c 89 ed             	mov    %r13,%rbp
  4059ae:	eb 88                	jmp    405938 <_ZNSt8_Rb_treeISsSt4pairIKSsN6GetOpt10OptionDataEESt10_Select1stIS4_ESt4lessISsESaIS4_EE8_M_eraseEPSt13_Rb_tree_nodeIS4_E+0x98>
  4059b0:	49 8b 44 24 20       	mov    0x20(%r12),%rax
  4059b5:	49 8b 6c 24 10       	mov    0x10(%r12),%rbp
  4059ba:	48 8d 78 e8          	lea    -0x18(%rax),%rdi
  4059be:	48 81 ff 00 23 61 00 	cmp    $0x612300,%rdi
  4059c5:	0f 85 6a 01 00 00    	jne    405b35 <_ZNSt8_Rb_treeISsSt4pairIKSsN6GetOpt10OptionDataEESt10_Select1stIS4_ESt4lessISsESaIS4_EE8_M_eraseEPSt13_Rb_tree_nodeIS4_E+0x295>
  4059cb:	4c 89 e7             	mov    %r12,%rdi
  4059ce:	e8 5d d0 ff ff       	callq  402a30 <_ZdlPv@plt>
  4059d3:	48 85 ed             	test   %rbp,%rbp
  4059d6:	74 08                	je     4059e0 <_ZNSt8_Rb_treeISsSt4pairIKSsN6GetOpt10OptionDataEESt10_Select1stIS4_ESt4lessISsESaIS4_EE8_M_eraseEPSt13_Rb_tree_nodeIS4_E+0x140>
  4059d8:	49 89 ec             	mov    %rbp,%r12
  4059db:	e9 46 ff ff ff       	jmpq   405926 <_ZNSt8_Rb_treeISsSt4pairIKSsN6GetOpt10OptionDataEESt10_Select1stIS4_ESt4lessISsESaIS4_EE8_M_eraseEPSt13_Rb_tree_nodeIS4_E+0x86>
  4059e0:	49 8b 47 20          	mov    0x20(%r15),%rax
  4059e4:	49 8b 6f 10          	mov    0x10(%r15),%rbp
  4059e8:	48 8d 78 e8          	lea    -0x18(%rax),%rdi
  4059ec:	48 81 ff 00 23 61 00 	cmp    $0x612300,%rdi
  4059f3:	0f 85 1f 02 00 00    	jne    405c18 <_ZNSt8_Rb_treeISsSt4pairIKSsN6GetOpt10OptionDataEESt10_Select1stIS4_ESt4lessISsESaIS4_EE8_M_eraseEPSt13_Rb_tree_nodeIS4_E+0x378>
  4059f9:	4c 89 ff             	mov    %r15,%rdi
  4059fc:	e8 2f d0 ff ff       	callq  402a30 <_ZdlPv@plt>
  405a01:	48 85 ed             	test   %rbp,%rbp
  405a04:	74 29                	je     405a2f <_ZNSt8_Rb_treeISsSt4pairIKSsN6GetOpt10OptionDataEESt10_Select1stIS4_ESt4lessISsESaIS4_EE8_M_eraseEPSt13_Rb_tree_nodeIS4_E+0x18f>
  405a06:	49 89 ef             	mov    %rbp,%r15
  405a09:	e9 0b ff ff ff       	jmpq   405919 <_ZNSt8_Rb_treeISsSt4pairIKSsN6GetOpt10OptionDataEESt10_Select1stIS4_ESt4lessISsESaIS4_EE8_M_eraseEPSt13_Rb_tree_nodeIS4_E+0x79>
  405a0e:	be ff ff ff ff       	mov    $0xffffffff,%esi
  405a13:	f0 0f c1 71 f8       	lock xadd %esi,-0x8(%rcx)
  405a18:	85 f6                	test   %esi,%esi
  405a1a:	0f 8f 58 ff ff ff    	jg     405978 <_ZNSt8_Rb_treeISsSt4pairIKSsN6GetOpt10OptionDataEESt10_Select1stIS4_ESt4lessISsESaIS4_EE8_M_eraseEPSt13_Rb_tree_nodeIS4_E+0xd8>
  405a20:	48 8d 74 24 3f       	lea    0x3f(%rsp),%rsi
  405a25:	e8 96 cf ff ff       	callq  4029c0 <_ZNSs4_Rep10_M_destroyERKSaIcE@plt>
  405a2a:	e9 49 ff ff ff       	jmpq   405978 <_ZNSt8_Rb_treeISsSt4pairIKSsN6GetOpt10OptionDataEESt10_Select1stIS4_ESt4lessISsESaIS4_EE8_M_eraseEPSt13_Rb_tree_nodeIS4_E+0xd8>
  405a2f:	48 8b 44 24 20       	mov    0x20(%rsp),%rax
  405a34:	48 8b 68 10          	mov    0x10(%rax),%rbp
  405a38:	48 8b 40 20          	mov    0x20(%rax),%rax
  405a3c:	48 8d 78 e8          	lea    -0x18(%rax),%rdi
  405a40:	48 81 ff 00 23 61 00 	cmp    $0x612300,%rdi
  405a47:	75 56                	jne    405a9f <_ZNSt8_Rb_treeISsSt4pairIKSsN6GetOpt10OptionDataEESt10_Select1stIS4_ESt4lessISsESaIS4_EE8_M_eraseEPSt13_Rb_tree_nodeIS4_E+0x1ff>
  405a49:	48 8b 7c 24 20       	mov    0x20(%rsp),%rdi
  405a4e:	e8 dd cf ff ff       	callq  402a30 <_ZdlPv@plt>
  405a53:	48 85 ed             	test   %rbp,%rbp
  405a56:	74 0d                	je     405a65 <_ZNSt8_Rb_treeISsSt4pairIKSsN6GetOpt10OptionDataEESt10_Select1stIS4_ESt4lessISsESaIS4_EE8_M_eraseEPSt13_Rb_tree_nodeIS4_E+0x1c5>
  405a58:	48 89 6c 24 20       	mov    %rbp,0x20(%rsp)
  405a5d:	48 89 e8             	mov    %rbp,%rax
  405a60:	e9 a7 fe ff ff       	jmpq   40590c <_ZNSt8_Rb_treeISsSt4pairIKSsN6GetOpt10OptionDataEESt10_Select1stIS4_ESt4lessISsESaIS4_EE8_M_eraseEPSt13_Rb_tree_nodeIS4_E+0x6c>
  405a65:	48 8b 44 24 18       	mov    0x18(%rsp),%rax
  405a6a:	48 8b 68 10          	mov    0x10(%rax),%rbp
  405a6e:	48 8b 40 20          	mov    0x20(%rax),%rax
  405a72:	48 8d 78 e8          	lea    -0x18(%rax),%rdi
  405a76:	48 81 ff 00 23 61 00 	cmp    $0x612300,%rdi
  405a7d:	75 47                	jne    405ac6 <_ZNSt8_Rb_treeISsSt4pairIKSsN6GetOpt10OptionDataEESt10_Select1stIS4_ESt4lessISsESaIS4_EE8_M_eraseEPSt13_Rb_tree_nodeIS4_E+0x226>
  405a7f:	48 8b 7c 24 18       	mov    0x18(%rsp),%rdi
  405a84:	e8 a7 cf ff ff       	callq  402a30 <_ZdlPv@plt>
  405a89:	48 85 ed             	test   %rbp,%rbp
  405a8c:	0f 84 d1 01 00 00    	je     405c63 <_ZNSt8_Rb_treeISsSt4pairIKSsN6GetOpt10OptionDataEESt10_Select1stIS4_ESt4lessISsESaIS4_EE8_M_eraseEPSt13_Rb_tree_nodeIS4_E+0x3c3>
  405a92:	48 89 6c 24 18       	mov    %rbp,0x18(%rsp)
  405a97:	48 89 e8             	mov    %rbp,%rax
  405a9a:	e9 5b fe ff ff       	jmpq   4058fa <_ZNSt8_Rb_treeISsSt4pairIKSsN6GetOpt10OptionDataEESt10_Select1stIS4_ESt4lessISsESaIS4_EE8_M_eraseEPSt13_Rb_tree_nodeIS4_E+0x5a>
  405a9f:	b9 50 2c 40 00       	mov    $0x402c50,%ecx
  405aa4:	48 8d 57 10          	lea    0x10(%rdi),%rdx
  405aa8:	48 85 c9             	test   %rcx,%rcx
  405aab:	74 40                	je     405aed <_ZNSt8_Rb_treeISsSt4pairIKSsN6GetOpt10OptionDataEESt10_Select1stIS4_ESt4lessISsESaIS4_EE8_M_eraseEPSt13_Rb_tree_nodeIS4_E+0x24d>
  405aad:	b8 ff ff ff ff       	mov    $0xffffffff,%eax
  405ab2:	f0 0f c1 02          	lock xadd %eax,(%rdx)
  405ab6:	85 c0                	test   %eax,%eax
  405ab8:	7f 8f                	jg     405a49 <_ZNSt8_Rb_treeISsSt4pairIKSsN6GetOpt10OptionDataEESt10_Select1stIS4_ESt4lessISsESaIS4_EE8_M_eraseEPSt13_Rb_tree_nodeIS4_E+0x1a9>
  405aba:	48 8d 74 24 3f       	lea    0x3f(%rsp),%rsi
  405abf:	e8 fc ce ff ff       	callq  4029c0 <_ZNSs4_Rep10_M_destroyERKSaIcE@plt>
  405ac4:	eb 83                	jmp    405a49 <_ZNSt8_Rb_treeISsSt4pairIKSsN6GetOpt10OptionDataEESt10_Select1stIS4_ESt4lessISsESaIS4_EE8_M_eraseEPSt13_Rb_tree_nodeIS4_E+0x1a9>
  405ac6:	b9 50 2c 40 00       	mov    $0x402c50,%ecx
  405acb:	48 8d 57 10          	lea    0x10(%rdi),%rdx
  405acf:	48 85 c9             	test   %rcx,%rcx
  405ad2:	74 26                	je     405afa <_ZNSt8_Rb_treeISsSt4pairIKSsN6GetOpt10OptionDataEESt10_Select1stIS4_ESt4lessISsESaIS4_EE8_M_eraseEPSt13_Rb_tree_nodeIS4_E+0x25a>
  405ad4:	b8 ff ff ff ff       	mov    $0xffffffff,%eax
  405ad9:	f0 0f c1 02          	lock xadd %eax,(%rdx)
  405add:	85 c0                	test   %eax,%eax
  405adf:	7f 9e                	jg     405a7f <_ZNSt8_Rb_treeISsSt4pairIKSsN6GetOpt10OptionDataEESt10_Select1stIS4_ESt4lessISsESaIS4_EE8_M_eraseEPSt13_Rb_tree_nodeIS4_E+0x1df>
  405ae1:	48 8d 74 24 3f       	lea    0x3f(%rsp),%rsi
  405ae6:	e8 d5 ce ff ff       	callq  4029c0 <_ZNSs4_Rep10_M_destroyERKSaIcE@plt>
  405aeb:	eb 92                	jmp    405a7f <_ZNSt8_Rb_treeISsSt4pairIKSsN6GetOpt10OptionDataEESt10_Select1stIS4_ESt4lessISsESaIS4_EE8_M_eraseEPSt13_Rb_tree_nodeIS4_E+0x1df>
  405aed:	8b 50 f8             	mov    -0x8(%rax),%edx
  405af0:	8d 4a ff             	lea    -0x1(%rdx),%ecx
  405af3:	89 48 f8             	mov    %ecx,-0x8(%rax)
  405af6:	89 d0                	mov    %edx,%eax
  405af8:	eb bc                	jmp    405ab6 <_ZNSt8_Rb_treeISsSt4pairIKSsN6GetOpt10OptionDataEESt10_Select1stIS4_ESt4lessISsESaIS4_EE8_M_eraseEPSt13_Rb_tree_nodeIS4_E+0x216>
  405afa:	8b 50 f8             	mov    -0x8(%rax),%edx
  405afd:	8d 4a ff             	lea    -0x1(%rdx),%ecx
  405b00:	89 48 f8             	mov    %ecx,-0x8(%rax)
  405b03:	89 d0                	mov    %edx,%eax
  405b05:	eb d6                	jmp    405add <_ZNSt8_Rb_treeISsSt4pairIKSsN6GetOpt10OptionDataEESt10_Select1stIS4_ESt4lessISsESaIS4_EE8_M_eraseEPSt13_Rb_tree_nodeIS4_E+0x23d>
  405b07:	be 50 2c 40 00       	mov    $0x402c50,%esi
  405b0c:	48 8d 4f 10          	lea    0x10(%rdi),%rcx
  405b10:	48 85 f6             	test   %rsi,%rsi
  405b13:	74 52                	je     405b67 <_ZNSt8_Rb_treeISsSt4pairIKSsN6GetOpt10OptionDataEESt10_Select1stIS4_ESt4lessISsESaIS4_EE8_M_eraseEPSt13_Rb_tree_nodeIS4_E+0x2c7>
  405b15:	ba ff ff ff ff       	mov    $0xffffffff,%edx
  405b1a:	f0 0f c1 11          	lock xadd %edx,(%rcx)
  405b1e:	85 d2                	test   %edx,%edx
  405b20:	0f 8f 78 fe ff ff    	jg     40599e <_ZNSt8_Rb_treeISsSt4pairIKSsN6GetOpt10OptionDataEESt10_Select1stIS4_ESt4lessISsESaIS4_EE8_M_eraseEPSt13_Rb_tree_nodeIS4_E+0xfe>
  405b26:	48 8d 74 24 3f       	lea    0x3f(%rsp),%rsi
  405b2b:	e8 90 ce ff ff       	callq  4029c0 <_ZNSs4_Rep10_M_destroyERKSaIcE@plt>
  405b30:	e9 69 fe ff ff       	jmpq   40599e <_ZNSt8_Rb_treeISsSt4pairIKSsN6GetOpt10OptionDataEESt10_Select1stIS4_ESt4lessISsESaIS4_EE8_M_eraseEPSt13_Rb_tree_nodeIS4_E+0xfe>
  405b35:	b9 50 2c 40 00       	mov    $0x402c50,%ecx
  405b3a:	48 8d 57 10          	lea    0x10(%rdi),%rdx
  405b3e:	48 85 c9             	test   %rcx,%rcx
  405b41:	0f 84 07 02 00 00    	je     405d4e <_ZNSt8_Rb_treeISsSt4pairIKSsN6GetOpt10OptionDataEESt10_Select1stIS4_ESt4lessISsESaIS4_EE8_M_eraseEPSt13_Rb_tree_nodeIS4_E+0x4ae>
  405b47:	b8 ff ff ff ff       	mov    $0xffffffff,%eax
  405b4c:	f0 0f c1 02          	lock xadd %eax,(%rdx)
  405b50:	85 c0                	test   %eax,%eax
  405b52:	0f 8f 73 fe ff ff    	jg     4059cb <_ZNSt8_Rb_treeISsSt4pairIKSsN6GetOpt10OptionDataEESt10_Select1stIS4_ESt4lessISsESaIS4_EE8_M_eraseEPSt13_Rb_tree_nodeIS4_E+0x12b>
  405b58:	48 8d 74 24 3f       	lea    0x3f(%rsp),%rsi
  405b5d:	e8 5e ce ff ff       	callq  4029c0 <_ZNSs4_Rep10_M_destroyERKSaIcE@plt>
  405b62:	e9 64 fe ff ff       	jmpq   4059cb <_ZNSt8_Rb_treeISsSt4pairIKSsN6GetOpt10OptionDataEESt10_Select1stIS4_ESt4lessISsESaIS4_EE8_M_eraseEPSt13_Rb_tree_nodeIS4_E+0x12b>
  405b67:	8b 4a f8             	mov    -0x8(%rdx),%ecx
  405b6a:	8d 71 ff             	lea    -0x1(%rcx),%esi
  405b6d:	89 72 f8             	mov    %esi,-0x8(%rdx)
  405b70:	89 ca                	mov    %ecx,%edx
  405b72:	eb aa                	jmp    405b1e <_ZNSt8_Rb_treeISsSt4pairIKSsN6GetOpt10OptionDataEESt10_Select1stIS4_ESt4lessISsESaIS4_EE8_M_eraseEPSt13_Rb_tree_nodeIS4_E+0x27e>
  405b74:	48 8b 44 24 28       	mov    0x28(%rsp),%rax
  405b79:	48 8b 68 10          	mov    0x10(%rax),%rbp
  405b7d:	48 8b 40 20          	mov    0x20(%rax),%rax
  405b81:	48 8d 78 e8          	lea    -0x18(%rax),%rdi
  405b85:	48 81 ff 00 23 61 00 	cmp    $0x612300,%rdi
  405b8c:	75 28                	jne    405bb6 <_ZNSt8_Rb_treeISsSt4pairIKSsN6GetOpt10OptionDataEESt10_Select1stIS4_ESt4lessISsESaIS4_EE8_M_eraseEPSt13_Rb_tree_nodeIS4_E+0x316>
  405b8e:	48 8b 7c 24 28       	mov    0x28(%rsp),%rdi
  405b93:	e8 98 ce ff ff       	callq  402a30 <_ZdlPv@plt>
  405b98:	48 85 ed             	test   %rbp,%rbp
  405b9b:	74 0a                	je     405ba7 <_ZNSt8_Rb_treeISsSt4pairIKSsN6GetOpt10OptionDataEESt10_Select1stIS4_ESt4lessISsESaIS4_EE8_M_eraseEPSt13_Rb_tree_nodeIS4_E+0x307>
  405b9d:	48 89 6c 24 28       	mov    %rbp,0x28(%rsp)
  405ba2:	e9 18 fd ff ff       	jmpq   4058bf <_ZNSt8_Rb_treeISsSt4pairIKSsN6GetOpt10OptionDataEESt10_Select1stIS4_ESt4lessISsESaIS4_EE8_M_eraseEPSt13_Rb_tree_nodeIS4_E+0x1f>
  405ba7:	48 83 c4 48          	add    $0x48,%rsp
  405bab:	5b                   	pop    %rbx
  405bac:	5d                   	pop    %rbp
  405bad:	41 5c                	pop    %r12
  405baf:	41 5d                	pop    %r13
  405bb1:	41 5e                	pop    %r14
  405bb3:	41 5f                	pop    %r15
  405bb5:	c3                   	retq   
  405bb6:	b9 50 2c 40 00       	mov    $0x402c50,%ecx
  405bbb:	48 8d 57 10          	lea    0x10(%rdi),%rdx
  405bbf:	48 85 c9             	test   %rcx,%rcx
  405bc2:	0f 84 66 01 00 00    	je     405d2e <_ZNSt8_Rb_treeISsSt4pairIKSsN6GetOpt10OptionDataEESt10_Select1stIS4_ESt4lessISsESaIS4_EE8_M_eraseEPSt13_Rb_tree_nodeIS4_E+0x48e>
  405bc8:	b8 ff ff ff ff       	mov    $0xffffffff,%eax
  405bcd:	f0 0f c1 02          	lock xadd %eax,(%rdx)
  405bd1:	85 c0                	test   %eax,%eax
  405bd3:	7f b9                	jg     405b8e <_ZNSt8_Rb_treeISsSt4pairIKSsN6GetOpt10OptionDataEESt10_Select1stIS4_ESt4lessISsESaIS4_EE8_M_eraseEPSt13_Rb_tree_nodeIS4_E+0x2ee>
  405bd5:	48 8d 74 24 3f       	lea    0x3f(%rsp),%rsi
  405bda:	e8 e1 cd ff ff       	callq  4029c0 <_ZNSs4_Rep10_M_destroyERKSaIcE@plt>
  405bdf:	eb ad                	jmp    405b8e <_ZNSt8_Rb_treeISsSt4pairIKSsN6GetOpt10OptionDataEESt10_Select1stIS4_ESt4lessISsESaIS4_EE8_M_eraseEPSt13_Rb_tree_nodeIS4_E+0x2ee>
  405be1:	49 8b 75 18          	mov    0x18(%r13),%rsi
  405be5:	48 89 df             	mov    %rbx,%rdi
  405be8:	e8 b3 fc ff ff       	callq  4058a0 <_ZNSt8_Rb_treeISsSt4pairIKSsN6GetOpt10OptionDataEESt10_Select1stIS4_ESt4lessISsESaIS4_EE8_M_eraseEPSt13_Rb_tree_nodeIS4_E>
  405bed:	49 8b 55 20          	mov    0x20(%r13),%rdx
  405bf1:	4d 8b 75 10          	mov    0x10(%r13),%r14
  405bf5:	48 8d 7a e8          	lea    -0x18(%rdx),%rdi
  405bf9:	48 81 ff 00 23 61 00 	cmp    $0x612300,%rdi
  405c00:	75 48                	jne    405c4a <_ZNSt8_Rb_treeISsSt4pairIKSsN6GetOpt10OptionDataEESt10_Select1stIS4_ESt4lessISsESaIS4_EE8_M_eraseEPSt13_Rb_tree_nodeIS4_E+0x3aa>
  405c02:	4c 89 ef             	mov    %r13,%rdi
  405c05:	e8 26 ce ff ff       	callq  402a30 <_ZdlPv@plt>
  405c0a:	4d 85 f6             	test   %r14,%r14
  405c0d:	0f 84 72 fd ff ff    	je     405985 <_ZNSt8_Rb_treeISsSt4pairIKSsN6GetOpt10OptionDataEESt10_Select1stIS4_ESt4lessISsESaIS4_EE8_M_eraseEPSt13_Rb_tree_nodeIS4_E+0xe5>
  405c13:	4d 89 f5             	mov    %r14,%r13
  405c16:	eb c9                	jmp    405be1 <_ZNSt8_Rb_treeISsSt4pairIKSsN6GetOpt10OptionDataEESt10_Select1stIS4_ESt4lessISsESaIS4_EE8_M_eraseEPSt13_Rb_tree_nodeIS4_E+0x341>
  405c18:	b9 50 2c 40 00       	mov    $0x402c50,%ecx
  405c1d:	48 8d 57 10          	lea    0x10(%rdi),%rdx
  405c21:	48 85 c9             	test   %rcx,%rcx
  405c24:	0f 84 14 01 00 00    	je     405d3e <_ZNSt8_Rb_treeISsSt4pairIKSsN6GetOpt10OptionDataEESt10_Select1stIS4_ESt4lessISsESaIS4_EE8_M_eraseEPSt13_Rb_tree_nodeIS4_E+0x49e>
  405c2a:	b8 ff ff ff ff       	mov    $0xffffffff,%eax
  405c2f:	f0 0f c1 02          	lock xadd %eax,(%rdx)
  405c33:	85 c0                	test   %eax,%eax
  405c35:	0f 8f be fd ff ff    	jg     4059f9 <_ZNSt8_Rb_treeISsSt4pairIKSsN6GetOpt10OptionDataEESt10_Select1stIS4_ESt4lessISsESaIS4_EE8_M_eraseEPSt13_Rb_tree_nodeIS4_E+0x159>
  405c3b:	48 8d 74 24 3f       	lea    0x3f(%rsp),%rsi
  405c40:	e8 7b cd ff ff       	callq  4029c0 <_ZNSs4_Rep10_M_destroyERKSaIcE@plt>
  405c45:	e9 af fd ff ff       	jmpq   4059f9 <_ZNSt8_Rb_treeISsSt4pairIKSsN6GetOpt10OptionDataEESt10_Select1stIS4_ESt4lessISsESaIS4_EE8_M_eraseEPSt13_Rb_tree_nodeIS4_E+0x159>
  405c4a:	8b 4a f8             	mov    -0x8(%rdx),%ecx
  405c4d:	8d 71 ff             	lea    -0x1(%rcx),%esi
  405c50:	85 c9                	test   %ecx,%ecx
  405c52:	89 72 f8             	mov    %esi,-0x8(%rdx)
  405c55:	7f ab                	jg     405c02 <_ZNSt8_Rb_treeISsSt4pairIKSsN6GetOpt10OptionDataEESt10_Select1stIS4_ESt4lessISsESaIS4_EE8_M_eraseEPSt13_Rb_tree_nodeIS4_E+0x362>
  405c57:	48 8d 74 24 3f       	lea    0x3f(%rsp),%rsi
  405c5c:	e8 5f cd ff ff       	callq  4029c0 <_ZNSs4_Rep10_M_destroyERKSaIcE@plt>
  405c61:	eb 9f                	jmp    405c02 <_ZNSt8_Rb_treeISsSt4pairIKSsN6GetOpt10OptionDataEESt10_Select1stIS4_ESt4lessISsESaIS4_EE8_M_eraseEPSt13_Rb_tree_nodeIS4_E+0x362>
  405c63:	48 8b 44 24 10       	mov    0x10(%rsp),%rax
  405c68:	48 8b 68 10          	mov    0x10(%rax),%rbp
  405c6c:	48 8b 40 20          	mov    0x20(%rax),%rax
  405c70:	48 8d 78 e8          	lea    -0x18(%rax),%rdi
  405c74:	48 81 ff 00 23 61 00 	cmp    $0x612300,%rdi
  405c7b:	75 56                	jne    405cd3 <_ZNSt8_Rb_treeISsSt4pairIKSsN6GetOpt10OptionDataEESt10_Select1stIS4_ESt4lessISsESaIS4_EE8_M_eraseEPSt13_Rb_tree_nodeIS4_E+0x433>
  405c7d:	48 8b 7c 24 10       	mov    0x10(%rsp),%rdi
  405c82:	e8 a9 cd ff ff       	callq  402a30 <_ZdlPv@plt>
  405c87:	48 85 ed             	test   %rbp,%rbp
  405c8a:	74 0d                	je     405c99 <_ZNSt8_Rb_treeISsSt4pairIKSsN6GetOpt10OptionDataEESt10_Select1stIS4_ESt4lessISsESaIS4_EE8_M_eraseEPSt13_Rb_tree_nodeIS4_E+0x3f9>
  405c8c:	48 89 6c 24 10       	mov    %rbp,0x10(%rsp)
  405c91:	48 89 e8             	mov    %rbp,%rax
  405c94:	e9 4f fc ff ff       	jmpq   4058e8 <_ZNSt8_Rb_treeISsSt4pairIKSsN6GetOpt10OptionDataEESt10_Select1stIS4_ESt4lessISsESaIS4_EE8_M_eraseEPSt13_Rb_tree_nodeIS4_E+0x48>
  405c99:	48 8b 44 24 08       	mov    0x8(%rsp),%rax
  405c9e:	48 8b 68 10          	mov    0x10(%rax),%rbp
  405ca2:	48 8b 40 20          	mov    0x20(%rax),%rax
  405ca6:	48 8d 78 e8          	lea    -0x18(%rax),%rdi
  405caa:	48 81 ff 00 23 61 00 	cmp    $0x612300,%rdi
  405cb1:	75 47                	jne    405cfa <_ZNSt8_Rb_treeISsSt4pairIKSsN6GetOpt10OptionDataEESt10_Select1stIS4_ESt4lessISsESaIS4_EE8_M_eraseEPSt13_Rb_tree_nodeIS4_E+0x45a>
  405cb3:	48 8b 7c 24 08       	mov    0x8(%rsp),%rdi
  405cb8:	e8 73 cd ff ff       	callq  402a30 <_ZdlPv@plt>
  405cbd:	48 85 ed             	test   %rbp,%rbp
  405cc0:	0f 84 ae fe ff ff    	je     405b74 <_ZNSt8_Rb_treeISsSt4pairIKSsN6GetOpt10OptionDataEESt10_Select1stIS4_ESt4lessISsESaIS4_EE8_M_eraseEPSt13_Rb_tree_nodeIS4_E+0x2d4>
  405cc6:	48 89 6c 24 08       	mov    %rbp,0x8(%rsp)
  405ccb:	48 89 e8             	mov    %rbp,%rax
  405cce:	e9 03 fc ff ff       	jmpq   4058d6 <_ZNSt8_Rb_treeISsSt4pairIKSsN6GetOpt10OptionDataEESt10_Select1stIS4_ESt4lessISsESaIS4_EE8_M_eraseEPSt13_Rb_tree_nodeIS4_E+0x36>
  405cd3:	b9 50 2c 40 00       	mov    $0x402c50,%ecx
  405cd8:	48 8d 57 10          	lea    0x10(%rdi),%rdx
  405cdc:	48 85 c9             	test   %rcx,%rcx
  405cdf:	74 40                	je     405d21 <_ZNSt8_Rb_treeISsSt4pairIKSsN6GetOpt10OptionDataEESt10_Select1stIS4_ESt4lessISsESaIS4_EE8_M_eraseEPSt13_Rb_tree_nodeIS4_E+0x481>
  405ce1:	b8 ff ff ff ff       	mov    $0xffffffff,%eax
  405ce6:	f0 0f c1 02          	lock xadd %eax,(%rdx)
  405cea:	85 c0                	test   %eax,%eax
  405cec:	7f 8f                	jg     405c7d <_ZNSt8_Rb_treeISsSt4pairIKSsN6GetOpt10OptionDataEESt10_Select1stIS4_ESt4lessISsESaIS4_EE8_M_eraseEPSt13_Rb_tree_nodeIS4_E+0x3dd>
  405cee:	48 8d 74 24 3f       	lea    0x3f(%rsp),%rsi
  405cf3:	e8 c8 cc ff ff       	callq  4029c0 <_ZNSs4_Rep10_M_destroyERKSaIcE@plt>
  405cf8:	eb 83                	jmp    405c7d <_ZNSt8_Rb_treeISsSt4pairIKSsN6GetOpt10OptionDataEESt10_Select1stIS4_ESt4lessISsESaIS4_EE8_M_eraseEPSt13_Rb_tree_nodeIS4_E+0x3dd>
  405cfa:	b9 50 2c 40 00       	mov    $0x402c50,%ecx
  405cff:	48 8d 57 10          	lea    0x10(%rdi),%rdx
  405d03:	48 85 c9             	test   %rcx,%rcx
  405d06:	74 56                	je     405d5e <_ZNSt8_Rb_treeISsSt4pairIKSsN6GetOpt10OptionDataEESt10_Select1stIS4_ESt4lessISsESaIS4_EE8_M_eraseEPSt13_Rb_tree_nodeIS4_E+0x4be>
  405d08:	b8 ff ff ff ff       	mov    $0xffffffff,%eax
  405d0d:	f0 0f c1 02          	lock xadd %eax,(%rdx)
  405d11:	85 c0                	test   %eax,%eax
  405d13:	7f 9e                	jg     405cb3 <_ZNSt8_Rb_treeISsSt4pairIKSsN6GetOpt10OptionDataEESt10_Select1stIS4_ESt4lessISsESaIS4_EE8_M_eraseEPSt13_Rb_tree_nodeIS4_E+0x413>
  405d15:	48 8d 74 24 3f       	lea    0x3f(%rsp),%rsi
  405d1a:	e8 a1 cc ff ff       	callq  4029c0 <_ZNSs4_Rep10_M_destroyERKSaIcE@plt>
  405d1f:	eb 92                	jmp    405cb3 <_ZNSt8_Rb_treeISsSt4pairIKSsN6GetOpt10OptionDataEESt10_Select1stIS4_ESt4lessISsESaIS4_EE8_M_eraseEPSt13_Rb_tree_nodeIS4_E+0x413>
  405d21:	8b 50 f8             	mov    -0x8(%rax),%edx
  405d24:	8d 4a ff             	lea    -0x1(%rdx),%ecx
  405d27:	89 48 f8             	mov    %ecx,-0x8(%rax)
  405d2a:	89 d0                	mov    %edx,%eax
  405d2c:	eb bc                	jmp    405cea <_ZNSt8_Rb_treeISsSt4pairIKSsN6GetOpt10OptionDataEESt10_Select1stIS4_ESt4lessISsESaIS4_EE8_M_eraseEPSt13_Rb_tree_nodeIS4_E+0x44a>
  405d2e:	8b 50 f8             	mov    -0x8(%rax),%edx
  405d31:	8d 4a ff             	lea    -0x1(%rdx),%ecx
  405d34:	89 48 f8             	mov    %ecx,-0x8(%rax)
  405d37:	89 d0                	mov    %edx,%eax
  405d39:	e9 93 fe ff ff       	jmpq   405bd1 <_ZNSt8_Rb_treeISsSt4pairIKSsN6GetOpt10OptionDataEESt10_Select1stIS4_ESt4lessISsESaIS4_EE8_M_eraseEPSt13_Rb_tree_nodeIS4_E+0x331>
  405d3e:	8b 50 f8             	mov    -0x8(%rax),%edx
  405d41:	8d 4a ff             	lea    -0x1(%rdx),%ecx
  405d44:	89 48 f8             	mov    %ecx,-0x8(%rax)
  405d47:	89 d0                	mov    %edx,%eax
  405d49:	e9 e5 fe ff ff       	jmpq   405c33 <_ZNSt8_Rb_treeISsSt4pairIKSsN6GetOpt10OptionDataEESt10_Select1stIS4_ESt4lessISsESaIS4_EE8_M_eraseEPSt13_Rb_tree_nodeIS4_E+0x393>
  405d4e:	8b 50 f8             	mov    -0x8(%rax),%edx
  405d51:	8d 4a ff             	lea    -0x1(%rdx),%ecx
  405d54:	89 48 f8             	mov    %ecx,-0x8(%rax)
  405d57:	89 d0                	mov    %edx,%eax
  405d59:	e9 f2 fd ff ff       	jmpq   405b50 <_ZNSt8_Rb_treeISsSt4pairIKSsN6GetOpt10OptionDataEESt10_Select1stIS4_ESt4lessISsESaIS4_EE8_M_eraseEPSt13_Rb_tree_nodeIS4_E+0x2b0>
  405d5e:	8b 50 f8             	mov    -0x8(%rax),%edx
  405d61:	8d 4a ff             	lea    -0x1(%rdx),%ecx
  405d64:	89 48 f8             	mov    %ecx,-0x8(%rax)
  405d67:	89 d0                	mov    %edx,%eax
  405d69:	eb a6                	jmp    405d11 <_ZNSt8_Rb_treeISsSt4pairIKSsN6GetOpt10OptionDataEESt10_Select1stIS4_ESt4lessISsESaIS4_EE8_M_eraseEPSt13_Rb_tree_nodeIS4_E+0x471>
  405d6b:	90                   	nop
  405d6c:	90                   	nop
  405d6d:	90                   	nop
  405d6e:	90                   	nop
  405d6f:	90                   	nop

0000000000405d70 <_ZNSt8_Rb_treeIcSt4pairIKcN6GetOpt10OptionDataEESt10_Select1stIS4_ESt4lessIcESaIS4_EE29_M_get_insert_hint_unique_posESt23_Rb_tree_const_iteratorIS4_ERS1_>:
  405d70:	41 56                	push   %r14
  405d72:	41 55                	push   %r13
  405d74:	4c 8d 6f 08          	lea    0x8(%rdi),%r13
  405d78:	41 54                	push   %r12
  405d7a:	49 89 fc             	mov    %rdi,%r12
  405d7d:	55                   	push   %rbp
  405d7e:	53                   	push   %rbx
  405d7f:	48 89 f3             	mov    %rsi,%rbx
  405d82:	48 83 ec 10          	sub    $0x10,%rsp
  405d86:	49 39 f5             	cmp    %rsi,%r13
  405d89:	0f 84 a9 00 00 00    	je     405e38 <_ZNSt8_Rb_treeIcSt4pairIKcN6GetOpt10OptionDataEESt10_Select1stIS4_ESt4lessIcESaIS4_EE29_M_get_insert_hint_unique_posESt23_Rb_tree_const_iteratorIS4_ERS1_+0xc8>
  405d8f:	0f b6 2a             	movzbl (%rdx),%ebp
  405d92:	40 3a 6e 20          	cmp    0x20(%rsi),%bpl
  405d96:	7d 48                	jge    405de0 <_ZNSt8_Rb_treeIcSt4pairIKcN6GetOpt10OptionDataEESt10_Select1stIS4_ESt4lessIcESaIS4_EE29_M_get_insert_hint_unique_posESt23_Rb_tree_const_iteratorIS4_ERS1_+0x70>
  405d98:	4c 8b 77 18          	mov    0x18(%rdi),%r14
  405d9c:	49 39 f6             	cmp    %rsi,%r14
  405d9f:	4c 89 f0             	mov    %r14,%rax
  405da2:	4c 89 f2             	mov    %r14,%rdx
  405da5:	74 24                	je     405dcb <_ZNSt8_Rb_treeIcSt4pairIKcN6GetOpt10OptionDataEESt10_Select1stIS4_ESt4lessIcESaIS4_EE29_M_get_insert_hint_unique_posESt23_Rb_tree_const_iteratorIS4_ERS1_+0x5b>
  405da7:	48 89 f7             	mov    %rsi,%rdi
  405daa:	e8 e1 cc ff ff       	callq  402a90 <_ZSt18_Rb_tree_decrementPSt18_Rb_tree_node_base@plt>
  405daf:	40 3a 68 20          	cmp    0x20(%rax),%bpl
  405db3:	48 89 c2             	mov    %rax,%rdx
  405db6:	0f 8e d4 00 00 00    	jle    405e90 <_ZNSt8_Rb_treeIcSt4pairIKcN6GetOpt10OptionDataEESt10_Select1stIS4_ESt4lessIcESaIS4_EE29_M_get_insert_hint_unique_posESt23_Rb_tree_const_iteratorIS4_ERS1_+0x120>
  405dbc:	31 c0                	xor    %eax,%eax
  405dbe:	48 83 7a 18 00       	cmpq   $0x0,0x18(%rdx)
  405dc3:	48 0f 45 c3          	cmovne %rbx,%rax
  405dc7:	48 0f 45 d3          	cmovne %rbx,%rdx
  405dcb:	48 83 c4 10          	add    $0x10,%rsp
  405dcf:	5b                   	pop    %rbx
  405dd0:	5d                   	pop    %rbp
  405dd1:	41 5c                	pop    %r12
  405dd3:	41 5d                	pop    %r13
  405dd5:	41 5e                	pop    %r14
  405dd7:	c3                   	retq   
  405dd8:	0f 1f 84 00 00 00 00 	nopl   0x0(%rax,%rax,1)
  405ddf:	00 
  405de0:	7e 3e                	jle    405e20 <_ZNSt8_Rb_treeIcSt4pairIKcN6GetOpt10OptionDataEESt10_Select1stIS4_ESt4lessIcESaIS4_EE29_M_get_insert_hint_unique_posESt23_Rb_tree_const_iteratorIS4_ERS1_+0xb0>
  405de2:	48 8b 57 20          	mov    0x20(%rdi),%rdx
  405de6:	48 39 f2             	cmp    %rsi,%rdx
  405de9:	0f 84 2d 01 00 00    	je     405f1c <_ZNSt8_Rb_treeIcSt4pairIKcN6GetOpt10OptionDataEESt10_Select1stIS4_ESt4lessIcESaIS4_EE29_M_get_insert_hint_unique_posESt23_Rb_tree_const_iteratorIS4_ERS1_+0x1ac>
  405def:	48 89 f7             	mov    %rsi,%rdi
  405df2:	e8 89 cb ff ff       	callq  402980 <_ZSt18_Rb_tree_incrementPSt18_Rb_tree_node_base@plt>
  405df7:	40 3a 68 20          	cmp    0x20(%rax),%bpl
  405dfb:	48 89 c2             	mov    %rax,%rdx
  405dfe:	0f 8d 24 01 00 00    	jge    405f28 <_ZNSt8_Rb_treeIcSt4pairIKcN6GetOpt10OptionDataEESt10_Select1stIS4_ESt4lessIcESaIS4_EE29_M_get_insert_hint_unique_posESt23_Rb_tree_const_iteratorIS4_ERS1_+0x1b8>
  405e04:	31 c0                	xor    %eax,%eax
  405e06:	48 83 7b 18 00       	cmpq   $0x0,0x18(%rbx)
  405e0b:	48 0f 45 c2          	cmovne %rdx,%rax
  405e0f:	48 0f 44 d3          	cmove  %rbx,%rdx
  405e13:	48 83 c4 10          	add    $0x10,%rsp
  405e17:	5b                   	pop    %rbx
  405e18:	5d                   	pop    %rbp
  405e19:	41 5c                	pop    %r12
  405e1b:	41 5d                	pop    %r13
  405e1d:	41 5e                	pop    %r14
  405e1f:	c3                   	retq   
  405e20:	48 83 c4 10          	add    $0x10,%rsp
  405e24:	48 89 f0             	mov    %rsi,%rax
  405e27:	31 d2                	xor    %edx,%edx
  405e29:	5b                   	pop    %rbx
  405e2a:	5d                   	pop    %rbp
  405e2b:	41 5c                	pop    %r12
  405e2d:	41 5d                	pop    %r13
  405e2f:	41 5e                	pop    %r14
  405e31:	c3                   	retq   
  405e32:	66 0f 1f 44 00 00    	nopw   0x0(%rax,%rax,1)
  405e38:	48 83 7f 28 00       	cmpq   $0x0,0x28(%rdi)
  405e3d:	74 10                	je     405e4f <_ZNSt8_Rb_treeIcSt4pairIKcN6GetOpt10OptionDataEESt10_Select1stIS4_ESt4lessIcESaIS4_EE29_M_get_insert_hint_unique_posESt23_Rb_tree_const_iteratorIS4_ERS1_+0xdf>
  405e3f:	48 8b 5f 20          	mov    0x20(%rdi),%rbx
  405e43:	0f b6 02             	movzbl (%rdx),%eax
  405e46:	38 43 20             	cmp    %al,0x20(%rbx)
  405e49:	0f 8c a1 00 00 00    	jl     405ef0 <_ZNSt8_Rb_treeIcSt4pairIKcN6GetOpt10OptionDataEESt10_Select1stIS4_ESt4lessIcESaIS4_EE29_M_get_insert_hint_unique_posESt23_Rb_tree_const_iteratorIS4_ERS1_+0x180>
  405e4f:	49 8b 5c 24 10       	mov    0x10(%r12),%rbx
  405e54:	48 85 db             	test   %rbx,%rbx
  405e57:	0f 84 48 01 00 00    	je     405fa5 <_ZNSt8_Rb_treeIcSt4pairIKcN6GetOpt10OptionDataEESt10_Select1stIS4_ESt4lessIcESaIS4_EE29_M_get_insert_hint_unique_posESt23_Rb_tree_const_iteratorIS4_ERS1_+0x235>
  405e5d:	0f b6 32             	movzbl (%rdx),%esi
  405e60:	eb 1b                	jmp    405e7d <_ZNSt8_Rb_treeIcSt4pairIKcN6GetOpt10OptionDataEESt10_Select1stIS4_ESt4lessIcESaIS4_EE29_M_get_insert_hint_unique_posESt23_Rb_tree_const_iteratorIS4_ERS1_+0x10d>
  405e62:	66 0f 1f 44 00 00    	nopw   0x0(%rax,%rax,1)
  405e68:	48 8b 43 10          	mov    0x10(%rbx),%rax
  405e6c:	bf 01 00 00 00       	mov    $0x1,%edi
  405e71:	48 85 c0             	test   %rax,%rax
  405e74:	0f 84 0e 01 00 00    	je     405f88 <_ZNSt8_Rb_treeIcSt4pairIKcN6GetOpt10OptionDataEESt10_Select1stIS4_ESt4lessIcESaIS4_EE29_M_get_insert_hint_unique_posESt23_Rb_tree_const_iteratorIS4_ERS1_+0x218>
  405e7a:	48 89 c3             	mov    %rax,%rbx
  405e7d:	0f b6 4b 20          	movzbl 0x20(%rbx),%ecx
  405e81:	40 38 f1             	cmp    %sil,%cl
  405e84:	7f e2                	jg     405e68 <_ZNSt8_Rb_treeIcSt4pairIKcN6GetOpt10OptionDataEESt10_Select1stIS4_ESt4lessIcESaIS4_EE29_M_get_insert_hint_unique_posESt23_Rb_tree_const_iteratorIS4_ERS1_+0xf8>
  405e86:	48 8b 43 18          	mov    0x18(%rbx),%rax
  405e8a:	31 ff                	xor    %edi,%edi
  405e8c:	eb e3                	jmp    405e71 <_ZNSt8_Rb_treeIcSt4pairIKcN6GetOpt10OptionDataEESt10_Select1stIS4_ESt4lessIcESaIS4_EE29_M_get_insert_hint_unique_posESt23_Rb_tree_const_iteratorIS4_ERS1_+0x101>
  405e8e:	66 90                	xchg   %ax,%ax
  405e90:	4d 8b 64 24 10       	mov    0x10(%r12),%r12
  405e95:	4d 85 e4             	test   %r12,%r12
  405e98:	75 18                	jne    405eb2 <_ZNSt8_Rb_treeIcSt4pairIKcN6GetOpt10OptionDataEESt10_Select1stIS4_ESt4lessIcESaIS4_EE29_M_get_insert_hint_unique_posESt23_Rb_tree_const_iteratorIS4_ERS1_+0x142>
  405e9a:	eb 5e                	jmp    405efa <_ZNSt8_Rb_treeIcSt4pairIKcN6GetOpt10OptionDataEESt10_Select1stIS4_ESt4lessIcESaIS4_EE29_M_get_insert_hint_unique_posESt23_Rb_tree_const_iteratorIS4_ERS1_+0x18a>
  405e9c:	0f 1f 40 00          	nopl   0x0(%rax)
  405ea0:	49 8b 4c 24 10       	mov    0x10(%r12),%rcx
  405ea5:	bf 01 00 00 00       	mov    $0x1,%edi
  405eaa:	48 85 c9             	test   %rcx,%rcx
  405ead:	74 21                	je     405ed0 <_ZNSt8_Rb_treeIcSt4pairIKcN6GetOpt10OptionDataEESt10_Select1stIS4_ESt4lessIcESaIS4_EE29_M_get_insert_hint_unique_posESt23_Rb_tree_const_iteratorIS4_ERS1_+0x160>
  405eaf:	49 89 cc             	mov    %rcx,%r12
  405eb2:	41 0f b6 74 24 20    	movzbl 0x20(%r12),%esi
  405eb8:	40 38 f5             	cmp    %sil,%bpl
  405ebb:	7c e3                	jl     405ea0 <_ZNSt8_Rb_treeIcSt4pairIKcN6GetOpt10OptionDataEESt10_Select1stIS4_ESt4lessIcESaIS4_EE29_M_get_insert_hint_unique_posESt23_Rb_tree_const_iteratorIS4_ERS1_+0x130>
  405ebd:	49 8b 4c 24 18       	mov    0x18(%r12),%rcx
  405ec2:	31 ff                	xor    %edi,%edi
  405ec4:	eb e4                	jmp    405eaa <_ZNSt8_Rb_treeIcSt4pairIKcN6GetOpt10OptionDataEESt10_Select1stIS4_ESt4lessIcESaIS4_EE29_M_get_insert_hint_unique_posESt23_Rb_tree_const_iteratorIS4_ERS1_+0x13a>
  405ec6:	66 2e 0f 1f 84 00 00 	nopw   %cs:0x0(%rax,%rax,1)
  405ecd:	00 00 00 
  405ed0:	40 84 ff             	test   %dil,%dil
  405ed3:	4c 89 e2             	mov    %r12,%rdx
  405ed6:	75 28                	jne    405f00 <_ZNSt8_Rb_treeIcSt4pairIKcN6GetOpt10OptionDataEESt10_Select1stIS4_ESt4lessIcESaIS4_EE29_M_get_insert_hint_unique_posESt23_Rb_tree_const_iteratorIS4_ERS1_+0x190>
  405ed8:	31 c0                	xor    %eax,%eax
  405eda:	40 38 f5             	cmp    %sil,%bpl
  405edd:	48 0f 4e d0          	cmovle %rax,%rdx
  405ee1:	49 0f 4e c4          	cmovle %r12,%rax
  405ee5:	e9 e1 fe ff ff       	jmpq   405dcb <_ZNSt8_Rb_treeIcSt4pairIKcN6GetOpt10OptionDataEESt10_Select1stIS4_ESt4lessIcESaIS4_EE29_M_get_insert_hint_unique_posESt23_Rb_tree_const_iteratorIS4_ERS1_+0x5b>
  405eea:	66 0f 1f 44 00 00    	nopw   0x0(%rax,%rax,1)
  405ef0:	31 c0                	xor    %eax,%eax
  405ef2:	48 89 da             	mov    %rbx,%rdx
  405ef5:	e9 d1 fe ff ff       	jmpq   405dcb <_ZNSt8_Rb_treeIcSt4pairIKcN6GetOpt10OptionDataEESt10_Select1stIS4_ESt4lessIcESaIS4_EE29_M_get_insert_hint_unique_posESt23_Rb_tree_const_iteratorIS4_ERS1_+0x5b>
  405efa:	4d 89 ec             	mov    %r13,%r12
  405efd:	0f 1f 00             	nopl   (%rax)
  405f00:	4d 39 e6             	cmp    %r12,%r14
  405f03:	74 14                	je     405f19 <_ZNSt8_Rb_treeIcSt4pairIKcN6GetOpt10OptionDataEESt10_Select1stIS4_ESt4lessIcESaIS4_EE29_M_get_insert_hint_unique_posESt23_Rb_tree_const_iteratorIS4_ERS1_+0x1a9>
  405f05:	4c 89 e7             	mov    %r12,%rdi
  405f08:	e8 83 cb ff ff       	callq  402a90 <_ZSt18_Rb_tree_decrementPSt18_Rb_tree_node_base@plt>
  405f0d:	4c 89 e2             	mov    %r12,%rdx
  405f10:	0f b6 70 20          	movzbl 0x20(%rax),%esi
  405f14:	49 89 c4             	mov    %rax,%r12
  405f17:	eb bf                	jmp    405ed8 <_ZNSt8_Rb_treeIcSt4pairIKcN6GetOpt10OptionDataEESt10_Select1stIS4_ESt4lessIcESaIS4_EE29_M_get_insert_hint_unique_posESt23_Rb_tree_const_iteratorIS4_ERS1_+0x168>
  405f19:	4c 89 f2             	mov    %r14,%rdx
  405f1c:	31 c0                	xor    %eax,%eax
  405f1e:	e9 a8 fe ff ff       	jmpq   405dcb <_ZNSt8_Rb_treeIcSt4pairIKcN6GetOpt10OptionDataEESt10_Select1stIS4_ESt4lessIcESaIS4_EE29_M_get_insert_hint_unique_posESt23_Rb_tree_const_iteratorIS4_ERS1_+0x5b>
  405f23:	0f 1f 44 00 00       	nopl   0x0(%rax,%rax,1)
  405f28:	4d 8b 74 24 10       	mov    0x10(%r12),%r14
  405f2d:	4d 85 f6             	test   %r14,%r14
  405f30:	75 1f                	jne    405f51 <_ZNSt8_Rb_treeIcSt4pairIKcN6GetOpt10OptionDataEESt10_Select1stIS4_ESt4lessIcESaIS4_EE29_M_get_insert_hint_unique_posESt23_Rb_tree_const_iteratorIS4_ERS1_+0x1e1>
  405f32:	e9 93 00 00 00       	jmpq   405fca <_ZNSt8_Rb_treeIcSt4pairIKcN6GetOpt10OptionDataEESt10_Select1stIS4_ESt4lessIcESaIS4_EE29_M_get_insert_hint_unique_posESt23_Rb_tree_const_iteratorIS4_ERS1_+0x25a>
  405f37:	66 0f 1f 84 00 00 00 	nopw   0x0(%rax,%rax,1)
  405f3e:	00 00 
  405f40:	49 8b 46 10          	mov    0x10(%r14),%rax
  405f44:	b9 01 00 00 00       	mov    $0x1,%ecx
  405f49:	48 85 c0             	test   %rax,%rax
  405f4c:	74 1a                	je     405f68 <_ZNSt8_Rb_treeIcSt4pairIKcN6GetOpt10OptionDataEESt10_Select1stIS4_ESt4lessIcESaIS4_EE29_M_get_insert_hint_unique_posESt23_Rb_tree_const_iteratorIS4_ERS1_+0x1f8>
  405f4e:	49 89 c6             	mov    %rax,%r14
  405f51:	41 0f b6 56 20       	movzbl 0x20(%r14),%edx
  405f56:	40 38 d5             	cmp    %dl,%bpl
  405f59:	7c e5                	jl     405f40 <_ZNSt8_Rb_treeIcSt4pairIKcN6GetOpt10OptionDataEESt10_Select1stIS4_ESt4lessIcESaIS4_EE29_M_get_insert_hint_unique_posESt23_Rb_tree_const_iteratorIS4_ERS1_+0x1d0>
  405f5b:	49 8b 46 18          	mov    0x18(%r14),%rax
  405f5f:	31 c9                	xor    %ecx,%ecx
  405f61:	eb e6                	jmp    405f49 <_ZNSt8_Rb_treeIcSt4pairIKcN6GetOpt10OptionDataEESt10_Select1stIS4_ESt4lessIcESaIS4_EE29_M_get_insert_hint_unique_posESt23_Rb_tree_const_iteratorIS4_ERS1_+0x1d9>
  405f63:	0f 1f 44 00 00       	nopl   0x0(%rax,%rax,1)
  405f68:	84 c9                	test   %cl,%cl
  405f6a:	89 d6                	mov    %edx,%esi
  405f6c:	4c 89 f2             	mov    %r14,%rdx
  405f6f:	75 5f                	jne    405fd0 <_ZNSt8_Rb_treeIcSt4pairIKcN6GetOpt10OptionDataEESt10_Select1stIS4_ESt4lessIcESaIS4_EE29_M_get_insert_hint_unique_posESt23_Rb_tree_const_iteratorIS4_ERS1_+0x260>
  405f71:	31 c0                	xor    %eax,%eax
  405f73:	40 38 f5             	cmp    %sil,%bpl
  405f76:	48 0f 4e d0          	cmovle %rax,%rdx
  405f7a:	49 0f 4e c6          	cmovle %r14,%rax
  405f7e:	e9 48 fe ff ff       	jmpq   405dcb <_ZNSt8_Rb_treeIcSt4pairIKcN6GetOpt10OptionDataEESt10_Select1stIS4_ESt4lessIcESaIS4_EE29_M_get_insert_hint_unique_posESt23_Rb_tree_const_iteratorIS4_ERS1_+0x5b>
  405f83:	0f 1f 44 00 00       	nopl   0x0(%rax,%rax,1)
  405f88:	40 84 ff             	test   %dil,%dil
  405f8b:	48 89 d8             	mov    %rbx,%rax
  405f8e:	75 18                	jne    405fa8 <_ZNSt8_Rb_treeIcSt4pairIKcN6GetOpt10OptionDataEESt10_Select1stIS4_ESt4lessIcESaIS4_EE29_M_get_insert_hint_unique_posESt23_Rb_tree_const_iteratorIS4_ERS1_+0x238>
  405f90:	31 ff                	xor    %edi,%edi
  405f92:	40 38 ce             	cmp    %cl,%sil
  405f95:	48 0f 4e df          	cmovle %rdi,%rbx
  405f99:	48 0f 4f c7          	cmovg  %rdi,%rax
  405f9d:	48 89 da             	mov    %rbx,%rdx
  405fa0:	e9 26 fe ff ff       	jmpq   405dcb <_ZNSt8_Rb_treeIcSt4pairIKcN6GetOpt10OptionDataEESt10_Select1stIS4_ESt4lessIcESaIS4_EE29_M_get_insert_hint_unique_posESt23_Rb_tree_const_iteratorIS4_ERS1_+0x5b>
  405fa5:	4c 89 eb             	mov    %r13,%rbx
  405fa8:	49 39 5c 24 18       	cmp    %rbx,0x18(%r12)
  405fad:	48 89 54 24 08       	mov    %rdx,0x8(%rsp)
  405fb2:	74 3b                	je     405fef <_ZNSt8_Rb_treeIcSt4pairIKcN6GetOpt10OptionDataEESt10_Select1stIS4_ESt4lessIcESaIS4_EE29_M_get_insert_hint_unique_posESt23_Rb_tree_const_iteratorIS4_ERS1_+0x27f>
  405fb4:	48 89 df             	mov    %rbx,%rdi
  405fb7:	e8 d4 ca ff ff       	callq  402a90 <_ZSt18_Rb_tree_decrementPSt18_Rb_tree_node_base@plt>
  405fbc:	48 8b 54 24 08       	mov    0x8(%rsp),%rdx
  405fc1:	0f b6 48 20          	movzbl 0x20(%rax),%ecx
  405fc5:	0f b6 32             	movzbl (%rdx),%esi
  405fc8:	eb c6                	jmp    405f90 <_ZNSt8_Rb_treeIcSt4pairIKcN6GetOpt10OptionDataEESt10_Select1stIS4_ESt4lessIcESaIS4_EE29_M_get_insert_hint_unique_posESt23_Rb_tree_const_iteratorIS4_ERS1_+0x220>
  405fca:	4d 89 ee             	mov    %r13,%r14
  405fcd:	0f 1f 00             	nopl   (%rax)
  405fd0:	4d 39 74 24 18       	cmp    %r14,0x18(%r12)
  405fd5:	0f 84 3e ff ff ff    	je     405f19 <_ZNSt8_Rb_treeIcSt4pairIKcN6GetOpt10OptionDataEESt10_Select1stIS4_ESt4lessIcESaIS4_EE29_M_get_insert_hint_unique_posESt23_Rb_tree_const_iteratorIS4_ERS1_+0x1a9>
  405fdb:	4c 89 f7             	mov    %r14,%rdi
  405fde:	e8 ad ca ff ff       	callq  402a90 <_ZSt18_Rb_tree_decrementPSt18_Rb_tree_node_base@plt>
  405fe3:	4c 89 f2             	mov    %r14,%rdx
  405fe6:	0f b6 70 20          	movzbl 0x20(%rax),%esi
  405fea:	49 89 c6             	mov    %rax,%r14
  405fed:	eb 82                	jmp    405f71 <_ZNSt8_Rb_treeIcSt4pairIKcN6GetOpt10OptionDataEESt10_Select1stIS4_ESt4lessIcESaIS4_EE29_M_get_insert_hint_unique_posESt23_Rb_tree_const_iteratorIS4_ERS1_+0x201>
  405fef:	48 89 da             	mov    %rbx,%rdx
  405ff2:	31 c0                	xor    %eax,%eax
  405ff4:	e9 d2 fd ff ff       	jmpq   405dcb <_ZNSt8_Rb_treeIcSt4pairIKcN6GetOpt10OptionDataEESt10_Select1stIS4_ESt4lessIcESaIS4_EE29_M_get_insert_hint_unique_posESt23_Rb_tree_const_iteratorIS4_ERS1_+0x5b>
  405ff9:	90                   	nop
  405ffa:	90                   	nop
  405ffb:	90                   	nop
  405ffc:	90                   	nop
  405ffd:	90                   	nop
  405ffe:	90                   	nop
  405fff:	90                   	nop

0000000000406000 <_ZNSt6vectorISsSaISsEE19_M_emplace_back_auxIISsEEEvDpOT_>:
  406000:	41 57                	push   %r15
  406002:	41 56                	push   %r14
  406004:	41 be 08 00 00 00    	mov    $0x8,%r14d
  40600a:	41 55                	push   %r13
  40600c:	41 54                	push   %r12
  40600e:	49 89 fc             	mov    %rdi,%r12
  406011:	55                   	push   %rbp
  406012:	53                   	push   %rbx
  406013:	48 83 ec 28          	sub    $0x28,%rsp
  406017:	48 8b 47 08          	mov    0x8(%rdi),%rax
  40601b:	48 2b 07             	sub    (%rdi),%rax
  40601e:	48 c1 f8 03          	sar    $0x3,%rax
  406022:	48 85 c0             	test   %rax,%rax
  406025:	0f 85 ed 00 00 00    	jne    406118 <_ZNSt6vectorISsSaISsEE19_M_emplace_back_auxIISsEEEvDpOT_+0x118>
  40602b:	4c 89 f7             	mov    %r14,%rdi
  40602e:	48 89 74 24 08       	mov    %rsi,0x8(%rsp)
  406033:	e8 28 ca ff ff       	callq  402a60 <_Znwm@plt>
  406038:	49 8b 6c 24 08       	mov    0x8(%r12),%rbp
  40603d:	4d 8b 04 24          	mov    (%r12),%r8
  406041:	49 89 c5             	mov    %rax,%r13
  406044:	4c 8d 78 08          	lea    0x8(%rax),%r15
  406048:	48 89 e8             	mov    %rbp,%rax
  40604b:	4c 29 c0             	sub    %r8,%rax
  40604e:	48 83 e0 f8          	and    $0xfffffffffffffff8,%rax
  406052:	4c 01 e8             	add    %r13,%rax
  406055:	48 89 c2             	mov    %rax,%rdx
  406058:	74 12                	je     40606c <_ZNSt6vectorISsSaISsEE19_M_emplace_back_auxIISsEEEvDpOT_+0x6c>
  40605a:	48 8b 74 24 08       	mov    0x8(%rsp),%rsi
  40605f:	48 8b 06             	mov    (%rsi),%rax
  406062:	48 89 02             	mov    %rax,(%rdx)
  406065:	48 c7 06 18 23 61 00 	movq   $0x612318,(%rsi)
  40606c:	49 39 e8             	cmp    %rbp,%r8
  40606f:	0f 84 b8 00 00 00    	je     40612d <_ZNSt6vectorISsSaISsEE19_M_emplace_back_auxIISsEEEvDpOT_+0x12d>
  406075:	4c 89 c2             	mov    %r8,%rdx
  406078:	4c 89 e9             	mov    %r13,%rcx
  40607b:	0f 1f 44 00 00       	nopl   0x0(%rax,%rax,1)
  406080:	48 85 c9             	test   %rcx,%rcx
  406083:	74 0d                	je     406092 <_ZNSt6vectorISsSaISsEE19_M_emplace_back_auxIISsEEEvDpOT_+0x92>
  406085:	48 8b 32             	mov    (%rdx),%rsi
  406088:	48 89 31             	mov    %rsi,(%rcx)
  40608b:	48 c7 02 18 23 61 00 	movq   $0x612318,(%rdx)
  406092:	48 83 c2 08          	add    $0x8,%rdx
  406096:	48 83 c1 08          	add    $0x8,%rcx
  40609a:	48 39 ea             	cmp    %rbp,%rdx
  40609d:	75 e1                	jne    406080 <_ZNSt6vectorISsSaISsEE19_M_emplace_back_auxIISsEEEvDpOT_+0x80>
  40609f:	49 8d 58 08          	lea    0x8(%r8),%rbx
  4060a3:	48 89 e8             	mov    %rbp,%rax
  4060a6:	48 29 d8             	sub    %rbx,%rax
  4060a9:	48 c1 e8 03          	shr    $0x3,%rax
  4060ad:	4d 8d 7c c5 10       	lea    0x10(%r13,%rax,8),%r15
  4060b2:	b8 50 2c 40 00       	mov    $0x402c50,%eax
  4060b7:	48 85 c0             	test   %rax,%rax
  4060ba:	75 10                	jne    4060cc <_ZNSt6vectorISsSaISsEE19_M_emplace_back_auxIISsEEEvDpOT_+0xcc>
  4060bc:	e9 a6 00 00 00       	jmpq   406167 <_ZNSt6vectorISsSaISsEE19_M_emplace_back_auxIISsEEEvDpOT_+0x167>
  4060c1:	0f 1f 80 00 00 00 00 	nopl   0x0(%rax)
  4060c8:	48 83 c3 08          	add    $0x8,%rbx
  4060cc:	49 8b 10             	mov    (%r8),%rdx
  4060cf:	48 8d 7a e8          	lea    -0x18(%rdx),%rdi
  4060d3:	48 81 ff 00 23 61 00 	cmp    $0x612300,%rdi
  4060da:	75 56                	jne    406132 <_ZNSt6vectorISsSaISsEE19_M_emplace_back_auxIISsEEEvDpOT_+0x132>
  4060dc:	48 39 eb             	cmp    %rbp,%rbx
  4060df:	49 89 d8             	mov    %rbx,%r8
  4060e2:	75 e4                	jne    4060c8 <_ZNSt6vectorISsSaISsEE19_M_emplace_back_auxIISsEEEvDpOT_+0xc8>
  4060e4:	49 8b 3c 24          	mov    (%r12),%rdi
  4060e8:	48 85 ff             	test   %rdi,%rdi
  4060eb:	74 05                	je     4060f2 <_ZNSt6vectorISsSaISsEE19_M_emplace_back_auxIISsEEEvDpOT_+0xf2>
  4060ed:	e8 3e c9 ff ff       	callq  402a30 <_ZdlPv@plt>
  4060f2:	4d 89 2c 24          	mov    %r13,(%r12)
  4060f6:	4d 01 f5             	add    %r14,%r13
  4060f9:	4d 89 7c 24 08       	mov    %r15,0x8(%r12)
  4060fe:	4d 89 6c 24 10       	mov    %r13,0x10(%r12)
  406103:	48 83 c4 28          	add    $0x28,%rsp
  406107:	5b                   	pop    %rbx
  406108:	5d                   	pop    %rbp
  406109:	41 5c                	pop    %r12
  40610b:	41 5d                	pop    %r13
  40610d:	41 5e                	pop    %r14
  40610f:	41 5f                	pop    %r15
  406111:	c3                   	retq   
  406112:	66 0f 1f 44 00 00    	nopw   0x0(%rax,%rax,1)
  406118:	48 8d 14 00          	lea    (%rax,%rax,1),%rdx
  40611c:	48 39 d0             	cmp    %rdx,%rax
  40611f:	76 2b                	jbe    40614c <_ZNSt6vectorISsSaISsEE19_M_emplace_back_auxIISsEEEvDpOT_+0x14c>
  406121:	49 c7 c6 f8 ff ff ff 	mov    $0xfffffffffffffff8,%r14
  406128:	e9 fe fe ff ff       	jmpq   40602b <_ZNSt6vectorISsSaISsEE19_M_emplace_back_auxIISsEEEvDpOT_+0x2b>
  40612d:	4c 89 c7             	mov    %r8,%rdi
  406130:	eb b6                	jmp    4060e8 <_ZNSt6vectorISsSaISsEE19_M_emplace_back_auxIISsEEEvDpOT_+0xe8>
  406132:	b8 ff ff ff ff       	mov    $0xffffffff,%eax
  406137:	f0 0f c1 42 f8       	lock xadd %eax,-0x8(%rdx)
  40613c:	85 c0                	test   %eax,%eax
  40613e:	7f 9c                	jg     4060dc <_ZNSt6vectorISsSaISsEE19_M_emplace_back_auxIISsEEEvDpOT_+0xdc>
  406140:	48 8d 74 24 1f       	lea    0x1f(%rsp),%rsi
  406145:	e8 76 c8 ff ff       	callq  4029c0 <_ZNSs4_Rep10_M_destroyERKSaIcE@plt>
  40614a:	eb 90                	jmp    4060dc <_ZNSt6vectorISsSaISsEE19_M_emplace_back_auxIISsEEEvDpOT_+0xdc>
  40614c:	48 b9 ff ff ff ff ff 	movabs $0x1fffffffffffffff,%rcx
  406153:	ff ff 1f 
  406156:	48 39 ca             	cmp    %rcx,%rdx
  406159:	77 c6                	ja     406121 <_ZNSt6vectorISsSaISsEE19_M_emplace_back_auxIISsEEEvDpOT_+0x121>
  40615b:	49 89 c6             	mov    %rax,%r14
  40615e:	49 c1 e6 04          	shl    $0x4,%r14
  406162:	e9 c4 fe ff ff       	jmpq   40602b <_ZNSt6vectorISsSaISsEE19_M_emplace_back_auxIISsEEEvDpOT_+0x2b>
  406167:	49 8b 00             	mov    (%r8),%rax
  40616a:	48 8d 78 e8          	lea    -0x18(%rax),%rdi
  40616e:	48 81 ff 00 23 61 00 	cmp    $0x612300,%rdi
  406175:	75 12                	jne    406189 <_ZNSt6vectorISsSaISsEE19_M_emplace_back_auxIISsEEEvDpOT_+0x189>
  406177:	48 39 eb             	cmp    %rbp,%rbx
  40617a:	49 89 d8             	mov    %rbx,%r8
  40617d:	0f 84 61 ff ff ff    	je     4060e4 <_ZNSt6vectorISsSaISsEE19_M_emplace_back_auxIISsEEEvDpOT_+0xe4>
  406183:	48 83 c3 08          	add    $0x8,%rbx
  406187:	eb de                	jmp    406167 <_ZNSt6vectorISsSaISsEE19_M_emplace_back_auxIISsEEEvDpOT_+0x167>
  406189:	8b 50 f8             	mov    -0x8(%rax),%edx
  40618c:	8d 4a ff             	lea    -0x1(%rdx),%ecx
  40618f:	85 d2                	test   %edx,%edx
  406191:	89 48 f8             	mov    %ecx,-0x8(%rax)
  406194:	7f e1                	jg     406177 <_ZNSt6vectorISsSaISsEE19_M_emplace_back_auxIISsEEEvDpOT_+0x177>
  406196:	48 8d 74 24 1f       	lea    0x1f(%rsp),%rsi
  40619b:	e8 20 c8 ff ff       	callq  4029c0 <_ZNSs4_Rep10_M_destroyERKSaIcE@plt>
  4061a0:	eb d5                	jmp    406177 <_ZNSt6vectorISsSaISsEE19_M_emplace_back_auxIISsEEEvDpOT_+0x177>
  4061a2:	90                   	nop
  4061a3:	90                   	nop
  4061a4:	90                   	nop
  4061a5:	90                   	nop
  4061a6:	90                   	nop
  4061a7:	90                   	nop
  4061a8:	90                   	nop
  4061a9:	90                   	nop
  4061aa:	90                   	nop
  4061ab:	90                   	nop
  4061ac:	90                   	nop
  4061ad:	90                   	nop
  4061ae:	90                   	nop
  4061af:	90                   	nop

00000000004061b0 <_ZN6GetOpt9GetOpt_pp20_argc_argv_to_vectorEiPKPKcRSt6vectorISsSaISsEE>:
  4061b0:	85 ff                	test   %edi,%edi
  4061b2:	0f 8e 0c 01 00 00    	jle    4062c4 <_ZN6GetOpt9GetOpt_pp20_argc_argv_to_vectorEiPKPKcRSt6vectorISsSaISsEE+0x114>
  4061b8:	41 56                	push   %r14
  4061ba:	b8 50 2c 40 00       	mov    $0x402c50,%eax
  4061bf:	83 ef 01             	sub    $0x1,%edi
  4061c2:	4c 8d 74 fe 08       	lea    0x8(%rsi,%rdi,8),%r14
  4061c7:	41 55                	push   %r13
  4061c9:	41 54                	push   %r12
  4061cb:	55                   	push   %rbp
  4061cc:	48 89 d5             	mov    %rdx,%rbp
  4061cf:	53                   	push   %rbx
  4061d0:	48 89 f3             	mov    %rsi,%rbx
  4061d3:	48 83 ec 20          	sub    $0x20,%rsp
  4061d7:	48 85 c0             	test   %rax,%rax
  4061da:	4c 8d 6c 24 0e       	lea    0xe(%rsp),%r13
  4061df:	4c 8d 64 24 10       	lea    0x10(%rsp),%r12
  4061e4:	75 4b                	jne    406231 <_ZN6GetOpt9GetOpt_pp20_argc_argv_to_vectorEiPKPKcRSt6vectorISsSaISsEE+0x81>
  4061e6:	eb 73                	jmp    40625b <_ZN6GetOpt9GetOpt_pp20_argc_argv_to_vectorEiPKPKcRSt6vectorISsSaISsEE+0xab>
  4061e8:	0f 1f 84 00 00 00 00 	nopl   0x0(%rax,%rax,1)
  4061ef:	00 
  4061f0:	48 85 c0             	test   %rax,%rax
  4061f3:	48 8b 54 24 10       	mov    0x10(%rsp),%rdx
  4061f8:	74 11                	je     40620b <_ZN6GetOpt9GetOpt_pp20_argc_argv_to_vectorEiPKPKcRSt6vectorISsSaISsEE+0x5b>
  4061fa:	48 89 10             	mov    %rdx,(%rax)
  4061fd:	48 c7 44 24 10 18 23 	movq   $0x612318,0x10(%rsp)
  406204:	61 00 
  406206:	ba 18 23 61 00       	mov    $0x612318,%edx
  40620b:	48 83 c0 08          	add    $0x8,%rax
  40620f:	48 89 45 08          	mov    %rax,0x8(%rbp)
  406213:	48 8d 7a e8          	lea    -0x18(%rdx),%rdi
  406217:	48 81 ff 00 23 61 00 	cmp    $0x612300,%rdi
  40621e:	0f 85 a2 00 00 00    	jne    4062c6 <_ZN6GetOpt9GetOpt_pp20_argc_argv_to_vectorEiPKPKcRSt6vectorISsSaISsEE+0x116>
  406224:	48 83 c3 08          	add    $0x8,%rbx
  406228:	4c 39 f3             	cmp    %r14,%rbx
  40622b:	0f 84 87 00 00 00    	je     4062b8 <_ZN6GetOpt9GetOpt_pp20_argc_argv_to_vectorEiPKPKcRSt6vectorISsSaISsEE+0x108>
  406231:	48 8b 33             	mov    (%rbx),%rsi
  406234:	4c 89 ea             	mov    %r13,%rdx
  406237:	4c 89 e7             	mov    %r12,%rdi
  40623a:	e8 91 c8 ff ff       	callq  402ad0 <_ZNSsC1EPKcRKSaIcE@plt>
  40623f:	48 8b 45 08          	mov    0x8(%rbp),%rax
  406243:	48 3b 45 10          	cmp    0x10(%rbp),%rax
  406247:	75 a7                	jne    4061f0 <_ZN6GetOpt9GetOpt_pp20_argc_argv_to_vectorEiPKPKcRSt6vectorISsSaISsEE+0x40>
  406249:	4c 89 e6             	mov    %r12,%rsi
  40624c:	48 89 ef             	mov    %rbp,%rdi
  40624f:	e8 ac fd ff ff       	callq  406000 <_ZNSt6vectorISsSaISsEE19_M_emplace_back_auxIISsEEEvDpOT_>
  406254:	48 8b 54 24 10       	mov    0x10(%rsp),%rdx
  406259:	eb b8                	jmp    406213 <_ZN6GetOpt9GetOpt_pp20_argc_argv_to_vectorEiPKPKcRSt6vectorISsSaISsEE+0x63>
  40625b:	48 8b 33             	mov    (%rbx),%rsi
  40625e:	4c 89 ea             	mov    %r13,%rdx
  406261:	4c 89 e7             	mov    %r12,%rdi
  406264:	e8 67 c8 ff ff       	callq  402ad0 <_ZNSsC1EPKcRKSaIcE@plt>
  406269:	48 8b 55 08          	mov    0x8(%rbp),%rdx
  40626d:	48 3b 55 10          	cmp    0x10(%rbp),%rdx
  406271:	0f 84 b1 00 00 00    	je     406328 <_ZN6GetOpt9GetOpt_pp20_argc_argv_to_vectorEiPKPKcRSt6vectorISsSaISsEE+0x178>
  406277:	48 85 d2             	test   %rdx,%rdx
  40627a:	0f 84 9e 00 00 00    	je     40631e <_ZN6GetOpt9GetOpt_pp20_argc_argv_to_vectorEiPKPKcRSt6vectorISsSaISsEE+0x16e>
  406280:	48 8b 44 24 10       	mov    0x10(%rsp),%rax
  406285:	48 89 02             	mov    %rax,(%rdx)
  406288:	48 c7 44 24 10 18 23 	movq   $0x612318,0x10(%rsp)
  40628f:	61 00 
  406291:	b8 18 23 61 00       	mov    $0x612318,%eax
  406296:	48 83 c2 08          	add    $0x8,%rdx
  40629a:	48 89 55 08          	mov    %rdx,0x8(%rbp)
  40629e:	48 8d 78 e8          	lea    -0x18(%rax),%rdi
  4062a2:	48 81 ff 00 23 61 00 	cmp    $0x612300,%rdi
  4062a9:	75 5a                	jne    406305 <_ZN6GetOpt9GetOpt_pp20_argc_argv_to_vectorEiPKPKcRSt6vectorISsSaISsEE+0x155>
  4062ab:	48 83 c3 08          	add    $0x8,%rbx
  4062af:	4c 39 f3             	cmp    %r14,%rbx
  4062b2:	75 a7                	jne    40625b <_ZN6GetOpt9GetOpt_pp20_argc_argv_to_vectorEiPKPKcRSt6vectorISsSaISsEE+0xab>
  4062b4:	0f 1f 40 00          	nopl   0x0(%rax)
  4062b8:	48 83 c4 20          	add    $0x20,%rsp
  4062bc:	5b                   	pop    %rbx
  4062bd:	5d                   	pop    %rbp
  4062be:	41 5c                	pop    %r12
  4062c0:	41 5d                	pop    %r13
  4062c2:	41 5e                	pop    %r14
  4062c4:	f3 c3                	repz retq 
  4062c6:	b8 ff ff ff ff       	mov    $0xffffffff,%eax
  4062cb:	f0 0f c1 42 f8       	lock xadd %eax,-0x8(%rdx)
  4062d0:	85 c0                	test   %eax,%eax
  4062d2:	0f 8f 4c ff ff ff    	jg     406224 <_ZN6GetOpt9GetOpt_pp20_argc_argv_to_vectorEiPKPKcRSt6vectorISsSaISsEE+0x74>
  4062d8:	48 8d 74 24 0f       	lea    0xf(%rsp),%rsi
  4062dd:	e8 de c6 ff ff       	callq  4029c0 <_ZNSs4_Rep10_M_destroyERKSaIcE@plt>
  4062e2:	e9 3d ff ff ff       	jmpq   406224 <_ZN6GetOpt9GetOpt_pp20_argc_argv_to_vectorEiPKPKcRSt6vectorISsSaISsEE+0x74>
  4062e7:	48 89 c3             	mov    %rax,%rbx
  4062ea:	48 8b 44 24 10       	mov    0x10(%rsp),%rax
  4062ef:	48 8d 74 24 0f       	lea    0xf(%rsp),%rsi
  4062f4:	48 8d 78 e8          	lea    -0x18(%rax),%rdi
  4062f8:	e8 43 c6 ff ff       	callq  402940 <_ZNSs4_Rep10_M_disposeERKSaIcE@plt>
  4062fd:	48 89 df             	mov    %rbx,%rdi
  406300:	e8 ab c9 ff ff       	callq  402cb0 <_Unwind_Resume@plt>
  406305:	8b 50 f8             	mov    -0x8(%rax),%edx
  406308:	8d 4a ff             	lea    -0x1(%rdx),%ecx
  40630b:	85 d2                	test   %edx,%edx
  40630d:	89 48 f8             	mov    %ecx,-0x8(%rax)
  406310:	7f 99                	jg     4062ab <_ZN6GetOpt9GetOpt_pp20_argc_argv_to_vectorEiPKPKcRSt6vectorISsSaISsEE+0xfb>
  406312:	48 8d 74 24 0f       	lea    0xf(%rsp),%rsi
  406317:	e8 a4 c6 ff ff       	callq  4029c0 <_ZNSs4_Rep10_M_destroyERKSaIcE@plt>
  40631c:	eb 8d                	jmp    4062ab <_ZN6GetOpt9GetOpt_pp20_argc_argv_to_vectorEiPKPKcRSt6vectorISsSaISsEE+0xfb>
  40631e:	48 8b 44 24 10       	mov    0x10(%rsp),%rax
  406323:	e9 6e ff ff ff       	jmpq   406296 <_ZN6GetOpt9GetOpt_pp20_argc_argv_to_vectorEiPKPKcRSt6vectorISsSaISsEE+0xe6>
  406328:	4c 89 e6             	mov    %r12,%rsi
  40632b:	48 89 ef             	mov    %rbp,%rdi
  40632e:	e8 cd fc ff ff       	callq  406000 <_ZNSt6vectorISsSaISsEE19_M_emplace_back_auxIISsEEEvDpOT_>
  406333:	48 8b 44 24 10       	mov    0x10(%rsp),%rax
  406338:	e9 61 ff ff ff       	jmpq   40629e <_ZN6GetOpt9GetOpt_pp20_argc_argv_to_vectorEiPKPKcRSt6vectorISsSaISsEE+0xee>
  40633d:	90                   	nop
  40633e:	90                   	nop
  40633f:	90                   	nop

0000000000406340 <_ZNSt8_Rb_treeISsSt4pairIKSsN6GetOpt10OptionDataEESt10_Select1stIS4_ESt4lessISsESaIS4_EE24_M_get_insert_unique_posERS1_>:
  406340:	41 57                	push   %r15
  406342:	41 56                	push   %r14
  406344:	41 55                	push   %r13
  406346:	41 54                	push   %r12
  406348:	55                   	push   %rbp
  406349:	53                   	push   %rbx
  40634a:	48 83 ec 18          	sub    $0x18,%rsp
  40634e:	48 8b 6f 10          	mov    0x10(%rdi),%rbp
  406352:	48 89 7c 24 08       	mov    %rdi,0x8(%rsp)
  406357:	48 89 34 24          	mov    %rsi,(%rsp)
  40635b:	48 85 ed             	test   %rbp,%rbp
  40635e:	0f 84 d0 00 00 00    	je     406434 <_ZNSt8_Rb_treeISsSt4pairIKSsN6GetOpt10OptionDataEESt10_Select1stIS4_ESt4lessISsESaIS4_EE24_M_get_insert_unique_posERS1_+0xf4>
  406364:	4c 8b 2e             	mov    (%rsi),%r13
  406367:	4d 8b 7d e8          	mov    -0x18(%r13),%r15
  40636b:	eb 20                	jmp    40638d <_ZNSt8_Rb_treeISsSt4pairIKSsN6GetOpt10OptionDataEESt10_Select1stIS4_ESt4lessISsESaIS4_EE24_M_get_insert_unique_posERS1_+0x4d>
  40636d:	0f 1f 00             	nopl   (%rax)
  406370:	48 3d 00 00 00 80    	cmp    $0xffffffff80000000,%rax
  406376:	7c 04                	jl     40637c <_ZNSt8_Rb_treeISsSt4pairIKSsN6GetOpt10OptionDataEESt10_Select1stIS4_ESt4lessISsESaIS4_EE24_M_get_insert_unique_posERS1_+0x3c>
  406378:	85 c0                	test   %eax,%eax
  40637a:	79 43                	jns    4063bf <_ZNSt8_Rb_treeISsSt4pairIKSsN6GetOpt10OptionDataEESt10_Select1stIS4_ESt4lessISsESaIS4_EE24_M_get_insert_unique_posERS1_+0x7f>
  40637c:	48 8b 45 10          	mov    0x10(%rbp),%rax
  406380:	be 01 00 00 00       	mov    $0x1,%esi
  406385:	48 85 c0             	test   %rax,%rax
  406388:	74 40                	je     4063ca <_ZNSt8_Rb_treeISsSt4pairIKSsN6GetOpt10OptionDataEESt10_Select1stIS4_ESt4lessISsESaIS4_EE24_M_get_insert_unique_posERS1_+0x8a>
  40638a:	48 89 c5             	mov    %rax,%rbp
  40638d:	4c 8b 75 20          	mov    0x20(%rbp),%r14
  406391:	4d 89 fc             	mov    %r15,%r12
  406394:	4c 89 ef             	mov    %r13,%rdi
  406397:	49 8b 5e e8          	mov    -0x18(%r14),%rbx
  40639b:	4c 89 f6             	mov    %r14,%rsi
  40639e:	4c 39 fb             	cmp    %r15,%rbx
  4063a1:	4c 0f 46 e3          	cmovbe %rbx,%r12
  4063a5:	4c 89 e2             	mov    %r12,%rdx
  4063a8:	e8 f3 c4 ff ff       	callq  4028a0 <memcmp@plt>
  4063ad:	85 c0                	test   %eax,%eax
  4063af:	75 c7                	jne    406378 <_ZNSt8_Rb_treeISsSt4pairIKSsN6GetOpt10OptionDataEESt10_Select1stIS4_ESt4lessISsESaIS4_EE24_M_get_insert_unique_posERS1_+0x38>
  4063b1:	4c 89 f8             	mov    %r15,%rax
  4063b4:	48 29 d8             	sub    %rbx,%rax
  4063b7:	48 3d ff ff ff 7f    	cmp    $0x7fffffff,%rax
  4063bd:	7e b1                	jle    406370 <_ZNSt8_Rb_treeISsSt4pairIKSsN6GetOpt10OptionDataEESt10_Select1stIS4_ESt4lessISsESaIS4_EE24_M_get_insert_unique_posERS1_+0x30>
  4063bf:	48 8b 45 18          	mov    0x18(%rbp),%rax
  4063c3:	31 f6                	xor    %esi,%esi
  4063c5:	48 85 c0             	test   %rax,%rax
  4063c8:	75 c0                	jne    40638a <_ZNSt8_Rb_treeISsSt4pairIKSsN6GetOpt10OptionDataEESt10_Select1stIS4_ESt4lessISsESaIS4_EE24_M_get_insert_unique_posERS1_+0x4a>
  4063ca:	40 84 f6             	test   %sil,%sil
  4063cd:	4c 89 e2             	mov    %r12,%rdx
  4063d0:	49 89 ec             	mov    %rbp,%r12
  4063d3:	75 6b                	jne    406440 <_ZNSt8_Rb_treeISsSt4pairIKSsN6GetOpt10OptionDataEESt10_Select1stIS4_ESt4lessISsESaIS4_EE24_M_get_insert_unique_posERS1_+0x100>
  4063d5:	4c 89 ee             	mov    %r13,%rsi
  4063d8:	4c 89 f7             	mov    %r14,%rdi
  4063db:	e8 c0 c4 ff ff       	callq  4028a0 <memcmp@plt>
  4063e0:	85 c0                	test   %eax,%eax
  4063e2:	75 2f                	jne    406413 <_ZNSt8_Rb_treeISsSt4pairIKSsN6GetOpt10OptionDataEESt10_Select1stIS4_ESt4lessISsESaIS4_EE24_M_get_insert_unique_posERS1_+0xd3>
  4063e4:	4c 29 fb             	sub    %r15,%rbx
  4063e7:	48 81 fb ff ff ff 7f 	cmp    $0x7fffffff,%rbx
  4063ee:	7e 18                	jle    406408 <_ZNSt8_Rb_treeISsSt4pairIKSsN6GetOpt10OptionDataEESt10_Select1stIS4_ESt4lessISsESaIS4_EE24_M_get_insert_unique_posERS1_+0xc8>
  4063f0:	48 89 e8             	mov    %rbp,%rax
  4063f3:	31 d2                	xor    %edx,%edx
  4063f5:	48 83 c4 18          	add    $0x18,%rsp
  4063f9:	5b                   	pop    %rbx
  4063fa:	5d                   	pop    %rbp
  4063fb:	41 5c                	pop    %r12
  4063fd:	41 5d                	pop    %r13
  4063ff:	41 5e                	pop    %r14
  406401:	41 5f                	pop    %r15
  406403:	c3                   	retq   
  406404:	0f 1f 40 00          	nopl   0x0(%rax)
  406408:	48 81 fb 00 00 00 80 	cmp    $0xffffffff80000000,%rbx
  40640f:	7c 0f                	jl     406420 <_ZNSt8_Rb_treeISsSt4pairIKSsN6GetOpt10OptionDataEESt10_Select1stIS4_ESt4lessISsESaIS4_EE24_M_get_insert_unique_posERS1_+0xe0>
  406411:	89 d8                	mov    %ebx,%eax
  406413:	85 c0                	test   %eax,%eax
  406415:	79 d9                	jns    4063f0 <_ZNSt8_Rb_treeISsSt4pairIKSsN6GetOpt10OptionDataEESt10_Select1stIS4_ESt4lessISsESaIS4_EE24_M_get_insert_unique_posERS1_+0xb0>
  406417:	66 0f 1f 84 00 00 00 	nopw   0x0(%rax,%rax,1)
  40641e:	00 00 
  406420:	48 83 c4 18          	add    $0x18,%rsp
  406424:	4c 89 e2             	mov    %r12,%rdx
  406427:	31 c0                	xor    %eax,%eax
  406429:	5b                   	pop    %rbx
  40642a:	5d                   	pop    %rbp
  40642b:	41 5c                	pop    %r12
  40642d:	41 5d                	pop    %r13
  40642f:	41 5e                	pop    %r14
  406431:	41 5f                	pop    %r15
  406433:	c3                   	retq   
  406434:	48 8d 6f 08          	lea    0x8(%rdi),%rbp
  406438:	0f 1f 84 00 00 00 00 	nopl   0x0(%rax,%rax,1)
  40643f:	00 
  406440:	48 8b 44 24 08       	mov    0x8(%rsp),%rax
  406445:	48 39 68 18          	cmp    %rbp,0x18(%rax)
  406449:	74 30                	je     40647b <_ZNSt8_Rb_treeISsSt4pairIKSsN6GetOpt10OptionDataEESt10_Select1stIS4_ESt4lessISsESaIS4_EE24_M_get_insert_unique_posERS1_+0x13b>
  40644b:	48 89 ef             	mov    %rbp,%rdi
  40644e:	49 89 ec             	mov    %rbp,%r12
  406451:	e8 3a c6 ff ff       	callq  402a90 <_ZSt18_Rb_tree_decrementPSt18_Rb_tree_node_base@plt>
  406456:	48 8b 0c 24          	mov    (%rsp),%rcx
  40645a:	4c 8b 70 20          	mov    0x20(%rax),%r14
  40645e:	48 89 c5             	mov    %rax,%rbp
  406461:	4c 8b 29             	mov    (%rcx),%r13
  406464:	49 8b 5e e8          	mov    -0x18(%r14),%rbx
  406468:	4d 8b 7d e8          	mov    -0x18(%r13),%r15
  40646c:	4c 39 fb             	cmp    %r15,%rbx
  40646f:	4c 89 fa             	mov    %r15,%rdx
  406472:	48 0f 46 d3          	cmovbe %rbx,%rdx
  406476:	e9 5a ff ff ff       	jmpq   4063d5 <_ZNSt8_Rb_treeISsSt4pairIKSsN6GetOpt10OptionDataEESt10_Select1stIS4_ESt4lessISsESaIS4_EE24_M_get_insert_unique_posERS1_+0x95>
  40647b:	31 c0                	xor    %eax,%eax
  40647d:	48 89 ea             	mov    %rbp,%rdx
  406480:	e9 70 ff ff ff       	jmpq   4063f5 <_ZNSt8_Rb_treeISsSt4pairIKSsN6GetOpt10OptionDataEESt10_Select1stIS4_ESt4lessISsESaIS4_EE24_M_get_insert_unique_posERS1_+0xb5>
  406485:	90                   	nop
  406486:	90                   	nop
  406487:	90                   	nop
  406488:	90                   	nop
  406489:	90                   	nop
  40648a:	90                   	nop
  40648b:	90                   	nop
  40648c:	90                   	nop
  40648d:	90                   	nop
  40648e:	90                   	nop
  40648f:	90                   	nop

0000000000406490 <_ZNSt8_Rb_treeISsSt4pairIKSsN6GetOpt10OptionDataEESt10_Select1stIS4_ESt4lessISsESaIS4_EE29_M_get_insert_hint_unique_posESt23_Rb_tree_const_iteratorIS4_ERS1_>:
  406490:	41 57                	push   %r15
  406492:	48 8d 47 08          	lea    0x8(%rdi),%rax
  406496:	49 89 d7             	mov    %rdx,%r15
  406499:	41 56                	push   %r14
  40649b:	49 89 fe             	mov    %rdi,%r14
  40649e:	41 55                	push   %r13
  4064a0:	41 54                	push   %r12
  4064a2:	55                   	push   %rbp
  4064a3:	53                   	push   %rbx
  4064a4:	48 89 f3             	mov    %rsi,%rbx
  4064a7:	48 83 ec 18          	sub    $0x18,%rsp
  4064ab:	48 39 c6             	cmp    %rax,%rsi
  4064ae:	0f 84 ac 01 00 00    	je     406660 <_ZNSt8_Rb_treeISsSt4pairIKSsN6GetOpt10OptionDataEESt10_Select1stIS4_ESt4lessISsESaIS4_EE29_M_get_insert_hint_unique_posESt23_Rb_tree_const_iteratorIS4_ERS1_+0x1d0>
  4064b4:	48 8b 4e 20          	mov    0x20(%rsi),%rcx
  4064b8:	4c 8b 22             	mov    (%rdx),%r12
  4064bb:	4c 8b 69 e8          	mov    -0x18(%rcx),%r13
  4064bf:	49 8b 6c 24 e8       	mov    -0x18(%r12),%rbp
  4064c4:	48 89 ce             	mov    %rcx,%rsi
  4064c7:	4c 89 e7             	mov    %r12,%rdi
  4064ca:	48 89 0c 24          	mov    %rcx,(%rsp)
  4064ce:	49 39 ed             	cmp    %rbp,%r13
  4064d1:	49 89 e8             	mov    %rbp,%r8
  4064d4:	4d 0f 46 c5          	cmovbe %r13,%r8
  4064d8:	4c 89 c2             	mov    %r8,%rdx
  4064db:	4c 89 44 24 08       	mov    %r8,0x8(%rsp)
  4064e0:	e8 bb c3 ff ff       	callq  4028a0 <memcmp@plt>
  4064e5:	85 c0                	test   %eax,%eax
  4064e7:	48 8b 0c 24          	mov    (%rsp),%rcx
  4064eb:	4c 8b 44 24 08       	mov    0x8(%rsp),%r8
  4064f0:	0f 85 ea 00 00 00    	jne    4065e0 <_ZNSt8_Rb_treeISsSt4pairIKSsN6GetOpt10OptionDataEESt10_Select1stIS4_ESt4lessISsESaIS4_EE29_M_get_insert_hint_unique_posESt23_Rb_tree_const_iteratorIS4_ERS1_+0x150>
  4064f6:	48 89 e8             	mov    %rbp,%rax
  4064f9:	4c 29 e8             	sub    %r13,%rax
  4064fc:	48 3d ff ff ff 7f    	cmp    $0x7fffffff,%rax
  406502:	7e 4c                	jle    406550 <_ZNSt8_Rb_treeISsSt4pairIKSsN6GetOpt10OptionDataEESt10_Select1stIS4_ESt4lessISsESaIS4_EE29_M_get_insert_hint_unique_posESt23_Rb_tree_const_iteratorIS4_ERS1_+0xc0>
  406504:	4c 89 c2             	mov    %r8,%rdx
  406507:	4c 89 e6             	mov    %r12,%rsi
  40650a:	48 89 cf             	mov    %rcx,%rdi
  40650d:	e8 8e c3 ff ff       	callq  4028a0 <memcmp@plt>
  406512:	85 c0                	test   %eax,%eax
  406514:	75 1c                	jne    406532 <_ZNSt8_Rb_treeISsSt4pairIKSsN6GetOpt10OptionDataEESt10_Select1stIS4_ESt4lessISsESaIS4_EE29_M_get_insert_hint_unique_posESt23_Rb_tree_const_iteratorIS4_ERS1_+0xa2>
  406516:	49 29 ed             	sub    %rbp,%r13
  406519:	49 81 fd ff ff ff 7f 	cmp    $0x7fffffff,%r13
  406520:	7f 18                	jg     40653a <_ZNSt8_Rb_treeISsSt4pairIKSsN6GetOpt10OptionDataEESt10_Select1stIS4_ESt4lessISsESaIS4_EE29_M_get_insert_hint_unique_posESt23_Rb_tree_const_iteratorIS4_ERS1_+0xaa>
  406522:	49 81 fd 00 00 00 80 	cmp    $0xffffffff80000000,%r13
  406529:	0f 8c c1 00 00 00    	jl     4065f0 <_ZNSt8_Rb_treeISsSt4pairIKSsN6GetOpt10OptionDataEESt10_Select1stIS4_ESt4lessISsESaIS4_EE29_M_get_insert_hint_unique_posESt23_Rb_tree_const_iteratorIS4_ERS1_+0x160>
  40652f:	44 89 e8             	mov    %r13d,%eax
  406532:	85 c0                	test   %eax,%eax
  406534:	0f 88 b6 00 00 00    	js     4065f0 <_ZNSt8_Rb_treeISsSt4pairIKSsN6GetOpt10OptionDataEESt10_Select1stIS4_ESt4lessISsESaIS4_EE29_M_get_insert_hint_unique_posESt23_Rb_tree_const_iteratorIS4_ERS1_+0x160>
  40653a:	48 89 d8             	mov    %rbx,%rax
  40653d:	31 d2                	xor    %edx,%edx
  40653f:	48 83 c4 18          	add    $0x18,%rsp
  406543:	5b                   	pop    %rbx
  406544:	5d                   	pop    %rbp
  406545:	41 5c                	pop    %r12
  406547:	41 5d                	pop    %r13
  406549:	41 5e                	pop    %r14
  40654b:	41 5f                	pop    %r15
  40654d:	c3                   	retq   
  40654e:	66 90                	xchg   %ax,%ax
  406550:	48 3d 00 00 00 80    	cmp    $0xffffffff80000000,%rax
  406556:	0f 8d 84 00 00 00    	jge    4065e0 <_ZNSt8_Rb_treeISsSt4pairIKSsN6GetOpt10OptionDataEESt10_Select1stIS4_ESt4lessISsESaIS4_EE29_M_get_insert_hint_unique_posESt23_Rb_tree_const_iteratorIS4_ERS1_+0x150>
  40655c:	49 39 5e 18          	cmp    %rbx,0x18(%r14)
  406560:	48 89 d8             	mov    %rbx,%rax
  406563:	48 89 da             	mov    %rbx,%rdx
  406566:	74 d7                	je     40653f <_ZNSt8_Rb_treeISsSt4pairIKSsN6GetOpt10OptionDataEESt10_Select1stIS4_ESt4lessISsESaIS4_EE29_M_get_insert_hint_unique_posESt23_Rb_tree_const_iteratorIS4_ERS1_+0xaf>
  406568:	48 89 df             	mov    %rbx,%rdi
  40656b:	e8 20 c5 ff ff       	callq  402a90 <_ZSt18_Rb_tree_decrementPSt18_Rb_tree_node_base@plt>
  406570:	48 8b 78 20          	mov    0x20(%rax),%rdi
  406574:	48 89 ea             	mov    %rbp,%rdx
  406577:	4c 89 e6             	mov    %r12,%rsi
  40657a:	49 89 c5             	mov    %rax,%r13
  40657d:	48 8b 4f e8          	mov    -0x18(%rdi),%rcx
  406581:	48 39 e9             	cmp    %rbp,%rcx
  406584:	48 89 0c 24          	mov    %rcx,(%rsp)
  406588:	48 0f 46 d1          	cmovbe %rcx,%rdx
  40658c:	e8 0f c3 ff ff       	callq  4028a0 <memcmp@plt>
  406591:	85 c0                	test   %eax,%eax
  406593:	75 1f                	jne    4065b4 <_ZNSt8_Rb_treeISsSt4pairIKSsN6GetOpt10OptionDataEESt10_Select1stIS4_ESt4lessISsESaIS4_EE29_M_get_insert_hint_unique_posESt23_Rb_tree_const_iteratorIS4_ERS1_+0x124>
  406595:	48 8b 0c 24          	mov    (%rsp),%rcx
  406599:	48 29 e9             	sub    %rbp,%rcx
  40659c:	48 81 f9 ff ff ff 7f 	cmp    $0x7fffffff,%rcx
  4065a3:	0f 8f 97 00 00 00    	jg     406640 <_ZNSt8_Rb_treeISsSt4pairIKSsN6GetOpt10OptionDataEESt10_Select1stIS4_ESt4lessISsESaIS4_EE29_M_get_insert_hint_unique_posESt23_Rb_tree_const_iteratorIS4_ERS1_+0x1b0>
  4065a9:	48 81 f9 00 00 00 80 	cmp    $0xffffffff80000000,%rcx
  4065b0:	7c 0a                	jl     4065bc <_ZNSt8_Rb_treeISsSt4pairIKSsN6GetOpt10OptionDataEESt10_Select1stIS4_ESt4lessISsESaIS4_EE29_M_get_insert_hint_unique_posESt23_Rb_tree_const_iteratorIS4_ERS1_+0x12c>
  4065b2:	89 c8                	mov    %ecx,%eax
  4065b4:	85 c0                	test   %eax,%eax
  4065b6:	0f 89 84 00 00 00    	jns    406640 <_ZNSt8_Rb_treeISsSt4pairIKSsN6GetOpt10OptionDataEESt10_Select1stIS4_ESt4lessISsESaIS4_EE29_M_get_insert_hint_unique_posESt23_Rb_tree_const_iteratorIS4_ERS1_+0x1b0>
  4065bc:	31 c0                	xor    %eax,%eax
  4065be:	49 83 7d 18 00       	cmpq   $0x0,0x18(%r13)
  4065c3:	48 0f 45 c3          	cmovne %rbx,%rax
  4065c7:	49 0f 44 dd          	cmove  %r13,%rbx
  4065cb:	48 83 c4 18          	add    $0x18,%rsp
  4065cf:	48 89 da             	mov    %rbx,%rdx
  4065d2:	5b                   	pop    %rbx
  4065d3:	5d                   	pop    %rbp
  4065d4:	41 5c                	pop    %r12
  4065d6:	41 5d                	pop    %r13
  4065d8:	41 5e                	pop    %r14
  4065da:	41 5f                	pop    %r15
  4065dc:	c3                   	retq   
  4065dd:	0f 1f 00             	nopl   (%rax)
  4065e0:	85 c0                	test   %eax,%eax
  4065e2:	0f 89 1c ff ff ff    	jns    406504 <_ZNSt8_Rb_treeISsSt4pairIKSsN6GetOpt10OptionDataEESt10_Select1stIS4_ESt4lessISsESaIS4_EE29_M_get_insert_hint_unique_posESt23_Rb_tree_const_iteratorIS4_ERS1_+0x74>
  4065e8:	e9 6f ff ff ff       	jmpq   40655c <_ZNSt8_Rb_treeISsSt4pairIKSsN6GetOpt10OptionDataEESt10_Select1stIS4_ESt4lessISsESaIS4_EE29_M_get_insert_hint_unique_posESt23_Rb_tree_const_iteratorIS4_ERS1_+0xcc>
  4065ed:	0f 1f 00             	nopl   (%rax)
  4065f0:	49 39 5e 20          	cmp    %rbx,0x20(%r14)
  4065f4:	0f 84 af 00 00 00    	je     4066a9 <_ZNSt8_Rb_treeISsSt4pairIKSsN6GetOpt10OptionDataEESt10_Select1stIS4_ESt4lessISsESaIS4_EE29_M_get_insert_hint_unique_posESt23_Rb_tree_const_iteratorIS4_ERS1_+0x219>
  4065fa:	48 89 df             	mov    %rbx,%rdi
  4065fd:	e8 7e c3 ff ff       	callq  402980 <_ZSt18_Rb_tree_incrementPSt18_Rb_tree_node_base@plt>
  406602:	48 8b 70 20          	mov    0x20(%rax),%rsi
  406606:	48 89 ea             	mov    %rbp,%rdx
  406609:	4c 89 e7             	mov    %r12,%rdi
  40660c:	48 89 04 24          	mov    %rax,(%rsp)
  406610:	4c 8b 6e e8          	mov    -0x18(%rsi),%r13
  406614:	49 39 ed             	cmp    %rbp,%r13
  406617:	49 0f 46 d5          	cmovbe %r13,%rdx
  40661b:	e8 80 c2 ff ff       	callq  4028a0 <memcmp@plt>
  406620:	85 c0                	test   %eax,%eax
  406622:	48 8b 0c 24          	mov    (%rsp),%rcx
  406626:	0f 85 97 00 00 00    	jne    4066c3 <_ZNSt8_Rb_treeISsSt4pairIKSsN6GetOpt10OptionDataEESt10_Select1stIS4_ESt4lessISsESaIS4_EE29_M_get_insert_hint_unique_posESt23_Rb_tree_const_iteratorIS4_ERS1_+0x233>
  40662c:	4c 29 ed             	sub    %r13,%rbp
  40662f:	48 81 fd ff ff ff 7f 	cmp    $0x7fffffff,%rbp
  406636:	0f 8e 7c 00 00 00    	jle    4066b8 <_ZNSt8_Rb_treeISsSt4pairIKSsN6GetOpt10OptionDataEESt10_Select1stIS4_ESt4lessISsESaIS4_EE29_M_get_insert_hint_unique_posESt23_Rb_tree_const_iteratorIS4_ERS1_+0x228>
  40663c:	0f 1f 40 00          	nopl   0x0(%rax)
  406640:	4c 89 fe             	mov    %r15,%rsi
  406643:	4c 89 f7             	mov    %r14,%rdi
  406646:	e8 f5 fc ff ff       	callq  406340 <_ZNSt8_Rb_treeISsSt4pairIKSsN6GetOpt10OptionDataEESt10_Select1stIS4_ESt4lessISsESaIS4_EE24_M_get_insert_unique_posERS1_>
  40664b:	48 83 c4 18          	add    $0x18,%rsp
  40664f:	5b                   	pop    %rbx
  406650:	5d                   	pop    %rbp
  406651:	41 5c                	pop    %r12
  406653:	41 5d                	pop    %r13
  406655:	41 5e                	pop    %r14
  406657:	41 5f                	pop    %r15
  406659:	c3                   	retq   
  40665a:	66 0f 1f 44 00 00    	nopw   0x0(%rax,%rax,1)
  406660:	48 83 7f 28 00       	cmpq   $0x0,0x28(%rdi)
  406665:	74 d9                	je     406640 <_ZNSt8_Rb_treeISsSt4pairIKSsN6GetOpt10OptionDataEESt10_Select1stIS4_ESt4lessISsESaIS4_EE29_M_get_insert_hint_unique_posESt23_Rb_tree_const_iteratorIS4_ERS1_+0x1b0>
  406667:	48 8b 5f 20          	mov    0x20(%rdi),%rbx
  40666b:	48 8b 32             	mov    (%rdx),%rsi
  40666e:	48 8b 7b 20          	mov    0x20(%rbx),%rdi
  406672:	48 8b 6e e8          	mov    -0x18(%rsi),%rbp
  406676:	4c 8b 67 e8          	mov    -0x18(%rdi),%r12
  40667a:	4c 39 e5             	cmp    %r12,%rbp
  40667d:	4c 89 e2             	mov    %r12,%rdx
  406680:	48 0f 46 d5          	cmovbe %rbp,%rdx
  406684:	e8 17 c2 ff ff       	callq  4028a0 <memcmp@plt>
  406689:	85 c0                	test   %eax,%eax
  40668b:	75 18                	jne    4066a5 <_ZNSt8_Rb_treeISsSt4pairIKSsN6GetOpt10OptionDataEESt10_Select1stIS4_ESt4lessISsESaIS4_EE29_M_get_insert_hint_unique_posESt23_Rb_tree_const_iteratorIS4_ERS1_+0x215>
  40668d:	49 29 ec             	sub    %rbp,%r12
  406690:	49 81 fc ff ff ff 7f 	cmp    $0x7fffffff,%r12
  406697:	7f a7                	jg     406640 <_ZNSt8_Rb_treeISsSt4pairIKSsN6GetOpt10OptionDataEESt10_Select1stIS4_ESt4lessISsESaIS4_EE29_M_get_insert_hint_unique_posESt23_Rb_tree_const_iteratorIS4_ERS1_+0x1b0>
  406699:	49 81 fc 00 00 00 80 	cmp    $0xffffffff80000000,%r12
  4066a0:	7c 07                	jl     4066a9 <_ZNSt8_Rb_treeISsSt4pairIKSsN6GetOpt10OptionDataEESt10_Select1stIS4_ESt4lessISsESaIS4_EE29_M_get_insert_hint_unique_posESt23_Rb_tree_const_iteratorIS4_ERS1_+0x219>
  4066a2:	44 89 e0             	mov    %r12d,%eax
  4066a5:	85 c0                	test   %eax,%eax
  4066a7:	79 97                	jns    406640 <_ZNSt8_Rb_treeISsSt4pairIKSsN6GetOpt10OptionDataEESt10_Select1stIS4_ESt4lessISsESaIS4_EE29_M_get_insert_hint_unique_posESt23_Rb_tree_const_iteratorIS4_ERS1_+0x1b0>
  4066a9:	31 c0                	xor    %eax,%eax
  4066ab:	48 89 da             	mov    %rbx,%rdx
  4066ae:	e9 8c fe ff ff       	jmpq   40653f <_ZNSt8_Rb_treeISsSt4pairIKSsN6GetOpt10OptionDataEESt10_Select1stIS4_ESt4lessISsESaIS4_EE29_M_get_insert_hint_unique_posESt23_Rb_tree_const_iteratorIS4_ERS1_+0xaf>
  4066b3:	0f 1f 44 00 00       	nopl   0x0(%rax,%rax,1)
  4066b8:	48 81 fd 00 00 00 80 	cmp    $0xffffffff80000000,%rbp
  4066bf:	7c 0a                	jl     4066cb <_ZNSt8_Rb_treeISsSt4pairIKSsN6GetOpt10OptionDataEESt10_Select1stIS4_ESt4lessISsESaIS4_EE29_M_get_insert_hint_unique_posESt23_Rb_tree_const_iteratorIS4_ERS1_+0x23b>
  4066c1:	89 e8                	mov    %ebp,%eax
  4066c3:	85 c0                	test   %eax,%eax
  4066c5:	0f 89 75 ff ff ff    	jns    406640 <_ZNSt8_Rb_treeISsSt4pairIKSsN6GetOpt10OptionDataEESt10_Select1stIS4_ESt4lessISsESaIS4_EE29_M_get_insert_hint_unique_posESt23_Rb_tree_const_iteratorIS4_ERS1_+0x1b0>
  4066cb:	31 c0                	xor    %eax,%eax
  4066cd:	48 83 7b 18 00       	cmpq   $0x0,0x18(%rbx)
  4066d2:	48 0f 45 d9          	cmovne %rcx,%rbx
  4066d6:	48 0f 45 c1          	cmovne %rcx,%rax
  4066da:	48 89 da             	mov    %rbx,%rdx
  4066dd:	e9 5d fe ff ff       	jmpq   40653f <_ZNSt8_Rb_treeISsSt4pairIKSsN6GetOpt10OptionDataEESt10_Select1stIS4_ESt4lessISsESaIS4_EE29_M_get_insert_hint_unique_posESt23_Rb_tree_const_iteratorIS4_ERS1_+0xaf>
  4066e2:	90                   	nop
  4066e3:	90                   	nop
  4066e4:	90                   	nop
  4066e5:	90                   	nop
  4066e6:	90                   	nop
  4066e7:	90                   	nop
  4066e8:	90                   	nop
  4066e9:	90                   	nop
  4066ea:	90                   	nop
  4066eb:	90                   	nop
  4066ec:	90                   	nop
  4066ed:	90                   	nop
  4066ee:	90                   	nop
  4066ef:	90                   	nop

00000000004066f0 <_ZNSt8_Rb_treeISsSt4pairIKSsN6GetOpt10OptionDataEESt10_Select1stIS4_ESt4lessISsESaIS4_EE22_M_emplace_hint_uniqueIIRKSt21piecewise_construct_tSt5tupleIIRS1_EESF_IIEEEEESt17_Rb_tree_iteratorIS4_ESt23_Rb_tree_const_iteratorIS4_EDpOT_>:
  4066f0:	41 57                	push   %r15
  4066f2:	41 56                	push   %r14
  4066f4:	41 55                	push   %r13
  4066f6:	49 89 fd             	mov    %rdi,%r13
  4066f9:	bf 38 00 00 00       	mov    $0x38,%edi
  4066fe:	41 54                	push   %r12
  406700:	49 89 f4             	mov    %rsi,%r12
  406703:	55                   	push   %rbp
  406704:	48 89 cd             	mov    %rcx,%rbp
  406707:	53                   	push   %rbx
  406708:	48 83 ec 48          	sub    $0x48,%rsp
  40670c:	e8 4f c3 ff ff       	callq  402a60 <_Znwm@plt>
  406711:	48 85 c0             	test   %rax,%rax
  406714:	48 89 c3             	mov    %rax,%rbx
  406717:	0f 84 7b 02 00 00    	je     406998 <_ZNSt8_Rb_treeISsSt4pairIKSsN6GetOpt10OptionDataEESt10_Select1stIS4_ESt4lessISsESaIS4_EE22_M_emplace_hint_uniqueIIRKSt21piecewise_construct_tSt5tupleIIRS1_EESF_IIEEEEESt17_Rb_tree_iteratorIS4_ESt23_Rb_tree_const_iteratorIS4_EDpOT_+0x2a8>
  40671d:	c7 00 00 00 00 00    	movl   $0x0,(%rax)
  406723:	48 c7 40 08 00 00 00 	movq   $0x0,0x8(%rax)
  40672a:	00 
  40672b:	48 8d 40 20          	lea    0x20(%rax),%rax
  40672f:	48 c7 40 f0 00 00 00 	movq   $0x0,-0x10(%rax)
  406736:	00 
  406737:	48 c7 40 f8 00 00 00 	movq   $0x0,-0x8(%rax)
  40673e:	00 
  40673f:	48 8b 75 00          	mov    0x0(%rbp),%rsi
  406743:	48 89 c7             	mov    %rax,%rdi
  406746:	48 89 44 24 28       	mov    %rax,0x28(%rsp)
  40674b:	e8 c0 c1 ff ff       	callq  402910 <_ZNSsC1ERKSs@plt>
  406750:	c7 43 28 00 00 00 00 	movl   $0x0,0x28(%rbx)
  406757:	49 8d 45 08          	lea    0x8(%r13),%rax
  40675b:	4c 89 64 24 08       	mov    %r12,0x8(%rsp)
  406760:	4c 39 e0             	cmp    %r12,%rax
  406763:	48 89 44 24 10       	mov    %rax,0x10(%rsp)
  406768:	0f 84 42 02 00 00    	je     4069b0 <_ZNSt8_Rb_treeISsSt4pairIKSsN6GetOpt10OptionDataEESt10_Select1stIS4_ESt4lessISsESaIS4_EE22_M_emplace_hint_uniqueIIRKSt21piecewise_construct_tSt5tupleIIRS1_EESF_IIEEEEESt17_Rb_tree_iteratorIS4_ESt23_Rb_tree_const_iteratorIS4_EDpOT_+0x2c0>
  40676e:	49 8b 4c 24 20       	mov    0x20(%r12),%rcx
  406773:	4c 8b 7b 20          	mov    0x20(%rbx),%r15
  406777:	4c 8b 71 e8          	mov    -0x18(%rcx),%r14
  40677b:	49 8b 6f e8          	mov    -0x18(%r15),%rbp
  40677f:	48 89 ce             	mov    %rcx,%rsi
  406782:	4c 89 ff             	mov    %r15,%rdi
  406785:	48 89 4c 24 18       	mov    %rcx,0x18(%rsp)
  40678a:	49 39 ee             	cmp    %rbp,%r14
  40678d:	49 89 e8             	mov    %rbp,%r8
  406790:	4d 0f 46 c6          	cmovbe %r14,%r8
  406794:	4c 89 c2             	mov    %r8,%rdx
  406797:	4c 89 44 24 20       	mov    %r8,0x20(%rsp)
  40679c:	e8 ff c0 ff ff       	callq  4028a0 <memcmp@plt>
  4067a1:	85 c0                	test   %eax,%eax
  4067a3:	41 89 c1             	mov    %eax,%r9d
  4067a6:	48 8b 4c 24 18       	mov    0x18(%rsp),%rcx
  4067ab:	4c 8b 44 24 20       	mov    0x20(%rsp),%r8
  4067b0:	0f 85 d2 01 00 00    	jne    406988 <_ZNSt8_Rb_treeISsSt4pairIKSsN6GetOpt10OptionDataEESt10_Select1stIS4_ESt4lessISsESaIS4_EE22_M_emplace_hint_uniqueIIRKSt21piecewise_construct_tSt5tupleIIRS1_EESF_IIEEEEESt17_Rb_tree_iteratorIS4_ESt23_Rb_tree_const_iteratorIS4_EDpOT_+0x298>
  4067b6:	48 89 e8             	mov    %rbp,%rax
  4067b9:	4c 29 f0             	sub    %r14,%rax
  4067bc:	48 3d ff ff ff 7f    	cmp    $0x7fffffff,%rax
  4067c2:	0f 8e d8 00 00 00    	jle    4068a0 <_ZNSt8_Rb_treeISsSt4pairIKSsN6GetOpt10OptionDataEESt10_Select1stIS4_ESt4lessISsESaIS4_EE22_M_emplace_hint_uniqueIIRKSt21piecewise_construct_tSt5tupleIIRS1_EESF_IIEEEEESt17_Rb_tree_iteratorIS4_ESt23_Rb_tree_const_iteratorIS4_EDpOT_+0x1b0>
  4067c8:	4c 89 c2             	mov    %r8,%rdx
  4067cb:	4c 89 fe             	mov    %r15,%rsi
  4067ce:	48 89 cf             	mov    %rcx,%rdi
  4067d1:	44 89 4c 24 18       	mov    %r9d,0x18(%rsp)
  4067d6:	e8 c5 c0 ff ff       	callq  4028a0 <memcmp@plt>
  4067db:	85 c0                	test   %eax,%eax
  4067dd:	44 8b 4c 24 18       	mov    0x18(%rsp),%r9d
  4067e2:	0f 85 68 01 00 00    	jne    406950 <_ZNSt8_Rb_treeISsSt4pairIKSsN6GetOpt10OptionDataEESt10_Select1stIS4_ESt4lessISsESaIS4_EE22_M_emplace_hint_uniqueIIRKSt21piecewise_construct_tSt5tupleIIRS1_EESF_IIEEEEESt17_Rb_tree_iteratorIS4_ESt23_Rb_tree_const_iteratorIS4_EDpOT_+0x260>
  4067e8:	4c 89 f0             	mov    %r14,%rax
  4067eb:	48 29 e8             	sub    %rbp,%rax
  4067ee:	48 3d ff ff ff 7f    	cmp    $0x7fffffff,%rax
  4067f4:	0f 8f 5e 01 00 00    	jg     406958 <_ZNSt8_Rb_treeISsSt4pairIKSsN6GetOpt10OptionDataEESt10_Select1stIS4_ESt4lessISsESaIS4_EE22_M_emplace_hint_uniqueIIRKSt21piecewise_construct_tSt5tupleIIRS1_EESF_IIEEEEESt17_Rb_tree_iteratorIS4_ESt23_Rb_tree_const_iteratorIS4_EDpOT_+0x268>
  4067fa:	48 3d 00 00 00 80    	cmp    $0xffffffff80000000,%rax
  406800:	0f 8d 4a 01 00 00    	jge    406950 <_ZNSt8_Rb_treeISsSt4pairIKSsN6GetOpt10OptionDataEESt10_Select1stIS4_ESt4lessISsESaIS4_EE22_M_emplace_hint_uniqueIIRKSt21piecewise_construct_tSt5tupleIIRS1_EESF_IIEEEEESt17_Rb_tree_iteratorIS4_ESt23_Rb_tree_const_iteratorIS4_EDpOT_+0x260>
  406806:	4d 8b 45 20          	mov    0x20(%r13),%r8
  40680a:	44 89 4c 24 08       	mov    %r9d,0x8(%rsp)
  40680f:	4d 39 e0             	cmp    %r12,%r8
  406812:	0f 84 f8 01 00 00    	je     406a10 <_ZNSt8_Rb_treeISsSt4pairIKSsN6GetOpt10OptionDataEESt10_Select1stIS4_ESt4lessISsESaIS4_EE22_M_emplace_hint_uniqueIIRKSt21piecewise_construct_tSt5tupleIIRS1_EESF_IIEEEEESt17_Rb_tree_iteratorIS4_ESt23_Rb_tree_const_iteratorIS4_EDpOT_+0x320>
  406818:	4c 89 e7             	mov    %r12,%rdi
  40681b:	e8 60 c1 ff ff       	callq  402980 <_ZSt18_Rb_tree_incrementPSt18_Rb_tree_node_base@plt>
  406820:	48 8b 70 20          	mov    0x20(%rax),%rsi
  406824:	48 89 ea             	mov    %rbp,%rdx
  406827:	4c 89 ff             	mov    %r15,%rdi
  40682a:	48 89 44 24 18       	mov    %rax,0x18(%rsp)
  40682f:	48 8b 4e e8          	mov    -0x18(%rsi),%rcx
  406833:	48 39 e9             	cmp    %rbp,%rcx
  406836:	48 89 4c 24 20       	mov    %rcx,0x20(%rsp)
  40683b:	48 0f 46 d1          	cmovbe %rcx,%rdx
  40683f:	e8 5c c0 ff ff       	callq  4028a0 <memcmp@plt>
  406844:	85 c0                	test   %eax,%eax
  406846:	4c 8b 44 24 18       	mov    0x18(%rsp),%r8
  40684b:	44 8b 4c 24 08       	mov    0x8(%rsp),%r9d
  406850:	0f 85 32 02 00 00    	jne    406a88 <_ZNSt8_Rb_treeISsSt4pairIKSsN6GetOpt10OptionDataEESt10_Select1stIS4_ESt4lessISsESaIS4_EE22_M_emplace_hint_uniqueIIRKSt21piecewise_construct_tSt5tupleIIRS1_EESF_IIEEEEESt17_Rb_tree_iteratorIS4_ESt23_Rb_tree_const_iteratorIS4_EDpOT_+0x398>
  406856:	48 8b 4c 24 20       	mov    0x20(%rsp),%rcx
  40685b:	48 89 e8             	mov    %rbp,%rax
  40685e:	48 29 c8             	sub    %rcx,%rax
  406861:	48 3d ff ff ff 7f    	cmp    $0x7fffffff,%rax
  406867:	0f 8e 13 02 00 00    	jle    406a80 <_ZNSt8_Rb_treeISsSt4pairIKSsN6GetOpt10OptionDataEESt10_Select1stIS4_ESt4lessISsESaIS4_EE22_M_emplace_hint_uniqueIIRKSt21piecewise_construct_tSt5tupleIIRS1_EESF_IIEEEEESt17_Rb_tree_iteratorIS4_ESt23_Rb_tree_const_iteratorIS4_EDpOT_+0x390>
  40686d:	0f 1f 00             	nopl   (%rax)
  406870:	48 8b 74 24 28       	mov    0x28(%rsp),%rsi
  406875:	4c 89 ef             	mov    %r13,%rdi
  406878:	e8 c3 fa ff ff       	callq  406340 <_ZNSt8_Rb_treeISsSt4pairIKSsN6GetOpt10OptionDataEESt10_Select1stIS4_ESt4lessISsESaIS4_EE24_M_get_insert_unique_posERS1_>
  40687d:	48 89 44 24 08       	mov    %rax,0x8(%rsp)
  406882:	49 89 d0             	mov    %rdx,%r8
  406885:	4d 85 c0             	test   %r8,%r8
  406888:	0f 85 8a 00 00 00    	jne    406918 <_ZNSt8_Rb_treeISsSt4pairIKSsN6GetOpt10OptionDataEESt10_Select1stIS4_ESt4lessISsESaIS4_EE22_M_emplace_hint_uniqueIIRKSt21piecewise_construct_tSt5tupleIIRS1_EESF_IIEEEEESt17_Rb_tree_iteratorIS4_ESt23_Rb_tree_const_iteratorIS4_EDpOT_+0x228>
  40688e:	4c 8b 7b 20          	mov    0x20(%rbx),%r15
  406892:	e9 c1 00 00 00       	jmpq   406958 <_ZNSt8_Rb_treeISsSt4pairIKSsN6GetOpt10OptionDataEESt10_Select1stIS4_ESt4lessISsESaIS4_EE22_M_emplace_hint_uniqueIIRKSt21piecewise_construct_tSt5tupleIIRS1_EESF_IIEEEEESt17_Rb_tree_iteratorIS4_ESt23_Rb_tree_const_iteratorIS4_EDpOT_+0x268>
  406897:	66 0f 1f 84 00 00 00 	nopw   0x0(%rax,%rax,1)
  40689e:	00 00 
  4068a0:	48 3d 00 00 00 80    	cmp    $0xffffffff80000000,%rax
  4068a6:	0f 8d dc 00 00 00    	jge    406988 <_ZNSt8_Rb_treeISsSt4pairIKSsN6GetOpt10OptionDataEESt10_Select1stIS4_ESt4lessISsESaIS4_EE22_M_emplace_hint_uniqueIIRKSt21piecewise_construct_tSt5tupleIIRS1_EESF_IIEEEEESt17_Rb_tree_iteratorIS4_ESt23_Rb_tree_const_iteratorIS4_EDpOT_+0x298>
  4068ac:	4d 39 65 18          	cmp    %r12,0x18(%r13)
  4068b0:	0f 84 f2 01 00 00    	je     406aa8 <_ZNSt8_Rb_treeISsSt4pairIKSsN6GetOpt10OptionDataEESt10_Select1stIS4_ESt4lessISsESaIS4_EE22_M_emplace_hint_uniqueIIRKSt21piecewise_construct_tSt5tupleIIRS1_EESF_IIEEEEESt17_Rb_tree_iteratorIS4_ESt23_Rb_tree_const_iteratorIS4_EDpOT_+0x3b8>
  4068b6:	4c 89 e7             	mov    %r12,%rdi
  4068b9:	e8 d2 c1 ff ff       	callq  402a90 <_ZSt18_Rb_tree_decrementPSt18_Rb_tree_node_base@plt>
  4068be:	48 8b 78 20          	mov    0x20(%rax),%rdi
  4068c2:	48 89 ea             	mov    %rbp,%rdx
  4068c5:	4c 89 fe             	mov    %r15,%rsi
  4068c8:	48 89 44 24 18       	mov    %rax,0x18(%rsp)
  4068cd:	4c 8b 77 e8          	mov    -0x18(%rdi),%r14
  4068d1:	49 39 ee             	cmp    %rbp,%r14
  4068d4:	49 0f 46 d6          	cmovbe %r14,%rdx
  4068d8:	e8 c3 bf ff ff       	callq  4028a0 <memcmp@plt>
  4068dd:	85 c0                	test   %eax,%eax
  4068df:	4c 8b 44 24 18       	mov    0x18(%rsp),%r8
  4068e4:	75 1c                	jne    406902 <_ZNSt8_Rb_treeISsSt4pairIKSsN6GetOpt10OptionDataEESt10_Select1stIS4_ESt4lessISsESaIS4_EE22_M_emplace_hint_uniqueIIRKSt21piecewise_construct_tSt5tupleIIRS1_EESF_IIEEEEESt17_Rb_tree_iteratorIS4_ESt23_Rb_tree_const_iteratorIS4_EDpOT_+0x212>
  4068e6:	49 29 ee             	sub    %rbp,%r14
  4068e9:	49 81 fe ff ff ff 7f 	cmp    $0x7fffffff,%r14
  4068f0:	0f 8f 7a ff ff ff    	jg     406870 <_ZNSt8_Rb_treeISsSt4pairIKSsN6GetOpt10OptionDataEESt10_Select1stIS4_ESt4lessISsESaIS4_EE22_M_emplace_hint_uniqueIIRKSt21piecewise_construct_tSt5tupleIIRS1_EESF_IIEEEEESt17_Rb_tree_iteratorIS4_ESt23_Rb_tree_const_iteratorIS4_EDpOT_+0x180>
  4068f6:	49 81 fe 00 00 00 80 	cmp    $0xffffffff80000000,%r14
  4068fd:	7c 0b                	jl     40690a <_ZNSt8_Rb_treeISsSt4pairIKSsN6GetOpt10OptionDataEESt10_Select1stIS4_ESt4lessISsESaIS4_EE22_M_emplace_hint_uniqueIIRKSt21piecewise_construct_tSt5tupleIIRS1_EESF_IIEEEEESt17_Rb_tree_iteratorIS4_ESt23_Rb_tree_const_iteratorIS4_EDpOT_+0x21a>
  4068ff:	44 89 f0             	mov    %r14d,%eax
  406902:	85 c0                	test   %eax,%eax
  406904:	0f 89 66 ff ff ff    	jns    406870 <_ZNSt8_Rb_treeISsSt4pairIKSsN6GetOpt10OptionDataEESt10_Select1stIS4_ESt4lessISsESaIS4_EE22_M_emplace_hint_uniqueIIRKSt21piecewise_construct_tSt5tupleIIRS1_EESF_IIEEEEESt17_Rb_tree_iteratorIS4_ESt23_Rb_tree_const_iteratorIS4_EDpOT_+0x180>
  40690a:	49 83 78 18 00       	cmpq   $0x0,0x18(%r8)
  40690f:	0f 84 fb 00 00 00    	je     406a10 <_ZNSt8_Rb_treeISsSt4pairIKSsN6GetOpt10OptionDataEESt10_Select1stIS4_ESt4lessISsESaIS4_EE22_M_emplace_hint_uniqueIIRKSt21piecewise_construct_tSt5tupleIIRS1_EESF_IIEEEEESt17_Rb_tree_iteratorIS4_ESt23_Rb_tree_const_iteratorIS4_EDpOT_+0x320>
  406915:	4d 89 e0             	mov    %r12,%r8
  406918:	48 83 7c 24 08 00    	cmpq   $0x0,0x8(%rsp)
  40691e:	bf 01 00 00 00       	mov    $0x1,%edi
  406923:	0f 84 e7 00 00 00    	je     406a10 <_ZNSt8_Rb_treeISsSt4pairIKSsN6GetOpt10OptionDataEESt10_Select1stIS4_ESt4lessISsESaIS4_EE22_M_emplace_hint_uniqueIIRKSt21piecewise_construct_tSt5tupleIIRS1_EESF_IIEEEEESt17_Rb_tree_iteratorIS4_ESt23_Rb_tree_const_iteratorIS4_EDpOT_+0x320>
  406929:	48 8b 4c 24 10       	mov    0x10(%rsp),%rcx
  40692e:	48 89 de             	mov    %rbx,%rsi
  406931:	4c 89 c2             	mov    %r8,%rdx
  406934:	e8 c7 be ff ff       	callq  402800 <_ZSt29_Rb_tree_insert_and_rebalancebPSt18_Rb_tree_node_baseS0_RS_@plt>
  406939:	49 83 45 28 01       	addq   $0x1,0x28(%r13)
  40693e:	48 83 c4 48          	add    $0x48,%rsp
  406942:	48 89 d8             	mov    %rbx,%rax
  406945:	5b                   	pop    %rbx
  406946:	5d                   	pop    %rbp
  406947:	41 5c                	pop    %r12
  406949:	41 5d                	pop    %r13
  40694b:	41 5e                	pop    %r14
  40694d:	41 5f                	pop    %r15
  40694f:	c3                   	retq   
  406950:	85 c0                	test   %eax,%eax
  406952:	0f 88 ae fe ff ff    	js     406806 <_ZNSt8_Rb_treeISsSt4pairIKSsN6GetOpt10OptionDataEESt10_Select1stIS4_ESt4lessISsESaIS4_EE22_M_emplace_hint_uniqueIIRKSt21piecewise_construct_tSt5tupleIIRS1_EESF_IIEEEEESt17_Rb_tree_iteratorIS4_ESt23_Rb_tree_const_iteratorIS4_EDpOT_+0x116>
  406958:	49 8d 7f e8          	lea    -0x18(%r15),%rdi
  40695c:	48 81 ff 00 23 61 00 	cmp    $0x612300,%rdi
  406963:	0f 85 59 01 00 00    	jne    406ac2 <_ZNSt8_Rb_treeISsSt4pairIKSsN6GetOpt10OptionDataEESt10_Select1stIS4_ESt4lessISsESaIS4_EE22_M_emplace_hint_uniqueIIRKSt21piecewise_construct_tSt5tupleIIRS1_EESF_IIEEEEESt17_Rb_tree_iteratorIS4_ESt23_Rb_tree_const_iteratorIS4_EDpOT_+0x3d2>
  406969:	48 89 df             	mov    %rbx,%rdi
  40696c:	e8 bf c0 ff ff       	callq  402a30 <_ZdlPv@plt>
  406971:	48 8b 44 24 08       	mov    0x8(%rsp),%rax
  406976:	48 83 c4 48          	add    $0x48,%rsp
  40697a:	5b                   	pop    %rbx
  40697b:	5d                   	pop    %rbp
  40697c:	41 5c                	pop    %r12
  40697e:	41 5d                	pop    %r13
  406980:	41 5e                	pop    %r14
  406982:	41 5f                	pop    %r15
  406984:	c3                   	retq   
  406985:	0f 1f 00             	nopl   (%rax)
  406988:	85 c0                	test   %eax,%eax
  40698a:	0f 89 38 fe ff ff    	jns    4067c8 <_ZNSt8_Rb_treeISsSt4pairIKSsN6GetOpt10OptionDataEESt10_Select1stIS4_ESt4lessISsESaIS4_EE22_M_emplace_hint_uniqueIIRKSt21piecewise_construct_tSt5tupleIIRS1_EESF_IIEEEEESt17_Rb_tree_iteratorIS4_ESt23_Rb_tree_const_iteratorIS4_EDpOT_+0xd8>
  406990:	e9 17 ff ff ff       	jmpq   4068ac <_ZNSt8_Rb_treeISsSt4pairIKSsN6GetOpt10OptionDataEESt10_Select1stIS4_ESt4lessISsESaIS4_EE22_M_emplace_hint_uniqueIIRKSt21piecewise_construct_tSt5tupleIIRS1_EESF_IIEEEEESt17_Rb_tree_iteratorIS4_ESt23_Rb_tree_const_iteratorIS4_EDpOT_+0x1bc>
  406995:	0f 1f 00             	nopl   (%rax)
  406998:	48 c7 44 24 28 20 00 	movq   $0x20,0x28(%rsp)
  40699f:	00 00 
  4069a1:	e9 b1 fd ff ff       	jmpq   406757 <_ZNSt8_Rb_treeISsSt4pairIKSsN6GetOpt10OptionDataEESt10_Select1stIS4_ESt4lessISsESaIS4_EE22_M_emplace_hint_uniqueIIRKSt21piecewise_construct_tSt5tupleIIRS1_EESF_IIEEEEESt17_Rb_tree_iteratorIS4_ESt23_Rb_tree_const_iteratorIS4_EDpOT_+0x67>
  4069a6:	66 2e 0f 1f 84 00 00 	nopw   %cs:0x0(%rax,%rax,1)
  4069ad:	00 00 00 
  4069b0:	49 83 7d 28 00       	cmpq   $0x0,0x28(%r13)
  4069b5:	0f 84 b5 fe ff ff    	je     406870 <_ZNSt8_Rb_treeISsSt4pairIKSsN6GetOpt10OptionDataEESt10_Select1stIS4_ESt4lessISsESaIS4_EE22_M_emplace_hint_uniqueIIRKSt21piecewise_construct_tSt5tupleIIRS1_EESF_IIEEEEESt17_Rb_tree_iteratorIS4_ESt23_Rb_tree_const_iteratorIS4_EDpOT_+0x180>
  4069bb:	4d 8b 45 20          	mov    0x20(%r13),%r8
  4069bf:	48 8b 73 20          	mov    0x20(%rbx),%rsi
  4069c3:	49 8b 78 20          	mov    0x20(%r8),%rdi
  4069c7:	48 8b 6e e8          	mov    -0x18(%rsi),%rbp
  4069cb:	4c 89 44 24 08       	mov    %r8,0x8(%rsp)
  4069d0:	4c 8b 67 e8          	mov    -0x18(%rdi),%r12
  4069d4:	4c 39 e5             	cmp    %r12,%rbp
  4069d7:	4c 89 e2             	mov    %r12,%rdx
  4069da:	48 0f 46 d5          	cmovbe %rbp,%rdx
  4069de:	e8 bd be ff ff       	callq  4028a0 <memcmp@plt>
  4069e3:	85 c0                	test   %eax,%eax
  4069e5:	4c 8b 44 24 08       	mov    0x8(%rsp),%r8
  4069ea:	75 1c                	jne    406a08 <_ZNSt8_Rb_treeISsSt4pairIKSsN6GetOpt10OptionDataEESt10_Select1stIS4_ESt4lessISsESaIS4_EE22_M_emplace_hint_uniqueIIRKSt21piecewise_construct_tSt5tupleIIRS1_EESF_IIEEEEESt17_Rb_tree_iteratorIS4_ESt23_Rb_tree_const_iteratorIS4_EDpOT_+0x318>
  4069ec:	49 29 ec             	sub    %rbp,%r12
  4069ef:	49 81 fc ff ff ff 7f 	cmp    $0x7fffffff,%r12
  4069f6:	0f 8f 74 fe ff ff    	jg     406870 <_ZNSt8_Rb_treeISsSt4pairIKSsN6GetOpt10OptionDataEESt10_Select1stIS4_ESt4lessISsESaIS4_EE22_M_emplace_hint_uniqueIIRKSt21piecewise_construct_tSt5tupleIIRS1_EESF_IIEEEEESt17_Rb_tree_iteratorIS4_ESt23_Rb_tree_const_iteratorIS4_EDpOT_+0x180>
  4069fc:	49 81 fc 00 00 00 80 	cmp    $0xffffffff80000000,%r12
  406a03:	7c 0b                	jl     406a10 <_ZNSt8_Rb_treeISsSt4pairIKSsN6GetOpt10OptionDataEESt10_Select1stIS4_ESt4lessISsESaIS4_EE22_M_emplace_hint_uniqueIIRKSt21piecewise_construct_tSt5tupleIIRS1_EESF_IIEEEEESt17_Rb_tree_iteratorIS4_ESt23_Rb_tree_const_iteratorIS4_EDpOT_+0x320>
  406a05:	44 89 e0             	mov    %r12d,%eax
  406a08:	85 c0                	test   %eax,%eax
  406a0a:	0f 89 60 fe ff ff    	jns    406870 <_ZNSt8_Rb_treeISsSt4pairIKSsN6GetOpt10OptionDataEESt10_Select1stIS4_ESt4lessISsESaIS4_EE22_M_emplace_hint_uniqueIIRKSt21piecewise_construct_tSt5tupleIIRS1_EESF_IIEEEEESt17_Rb_tree_iteratorIS4_ESt23_Rb_tree_const_iteratorIS4_EDpOT_+0x180>
  406a10:	4c 39 44 24 10       	cmp    %r8,0x10(%rsp)
  406a15:	0f 84 9d 00 00 00    	je     406ab8 <_ZNSt8_Rb_treeISsSt4pairIKSsN6GetOpt10OptionDataEESt10_Select1stIS4_ESt4lessISsESaIS4_EE22_M_emplace_hint_uniqueIIRKSt21piecewise_construct_tSt5tupleIIRS1_EESF_IIEEEEESt17_Rb_tree_iteratorIS4_ESt23_Rb_tree_const_iteratorIS4_EDpOT_+0x3c8>
  406a1b:	49 8b 70 20          	mov    0x20(%r8),%rsi
  406a1f:	48 8b 7b 20          	mov    0x20(%rbx),%rdi
  406a23:	4c 89 44 24 08       	mov    %r8,0x8(%rsp)
  406a28:	48 8b 6f e8          	mov    -0x18(%rdi),%rbp
  406a2c:	4c 8b 76 e8          	mov    -0x18(%rsi),%r14
  406a30:	4c 39 f5             	cmp    %r14,%rbp
  406a33:	4c 89 f2             	mov    %r14,%rdx
  406a36:	48 0f 46 d5          	cmovbe %rbp,%rdx
  406a3a:	e8 61 be ff ff       	callq  4028a0 <memcmp@plt>
  406a3f:	4c 8b 44 24 08       	mov    0x8(%rsp),%r8
  406a44:	85 c0                	test   %eax,%eax
  406a46:	75 24                	jne    406a6c <_ZNSt8_Rb_treeISsSt4pairIKSsN6GetOpt10OptionDataEESt10_Select1stIS4_ESt4lessISsESaIS4_EE22_M_emplace_hint_uniqueIIRKSt21piecewise_construct_tSt5tupleIIRS1_EESF_IIEEEEESt17_Rb_tree_iteratorIS4_ESt23_Rb_tree_const_iteratorIS4_EDpOT_+0x37c>
  406a48:	4c 29 f5             	sub    %r14,%rbp
  406a4b:	31 ff                	xor    %edi,%edi
  406a4d:	48 81 fd ff ff ff 7f 	cmp    $0x7fffffff,%rbp
  406a54:	0f 8f cf fe ff ff    	jg     406929 <_ZNSt8_Rb_treeISsSt4pairIKSsN6GetOpt10OptionDataEESt10_Select1stIS4_ESt4lessISsESaIS4_EE22_M_emplace_hint_uniqueIIRKSt21piecewise_construct_tSt5tupleIIRS1_EESF_IIEEEEESt17_Rb_tree_iteratorIS4_ESt23_Rb_tree_const_iteratorIS4_EDpOT_+0x239>
  406a5a:	48 81 fd 00 00 00 80 	cmp    $0xffffffff80000000,%rbp
  406a61:	40 b7 01             	mov    $0x1,%dil
  406a64:	0f 8c bf fe ff ff    	jl     406929 <_ZNSt8_Rb_treeISsSt4pairIKSsN6GetOpt10OptionDataEESt10_Select1stIS4_ESt4lessISsESaIS4_EE22_M_emplace_hint_uniqueIIRKSt21piecewise_construct_tSt5tupleIIRS1_EESF_IIEEEEESt17_Rb_tree_iteratorIS4_ESt23_Rb_tree_const_iteratorIS4_EDpOT_+0x239>
  406a6a:	89 e8                	mov    %ebp,%eax
  406a6c:	c1 e8 1f             	shr    $0x1f,%eax
  406a6f:	89 c7                	mov    %eax,%edi
  406a71:	e9 b3 fe ff ff       	jmpq   406929 <_ZNSt8_Rb_treeISsSt4pairIKSsN6GetOpt10OptionDataEESt10_Select1stIS4_ESt4lessISsESaIS4_EE22_M_emplace_hint_uniqueIIRKSt21piecewise_construct_tSt5tupleIIRS1_EESF_IIEEEEESt17_Rb_tree_iteratorIS4_ESt23_Rb_tree_const_iteratorIS4_EDpOT_+0x239>
  406a76:	66 2e 0f 1f 84 00 00 	nopw   %cs:0x0(%rax,%rax,1)
  406a7d:	00 00 00 
  406a80:	48 3d 00 00 00 80    	cmp    $0xffffffff80000000,%rax
  406a86:	7c 08                	jl     406a90 <_ZNSt8_Rb_treeISsSt4pairIKSsN6GetOpt10OptionDataEESt10_Select1stIS4_ESt4lessISsESaIS4_EE22_M_emplace_hint_uniqueIIRKSt21piecewise_construct_tSt5tupleIIRS1_EESF_IIEEEEESt17_Rb_tree_iteratorIS4_ESt23_Rb_tree_const_iteratorIS4_EDpOT_+0x3a0>
  406a88:	85 c0                	test   %eax,%eax
  406a8a:	0f 89 e0 fd ff ff    	jns    406870 <_ZNSt8_Rb_treeISsSt4pairIKSsN6GetOpt10OptionDataEESt10_Select1stIS4_ESt4lessISsESaIS4_EE22_M_emplace_hint_uniqueIIRKSt21piecewise_construct_tSt5tupleIIRS1_EESF_IIEEEEESt17_Rb_tree_iteratorIS4_ESt23_Rb_tree_const_iteratorIS4_EDpOT_+0x180>
  406a90:	49 83 7c 24 18 00    	cmpq   $0x0,0x18(%r12)
  406a96:	74 7a                	je     406b12 <_ZNSt8_Rb_treeISsSt4pairIKSsN6GetOpt10OptionDataEESt10_Select1stIS4_ESt4lessISsESaIS4_EE22_M_emplace_hint_uniqueIIRKSt21piecewise_construct_tSt5tupleIIRS1_EESF_IIEEEEESt17_Rb_tree_iteratorIS4_ESt23_Rb_tree_const_iteratorIS4_EDpOT_+0x422>
  406a98:	4c 89 44 24 08       	mov    %r8,0x8(%rsp)
  406a9d:	e9 e3 fd ff ff       	jmpq   406885 <_ZNSt8_Rb_treeISsSt4pairIKSsN6GetOpt10OptionDataEESt10_Select1stIS4_ESt4lessISsESaIS4_EE22_M_emplace_hint_uniqueIIRKSt21piecewise_construct_tSt5tupleIIRS1_EESF_IIEEEEESt17_Rb_tree_iteratorIS4_ESt23_Rb_tree_const_iteratorIS4_EDpOT_+0x195>
  406aa2:	66 0f 1f 44 00 00    	nopw   0x0(%rax,%rax,1)
  406aa8:	4c 89 64 24 08       	mov    %r12,0x8(%rsp)
  406aad:	e9 63 fe ff ff       	jmpq   406915 <_ZNSt8_Rb_treeISsSt4pairIKSsN6GetOpt10OptionDataEESt10_Select1stIS4_ESt4lessISsESaIS4_EE22_M_emplace_hint_uniqueIIRKSt21piecewise_construct_tSt5tupleIIRS1_EESF_IIEEEEESt17_Rb_tree_iteratorIS4_ESt23_Rb_tree_const_iteratorIS4_EDpOT_+0x225>
  406ab2:	66 0f 1f 44 00 00    	nopw   0x0(%rax,%rax,1)
  406ab8:	bf 01 00 00 00       	mov    $0x1,%edi
  406abd:	e9 67 fe ff ff       	jmpq   406929 <_ZNSt8_Rb_treeISsSt4pairIKSsN6GetOpt10OptionDataEESt10_Select1stIS4_ESt4lessISsESaIS4_EE22_M_emplace_hint_uniqueIIRKSt21piecewise_construct_tSt5tupleIIRS1_EESF_IIEEEEESt17_Rb_tree_iteratorIS4_ESt23_Rb_tree_const_iteratorIS4_EDpOT_+0x239>
  406ac2:	ba 50 2c 40 00       	mov    $0x402c50,%edx
  406ac7:	48 8d 47 10          	lea    0x10(%rdi),%rax
  406acb:	48 85 d2             	test   %rdx,%rdx
  406ace:	74 35                	je     406b05 <_ZNSt8_Rb_treeISsSt4pairIKSsN6GetOpt10OptionDataEESt10_Select1stIS4_ESt4lessISsESaIS4_EE22_M_emplace_hint_uniqueIIRKSt21piecewise_construct_tSt5tupleIIRS1_EESF_IIEEEEESt17_Rb_tree_iteratorIS4_ESt23_Rb_tree_const_iteratorIS4_EDpOT_+0x415>
  406ad0:	83 ca ff             	or     $0xffffffff,%edx
  406ad3:	f0 0f c1 10          	lock xadd %edx,(%rax)
  406ad7:	89 d0                	mov    %edx,%eax
  406ad9:	85 c0                	test   %eax,%eax
  406adb:	0f 8f 88 fe ff ff    	jg     406969 <_ZNSt8_Rb_treeISsSt4pairIKSsN6GetOpt10OptionDataEESt10_Select1stIS4_ESt4lessISsESaIS4_EE22_M_emplace_hint_uniqueIIRKSt21piecewise_construct_tSt5tupleIIRS1_EESF_IIEEEEESt17_Rb_tree_iteratorIS4_ESt23_Rb_tree_const_iteratorIS4_EDpOT_+0x279>
  406ae1:	48 8d 74 24 3f       	lea    0x3f(%rsp),%rsi
  406ae6:	e8 d5 be ff ff       	callq  4029c0 <_ZNSs4_Rep10_M_destroyERKSaIcE@plt>
  406aeb:	e9 79 fe ff ff       	jmpq   406969 <_ZNSt8_Rb_treeISsSt4pairIKSsN6GetOpt10OptionDataEESt10_Select1stIS4_ESt4lessISsESaIS4_EE22_M_emplace_hint_uniqueIIRKSt21piecewise_construct_tSt5tupleIIRS1_EESF_IIEEEEESt17_Rb_tree_iteratorIS4_ESt23_Rb_tree_const_iteratorIS4_EDpOT_+0x279>
  406af0:	48 89 c7             	mov    %rax,%rdi
  406af3:	e8 88 bd ff ff       	callq  402880 <__cxa_begin_catch@plt>
  406af8:	48 89 df             	mov    %rbx,%rdi
  406afb:	e8 30 bf ff ff       	callq  402a30 <_ZdlPv@plt>
  406b00:	e8 bb c0 ff ff       	callq  402bc0 <__cxa_rethrow@plt>
  406b05:	41 8b 47 f8          	mov    -0x8(%r15),%eax
  406b09:	8d 50 ff             	lea    -0x1(%rax),%edx
  406b0c:	41 89 57 f8          	mov    %edx,-0x8(%r15)
  406b10:	eb c7                	jmp    406ad9 <_ZNSt8_Rb_treeISsSt4pairIKSsN6GetOpt10OptionDataEESt10_Select1stIS4_ESt4lessISsESaIS4_EE22_M_emplace_hint_uniqueIIRKSt21piecewise_construct_tSt5tupleIIRS1_EESF_IIEEEEESt17_Rb_tree_iteratorIS4_ESt23_Rb_tree_const_iteratorIS4_EDpOT_+0x3e9>
  406b12:	44 89 c8             	mov    %r9d,%eax
  406b15:	4d 89 e0             	mov    %r12,%r8
  406b18:	e9 27 ff ff ff       	jmpq   406a44 <_ZNSt8_Rb_treeISsSt4pairIKSsN6GetOpt10OptionDataEESt10_Select1stIS4_ESt4lessISsESaIS4_EE22_M_emplace_hint_uniqueIIRKSt21piecewise_construct_tSt5tupleIIRS1_EESF_IIEEEEESt17_Rb_tree_iteratorIS4_ESt23_Rb_tree_const_iteratorIS4_EDpOT_+0x354>
  406b1d:	48 89 c3             	mov    %rax,%rbx
  406b20:	e8 0b c1 ff ff       	callq  402c30 <__cxa_end_catch@plt>
  406b25:	48 89 df             	mov    %rbx,%rdi
  406b28:	e8 83 c1 ff ff       	callq  402cb0 <_Unwind_Resume@plt>
  406b2d:	90                   	nop
  406b2e:	90                   	nop
  406b2f:	90                   	nop

0000000000406b30 <_ZN6GetOpt9GetOpt_pp6_parseERKSt6vectorISsSaISsEE>:
  406b30:	41 57                	push   %r15
  406b32:	48 89 f0             	mov    %rsi,%rax
  406b35:	41 56                	push   %r14
  406b37:	41 55                	push   %r13
  406b39:	41 54                	push   %r12
  406b3b:	55                   	push   %rbp
  406b3c:	48 89 fd             	mov    %rdi,%rbp
  406b3f:	53                   	push   %rbx
  406b40:	48 81 ec c8 04 00 00 	sub    $0x4c8,%rsp
  406b47:	48 8b 40 08          	mov    0x8(%rax),%rax
  406b4b:	48 89 74 24 30       	mov    %rsi,0x30(%rsp)
  406b50:	48 8b 36             	mov    (%rsi),%rsi
  406b53:	48 c7 44 24 10 00 00 	movq   $0x0,0x10(%rsp)
  406b5a:	00 00 
  406b5c:	48 89 44 24 28       	mov    %rax,0x28(%rsp)
  406b61:	48 8b 47 70          	mov    0x70(%rdi),%rax
  406b65:	48 29 74 24 28       	sub    %rsi,0x28(%rsp)
  406b6a:	48 c1 7c 24 28 03    	sarq   $0x3,0x28(%rsp)
  406b70:	48 83 78 e8 00       	cmpq   $0x0,-0x18(%rax)
  406b75:	0f 84 b1 11 00 00    	je     407d2c <_ZN6GetOpt9GetOpt_pp6_parseERKSt6vectorISsSaISsEE+0x11fc>
  406b7b:	48 8b 44 24 10       	mov    0x10(%rsp),%rax
  406b80:	48 39 44 24 28       	cmp    %rax,0x28(%rsp)
  406b85:	0f 86 fb 10 00 00    	jbe    407c86 <_ZN6GetOpt9GetOpt_pp6_parseERKSt6vectorISsSaISsEE+0x1156>
  406b8b:	48 c1 e0 03          	shl    $0x3,%rax
  406b8f:	45 31 f6             	xor    %r14d,%r14d
  406b92:	48 89 44 24 18       	mov    %rax,0x18(%rsp)
  406b97:	48 8d 84 24 d8 00 00 	lea    0xd8(%rsp),%rax
  406b9e:	00 
  406b9f:	48 89 44 24 40       	mov    %rax,0x40(%rsp)
  406ba4:	48 8d 84 24 48 02 00 	lea    0x248(%rsp),%rax
  406bab:	00 
  406bac:	48 89 44 24 38       	mov    %rax,0x38(%rsp)
  406bb1:	eb 79                	jmp    406c2c <_ZN6GetOpt9GetOpt_pp6_parseERKSt6vectorISsSaISsEE+0xfc>
  406bb3:	0f 1f 44 00 00       	nopl   0x0(%rax,%rax,1)
  406bb8:	3c 40                	cmp    $0x40,%al
  406bba:	0f 84 50 08 00 00    	je     407410 <_ZN6GetOpt9GetOpt_pp6_parseERKSt6vectorISsSaISsEE+0x8e0>
  406bc0:	41 80 fe 01          	cmp    $0x1,%r14b
  406bc4:	bf 18 00 00 00       	mov    $0x18,%edi
  406bc9:	45 19 e4             	sbb    %r12d,%r12d
  406bcc:	41 83 e4 fc          	and    $0xfffffffc,%r12d
  406bd0:	e8 8b be ff ff       	callq  402a60 <_Znwm@plt>
  406bd5:	41 83 c4 06          	add    $0x6,%r12d
  406bd9:	48 8d 78 08          	lea    0x8(%rax),%rdi
  406bdd:	4c 89 ee             	mov    %r13,%rsi
  406be0:	44 89 20             	mov    %r12d,(%rax)
  406be3:	48 89 c3             	mov    %rax,%rbx
  406be6:	e8 25 bd ff ff       	callq  402910 <_ZNSsC1ERKSs@plt>
  406beb:	48 83 7d 78 00       	cmpq   $0x0,0x78(%rbp)
  406bf0:	48 c7 43 10 00 00 00 	movq   $0x0,0x10(%rbx)
  406bf7:	00 
  406bf8:	0f 84 7f 10 00 00    	je     407c7d <_ZN6GetOpt9GetOpt_pp6_parseERKSt6vectorISsSaISsEE+0x114d>
  406bfe:	48 8b 85 80 00 00 00 	mov    0x80(%rbp),%rax
  406c05:	48 89 58 10          	mov    %rbx,0x10(%rax)
  406c09:	48 89 9d 80 00 00 00 	mov    %rbx,0x80(%rbp)
  406c10:	48 83 44 24 10 01    	addq   $0x1,0x10(%rsp)
  406c16:	48 83 44 24 18 08    	addq   $0x8,0x18(%rsp)
  406c1c:	48 8b 44 24 28       	mov    0x28(%rsp),%rax
  406c21:	48 39 44 24 10       	cmp    %rax,0x10(%rsp)
  406c26:	0f 83 5a 10 00 00    	jae    407c86 <_ZN6GetOpt9GetOpt_pp6_parseERKSt6vectorISsSaISsEE+0x1156>
  406c2c:	48 8b 44 24 30       	mov    0x30(%rsp),%rax
  406c31:	4c 8b 6c 24 18       	mov    0x18(%rsp),%r13
  406c36:	4c 03 28             	add    (%rax),%r13
  406c39:	4d 8b 65 00          	mov    0x0(%r13),%r12
  406c3d:	41 0f b6 04 24       	movzbl (%r12),%eax
  406c42:	3c 2d                	cmp    $0x2d,%al
  406c44:	0f 85 6e ff ff ff    	jne    406bb8 <_ZN6GetOpt9GetOpt_pp6_parseERKSt6vectorISsSaISsEE+0x88>
  406c4a:	49 8b 44 24 e8       	mov    -0x18(%r12),%rax
  406c4f:	48 83 f8 01          	cmp    $0x1,%rax
  406c53:	0f 86 67 ff ff ff    	jbe    406bc0 <_ZN6GetOpt9GetOpt_pp6_parseERKSt6vectorISsSaISsEE+0x90>
  406c59:	41 80 7c 24 01 2d    	cmpb   $0x2d,0x1(%r12)
  406c5f:	0f 85 f3 01 00 00    	jne    406e58 <_ZN6GetOpt9GetOpt_pp6_parseERKSt6vectorISsSaISsEE+0x328>
  406c65:	48 83 f8 02          	cmp    $0x2,%rax
  406c69:	0f 84 31 08 00 00    	je     4074a0 <_ZN6GetOpt9GetOpt_pp6_parseERKSt6vectorISsSaISsEE+0x970>
  406c6f:	48 8d bc 24 e0 01 00 	lea    0x1e0(%rsp),%rdi
  406c76:	00 
  406c77:	48 c7 c1 ff ff ff ff 	mov    $0xffffffffffffffff,%rcx
  406c7e:	ba 02 00 00 00       	mov    $0x2,%edx
  406c83:	4c 89 ee             	mov    %r13,%rsi
  406c86:	e8 75 bf ff ff       	callq  402c00 <_ZNSsC1ERKSsmm@plt>
  406c8b:	4c 8b 75 40          	mov    0x40(%rbp),%r14
  406c8f:	48 8d 45 38          	lea    0x38(%rbp),%rax
  406c93:	48 89 c3             	mov    %rax,%rbx
  406c96:	48 89 44 24 08       	mov    %rax,0x8(%rsp)
  406c9b:	4d 85 f6             	test   %r14,%r14
  406c9e:	0f 84 f2 0e 00 00    	je     407b96 <_ZN6GetOpt9GetOpt_pp6_parseERKSt6vectorISsSaISsEE+0x1066>
  406ca4:	48 8b 84 24 e0 01 00 	mov    0x1e0(%rsp),%rax
  406cab:	00 
  406cac:	48 89 6c 24 20       	mov    %rbp,0x20(%rsp)
  406cb1:	48 89 dd             	mov    %rbx,%rbp
  406cb4:	48 89 44 24 48       	mov    %rax,0x48(%rsp)
  406cb9:	4c 8b 60 e8          	mov    -0x18(%rax),%r12
  406cbd:	48 89 c3             	mov    %rax,%rbx
  406cc0:	eb 19                	jmp    406cdb <_ZN6GetOpt9GetOpt_pp6_parseERKSt6vectorISsSaISsEE+0x1ab>
  406cc2:	66 0f 1f 44 00 00    	nopw   0x0(%rax,%rax,1)
  406cc8:	44 89 f8             	mov    %r15d,%eax
  406ccb:	85 c0                	test   %eax,%eax
  406ccd:	78 3f                	js     406d0e <_ZN6GetOpt9GetOpt_pp6_parseERKSt6vectorISsSaISsEE+0x1de>
  406ccf:	4c 89 f5             	mov    %r14,%rbp
  406cd2:	4d 8b 76 10          	mov    0x10(%r14),%r14
  406cd6:	4d 85 f6             	test   %r14,%r14
  406cd9:	74 3c                	je     406d17 <_ZN6GetOpt9GetOpt_pp6_parseERKSt6vectorISsSaISsEE+0x1e7>
  406cdb:	49 8b 7e 20          	mov    0x20(%r14),%rdi
  406cdf:	48 89 de             	mov    %rbx,%rsi
  406ce2:	4c 8b 7f e8          	mov    -0x18(%rdi),%r15
  406ce6:	4d 39 fc             	cmp    %r15,%r12
  406ce9:	4c 89 fa             	mov    %r15,%rdx
  406cec:	49 0f 46 d4          	cmovbe %r12,%rdx
  406cf0:	e8 ab bb ff ff       	callq  4028a0 <memcmp@plt>
  406cf5:	85 c0                	test   %eax,%eax
  406cf7:	75 d2                	jne    406ccb <_ZN6GetOpt9GetOpt_pp6_parseERKSt6vectorISsSaISsEE+0x19b>
  406cf9:	4d 29 e7             	sub    %r12,%r15
  406cfc:	49 81 ff ff ff ff 7f 	cmp    $0x7fffffff,%r15
  406d03:	7f ca                	jg     406ccf <_ZN6GetOpt9GetOpt_pp6_parseERKSt6vectorISsSaISsEE+0x19f>
  406d05:	49 81 ff 00 00 00 80 	cmp    $0xffffffff80000000,%r15
  406d0c:	7d ba                	jge    406cc8 <_ZN6GetOpt9GetOpt_pp6_parseERKSt6vectorISsSaISsEE+0x198>
  406d0e:	4d 8b 76 18          	mov    0x18(%r14),%r14
  406d12:	4d 85 f6             	test   %r14,%r14
  406d15:	75 c4                	jne    406cdb <_ZN6GetOpt9GetOpt_pp6_parseERKSt6vectorISsSaISsEE+0x1ab>
  406d17:	48 89 eb             	mov    %rbp,%rbx
  406d1a:	48 3b 5c 24 08       	cmp    0x8(%rsp),%rbx
  406d1f:	48 8b 6c 24 20       	mov    0x20(%rsp),%rbp
  406d24:	0f 84 6c 0e 00 00    	je     407b96 <_ZN6GetOpt9GetOpt_pp6_parseERKSt6vectorISsSaISsEE+0x1066>
  406d2a:	48 8b 73 20          	mov    0x20(%rbx),%rsi
  406d2e:	48 8b 7c 24 48       	mov    0x48(%rsp),%rdi
  406d33:	4c 8b 76 e8          	mov    -0x18(%rsi),%r14
  406d37:	4d 39 f4             	cmp    %r14,%r12
  406d3a:	4c 89 f2             	mov    %r14,%rdx
  406d3d:	49 0f 46 d4          	cmovbe %r12,%rdx
  406d41:	e8 5a bb ff ff       	callq  4028a0 <memcmp@plt>
  406d46:	85 c0                	test   %eax,%eax
  406d48:	75 1e                	jne    406d68 <_ZN6GetOpt9GetOpt_pp6_parseERKSt6vectorISsSaISsEE+0x238>
  406d4a:	4c 89 e1             	mov    %r12,%rcx
  406d4d:	4c 29 f1             	sub    %r14,%rcx
  406d50:	48 81 f9 ff ff ff 7f 	cmp    $0x7fffffff,%rcx
  406d57:	7f 17                	jg     406d70 <_ZN6GetOpt9GetOpt_pp6_parseERKSt6vectorISsSaISsEE+0x240>
  406d59:	48 81 f9 00 00 00 80 	cmp    $0xffffffff80000000,%rcx
  406d60:	0f 8c 30 0e 00 00    	jl     407b96 <_ZN6GetOpt9GetOpt_pp6_parseERKSt6vectorISsSaISsEE+0x1066>
  406d66:	89 c8                	mov    %ecx,%eax
  406d68:	85 c0                	test   %eax,%eax
  406d6a:	0f 88 26 0e 00 00    	js     407b96 <_ZN6GetOpt9GetOpt_pp6_parseERKSt6vectorISsSaISsEE+0x1066>
  406d70:	49 8b 45 00          	mov    0x0(%r13),%rax
  406d74:	48 83 78 e8 01       	cmpq   $0x1,-0x18(%rax)
  406d79:	0f 86 bd 10 00 00    	jbe    407e3c <_ZN6GetOpt9GetOpt_pp6_parseERKSt6vectorISsSaISsEE+0x130c>
  406d7f:	48 8d 84 24 50 03 00 	lea    0x350(%rsp),%rax
  406d86:	00 
  406d87:	48 c7 c1 ff ff ff ff 	mov    $0xffffffffffffffff,%rcx
  406d8e:	ba 02 00 00 00       	mov    $0x2,%edx
  406d93:	4c 89 ee             	mov    %r13,%rsi
  406d96:	48 89 c7             	mov    %rax,%rdi
  406d99:	49 89 c7             	mov    %rax,%r15
  406d9c:	48 89 44 24 48       	mov    %rax,0x48(%rsp)
  406da1:	e8 5a be ff ff       	callq  402c00 <_ZNSsC1ERKSsmm@plt>
  406da6:	bf 18 00 00 00       	mov    $0x18,%edi
  406dab:	e8 b0 bc ff ff       	callq  402a60 <_Znwm@plt>
  406db0:	48 8d 78 08          	lea    0x8(%rax),%rdi
  406db4:	c7 00 01 00 00 00    	movl   $0x1,(%rax)
  406dba:	4c 89 fe             	mov    %r15,%rsi
  406dbd:	49 89 c4             	mov    %rax,%r12
  406dc0:	e8 4b bb ff ff       	callq  402910 <_ZNSsC1ERKSs@plt>
  406dc5:	48 83 7d 78 00       	cmpq   $0x0,0x78(%rbp)
  406dca:	49 c7 44 24 10 00 00 	movq   $0x0,0x10(%r12)
  406dd1:	00 00 
  406dd3:	0f 84 cf 0e 00 00    	je     407ca8 <_ZN6GetOpt9GetOpt_pp6_parseERKSt6vectorISsSaISsEE+0x1178>
  406dd9:	48 8b 85 80 00 00 00 	mov    0x80(%rbp),%rax
  406de0:	4c 89 60 10          	mov    %r12,0x10(%rax)
  406de4:	4c 89 a5 80 00 00 00 	mov    %r12,0x80(%rbp)
  406deb:	4c 89 63 30          	mov    %r12,0x30(%rbx)
  406def:	48 8b 84 24 50 03 00 	mov    0x350(%rsp),%rax
  406df6:	00 
  406df7:	48 8d 78 e8          	lea    -0x18(%rax),%rdi
  406dfb:	48 81 ff 00 23 61 00 	cmp    $0x612300,%rdi
  406e02:	0f 85 8d 10 00 00    	jne    407e95 <_ZN6GetOpt9GetOpt_pp6_parseERKSt6vectorISsSaISsEE+0x1365>
  406e08:	48 8b 84 24 e0 01 00 	mov    0x1e0(%rsp),%rax
  406e0f:	00 
  406e10:	48 8d 78 e8          	lea    -0x18(%rax),%rdi
  406e14:	48 81 ff 00 23 61 00 	cmp    $0x612300,%rdi
  406e1b:	0f 84 ac 07 00 00    	je     4075cd <_ZN6GetOpt9GetOpt_pp6_parseERKSt6vectorISsSaISsEE+0xa9d>
  406e21:	b9 50 2c 40 00       	mov    $0x402c50,%ecx
  406e26:	48 8d 57 10          	lea    0x10(%rdi),%rdx
  406e2a:	48 85 c9             	test   %rcx,%rcx
  406e2d:	0f 84 bf 10 00 00    	je     407ef2 <_ZN6GetOpt9GetOpt_pp6_parseERKSt6vectorISsSaISsEE+0x13c2>
  406e33:	b8 ff ff ff ff       	mov    $0xffffffff,%eax
  406e38:	f0 0f c1 02          	lock xadd %eax,(%rdx)
  406e3c:	85 c0                	test   %eax,%eax
  406e3e:	0f 8f 89 07 00 00    	jg     4075cd <_ZN6GetOpt9GetOpt_pp6_parseERKSt6vectorISsSaISsEE+0xa9d>
  406e44:	48 8b 74 24 48       	mov    0x48(%rsp),%rsi
  406e49:	e8 72 bb ff ff       	callq  4029c0 <_ZNSs4_Rep10_M_destroyERKSaIcE@plt>
  406e4e:	e9 7a 07 00 00       	jmpq   4075cd <_ZN6GetOpt9GetOpt_pp6_parseERKSt6vectorISsSaISsEE+0xa9d>
  406e53:	0f 1f 44 00 00       	nopl   0x0(%rax,%rax,1)
  406e58:	48 8b 5c 24 40       	mov    0x40(%rsp),%rbx
  406e5d:	48 89 df             	mov    %rbx,%rdi
  406e60:	e8 fb b9 ff ff       	callq  402860 <_ZNSt8ios_baseC2Ev@plt>
  406e65:	4c 8b 3d 04 b9 20 00 	mov    0x20b904(%rip),%r15        # 612770 <_ZTTSt18basic_stringstreamIcSt11char_traitsIcESaIcEE@@GLIBCXX_3.4+0x10>
  406e6c:	c6 84 24 b8 01 00 00 	movb   $0x0,0x1b8(%rsp)
  406e73:	00 
  406e74:	31 f6                	xor    %esi,%esi
  406e76:	48 8b 0d fb b8 20 00 	mov    0x20b8fb(%rip),%rcx        # 612778 <_ZTTSt18basic_stringstreamIcSt11char_traitsIcESaIcEE@@GLIBCXX_3.4+0x18>
  406e7d:	48 c7 84 24 d8 00 00 	movq   $0x6122f0,0xd8(%rsp)
  406e84:	00 f0 22 61 00 
  406e89:	48 c7 84 24 b0 01 00 	movq   $0x0,0x1b0(%rsp)
  406e90:	00 00 00 00 00 
  406e95:	c6 84 24 b9 01 00 00 	movb   $0x0,0x1b9(%rsp)
  406e9c:	00 
  406e9d:	49 8b 47 e8          	mov    -0x18(%r15),%rax
  406ea1:	48 c7 84 24 c0 01 00 	movq   $0x0,0x1c0(%rsp)
  406ea8:	00 00 00 00 00 
  406ead:	48 c7 84 24 c8 01 00 	movq   $0x0,0x1c8(%rsp)
  406eb4:	00 00 00 00 00 
  406eb9:	48 c7 84 24 d0 01 00 	movq   $0x0,0x1d0(%rsp)
  406ec0:	00 00 00 00 00 
  406ec5:	48 c7 84 24 d8 01 00 	movq   $0x0,0x1d8(%rsp)
  406ecc:	00 00 00 00 00 
  406ed1:	4c 89 7c 24 70       	mov    %r15,0x70(%rsp)
  406ed6:	48 89 4c 04 70       	mov    %rcx,0x70(%rsp,%rax,1)
  406edb:	48 c7 44 24 78 00 00 	movq   $0x0,0x78(%rsp)
  406ee2:	00 00 
  406ee4:	48 8d 44 24 70       	lea    0x70(%rsp),%rax
  406ee9:	49 03 47 e8          	add    -0x18(%r15),%rax
  406eed:	48 89 c7             	mov    %rax,%rdi
  406ef0:	e8 8b bc ff ff       	callq  402b80 <_ZNSt9basic_iosIcSt11char_traitsIcEE4initEPSt15basic_streambufIcS1_E@plt>
  406ef5:	48 8b 05 84 b8 20 00 	mov    0x20b884(%rip),%rax        # 612780 <_ZTTSt18basic_stringstreamIcSt11char_traitsIcESaIcEE@@GLIBCXX_3.4+0x20>
  406efc:	31 f6                	xor    %esi,%esi
  406efe:	48 89 84 24 80 00 00 	mov    %rax,0x80(%rsp)
  406f05:	00 
  406f06:	48 8b 40 e8          	mov    -0x18(%rax),%rax
  406f0a:	48 8d bc 04 80 00 00 	lea    0x80(%rsp,%rax,1),%rdi
  406f11:	00 
  406f12:	48 8b 05 6f b8 20 00 	mov    0x20b86f(%rip),%rax        # 612788 <_ZTTSt18basic_stringstreamIcSt11char_traitsIcESaIcEE@@GLIBCXX_3.4+0x28>
  406f19:	48 89 07             	mov    %rax,(%rdi)
  406f1c:	e8 5f bc ff ff       	callq  402b80 <_ZNSt9basic_iosIcSt11char_traitsIcEE4initEPSt15basic_streambufIcS1_E@plt>
  406f21:	48 8b 05 40 b8 20 00 	mov    0x20b840(%rip),%rax        # 612768 <_ZTTSt18basic_stringstreamIcSt11char_traitsIcESaIcEE@@GLIBCXX_3.4+0x8>
  406f28:	48 8b 0d 61 b8 20 00 	mov    0x20b861(%rip),%rcx        # 612790 <_ZTTSt18basic_stringstreamIcSt11char_traitsIcESaIcEE@@GLIBCXX_3.4+0x30>
  406f2f:	48 8d bc 24 c0 00 00 	lea    0xc0(%rsp),%rdi
  406f36:	00 
  406f37:	48 8b 40 e8          	mov    -0x18(%rax),%rax
  406f3b:	48 89 4c 04 70       	mov    %rcx,0x70(%rsp,%rax,1)
  406f40:	48 c7 44 24 70 38 23 	movq   $0x612338,0x70(%rsp)
  406f47:	61 00 
  406f49:	48 c7 84 24 d8 00 00 	movq   $0x612388,0xd8(%rsp)
  406f50:	00 88 23 61 00 
  406f55:	48 c7 84 24 80 00 00 	movq   $0x612360,0x80(%rsp)
  406f5c:	00 60 23 61 00 
  406f61:	48 c7 84 24 88 00 00 	movq   $0x6123b0,0x88(%rsp)
  406f68:	00 b0 23 61 00 
  406f6d:	48 c7 84 24 90 00 00 	movq   $0x0,0x90(%rsp)
  406f74:	00 00 00 00 00 
  406f79:	48 c7 84 24 98 00 00 	movq   $0x0,0x98(%rsp)
  406f80:	00 00 00 00 00 
  406f85:	48 c7 84 24 a0 00 00 	movq   $0x0,0xa0(%rsp)
  406f8c:	00 00 00 00 00 
  406f91:	48 c7 84 24 a8 00 00 	movq   $0x0,0xa8(%rsp)
  406f98:	00 00 00 00 00 
  406f9d:	48 c7 84 24 b0 00 00 	movq   $0x0,0xb0(%rsp)
  406fa4:	00 00 00 00 00 
  406fa9:	48 c7 84 24 b8 00 00 	movq   $0x0,0xb8(%rsp)
  406fb0:	00 00 00 00 00 
  406fb5:	e8 86 bd ff ff       	callq  402d40 <_ZNSt6localeC1Ev@plt>
  406fba:	48 8d 44 24 70       	lea    0x70(%rsp),%rax
  406fbf:	48 89 df             	mov    %rbx,%rdi
  406fc2:	48 c7 84 24 88 00 00 	movq   $0x612670,0x88(%rsp)
  406fc9:	00 70 26 61 00 
  406fce:	c7 84 24 c8 00 00 00 	movl   $0x18,0xc8(%rsp)
  406fd5:	18 00 00 00 
  406fd9:	48 c7 84 24 d0 00 00 	movq   $0x612318,0xd0(%rsp)
  406fe0:	00 18 23 61 00 
  406fe5:	48 8d 70 18          	lea    0x18(%rax),%rsi
  406fe9:	e8 92 bb ff ff       	callq  402b80 <_ZNSt9basic_iosIcSt11char_traitsIcEE4initEPSt15basic_streambufIcS1_E@plt>
  406fee:	4c 8b 64 24 38       	mov    0x38(%rsp),%r12
  406ff3:	8b 9c 24 f0 00 00 00 	mov    0xf0(%rsp),%ebx
  406ffa:	4c 89 e7             	mov    %r12,%rdi
  406ffd:	e8 5e b8 ff ff       	callq  402860 <_ZNSt8ios_baseC2Ev@plt>
  407002:	c6 84 24 28 03 00 00 	movb   $0x0,0x328(%rsp)
  407009:	00 
  40700a:	48 8b 0d 67 b7 20 00 	mov    0x20b767(%rip),%rcx        # 612778 <_ZTTSt18basic_stringstreamIcSt11char_traitsIcESaIcEE@@GLIBCXX_3.4+0x18>
  407011:	31 f6                	xor    %esi,%esi
  407013:	49 8b 47 e8          	mov    -0x18(%r15),%rax
  407017:	48 c7 84 24 48 02 00 	movq   $0x6122f0,0x248(%rsp)
  40701e:	00 f0 22 61 00 
  407023:	48 c7 84 24 20 03 00 	movq   $0x0,0x320(%rsp)
  40702a:	00 00 00 00 00 
  40702f:	c6 84 24 29 03 00 00 	movb   $0x0,0x329(%rsp)
  407036:	00 
  407037:	48 c7 84 24 30 03 00 	movq   $0x0,0x330(%rsp)
  40703e:	00 00 00 00 00 
  407043:	48 c7 84 24 38 03 00 	movq   $0x0,0x338(%rsp)
  40704a:	00 00 00 00 00 
  40704f:	48 c7 84 24 40 03 00 	movq   $0x0,0x340(%rsp)
  407056:	00 00 00 00 00 
  40705b:	48 c7 84 24 48 03 00 	movq   $0x0,0x348(%rsp)
  407062:	00 00 00 00 00 
  407067:	4c 89 bc 24 e0 01 00 	mov    %r15,0x1e0(%rsp)
  40706e:	00 
  40706f:	48 89 8c 04 e0 01 00 	mov    %rcx,0x1e0(%rsp,%rax,1)
  407076:	00 
  407077:	48 8d 84 24 e0 01 00 	lea    0x1e0(%rsp),%rax
  40707e:	00 
  40707f:	48 c7 84 24 e8 01 00 	movq   $0x0,0x1e8(%rsp)
  407086:	00 00 00 00 00 
  40708b:	49 03 47 e8          	add    -0x18(%r15),%rax
  40708f:	48 89 c7             	mov    %rax,%rdi
  407092:	e8 e9 ba ff ff       	callq  402b80 <_ZNSt9basic_iosIcSt11char_traitsIcEE4initEPSt15basic_streambufIcS1_E@plt>
  407097:	48 8b 05 e2 b6 20 00 	mov    0x20b6e2(%rip),%rax        # 612780 <_ZTTSt18basic_stringstreamIcSt11char_traitsIcESaIcEE@@GLIBCXX_3.4+0x20>
  40709e:	31 f6                	xor    %esi,%esi
  4070a0:	48 89 84 24 f0 01 00 	mov    %rax,0x1f0(%rsp)
  4070a7:	00 
  4070a8:	48 8b 40 e8          	mov    -0x18(%rax),%rax
  4070ac:	48 8d bc 04 f0 01 00 	lea    0x1f0(%rsp,%rax,1),%rdi
  4070b3:	00 
  4070b4:	48 8b 05 cd b6 20 00 	mov    0x20b6cd(%rip),%rax        # 612788 <_ZTTSt18basic_stringstreamIcSt11char_traitsIcESaIcEE@@GLIBCXX_3.4+0x28>
  4070bb:	48 89 07             	mov    %rax,(%rdi)
  4070be:	e8 bd ba ff ff       	callq  402b80 <_ZNSt9basic_iosIcSt11char_traitsIcEE4initEPSt15basic_streambufIcS1_E@plt>
  4070c3:	48 8b 05 9e b6 20 00 	mov    0x20b69e(%rip),%rax        # 612768 <_ZTTSt18basic_stringstreamIcSt11char_traitsIcESaIcEE@@GLIBCXX_3.4+0x8>
  4070ca:	48 8b 0d bf b6 20 00 	mov    0x20b6bf(%rip),%rcx        # 612790 <_ZTTSt18basic_stringstreamIcSt11char_traitsIcESaIcEE@@GLIBCXX_3.4+0x30>
  4070d1:	48 8d bc 24 30 02 00 	lea    0x230(%rsp),%rdi
  4070d8:	00 
  4070d9:	48 8b 40 e8          	mov    -0x18(%rax),%rax
  4070dd:	48 89 8c 04 e0 01 00 	mov    %rcx,0x1e0(%rsp,%rax,1)
  4070e4:	00 
  4070e5:	48 c7 84 24 e0 01 00 	movq   $0x612338,0x1e0(%rsp)
  4070ec:	00 38 23 61 00 
  4070f1:	48 c7 84 24 48 02 00 	movq   $0x612388,0x248(%rsp)
  4070f8:	00 88 23 61 00 
  4070fd:	48 c7 84 24 f0 01 00 	movq   $0x612360,0x1f0(%rsp)
  407104:	00 60 23 61 00 
  407109:	48 c7 84 24 f8 01 00 	movq   $0x6123b0,0x1f8(%rsp)
  407110:	00 b0 23 61 00 
  407115:	48 c7 84 24 00 02 00 	movq   $0x0,0x200(%rsp)
  40711c:	00 00 00 00 00 
  407121:	48 c7 84 24 08 02 00 	movq   $0x0,0x208(%rsp)
  407128:	00 00 00 00 00 
  40712d:	48 c7 84 24 10 02 00 	movq   $0x0,0x210(%rsp)
  407134:	00 00 00 00 00 
  407139:	48 c7 84 24 18 02 00 	movq   $0x0,0x218(%rsp)
  407140:	00 00 00 00 00 
  407145:	48 c7 84 24 20 02 00 	movq   $0x0,0x220(%rsp)
  40714c:	00 00 00 00 00 
  407151:	48 c7 84 24 28 02 00 	movq   $0x0,0x228(%rsp)
  407158:	00 00 00 00 00 
  40715d:	e8 de bb ff ff       	callq  402d40 <_ZNSt6localeC1Ev@plt>
  407162:	48 8d 84 24 e0 01 00 	lea    0x1e0(%rsp),%rax
  407169:	00 
  40716a:	4c 89 e7             	mov    %r12,%rdi
  40716d:	48 c7 84 24 f8 01 00 	movq   $0x612670,0x1f8(%rsp)
  407174:	00 70 26 61 00 
  407179:	c7 84 24 38 02 00 00 	movl   $0x18,0x238(%rsp)
  407180:	18 00 00 00 
  407184:	48 c7 84 24 40 02 00 	movq   $0x612318,0x240(%rsp)
  40718b:	00 18 23 61 00 
  407190:	48 8d 70 18          	lea    0x18(%rax),%rsi
  407194:	e8 e7 b9 ff ff       	callq  402b80 <_ZNSt9basic_iosIcSt11char_traitsIcEE4initEPSt15basic_streambufIcS1_E@plt>
  407199:	48 8b 7c 24 38       	mov    0x38(%rsp),%rdi
  40719e:	31 f6                	xor    %esi,%esi
  4071a0:	e8 cb ba ff ff       	callq  402c70 <_ZNSt9basic_iosIcSt11char_traitsIcEE5clearESt12_Ios_Iostate@plt>
  4071a5:	49 8b 75 00          	mov    0x0(%r13),%rsi
  4071a9:	48 8d 84 24 e0 01 00 	lea    0x1e0(%rsp),%rax
  4071b0:	00 
  4071b1:	89 9c 24 60 02 00 00 	mov    %ebx,0x260(%rsp)
  4071b8:	48 8d 78 10          	lea    0x10(%rax),%rdi
  4071bc:	48 8b 56 e8          	mov    -0x18(%rsi),%rdx
  4071c0:	e8 1b b9 ff ff       	callq  402ae0 <_ZSt16__ostream_insertIcSt11char_traitsIcEERSt13basic_ostreamIT_T0_ES6_PKS3_l@plt>
  4071c5:	48 8d 74 24 58       	lea    0x58(%rsp),%rsi
  4071ca:	48 8d bc 24 e0 01 00 	lea    0x1e0(%rsp),%rdi
  4071d1:	00 
  4071d2:	e8 59 b7 ff ff       	callq  402930 <_ZNSirsERi@plt>
  4071d7:	8b 84 24 68 02 00 00 	mov    0x268(%rsp),%eax
  4071de:	bb 03 00 00 00       	mov    $0x3,%ebx
  4071e3:	a8 05                	test   $0x5,%al
  4071e5:	75 0b                	jne    4071f2 <_ZN6GetOpt9GetOpt_pp6_parseERKSt6vectorISsSaISsEE+0x6c2>
  4071e7:	83 e0 02             	and    $0x2,%eax
  4071ea:	83 f8 01             	cmp    $0x1,%eax
  4071ed:	19 db                	sbb    %ebx,%ebx
  4071ef:	83 e3 03             	and    $0x3,%ebx
  4071f2:	48 8b 84 24 40 02 00 	mov    0x240(%rsp),%rax
  4071f9:	00 
  4071fa:	48 c7 84 24 e0 01 00 	movq   $0x612338,0x1e0(%rsp)
  407201:	00 38 23 61 00 
  407206:	48 c7 84 24 48 02 00 	movq   $0x612388,0x248(%rsp)
  40720d:	00 88 23 61 00 
  407212:	48 c7 84 24 f0 01 00 	movq   $0x612360,0x1f0(%rsp)
  407219:	00 60 23 61 00 
  40721e:	48 c7 84 24 f8 01 00 	movq   $0x612670,0x1f8(%rsp)
  407225:	00 70 26 61 00 
  40722a:	48 8d 78 e8          	lea    -0x18(%rax),%rdi
  40722e:	48 81 ff 00 23 61 00 	cmp    $0x612300,%rdi
  407235:	0f 85 16 0e 00 00    	jne    408051 <_ZN6GetOpt9GetOpt_pp6_parseERKSt6vectorISsSaISsEE+0x1521>
  40723b:	48 8d bc 24 30 02 00 	lea    0x230(%rsp),%rdi
  407242:	00 
  407243:	48 c7 84 24 f8 01 00 	movq   $0x6123b0,0x1f8(%rsp)
  40724a:	00 b0 23 61 00 
  40724f:	e8 3c b9 ff ff       	callq  402b90 <_ZNSt6localeD1Ev@plt>
  407254:	48 8b 05 0d b5 20 00 	mov    0x20b50d(%rip),%rax        # 612768 <_ZTTSt18basic_stringstreamIcSt11char_traitsIcESaIcEE@@GLIBCXX_3.4+0x8>
  40725b:	48 8b 0d 2e b5 20 00 	mov    0x20b52e(%rip),%rcx        # 612790 <_ZTTSt18basic_stringstreamIcSt11char_traitsIcESaIcEE@@GLIBCXX_3.4+0x30>
  407262:	48 8b 7c 24 38       	mov    0x38(%rsp),%rdi
  407267:	48 8b 40 e8          	mov    -0x18(%rax),%rax
  40726b:	48 89 8c 04 e0 01 00 	mov    %rcx,0x1e0(%rsp,%rax,1)
  407272:	00 
  407273:	48 8b 05 06 b5 20 00 	mov    0x20b506(%rip),%rax        # 612780 <_ZTTSt18basic_stringstreamIcSt11char_traitsIcESaIcEE@@GLIBCXX_3.4+0x20>
  40727a:	48 8b 0d 07 b5 20 00 	mov    0x20b507(%rip),%rcx        # 612788 <_ZTTSt18basic_stringstreamIcSt11char_traitsIcESaIcEE@@GLIBCXX_3.4+0x28>
  407281:	48 89 84 24 f0 01 00 	mov    %rax,0x1f0(%rsp)
  407288:	00 
  407289:	48 8b 40 e8          	mov    -0x18(%rax),%rax
  40728d:	48 89 8c 04 f0 01 00 	mov    %rcx,0x1f0(%rsp,%rax,1)
  407294:	00 
  407295:	49 8b 47 e8          	mov    -0x18(%r15),%rax
  407299:	48 8b 0d d8 b4 20 00 	mov    0x20b4d8(%rip),%rcx        # 612778 <_ZTTSt18basic_stringstreamIcSt11char_traitsIcESaIcEE@@GLIBCXX_3.4+0x18>
  4072a0:	4c 89 bc 24 e0 01 00 	mov    %r15,0x1e0(%rsp)
  4072a7:	00 
  4072a8:	48 89 8c 04 e0 01 00 	mov    %rcx,0x1e0(%rsp,%rax,1)
  4072af:	00 
  4072b0:	48 c7 84 24 e8 01 00 	movq   $0x0,0x1e8(%rsp)
  4072b7:	00 00 00 00 00 
  4072bc:	48 c7 84 24 48 02 00 	movq   $0x6122f0,0x248(%rsp)
  4072c3:	00 f0 22 61 00 
  4072c8:	e8 a3 b5 ff ff       	callq  402870 <_ZNSt8ios_baseD2Ev@plt>
  4072cd:	85 db                	test   %ebx,%ebx
  4072cf:	0f 85 03 03 00 00    	jne    4075d8 <_ZN6GetOpt9GetOpt_pp6_parseERKSt6vectorISsSaISsEE+0xaa8>
  4072d5:	4d 8b 65 00          	mov    0x0(%r13),%r12
  4072d9:	49 83 7c 24 e8 02    	cmpq   $0x2,-0x18(%r12)
  4072df:	0f 86 9d 07 00 00    	jbe    407a82 <_ZN6GetOpt9GetOpt_pp6_parseERKSt6vectorISsSaISsEE+0xf52>
  4072e5:	41 80 fe 01          	cmp    $0x1,%r14b
  4072e9:	bf 18 00 00 00       	mov    $0x18,%edi
  4072ee:	45 19 e4             	sbb    %r12d,%r12d
  4072f1:	41 83 e4 fc          	and    $0xfffffffc,%r12d
  4072f5:	41 83 c4 06          	add    $0x6,%r12d
  4072f9:	e8 62 b7 ff ff       	callq  402a60 <_Znwm@plt>
  4072fe:	48 8d 78 08          	lea    0x8(%rax),%rdi
  407302:	44 89 20             	mov    %r12d,(%rax)
  407305:	4c 89 ee             	mov    %r13,%rsi
  407308:	48 89 c3             	mov    %rax,%rbx
  40730b:	e8 00 b6 ff ff       	callq  402910 <_ZNSsC1ERKSs@plt>
  407310:	48 c7 43 10 00 00 00 	movq   $0x0,0x10(%rbx)
  407317:	00 
  407318:	48 83 7d 78 00       	cmpq   $0x0,0x78(%rbp)
  40731d:	0f 84 51 09 00 00    	je     407c74 <_ZN6GetOpt9GetOpt_pp6_parseERKSt6vectorISsSaISsEE+0x1144>
  407323:	48 8b 85 80 00 00 00 	mov    0x80(%rbp),%rax
  40732a:	48 89 58 10          	mov    %rbx,0x10(%rax)
  40732e:	48 89 9d 80 00 00 00 	mov    %rbx,0x80(%rbp)
  407335:	48 8b 84 24 d0 00 00 	mov    0xd0(%rsp),%rax
  40733c:	00 
  40733d:	48 c7 44 24 70 38 23 	movq   $0x612338,0x70(%rsp)
  407344:	61 00 
  407346:	48 c7 84 24 d8 00 00 	movq   $0x612388,0xd8(%rsp)
  40734d:	00 88 23 61 00 
  407352:	48 c7 84 24 80 00 00 	movq   $0x612360,0x80(%rsp)
  407359:	00 60 23 61 00 
  40735e:	48 c7 84 24 88 00 00 	movq   $0x612670,0x88(%rsp)
  407365:	00 70 26 61 00 
  40736a:	48 8d 78 e8          	lea    -0x18(%rax),%rdi
  40736e:	48 81 ff 00 23 61 00 	cmp    $0x612300,%rdi
  407375:	0f 85 3c 0a 00 00    	jne    407db7 <_ZN6GetOpt9GetOpt_pp6_parseERKSt6vectorISsSaISsEE+0x1287>
  40737b:	48 8d bc 24 c0 00 00 	lea    0xc0(%rsp),%rdi
  407382:	00 
  407383:	48 c7 84 24 88 00 00 	movq   $0x6123b0,0x88(%rsp)
  40738a:	00 b0 23 61 00 
  40738f:	41 be 01 00 00 00    	mov    $0x1,%r14d
  407395:	e8 f6 b7 ff ff       	callq  402b90 <_ZNSt6localeD1Ev@plt>
  40739a:	48 8b 05 c7 b3 20 00 	mov    0x20b3c7(%rip),%rax        # 612768 <_ZTTSt18basic_stringstreamIcSt11char_traitsIcESaIcEE@@GLIBCXX_3.4+0x8>
  4073a1:	48 8b 0d e8 b3 20 00 	mov    0x20b3e8(%rip),%rcx        # 612790 <_ZTTSt18basic_stringstreamIcSt11char_traitsIcESaIcEE@@GLIBCXX_3.4+0x30>
  4073a8:	48 8b 7c 24 40       	mov    0x40(%rsp),%rdi
  4073ad:	48 8b 40 e8          	mov    -0x18(%rax),%rax
  4073b1:	48 89 4c 04 70       	mov    %rcx,0x70(%rsp,%rax,1)
  4073b6:	48 8b 05 c3 b3 20 00 	mov    0x20b3c3(%rip),%rax        # 612780 <_ZTTSt18basic_stringstreamIcSt11char_traitsIcESaIcEE@@GLIBCXX_3.4+0x20>
  4073bd:	48 8b 0d c4 b3 20 00 	mov    0x20b3c4(%rip),%rcx        # 612788 <_ZTTSt18basic_stringstreamIcSt11char_traitsIcESaIcEE@@GLIBCXX_3.4+0x28>
  4073c4:	48 89 84 24 80 00 00 	mov    %rax,0x80(%rsp)
  4073cb:	00 
  4073cc:	48 8b 40 e8          	mov    -0x18(%rax),%rax
  4073d0:	48 89 8c 04 80 00 00 	mov    %rcx,0x80(%rsp,%rax,1)
  4073d7:	00 
  4073d8:	49 8b 47 e8          	mov    -0x18(%r15),%rax
  4073dc:	48 8b 0d 95 b3 20 00 	mov    0x20b395(%rip),%rcx        # 612778 <_ZTTSt18basic_stringstreamIcSt11char_traitsIcESaIcEE@@GLIBCXX_3.4+0x18>
  4073e3:	4c 89 7c 24 70       	mov    %r15,0x70(%rsp)
  4073e8:	48 89 4c 04 70       	mov    %rcx,0x70(%rsp,%rax,1)
  4073ed:	48 c7 44 24 78 00 00 	movq   $0x0,0x78(%rsp)
  4073f4:	00 00 
  4073f6:	48 c7 84 24 d8 00 00 	movq   $0x6122f0,0xd8(%rsp)
  4073fd:	00 f0 22 61 00 
  407402:	e8 69 b4 ff ff       	callq  402870 <_ZNSt8ios_baseD2Ev@plt>
  407407:	e9 04 f8 ff ff       	jmpq   406c10 <_ZN6GetOpt9GetOpt_pp6_parseERKSt6vectorISsSaISsEE+0xe0>
  40740c:	0f 1f 40 00          	nopl   0x0(%rax)
  407410:	49 83 7c 24 e8 01    	cmpq   $0x1,-0x18(%r12)
  407416:	0f 86 a4 f7 ff ff    	jbe    406bc0 <_ZN6GetOpt9GetOpt_pp6_parseERKSt6vectorISsSaISsEE+0x90>
  40741c:	48 8d bc 24 50 03 00 	lea    0x350(%rsp),%rdi
  407423:	00 
  407424:	4c 89 ee             	mov    %r13,%rsi
  407427:	48 c7 c1 ff ff ff ff 	mov    $0xffffffffffffffff,%rcx
  40742e:	ba 01 00 00 00       	mov    $0x1,%edx
  407433:	e8 c8 b7 ff ff       	callq  402c00 <_ZNSsC1ERKSsmm@plt>
  407438:	48 8d b4 24 50 03 00 	lea    0x350(%rsp),%rsi
  40743f:	00 
  407440:	48 89 ef             	mov    %rbp,%rdi
  407443:	e8 58 0d 00 00       	callq  4081a0 <_ZN6GetOpt9GetOpt_pp15_parse_sub_fileERKSs>
  407448:	48 8b 84 24 50 03 00 	mov    0x350(%rsp),%rax
  40744f:	00 
  407450:	48 8d 78 e8          	lea    -0x18(%rax),%rdi
  407454:	48 81 ff 00 23 61 00 	cmp    $0x612300,%rdi
  40745b:	0f 84 af f7 ff ff    	je     406c10 <_ZN6GetOpt9GetOpt_pp6_parseERKSt6vectorISsSaISsEE+0xe0>
  407461:	b9 50 2c 40 00       	mov    $0x402c50,%ecx
  407466:	48 8d 57 10          	lea    0x10(%rdi),%rdx
  40746a:	48 85 c9             	test   %rcx,%rcx
  40746d:	0f 84 a6 09 00 00    	je     407e19 <_ZN6GetOpt9GetOpt_pp6_parseERKSt6vectorISsSaISsEE+0x12e9>
  407473:	b8 ff ff ff ff       	mov    $0xffffffff,%eax
  407478:	f0 0f c1 02          	lock xadd %eax,(%rdx)
  40747c:	85 c0                	test   %eax,%eax
  40747e:	0f 8f 8c f7 ff ff    	jg     406c10 <_ZN6GetOpt9GetOpt_pp6_parseERKSt6vectorISsSaISsEE+0xe0>
  407484:	48 8d b4 24 e0 01 00 	lea    0x1e0(%rsp),%rsi
  40748b:	00 
  40748c:	e8 2f b5 ff ff       	callq  4029c0 <_ZNSs4_Rep10_M_destroyERKSaIcE@plt>
  407491:	e9 7a f7 ff ff       	jmpq   406c10 <_ZN6GetOpt9GetOpt_pp6_parseERKSt6vectorISsSaISsEE+0xe0>
  407496:	66 2e 0f 1f 84 00 00 	nopw   %cs:0x0(%rax,%rax,1)
  40749d:	00 00 00 
  4074a0:	4c 8b 75 40          	mov    0x40(%rbp),%r14
  4074a4:	48 8d 45 38          	lea    0x38(%rbp),%rax
  4074a8:	48 89 44 24 08       	mov    %rax,0x8(%rsp)
  4074ad:	48 89 c3             	mov    %rax,%rbx
  4074b0:	4d 85 f6             	test   %r14,%r14
  4074b3:	75 28                	jne    4074dd <_ZN6GetOpt9GetOpt_pp6_parseERKSt6vectorISsSaISsEE+0x9ad>
  4074b5:	e9 9e 00 00 00       	jmpq   407558 <_ZN6GetOpt9GetOpt_pp6_parseERKSt6vectorISsSaISsEE+0xa28>
  4074ba:	66 0f 1f 44 00 00    	nopw   0x0(%rax,%rax,1)
  4074c0:	49 8d 47 fe          	lea    -0x2(%r15),%rax
  4074c4:	48 3d ff ff ff 7f    	cmp    $0x7fffffff,%rax
  4074ca:	7f 36                	jg     407502 <_ZN6GetOpt9GetOpt_pp6_parseERKSt6vectorISsSaISsEE+0x9d2>
  4074cc:	48 3d 00 00 00 80    	cmp    $0xffffffff80000000,%rax
  4074d2:	7d 2a                	jge    4074fe <_ZN6GetOpt9GetOpt_pp6_parseERKSt6vectorISsSaISsEE+0x9ce>
  4074d4:	4d 8b 76 18          	mov    0x18(%r14),%r14
  4074d8:	4d 85 f6             	test   %r14,%r14
  4074db:	74 31                	je     40750e <_ZN6GetOpt9GetOpt_pp6_parseERKSt6vectorISsSaISsEE+0x9de>
  4074dd:	49 8b 7e 20          	mov    0x20(%r14),%rdi
  4074e1:	ba 02 00 00 00       	mov    $0x2,%edx
  4074e6:	4c 89 e6             	mov    %r12,%rsi
  4074e9:	4c 8b 7f e8          	mov    -0x18(%rdi),%r15
  4074ed:	49 83 ff 02          	cmp    $0x2,%r15
  4074f1:	49 0f 46 d7          	cmovbe %r15,%rdx
  4074f5:	e8 a6 b3 ff ff       	callq  4028a0 <memcmp@plt>
  4074fa:	85 c0                	test   %eax,%eax
  4074fc:	74 c2                	je     4074c0 <_ZN6GetOpt9GetOpt_pp6_parseERKSt6vectorISsSaISsEE+0x990>
  4074fe:	85 c0                	test   %eax,%eax
  407500:	78 d2                	js     4074d4 <_ZN6GetOpt9GetOpt_pp6_parseERKSt6vectorISsSaISsEE+0x9a4>
  407502:	4c 89 f3             	mov    %r14,%rbx
  407505:	4d 8b 76 10          	mov    0x10(%r14),%r14
  407509:	4d 85 f6             	test   %r14,%r14
  40750c:	75 cf                	jne    4074dd <_ZN6GetOpt9GetOpt_pp6_parseERKSt6vectorISsSaISsEE+0x9ad>
  40750e:	48 3b 5c 24 08       	cmp    0x8(%rsp),%rbx
  407513:	74 43                	je     407558 <_ZN6GetOpt9GetOpt_pp6_parseERKSt6vectorISsSaISsEE+0xa28>
  407515:	48 8b 73 20          	mov    0x20(%rbx),%rsi
  407519:	41 bf 02 00 00 00    	mov    $0x2,%r15d
  40751f:	4c 89 e7             	mov    %r12,%rdi
  407522:	4c 89 fa             	mov    %r15,%rdx
  407525:	4c 8b 76 e8          	mov    -0x18(%rsi),%r14
  407529:	49 83 fe 02          	cmp    $0x2,%r14
  40752d:	49 0f 46 d6          	cmovbe %r14,%rdx
  407531:	e8 6a b3 ff ff       	callq  4028a0 <memcmp@plt>
  407536:	85 c0                	test   %eax,%eax
  407538:	0f 85 37 05 00 00    	jne    407a75 <_ZN6GetOpt9GetOpt_pp6_parseERKSt6vectorISsSaISsEE+0xf45>
  40753e:	4c 89 f8             	mov    %r15,%rax
  407541:	4c 29 f0             	sub    %r14,%rax
  407544:	48 3d ff ff ff 7f    	cmp    $0x7fffffff,%rax
  40754a:	7f 38                	jg     407584 <_ZN6GetOpt9GetOpt_pp6_parseERKSt6vectorISsSaISsEE+0xa54>
  40754c:	48 3d 00 00 00 80    	cmp    $0xffffffff80000000,%rax
  407552:	0f 8d 1d 05 00 00    	jge    407a75 <_ZN6GetOpt9GetOpt_pp6_parseERKSt6vectorISsSaISsEE+0xf45>
  407558:	48 8d 7d 30          	lea    0x30(%rbp),%rdi
  40755c:	4c 8d 84 24 e0 01 00 	lea    0x1e0(%rsp),%r8
  407563:	00 
  407564:	48 8d 8c 24 50 03 00 	lea    0x350(%rsp),%rcx
  40756b:	00 
  40756c:	48 89 de             	mov    %rbx,%rsi
  40756f:	ba 08 f5 40 00       	mov    $0x40f508,%edx
  407574:	4c 89 ac 24 50 03 00 	mov    %r13,0x350(%rsp)
  40757b:	00 
  40757c:	e8 6f f1 ff ff       	callq  4066f0 <_ZNSt8_Rb_treeISsSt4pairIKSsN6GetOpt10OptionDataEESt10_Select1stIS4_ESt4lessISsESaIS4_EE22_M_emplace_hint_uniqueIIRKSt21piecewise_construct_tSt5tupleIIRS1_EESF_IIEEEEESt17_Rb_tree_iteratorIS4_ESt23_Rb_tree_const_iteratorIS4_EDpOT_>
  407581:	48 89 c3             	mov    %rax,%rbx
  407584:	bf 18 00 00 00       	mov    $0x18,%edi
  407589:	e8 d2 b4 ff ff       	callq  402a60 <_Znwm@plt>
  40758e:	48 8d 78 08          	lea    0x8(%rax),%rdi
  407592:	c7 00 02 00 00 00    	movl   $0x2,(%rax)
  407598:	4c 89 ee             	mov    %r13,%rsi
  40759b:	49 89 c4             	mov    %rax,%r12
  40759e:	e8 6d b3 ff ff       	callq  402910 <_ZNSsC1ERKSs@plt>
  4075a3:	48 83 7d 78 00       	cmpq   $0x0,0x78(%rbp)
  4075a8:	49 c7 44 24 10 00 00 	movq   $0x0,0x10(%r12)
  4075af:	00 00 
  4075b1:	0f 84 e8 06 00 00    	je     407c9f <_ZN6GetOpt9GetOpt_pp6_parseERKSt6vectorISsSaISsEE+0x116f>
  4075b7:	48 8b 85 80 00 00 00 	mov    0x80(%rbp),%rax
  4075be:	4c 89 60 10          	mov    %r12,0x10(%rax)
  4075c2:	4c 89 a5 80 00 00 00 	mov    %r12,0x80(%rbp)
  4075c9:	4c 89 63 30          	mov    %r12,0x30(%rbx)
  4075cd:	41 be 01 00 00 00    	mov    $0x1,%r14d
  4075d3:	e9 38 f6 ff ff       	jmpq   406c10 <_ZN6GetOpt9GetOpt_pp6_parseERKSt6vectorISsSaISsEE+0xe0>
  4075d8:	48 8d 84 24 50 03 00 	lea    0x350(%rsp),%rax
  4075df:	00 
  4075e0:	48 8d bc 24 b8 03 00 	lea    0x3b8(%rsp),%rdi
  4075e7:	00 
  4075e8:	8b 9c 24 f0 00 00 00 	mov    0xf0(%rsp),%ebx
  4075ef:	49 89 c4             	mov    %rax,%r12
  4075f2:	48 89 44 24 48       	mov    %rax,0x48(%rsp)
  4075f7:	e8 64 b2 ff ff       	callq  402860 <_ZNSt8ios_baseC2Ev@plt>
  4075fc:	c6 84 24 98 04 00 00 	movb   $0x0,0x498(%rsp)
  407603:	00 
  407604:	48 8b 0d 6d b1 20 00 	mov    0x20b16d(%rip),%rcx        # 612778 <_ZTTSt18basic_stringstreamIcSt11char_traitsIcESaIcEE@@GLIBCXX_3.4+0x18>
  40760b:	4c 89 e7             	mov    %r12,%rdi
  40760e:	49 8b 47 e8          	mov    -0x18(%r15),%rax
  407612:	48 c7 84 24 b8 03 00 	movq   $0x6122f0,0x3b8(%rsp)
  407619:	00 f0 22 61 00 
  40761e:	31 f6                	xor    %esi,%esi
  407620:	48 c7 84 24 90 04 00 	movq   $0x0,0x490(%rsp)
  407627:	00 00 00 00 00 
  40762c:	c6 84 24 99 04 00 00 	movb   $0x0,0x499(%rsp)
  407633:	00 
  407634:	48 c7 84 24 a0 04 00 	movq   $0x0,0x4a0(%rsp)
  40763b:	00 00 00 00 00 
  407640:	48 c7 84 24 a8 04 00 	movq   $0x0,0x4a8(%rsp)
  407647:	00 00 00 00 00 
  40764c:	48 c7 84 24 b0 04 00 	movq   $0x0,0x4b0(%rsp)
  407653:	00 00 00 00 00 
  407658:	48 c7 84 24 b8 04 00 	movq   $0x0,0x4b8(%rsp)
  40765f:	00 00 00 00 00 
  407664:	4c 89 bc 24 50 03 00 	mov    %r15,0x350(%rsp)
  40766b:	00 
  40766c:	48 89 8c 04 50 03 00 	mov    %rcx,0x350(%rsp,%rax,1)
  407673:	00 
  407674:	48 c7 84 24 58 03 00 	movq   $0x0,0x358(%rsp)
  40767b:	00 00 00 00 00 
  407680:	49 03 7f e8          	add    -0x18(%r15),%rdi
  407684:	e8 f7 b4 ff ff       	callq  402b80 <_ZNSt9basic_iosIcSt11char_traitsIcEE4initEPSt15basic_streambufIcS1_E@plt>
  407689:	48 8b 05 f0 b0 20 00 	mov    0x20b0f0(%rip),%rax        # 612780 <_ZTTSt18basic_stringstreamIcSt11char_traitsIcESaIcEE@@GLIBCXX_3.4+0x20>
  407690:	31 f6                	xor    %esi,%esi
  407692:	48 89 84 24 60 03 00 	mov    %rax,0x360(%rsp)
  407699:	00 
  40769a:	48 8b 40 e8          	mov    -0x18(%rax),%rax
  40769e:	49 8d 7c 04 10       	lea    0x10(%r12,%rax,1),%rdi
  4076a3:	48 8b 05 de b0 20 00 	mov    0x20b0de(%rip),%rax        # 612788 <_ZTTSt18basic_stringstreamIcSt11char_traitsIcESaIcEE@@GLIBCXX_3.4+0x28>
  4076aa:	48 89 07             	mov    %rax,(%rdi)
  4076ad:	e8 ce b4 ff ff       	callq  402b80 <_ZNSt9basic_iosIcSt11char_traitsIcEE4initEPSt15basic_streambufIcS1_E@plt>
  4076b2:	48 8b 05 af b0 20 00 	mov    0x20b0af(%rip),%rax        # 612768 <_ZTTSt18basic_stringstreamIcSt11char_traitsIcESaIcEE@@GLIBCXX_3.4+0x8>
  4076b9:	48 8b 0d d0 b0 20 00 	mov    0x20b0d0(%rip),%rcx        # 612790 <_ZTTSt18basic_stringstreamIcSt11char_traitsIcESaIcEE@@GLIBCXX_3.4+0x30>
  4076c0:	49 8d 7c 24 50       	lea    0x50(%r12),%rdi
  4076c5:	48 8b 40 e8          	mov    -0x18(%rax),%rax
  4076c9:	48 89 8c 04 50 03 00 	mov    %rcx,0x350(%rsp,%rax,1)
  4076d0:	00 
  4076d1:	48 c7 84 24 50 03 00 	movq   $0x612338,0x350(%rsp)
  4076d8:	00 38 23 61 00 
  4076dd:	48 c7 84 24 b8 03 00 	movq   $0x612388,0x3b8(%rsp)
  4076e4:	00 88 23 61 00 
  4076e9:	48 c7 84 24 60 03 00 	movq   $0x612360,0x360(%rsp)
  4076f0:	00 60 23 61 00 
  4076f5:	48 c7 84 24 68 03 00 	movq   $0x6123b0,0x368(%rsp)
  4076fc:	00 b0 23 61 00 
  407701:	48 c7 84 24 70 03 00 	movq   $0x0,0x370(%rsp)
  407708:	00 00 00 00 00 
  40770d:	48 c7 84 24 78 03 00 	movq   $0x0,0x378(%rsp)
  407714:	00 00 00 00 00 
  407719:	48 c7 84 24 80 03 00 	movq   $0x0,0x380(%rsp)
  407720:	00 00 00 00 00 
  407725:	48 c7 84 24 88 03 00 	movq   $0x0,0x388(%rsp)
  40772c:	00 00 00 00 00 
  407731:	48 c7 84 24 90 03 00 	movq   $0x0,0x390(%rsp)
  407738:	00 00 00 00 00 
  40773d:	48 c7 84 24 98 03 00 	movq   $0x0,0x398(%rsp)
  407744:	00 00 00 00 00 
  407749:	e8 f2 b5 ff ff       	callq  402d40 <_ZNSt6localeC1Ev@plt>
  40774e:	49 8d 74 24 18       	lea    0x18(%r12),%rsi
  407753:	49 8d 7c 24 68       	lea    0x68(%r12),%rdi
  407758:	48 c7 84 24 68 03 00 	movq   $0x612670,0x368(%rsp)
  40775f:	00 70 26 61 00 
  407764:	c7 84 24 a8 03 00 00 	movl   $0x18,0x3a8(%rsp)
  40776b:	18 00 00 00 
  40776f:	48 c7 84 24 b0 03 00 	movq   $0x612318,0x3b0(%rsp)
  407776:	00 18 23 61 00 
  40777b:	e8 00 b4 ff ff       	callq  402b80 <_ZNSt9basic_iosIcSt11char_traitsIcEE4initEPSt15basic_streambufIcS1_E@plt>
  407780:	4c 8b 64 24 48       	mov    0x48(%rsp),%r12
  407785:	31 f6                	xor    %esi,%esi
  407787:	49 8d 7c 24 68       	lea    0x68(%r12),%rdi
  40778c:	e8 df b4 ff ff       	callq  402c70 <_ZNSt9basic_iosIcSt11char_traitsIcEE5clearESt12_Ios_Iostate@plt>
  407791:	49 8b 75 00          	mov    0x0(%r13),%rsi
  407795:	49 8d 7c 24 10       	lea    0x10(%r12),%rdi
  40779a:	89 9c 24 d0 03 00 00 	mov    %ebx,0x3d0(%rsp)
  4077a1:	48 8b 56 e8          	mov    -0x18(%rsi),%rdx
  4077a5:	e8 36 b3 ff ff       	callq  402ae0 <_ZSt16__ostream_insertIcSt11char_traitsIcEERSt13basic_ostreamIT_T0_ES6_PKS3_l@plt>
  4077aa:	48 8d 74 24 5c       	lea    0x5c(%rsp),%rsi
  4077af:	4c 89 e7             	mov    %r12,%rdi
  4077b2:	e8 79 b5 ff ff       	callq  402d30 <_ZNSi10_M_extractIfEERSiRT_@plt>
  4077b7:	8b 84 24 d8 03 00 00 	mov    0x3d8(%rsp),%eax
  4077be:	bb 03 00 00 00       	mov    $0x3,%ebx
  4077c3:	a8 05                	test   $0x5,%al
  4077c5:	75 0b                	jne    4077d2 <_ZN6GetOpt9GetOpt_pp6_parseERKSt6vectorISsSaISsEE+0xca2>
  4077c7:	83 e0 02             	and    $0x2,%eax
  4077ca:	83 f8 01             	cmp    $0x1,%eax
  4077cd:	19 db                	sbb    %ebx,%ebx
  4077cf:	83 e3 03             	and    $0x3,%ebx
  4077d2:	48 8b 84 24 b0 03 00 	mov    0x3b0(%rsp),%rax
  4077d9:	00 
  4077da:	48 c7 84 24 50 03 00 	movq   $0x612338,0x350(%rsp)
  4077e1:	00 38 23 61 00 
  4077e6:	48 c7 84 24 b8 03 00 	movq   $0x612388,0x3b8(%rsp)
  4077ed:	00 88 23 61 00 
  4077f2:	48 c7 84 24 60 03 00 	movq   $0x612360,0x360(%rsp)
  4077f9:	00 60 23 61 00 
  4077fe:	48 c7 84 24 68 03 00 	movq   $0x612670,0x368(%rsp)
  407805:	00 70 26 61 00 
  40780a:	48 8d 78 e8          	lea    -0x18(%rax),%rdi
  40780e:	48 81 ff 00 23 61 00 	cmp    $0x612300,%rdi
  407815:	0f 85 67 08 00 00    	jne    408082 <_ZN6GetOpt9GetOpt_pp6_parseERKSt6vectorISsSaISsEE+0x1552>
  40781b:	4c 8b 64 24 48       	mov    0x48(%rsp),%r12
  407820:	48 c7 84 24 68 03 00 	movq   $0x6123b0,0x368(%rsp)
  407827:	00 b0 23 61 00 
  40782c:	49 8d 7c 24 50       	lea    0x50(%r12),%rdi
  407831:	e8 5a b3 ff ff       	callq  402b90 <_ZNSt6localeD1Ev@plt>
  407836:	48 8b 05 2b af 20 00 	mov    0x20af2b(%rip),%rax        # 612768 <_ZTTSt18basic_stringstreamIcSt11char_traitsIcESaIcEE@@GLIBCXX_3.4+0x8>
  40783d:	48 8b 0d 4c af 20 00 	mov    0x20af4c(%rip),%rcx        # 612790 <_ZTTSt18basic_stringstreamIcSt11char_traitsIcESaIcEE@@GLIBCXX_3.4+0x30>
  407844:	49 8d 7c 24 68       	lea    0x68(%r12),%rdi
  407849:	48 8b 40 e8          	mov    -0x18(%rax),%rax
  40784d:	48 89 8c 04 50 03 00 	mov    %rcx,0x350(%rsp,%rax,1)
  407854:	00 
  407855:	48 8b 05 24 af 20 00 	mov    0x20af24(%rip),%rax        # 612780 <_ZTTSt18basic_stringstreamIcSt11char_traitsIcESaIcEE@@GLIBCXX_3.4+0x20>
  40785c:	48 8b 0d 25 af 20 00 	mov    0x20af25(%rip),%rcx        # 612788 <_ZTTSt18basic_stringstreamIcSt11char_traitsIcESaIcEE@@GLIBCXX_3.4+0x28>
  407863:	48 89 84 24 60 03 00 	mov    %rax,0x360(%rsp)
  40786a:	00 
  40786b:	48 8b 40 e8          	mov    -0x18(%rax),%rax
  40786f:	48 89 8c 04 60 03 00 	mov    %rcx,0x360(%rsp,%rax,1)
  407876:	00 
  407877:	49 8b 47 e8          	mov    -0x18(%r15),%rax
  40787b:	48 8b 0d f6 ae 20 00 	mov    0x20aef6(%rip),%rcx        # 612778 <_ZTTSt18basic_stringstreamIcSt11char_traitsIcESaIcEE@@GLIBCXX_3.4+0x18>
  407882:	4c 89 bc 24 50 03 00 	mov    %r15,0x350(%rsp)
  407889:	00 
  40788a:	48 89 8c 04 50 03 00 	mov    %rcx,0x350(%rsp,%rax,1)
  407891:	00 
  407892:	48 c7 84 24 58 03 00 	movq   $0x0,0x358(%rsp)
  407899:	00 00 00 00 00 
  40789e:	48 c7 84 24 b8 03 00 	movq   $0x6122f0,0x3b8(%rsp)
  4078a5:	00 f0 22 61 00 
  4078aa:	e8 c1 af ff ff       	callq  402870 <_ZNSt8ios_baseD2Ev@plt>
  4078af:	85 db                	test   %ebx,%ebx
  4078b1:	0f 84 7f 03 00 00    	je     407c36 <_ZN6GetOpt9GetOpt_pp6_parseERKSt6vectorISsSaISsEE+0x1106>
  4078b7:	4d 8b 75 00          	mov    0x0(%r13),%r14
  4078bb:	48 8d 45 08          	lea    0x8(%rbp),%rax
  4078bf:	41 bc 01 00 00 00    	mov    $0x1,%r12d
  4078c5:	48 89 44 24 08       	mov    %rax,0x8(%rsp)
  4078ca:	49 83 7e e8 01       	cmpq   $0x1,-0x18(%r14)
  4078cf:	0f 86 60 fa ff ff    	jbe    407335 <_ZN6GetOpt9GetOpt_pp6_parseERKSt6vectorISsSaISsEE+0x805>
  4078d5:	48 8b 45 10          	mov    0x10(%rbp),%rax
  4078d9:	4d 01 e6             	add    %r12,%r14
  4078dc:	48 85 c0             	test   %rax,%rax
  4078df:	0f 84 49 01 00 00    	je     407a2e <_ZN6GetOpt9GetOpt_pp6_parseERKSt6vectorISsSaISsEE+0xefe>
  4078e5:	0f 1f 00             	nopl   (%rax)
  4078e8:	41 0f b6 16          	movzbl (%r14),%edx
  4078ec:	48 8b 5c 24 08       	mov    0x8(%rsp),%rbx
  4078f1:	eb 11                	jmp    407904 <_ZN6GetOpt9GetOpt_pp6_parseERKSt6vectorISsSaISsEE+0xdd4>
  4078f3:	0f 1f 44 00 00       	nopl   0x0(%rax,%rax,1)
  4078f8:	48 89 c3             	mov    %rax,%rbx
  4078fb:	48 8b 40 10          	mov    0x10(%rax),%rax
  4078ff:	48 85 c0             	test   %rax,%rax
  407902:	74 0e                	je     407912 <_ZN6GetOpt9GetOpt_pp6_parseERKSt6vectorISsSaISsEE+0xde2>
  407904:	38 50 20             	cmp    %dl,0x20(%rax)
  407907:	7d ef                	jge    4078f8 <_ZN6GetOpt9GetOpt_pp6_parseERKSt6vectorISsSaISsEE+0xdc8>
  407909:	48 8b 40 18          	mov    0x18(%rax),%rax
  40790d:	48 85 c0             	test   %rax,%rax
  407910:	75 f2                	jne    407904 <_ZN6GetOpt9GetOpt_pp6_parseERKSt6vectorISsSaISsEE+0xdd4>
  407912:	48 39 5c 24 08       	cmp    %rbx,0x8(%rsp)
  407917:	74 05                	je     40791e <_ZN6GetOpt9GetOpt_pp6_parseERKSt6vectorISsSaISsEE+0xdee>
  407919:	38 53 20             	cmp    %dl,0x20(%rbx)
  40791c:	7e 7d                	jle    40799b <_ZN6GetOpt9GetOpt_pp6_parseERKSt6vectorISsSaISsEE+0xe6b>
  40791e:	bf 38 00 00 00       	mov    $0x38,%edi
  407923:	48 89 5c 24 20       	mov    %rbx,0x20(%rsp)
  407928:	e8 33 b1 ff ff       	callq  402a60 <_Znwm@plt>
  40792d:	48 85 c0             	test   %rax,%rax
  407930:	48 89 c3             	mov    %rax,%rbx
  407933:	74 2c                	je     407961 <_ZN6GetOpt9GetOpt_pp6_parseERKSt6vectorISsSaISsEE+0xe31>
  407935:	c7 03 00 00 00 00    	movl   $0x0,(%rbx)
  40793b:	48 c7 43 08 00 00 00 	movq   $0x0,0x8(%rbx)
  407942:	00 
  407943:	48 c7 43 10 00 00 00 	movq   $0x0,0x10(%rbx)
  40794a:	00 
  40794b:	48 c7 43 18 00 00 00 	movq   $0x0,0x18(%rbx)
  407952:	00 
  407953:	41 0f b6 06          	movzbl (%r14),%eax
  407957:	c7 43 28 00 00 00 00 	movl   $0x0,0x28(%rbx)
  40795e:	88 43 20             	mov    %al,0x20(%rbx)
  407961:	48 8b 74 24 20       	mov    0x20(%rsp),%rsi
  407966:	48 8d 53 20          	lea    0x20(%rbx),%rdx
  40796a:	48 89 ef             	mov    %rbp,%rdi
  40796d:	e8 fe e3 ff ff       	callq  405d70 <_ZNSt8_Rb_treeIcSt4pairIKcN6GetOpt10OptionDataEESt10_Select1stIS4_ESt4lessIcESaIS4_EE29_M_get_insert_hint_unique_posESt23_Rb_tree_const_iteratorIS4_ERS1_>
  407972:	48 85 d2             	test   %rdx,%rdx
  407975:	0f 84 c3 00 00 00    	je     407a3e <_ZN6GetOpt9GetOpt_pp6_parseERKSt6vectorISsSaISsEE+0xf0e>
  40797b:	48 85 c0             	test   %rax,%rax
  40797e:	bf 01 00 00 00       	mov    $0x1,%edi
  407983:	0f 84 cf 00 00 00    	je     407a58 <_ZN6GetOpt9GetOpt_pp6_parseERKSt6vectorISsSaISsEE+0xf28>
  407989:	48 8b 4c 24 08       	mov    0x8(%rsp),%rcx
  40798e:	48 89 de             	mov    %rbx,%rsi
  407991:	e8 6a ae ff ff       	callq  402800 <_ZSt29_Rb_tree_insert_and_rebalancebPSt18_Rb_tree_node_baseS0_RS_@plt>
  407996:	48 83 45 28 01       	addq   $0x1,0x28(%rbp)
  40799b:	48 8d 7c 24 60       	lea    0x60(%rsp),%rdi
  4079a0:	b9 01 00 00 00       	mov    $0x1,%ecx
  4079a5:	4c 89 e2             	mov    %r12,%rdx
  4079a8:	4c 89 ee             	mov    %r13,%rsi
  4079ab:	e8 50 b2 ff ff       	callq  402c00 <_ZNSsC1ERKSsmm@plt>
  4079b0:	bf 18 00 00 00       	mov    $0x18,%edi
  4079b5:	e8 a6 b0 ff ff       	callq  402a60 <_Znwm@plt>
  4079ba:	48 8d 78 08          	lea    0x8(%rax),%rdi
  4079be:	48 8d 74 24 60       	lea    0x60(%rsp),%rsi
  4079c3:	c7 00 00 00 00 00    	movl   $0x0,(%rax)
  4079c9:	49 89 c6             	mov    %rax,%r14
  4079cc:	e8 3f af ff ff       	callq  402910 <_ZNSsC1ERKSs@plt>
  4079d1:	48 83 7d 78 00       	cmpq   $0x0,0x78(%rbp)
  4079d6:	49 c7 46 10 00 00 00 	movq   $0x0,0x10(%r14)
  4079dd:	00 
  4079de:	74 58                	je     407a38 <_ZN6GetOpt9GetOpt_pp6_parseERKSt6vectorISsSaISsEE+0xf08>
  4079e0:	48 8b 85 80 00 00 00 	mov    0x80(%rbp),%rax
  4079e7:	4c 89 70 10          	mov    %r14,0x10(%rax)
  4079eb:	48 8b 44 24 60       	mov    0x60(%rsp),%rax
  4079f0:	4c 89 b5 80 00 00 00 	mov    %r14,0x80(%rbp)
  4079f7:	4c 89 73 30          	mov    %r14,0x30(%rbx)
  4079fb:	48 8d 78 e8          	lea    -0x18(%rax),%rdi
  4079ff:	48 81 ff 00 23 61 00 	cmp    $0x612300,%rdi
  407a06:	0f 85 e9 06 00 00    	jne    4080f5 <_ZN6GetOpt9GetOpt_pp6_parseERKSt6vectorISsSaISsEE+0x15c5>
  407a0c:	4d 8b 75 00          	mov    0x0(%r13),%r14
  407a10:	49 83 c4 01          	add    $0x1,%r12
  407a14:	4d 3b 66 e8          	cmp    -0x18(%r14),%r12
  407a18:	0f 83 17 f9 ff ff    	jae    407335 <_ZN6GetOpt9GetOpt_pp6_parseERKSt6vectorISsSaISsEE+0x805>
  407a1e:	48 8b 45 10          	mov    0x10(%rbp),%rax
  407a22:	4d 01 e6             	add    %r12,%r14
  407a25:	48 85 c0             	test   %rax,%rax
  407a28:	0f 85 ba fe ff ff    	jne    4078e8 <_ZN6GetOpt9GetOpt_pp6_parseERKSt6vectorISsSaISsEE+0xdb8>
  407a2e:	48 8b 5c 24 08       	mov    0x8(%rsp),%rbx
  407a33:	e9 e6 fe ff ff       	jmpq   40791e <_ZN6GetOpt9GetOpt_pp6_parseERKSt6vectorISsSaISsEE+0xdee>
  407a38:	4c 89 75 78          	mov    %r14,0x78(%rbp)
  407a3c:	eb ad                	jmp    4079eb <_ZN6GetOpt9GetOpt_pp6_parseERKSt6vectorISsSaISsEE+0xebb>
  407a3e:	48 89 df             	mov    %rbx,%rdi
  407a41:	48 89 44 24 20       	mov    %rax,0x20(%rsp)
  407a46:	e8 e5 af ff ff       	callq  402a30 <_ZdlPv@plt>
  407a4b:	48 8b 44 24 20       	mov    0x20(%rsp),%rax
  407a50:	48 89 c3             	mov    %rax,%rbx
  407a53:	e9 43 ff ff ff       	jmpq   40799b <_ZN6GetOpt9GetOpt_pp6_parseERKSt6vectorISsSaISsEE+0xe6b>
  407a58:	48 39 54 24 08       	cmp    %rdx,0x8(%rsp)
  407a5d:	0f 84 26 ff ff ff    	je     407989 <_ZN6GetOpt9GetOpt_pp6_parseERKSt6vectorISsSaISsEE+0xe59>
  407a63:	0f b6 42 20          	movzbl 0x20(%rdx),%eax
  407a67:	31 ff                	xor    %edi,%edi
  407a69:	38 43 20             	cmp    %al,0x20(%rbx)
  407a6c:	40 0f 9c c7          	setl   %dil
  407a70:	e9 14 ff ff ff       	jmpq   407989 <_ZN6GetOpt9GetOpt_pp6_parseERKSt6vectorISsSaISsEE+0xe59>
  407a75:	85 c0                	test   %eax,%eax
  407a77:	0f 89 07 fb ff ff    	jns    407584 <_ZN6GetOpt9GetOpt_pp6_parseERKSt6vectorISsSaISsEE+0xa54>
  407a7d:	e9 d6 fa ff ff       	jmpq   407558 <_ZN6GetOpt9GetOpt_pp6_parseERKSt6vectorISsSaISsEE+0xa28>
  407a82:	48 8b 45 10          	mov    0x10(%rbp),%rax
  407a86:	4c 8d 75 08          	lea    0x8(%rbp),%r14
  407a8a:	48 85 c0             	test   %rax,%rax
  407a8d:	0f 84 91 02 00 00    	je     407d24 <_ZN6GetOpt9GetOpt_pp6_parseERKSt6vectorISsSaISsEE+0x11f4>
  407a93:	41 0f b6 54 24 01    	movzbl 0x1(%r12),%edx
  407a99:	4c 89 f3             	mov    %r14,%rbx
  407a9c:	eb 0e                	jmp    407aac <_ZN6GetOpt9GetOpt_pp6_parseERKSt6vectorISsSaISsEE+0xf7c>
  407a9e:	66 90                	xchg   %ax,%ax
  407aa0:	48 89 c3             	mov    %rax,%rbx
  407aa3:	48 8b 40 10          	mov    0x10(%rax),%rax
  407aa7:	48 85 c0             	test   %rax,%rax
  407aaa:	74 0e                	je     407aba <_ZN6GetOpt9GetOpt_pp6_parseERKSt6vectorISsSaISsEE+0xf8a>
  407aac:	38 50 20             	cmp    %dl,0x20(%rax)
  407aaf:	7d ef                	jge    407aa0 <_ZN6GetOpt9GetOpt_pp6_parseERKSt6vectorISsSaISsEE+0xf70>
  407ab1:	48 8b 40 18          	mov    0x18(%rax),%rax
  407ab5:	48 85 c0             	test   %rax,%rax
  407ab8:	75 f2                	jne    407aac <_ZN6GetOpt9GetOpt_pp6_parseERKSt6vectorISsSaISsEE+0xf7c>
  407aba:	4c 39 f3             	cmp    %r14,%rbx
  407abd:	74 09                	je     407ac8 <_ZN6GetOpt9GetOpt_pp6_parseERKSt6vectorISsSaISsEE+0xf98>
  407abf:	38 53 20             	cmp    %dl,0x20(%rbx)
  407ac2:	0f 8e 80 00 00 00    	jle    407b48 <_ZN6GetOpt9GetOpt_pp6_parseERKSt6vectorISsSaISsEE+0x1018>
  407ac8:	bf 38 00 00 00       	mov    $0x38,%edi
  407acd:	48 89 5c 24 08       	mov    %rbx,0x8(%rsp)
  407ad2:	e8 89 af ff ff       	callq  402a60 <_Znwm@plt>
  407ad7:	48 85 c0             	test   %rax,%rax
  407ada:	48 89 c3             	mov    %rax,%rbx
  407add:	74 2e                	je     407b0d <_ZN6GetOpt9GetOpt_pp6_parseERKSt6vectorISsSaISsEE+0xfdd>
  407adf:	c7 03 00 00 00 00    	movl   $0x0,(%rbx)
  407ae5:	48 c7 43 08 00 00 00 	movq   $0x0,0x8(%rbx)
  407aec:	00 
  407aed:	48 c7 43 10 00 00 00 	movq   $0x0,0x10(%rbx)
  407af4:	00 
  407af5:	48 c7 43 18 00 00 00 	movq   $0x0,0x18(%rbx)
  407afc:	00 
  407afd:	41 0f b6 44 24 01    	movzbl 0x1(%r12),%eax
  407b03:	c7 43 28 00 00 00 00 	movl   $0x0,0x28(%rbx)
  407b0a:	88 43 20             	mov    %al,0x20(%rbx)
  407b0d:	48 8b 74 24 08       	mov    0x8(%rsp),%rsi
  407b12:	48 8d 53 20          	lea    0x20(%rbx),%rdx
  407b16:	48 89 ef             	mov    %rbp,%rdi
  407b19:	e8 52 e2 ff ff       	callq  405d70 <_ZNSt8_Rb_treeIcSt4pairIKcN6GetOpt10OptionDataEESt10_Select1stIS4_ESt4lessIcESaIS4_EE29_M_get_insert_hint_unique_posESt23_Rb_tree_const_iteratorIS4_ERS1_>
  407b1e:	48 85 d2             	test   %rdx,%rdx
  407b21:	49 89 c4             	mov    %rax,%r12
  407b24:	0f 84 3d 02 00 00    	je     407d67 <_ZN6GetOpt9GetOpt_pp6_parseERKSt6vectorISsSaISsEE+0x1237>
  407b2a:	48 85 c0             	test   %rax,%rax
  407b2d:	bf 01 00 00 00       	mov    $0x1,%edi
  407b32:	0f 84 14 02 00 00    	je     407d4c <_ZN6GetOpt9GetOpt_pp6_parseERKSt6vectorISsSaISsEE+0x121c>
  407b38:	4c 89 f1             	mov    %r14,%rcx
  407b3b:	48 89 de             	mov    %rbx,%rsi
  407b3e:	e8 bd ac ff ff       	callq  402800 <_ZSt29_Rb_tree_insert_and_rebalancebPSt18_Rb_tree_node_baseS0_RS_@plt>
  407b43:	48 83 45 28 01       	addq   $0x1,0x28(%rbp)
  407b48:	bf 18 00 00 00       	mov    $0x18,%edi
  407b4d:	e8 0e af ff ff       	callq  402a60 <_Znwm@plt>
  407b52:	48 8d 78 08          	lea    0x8(%rax),%rdi
  407b56:	c7 00 05 00 00 00    	movl   $0x5,(%rax)
  407b5c:	4c 89 ee             	mov    %r13,%rsi
  407b5f:	49 89 c4             	mov    %rax,%r12
  407b62:	e8 a9 ad ff ff       	callq  402910 <_ZNSsC1ERKSs@plt>
  407b67:	48 83 7d 78 00       	cmpq   $0x0,0x78(%rbp)
  407b6c:	49 c7 44 24 10 00 00 	movq   $0x0,0x10(%r12)
  407b73:	00 00 
  407b75:	0f 84 c8 01 00 00    	je     407d43 <_ZN6GetOpt9GetOpt_pp6_parseERKSt6vectorISsSaISsEE+0x1213>
  407b7b:	48 8b 85 80 00 00 00 	mov    0x80(%rbp),%rax
  407b82:	4c 89 60 10          	mov    %r12,0x10(%rax)
  407b86:	4c 89 a5 80 00 00 00 	mov    %r12,0x80(%rbp)
  407b8d:	4c 89 63 30          	mov    %r12,0x30(%rbx)
  407b91:	e9 9f f7 ff ff       	jmpq   407335 <_ZN6GetOpt9GetOpt_pp6_parseERKSt6vectorISsSaISsEE+0x805>
  407b96:	bf 38 00 00 00       	mov    $0x38,%edi
  407b9b:	4c 8d 65 30          	lea    0x30(%rbp),%r12
  407b9f:	49 89 de             	mov    %rbx,%r14
  407ba2:	e8 b9 ae ff ff       	callq  402a60 <_Znwm@plt>
  407ba7:	48 85 c0             	test   %rax,%rax
  407baa:	48 89 c3             	mov    %rax,%rbx
  407bad:	74 3d                	je     407bec <_ZN6GetOpt9GetOpt_pp6_parseERKSt6vectorISsSaISsEE+0x10bc>
  407baf:	48 c7 43 08 00 00 00 	movq   $0x0,0x8(%rbx)
  407bb6:	00 
  407bb7:	48 c7 43 10 00 00 00 	movq   $0x0,0x10(%rbx)
  407bbe:	00 
  407bbf:	48 c7 43 18 00 00 00 	movq   $0x0,0x18(%rbx)
  407bc6:	00 
  407bc7:	48 8b 84 24 e0 01 00 	mov    0x1e0(%rsp),%rax
  407bce:	00 
  407bcf:	c7 03 00 00 00 00    	movl   $0x0,(%rbx)
  407bd5:	48 89 43 20          	mov    %rax,0x20(%rbx)
  407bd9:	48 c7 84 24 e0 01 00 	movq   $0x612318,0x1e0(%rsp)
  407be0:	00 18 23 61 00 
  407be5:	c7 43 28 00 00 00 00 	movl   $0x0,0x28(%rbx)
  407bec:	48 8d 53 20          	lea    0x20(%rbx),%rdx
  407bf0:	4c 89 e7             	mov    %r12,%rdi
  407bf3:	4c 89 f6             	mov    %r14,%rsi
  407bf6:	e8 95 e8 ff ff       	callq  406490 <_ZNSt8_Rb_treeISsSt4pairIKSsN6GetOpt10OptionDataEESt10_Select1stIS4_ESt4lessISsESaIS4_EE29_M_get_insert_hint_unique_posESt23_Rb_tree_const_iteratorIS4_ERS1_>
  407bfb:	48 85 d2             	test   %rdx,%rdx
  407bfe:	49 89 c7             	mov    %rax,%r15
  407c01:	49 89 d4             	mov    %rdx,%r12
  407c04:	0f 84 a7 00 00 00    	je     407cb1 <_ZN6GetOpt9GetOpt_pp6_parseERKSt6vectorISsSaISsEE+0x1181>
  407c0a:	48 85 c0             	test   %rax,%rax
  407c0d:	41 be 01 00 00 00    	mov    $0x1,%r14d
  407c13:	0f 84 bd 00 00 00    	je     407cd6 <_ZN6GetOpt9GetOpt_pp6_parseERKSt6vectorISsSaISsEE+0x11a6>
  407c19:	48 8b 4c 24 08       	mov    0x8(%rsp),%rcx
  407c1e:	4c 89 e2             	mov    %r12,%rdx
  407c21:	48 89 de             	mov    %rbx,%rsi
  407c24:	44 89 f7             	mov    %r14d,%edi
  407c27:	e8 d4 ab ff ff       	callq  402800 <_ZSt29_Rb_tree_insert_and_rebalancebPSt18_Rb_tree_node_baseS0_RS_@plt>
  407c2c:	48 83 45 58 01       	addq   $0x1,0x58(%rbp)
  407c31:	e9 3a f1 ff ff       	jmpq   406d70 <_ZN6GetOpt9GetOpt_pp6_parseERKSt6vectorISsSaISsEE+0x240>
  407c36:	41 80 fe 01          	cmp    $0x1,%r14b
  407c3a:	bf 18 00 00 00       	mov    $0x18,%edi
  407c3f:	45 19 e4             	sbb    %r12d,%r12d
  407c42:	41 83 e4 fc          	and    $0xfffffffc,%r12d
  407c46:	41 83 c4 06          	add    $0x6,%r12d
  407c4a:	e8 11 ae ff ff       	callq  402a60 <_Znwm@plt>
  407c4f:	48 8d 78 08          	lea    0x8(%rax),%rdi
  407c53:	44 89 20             	mov    %r12d,(%rax)
  407c56:	4c 89 ee             	mov    %r13,%rsi
  407c59:	48 89 c3             	mov    %rax,%rbx
  407c5c:	e8 af ac ff ff       	callq  402910 <_ZNSsC1ERKSs@plt>
  407c61:	48 c7 43 10 00 00 00 	movq   $0x0,0x10(%rbx)
  407c68:	00 
  407c69:	48 83 7d 78 00       	cmpq   $0x0,0x78(%rbp)
  407c6e:	0f 85 af f6 ff ff    	jne    407323 <_ZN6GetOpt9GetOpt_pp6_parseERKSt6vectorISsSaISsEE+0x7f3>
  407c74:	48 89 5d 78          	mov    %rbx,0x78(%rbp)
  407c78:	e9 b1 f6 ff ff       	jmpq   40732e <_ZN6GetOpt9GetOpt_pp6_parseERKSt6vectorISsSaISsEE+0x7fe>
  407c7d:	48 89 5d 78          	mov    %rbx,0x78(%rbp)
  407c81:	e9 83 ef ff ff       	jmpq   406c09 <_ZN6GetOpt9GetOpt_pp6_parseERKSt6vectorISsSaISsEE+0xd9>
  407c86:	c7 45 64 00 00 00 00 	movl   $0x0,0x64(%rbp)
  407c8d:	48 81 c4 c8 04 00 00 	add    $0x4c8,%rsp
  407c94:	5b                   	pop    %rbx
  407c95:	5d                   	pop    %rbp
  407c96:	41 5c                	pop    %r12
  407c98:	41 5d                	pop    %r13
  407c9a:	41 5e                	pop    %r14
  407c9c:	41 5f                	pop    %r15
  407c9e:	c3                   	retq   
  407c9f:	4c 89 65 78          	mov    %r12,0x78(%rbp)
  407ca3:	e9 1a f9 ff ff       	jmpq   4075c2 <_ZN6GetOpt9GetOpt_pp6_parseERKSt6vectorISsSaISsEE+0xa92>
  407ca8:	4c 89 65 78          	mov    %r12,0x78(%rbp)
  407cac:	e9 33 f1 ff ff       	jmpq   406de4 <_ZN6GetOpt9GetOpt_pp6_parseERKSt6vectorISsSaISsEE+0x2b4>
  407cb1:	48 8b 43 20          	mov    0x20(%rbx),%rax
  407cb5:	48 8d 78 e8          	lea    -0x18(%rax),%rdi
  407cb9:	48 81 ff 00 23 61 00 	cmp    $0x612300,%rdi
  407cc0:	0f 85 6f 04 00 00    	jne    408135 <_ZN6GetOpt9GetOpt_pp6_parseERKSt6vectorISsSaISsEE+0x1605>
  407cc6:	48 89 df             	mov    %rbx,%rdi
  407cc9:	4c 89 fb             	mov    %r15,%rbx
  407ccc:	e8 5f ad ff ff       	callq  402a30 <_ZdlPv@plt>
  407cd1:	e9 9a f0 ff ff       	jmpq   406d70 <_ZN6GetOpt9GetOpt_pp6_parseERKSt6vectorISsSaISsEE+0x240>
  407cd6:	48 39 54 24 08       	cmp    %rdx,0x8(%rsp)
  407cdb:	0f 84 38 ff ff ff    	je     407c19 <_ZN6GetOpt9GetOpt_pp6_parseERKSt6vectorISsSaISsEE+0x10e9>
  407ce1:	48 8b 72 20          	mov    0x20(%rdx),%rsi
  407ce5:	48 8b 7b 20          	mov    0x20(%rbx),%rdi
  407ce9:	4c 8b 7e e8          	mov    -0x18(%rsi),%r15
  407ced:	48 8b 4f e8          	mov    -0x18(%rdi),%rcx
  407cf1:	49 39 cf             	cmp    %rcx,%r15
  407cf4:	48 89 ca             	mov    %rcx,%rdx
  407cf7:	48 89 4c 24 20       	mov    %rcx,0x20(%rsp)
  407cfc:	49 0f 46 d7          	cmovbe %r15,%rdx
  407d00:	e8 9b ab ff ff       	callq  4028a0 <memcmp@plt>
  407d05:	85 c0                	test   %eax,%eax
  407d07:	75 7a                	jne    407d83 <_ZN6GetOpt9GetOpt_pp6_parseERKSt6vectorISsSaISsEE+0x1253>
  407d09:	48 8b 4c 24 20       	mov    0x20(%rsp),%rcx
  407d0e:	48 89 c8             	mov    %rcx,%rax
  407d11:	4c 29 f8             	sub    %r15,%rax
  407d14:	48 3d ff ff ff 7f    	cmp    $0x7fffffff,%rax
  407d1a:	7e 5b                	jle    407d77 <_ZN6GetOpt9GetOpt_pp6_parseERKSt6vectorISsSaISsEE+0x1247>
  407d1c:	45 31 f6             	xor    %r14d,%r14d
  407d1f:	e9 f5 fe ff ff       	jmpq   407c19 <_ZN6GetOpt9GetOpt_pp6_parseERKSt6vectorISsSaISsEE+0x10e9>
  407d24:	4c 89 f3             	mov    %r14,%rbx
  407d27:	e9 9c fd ff ff       	jmpq   407ac8 <_ZN6GetOpt9GetOpt_pp6_parseERKSt6vectorISsSaISsEE+0xf98>
  407d2c:	48 8d 7f 70          	lea    0x70(%rdi),%rdi
  407d30:	e8 3b ae ff ff       	callq  402b70 <_ZNSs6assignERKSs@plt>
  407d35:	48 c7 44 24 10 01 00 	movq   $0x1,0x10(%rsp)
  407d3c:	00 00 
  407d3e:	e9 38 ee ff ff       	jmpq   406b7b <_ZN6GetOpt9GetOpt_pp6_parseERKSt6vectorISsSaISsEE+0x4b>
  407d43:	4c 89 65 78          	mov    %r12,0x78(%rbp)
  407d47:	e9 3a fe ff ff       	jmpq   407b86 <_ZN6GetOpt9GetOpt_pp6_parseERKSt6vectorISsSaISsEE+0x1056>
  407d4c:	49 39 d6             	cmp    %rdx,%r14
  407d4f:	0f 84 e3 fd ff ff    	je     407b38 <_ZN6GetOpt9GetOpt_pp6_parseERKSt6vectorISsSaISsEE+0x1008>
  407d55:	0f b6 42 20          	movzbl 0x20(%rdx),%eax
  407d59:	31 ff                	xor    %edi,%edi
  407d5b:	38 43 20             	cmp    %al,0x20(%rbx)
  407d5e:	40 0f 9c c7          	setl   %dil
  407d62:	e9 d1 fd ff ff       	jmpq   407b38 <_ZN6GetOpt9GetOpt_pp6_parseERKSt6vectorISsSaISsEE+0x1008>
  407d67:	48 89 df             	mov    %rbx,%rdi
  407d6a:	4c 89 e3             	mov    %r12,%rbx
  407d6d:	e8 be ac ff ff       	callq  402a30 <_ZdlPv@plt>
  407d72:	e9 d1 fd ff ff       	jmpq   407b48 <_ZN6GetOpt9GetOpt_pp6_parseERKSt6vectorISsSaISsEE+0x1018>
  407d77:	48 3d 00 00 00 80    	cmp    $0xffffffff80000000,%rax
  407d7d:	0f 8c 96 fe ff ff    	jl     407c19 <_ZN6GetOpt9GetOpt_pp6_parseERKSt6vectorISsSaISsEE+0x10e9>
  407d83:	85 c0                	test   %eax,%eax
  407d85:	79 95                	jns    407d1c <_ZN6GetOpt9GetOpt_pp6_parseERKSt6vectorISsSaISsEE+0x11ec>
  407d87:	41 be 01 00 00 00    	mov    $0x1,%r14d
  407d8d:	e9 87 fe ff ff       	jmpq   407c19 <_ZN6GetOpt9GetOpt_pp6_parseERKSt6vectorISsSaISsEE+0x10e9>
  407d92:	48 89 c3             	mov    %rax,%rbx
  407d95:	48 8d 7c 24 70       	lea    0x70(%rsp),%rdi
  407d9a:	e8 41 ae ff ff       	callq  402be0 <_ZNSt18basic_stringstreamIcSt11char_traitsIcESaIcEED1Ev@plt>
  407d9f:	48 89 df             	mov    %rbx,%rdi
  407da2:	e8 09 af ff ff       	callq  402cb0 <_Unwind_Resume@plt>
  407da7:	48 89 c5             	mov    %rax,%rbp
  407daa:	48 89 df             	mov    %rbx,%rdi
  407dad:	e8 7e ac ff ff       	callq  402a30 <_ZdlPv@plt>
  407db2:	48 89 eb             	mov    %rbp,%rbx
  407db5:	eb de                	jmp    407d95 <_ZN6GetOpt9GetOpt_pp6_parseERKSt6vectorISsSaISsEE+0x1265>
  407db7:	b9 50 2c 40 00       	mov    $0x402c50,%ecx
  407dbc:	48 8d 57 10          	lea    0x10(%rdi),%rdx
  407dc0:	48 85 c9             	test   %rcx,%rcx
  407dc3:	74 47                	je     407e0c <_ZN6GetOpt9GetOpt_pp6_parseERKSt6vectorISsSaISsEE+0x12dc>
  407dc5:	b8 ff ff ff ff       	mov    $0xffffffff,%eax
  407dca:	f0 0f c1 02          	lock xadd %eax,(%rdx)
  407dce:	85 c0                	test   %eax,%eax
  407dd0:	0f 8f a5 f5 ff ff    	jg     40737b <_ZN6GetOpt9GetOpt_pp6_parseERKSt6vectorISsSaISsEE+0x84b>
  407dd6:	48 8d b4 24 50 03 00 	lea    0x350(%rsp),%rsi
  407ddd:	00 
  407dde:	e8 dd ab ff ff       	callq  4029c0 <_ZNSs4_Rep10_M_destroyERKSaIcE@plt>
  407de3:	e9 93 f5 ff ff       	jmpq   40737b <_ZN6GetOpt9GetOpt_pp6_parseERKSt6vectorISsSaISsEE+0x84b>
  407de8:	48 89 c3             	mov    %rax,%rbx
  407deb:	48 8b 84 24 50 03 00 	mov    0x350(%rsp),%rax
  407df2:	00 
  407df3:	48 8d b4 24 e0 01 00 	lea    0x1e0(%rsp),%rsi
  407dfa:	00 
  407dfb:	48 8d 78 e8          	lea    -0x18(%rax),%rdi
  407dff:	e8 3c ab ff ff       	callq  402940 <_ZNSs4_Rep10_M_disposeERKSaIcE@plt>
  407e04:	48 89 df             	mov    %rbx,%rdi
  407e07:	e8 a4 ae ff ff       	callq  402cb0 <_Unwind_Resume@plt>
  407e0c:	8b 50 f8             	mov    -0x8(%rax),%edx
  407e0f:	8d 4a ff             	lea    -0x1(%rdx),%ecx
  407e12:	89 48 f8             	mov    %ecx,-0x8(%rax)
  407e15:	89 d0                	mov    %edx,%eax
  407e17:	eb b5                	jmp    407dce <_ZN6GetOpt9GetOpt_pp6_parseERKSt6vectorISsSaISsEE+0x129e>
  407e19:	8b 50 f8             	mov    -0x8(%rax),%edx
  407e1c:	8d 4a ff             	lea    -0x1(%rdx),%ecx
  407e1f:	89 48 f8             	mov    %ecx,-0x8(%rax)
  407e22:	89 d0                	mov    %edx,%eax
  407e24:	e9 53 f6 ff ff       	jmpq   40747c <_ZN6GetOpt9GetOpt_pp6_parseERKSt6vectorISsSaISsEE+0x94c>
  407e29:	48 89 c3             	mov    %rax,%rbx
  407e2c:	4c 89 e7             	mov    %r12,%rdi
  407e2f:	e8 fc ab ff ff       	callq  402a30 <_ZdlPv@plt>
  407e34:	48 89 df             	mov    %rbx,%rdi
  407e37:	e8 74 ae ff ff       	callq  402cb0 <_Unwind_Resume@plt>
  407e3c:	bf 60 f1 40 00       	mov    $0x40f160,%edi
  407e41:	e8 6a ad ff ff       	callq  402bb0 <_ZSt20__throw_out_of_rangePKc@plt>
  407e46:	48 8d 5c 24 70       	lea    0x70(%rsp),%rbx
  407e4b:	48 89 c5             	mov    %rax,%rbp
  407e4e:	48 8b 84 24 e0 01 00 	mov    0x1e0(%rsp),%rax
  407e55:	00 
  407e56:	48 89 de             	mov    %rbx,%rsi
  407e59:	48 8d 78 e8          	lea    -0x18(%rax),%rdi
  407e5d:	e8 de aa ff ff       	callq  402940 <_ZNSs4_Rep10_M_disposeERKSaIcE@plt>
  407e62:	48 89 ef             	mov    %rbp,%rdi
  407e65:	e8 46 ae ff ff       	callq  402cb0 <_Unwind_Resume@plt>
  407e6a:	48 89 c5             	mov    %rax,%rbp
  407e6d:	48 8b 84 24 50 03 00 	mov    0x350(%rsp),%rax
  407e74:	00 
  407e75:	48 8d 5c 24 70       	lea    0x70(%rsp),%rbx
  407e7a:	48 89 de             	mov    %rbx,%rsi
  407e7d:	48 8d 78 e8          	lea    -0x18(%rax),%rdi
  407e81:	e8 ba aa ff ff       	callq  402940 <_ZNSs4_Rep10_M_disposeERKSaIcE@plt>
  407e86:	eb c6                	jmp    407e4e <_ZN6GetOpt9GetOpt_pp6_parseERKSt6vectorISsSaISsEE+0x131e>
  407e88:	4c 89 e7             	mov    %r12,%rdi
  407e8b:	48 89 c5             	mov    %rax,%rbp
  407e8e:	e8 9d ab ff ff       	callq  402a30 <_ZdlPv@plt>
  407e93:	eb d8                	jmp    407e6d <_ZN6GetOpt9GetOpt_pp6_parseERKSt6vectorISsSaISsEE+0x133d>
  407e95:	b9 50 2c 40 00       	mov    $0x402c50,%ecx
  407e9a:	48 8d 57 10          	lea    0x10(%rdi),%rdx
  407e9e:	48 85 c9             	test   %rcx,%rcx
  407ea1:	74 42                	je     407ee5 <_ZN6GetOpt9GetOpt_pp6_parseERKSt6vectorISsSaISsEE+0x13b5>
  407ea3:	b8 ff ff ff ff       	mov    $0xffffffff,%eax
  407ea8:	f0 0f c1 02          	lock xadd %eax,(%rdx)
  407eac:	85 c0                	test   %eax,%eax
  407eae:	0f 8f 54 ef ff ff    	jg     406e08 <_ZN6GetOpt9GetOpt_pp6_parseERKSt6vectorISsSaISsEE+0x2d8>
  407eb4:	48 8d 74 24 70       	lea    0x70(%rsp),%rsi
  407eb9:	e8 02 ab ff ff       	callq  4029c0 <_ZNSs4_Rep10_M_destroyERKSaIcE@plt>
  407ebe:	e9 45 ef ff ff       	jmpq   406e08 <_ZN6GetOpt9GetOpt_pp6_parseERKSt6vectorISsSaISsEE+0x2d8>
  407ec3:	48 89 c3             	mov    %rax,%rbx
  407ec6:	48 8b 7c 24 48       	mov    0x48(%rsp),%rdi
  407ecb:	48 c7 84 24 b8 03 00 	movq   $0x6122f0,0x3b8(%rsp)
  407ed2:	00 f0 22 61 00 
  407ed7:	48 83 c7 68          	add    $0x68,%rdi
  407edb:	e8 90 a9 ff ff       	callq  402870 <_ZNSt8ios_baseD2Ev@plt>
  407ee0:	e9 b0 fe ff ff       	jmpq   407d95 <_ZN6GetOpt9GetOpt_pp6_parseERKSt6vectorISsSaISsEE+0x1265>
  407ee5:	8b 50 f8             	mov    -0x8(%rax),%edx
  407ee8:	8d 4a ff             	lea    -0x1(%rdx),%ecx
  407eeb:	89 48 f8             	mov    %ecx,-0x8(%rax)
  407eee:	89 d0                	mov    %edx,%eax
  407ef0:	eb ba                	jmp    407eac <_ZN6GetOpt9GetOpt_pp6_parseERKSt6vectorISsSaISsEE+0x137c>
  407ef2:	8b 50 f8             	mov    -0x8(%rax),%edx
  407ef5:	8d 4a ff             	lea    -0x1(%rdx),%ecx
  407ef8:	89 48 f8             	mov    %ecx,-0x8(%rax)
  407efb:	89 d0                	mov    %edx,%eax
  407efd:	e9 3a ef ff ff       	jmpq   406e3c <_ZN6GetOpt9GetOpt_pp6_parseERKSt6vectorISsSaISsEE+0x30c>
  407f02:	49 8b 57 e8          	mov    -0x18(%r15),%rdx
  407f06:	48 8b 0d 6b a8 20 00 	mov    0x20a86b(%rip),%rcx        # 612778 <_ZTTSt18basic_stringstreamIcSt11char_traitsIcESaIcEE@@GLIBCXX_3.4+0x18>
  407f0d:	48 89 c3             	mov    %rax,%rbx
  407f10:	4c 89 bc 24 50 03 00 	mov    %r15,0x350(%rsp)
  407f17:	00 
  407f18:	48 89 8c 14 50 03 00 	mov    %rcx,0x350(%rsp,%rdx,1)
  407f1f:	00 
  407f20:	48 c7 84 24 58 03 00 	movq   $0x0,0x358(%rsp)
  407f27:	00 00 00 00 00 
  407f2c:	eb 98                	jmp    407ec6 <_ZN6GetOpt9GetOpt_pp6_parseERKSt6vectorISsSaISsEE+0x1396>
  407f2e:	4c 8b 7c 24 48       	mov    0x48(%rsp),%r15
  407f33:	48 89 c3             	mov    %rax,%rbx
  407f36:	49 8d 7f 18          	lea    0x18(%r15),%rdi
  407f3a:	e8 61 cd ff ff       	callq  404ca0 <_ZNSt15basic_stringbufIcSt11char_traitsIcESaIcEED1Ev>
  407f3f:	be 68 27 61 00       	mov    $0x612768,%esi
  407f44:	4c 89 ff             	mov    %r15,%rdi
  407f47:	e8 d4 a8 ff ff       	callq  402820 <_ZNSdD2Ev@plt>
  407f4c:	e9 75 ff ff ff       	jmpq   407ec6 <_ZN6GetOpt9GetOpt_pp6_parseERKSt6vectorISsSaISsEE+0x1396>
  407f51:	48 8b 7c 24 48       	mov    0x48(%rsp),%rdi
  407f56:	48 89 c3             	mov    %rax,%rbx
  407f59:	e8 82 ac ff ff       	callq  402be0 <_ZNSt18basic_stringstreamIcSt11char_traitsIcESaIcEED1Ev@plt>
  407f5e:	e9 32 fe ff ff       	jmpq   407d95 <_ZN6GetOpt9GetOpt_pp6_parseERKSt6vectorISsSaISsEE+0x1265>
  407f63:	48 89 c3             	mov    %rax,%rbx
  407f66:	48 8d bc 24 d8 00 00 	lea    0xd8(%rsp),%rdi
  407f6d:	00 
  407f6e:	48 c7 84 24 d8 00 00 	movq   $0x6122f0,0xd8(%rsp)
  407f75:	00 f0 22 61 00 
  407f7a:	e8 f1 a8 ff ff       	callq  402870 <_ZNSt8ios_baseD2Ev@plt>
  407f7f:	48 89 df             	mov    %rbx,%rdi
  407f82:	e8 29 ad ff ff       	callq  402cb0 <_Unwind_Resume@plt>
  407f87:	49 8b 57 e8          	mov    -0x18(%r15),%rdx
  407f8b:	48 8b 0d e6 a7 20 00 	mov    0x20a7e6(%rip),%rcx        # 612778 <_ZTTSt18basic_stringstreamIcSt11char_traitsIcESaIcEE@@GLIBCXX_3.4+0x18>
  407f92:	48 89 c3             	mov    %rax,%rbx
  407f95:	4c 89 7c 24 70       	mov    %r15,0x70(%rsp)
  407f9a:	48 89 4c 14 70       	mov    %rcx,0x70(%rsp,%rdx,1)
  407f9f:	48 c7 44 24 78 00 00 	movq   $0x0,0x78(%rsp)
  407fa6:	00 00 
  407fa8:	eb bc                	jmp    407f66 <_ZN6GetOpt9GetOpt_pp6_parseERKSt6vectorISsSaISsEE+0x1436>
  407faa:	48 8d bc 24 88 00 00 	lea    0x88(%rsp),%rdi
  407fb1:	00 
  407fb2:	48 89 c3             	mov    %rax,%rbx
  407fb5:	e8 e6 cc ff ff       	callq  404ca0 <_ZNSt15basic_stringbufIcSt11char_traitsIcESaIcEED1Ev>
  407fba:	48 8d 7c 24 70       	lea    0x70(%rsp),%rdi
  407fbf:	be 68 27 61 00       	mov    $0x612768,%esi
  407fc4:	e8 57 a8 ff ff       	callq  402820 <_ZNSdD2Ev@plt>
  407fc9:	eb 9b                	jmp    407f66 <_ZN6GetOpt9GetOpt_pp6_parseERKSt6vectorISsSaISsEE+0x1436>
  407fcb:	48 89 c3             	mov    %rax,%rbx
  407fce:	48 8d bc 24 48 02 00 	lea    0x248(%rsp),%rdi
  407fd5:	00 
  407fd6:	48 c7 84 24 48 02 00 	movq   $0x6122f0,0x248(%rsp)
  407fdd:	00 f0 22 61 00 
  407fe2:	e8 89 a8 ff ff       	callq  402870 <_ZNSt8ios_baseD2Ev@plt>
  407fe7:	e9 a9 fd ff ff       	jmpq   407d95 <_ZN6GetOpt9GetOpt_pp6_parseERKSt6vectorISsSaISsEE+0x1265>
  407fec:	49 8b 57 e8          	mov    -0x18(%r15),%rdx
  407ff0:	48 8b 0d 81 a7 20 00 	mov    0x20a781(%rip),%rcx        # 612778 <_ZTTSt18basic_stringstreamIcSt11char_traitsIcESaIcEE@@GLIBCXX_3.4+0x18>
  407ff7:	48 89 c3             	mov    %rax,%rbx
  407ffa:	4c 89 bc 24 e0 01 00 	mov    %r15,0x1e0(%rsp)
  408001:	00 
  408002:	48 89 8c 14 e0 01 00 	mov    %rcx,0x1e0(%rsp,%rdx,1)
  408009:	00 
  40800a:	48 c7 84 24 e8 01 00 	movq   $0x0,0x1e8(%rsp)
  408011:	00 00 00 00 00 
  408016:	eb b6                	jmp    407fce <_ZN6GetOpt9GetOpt_pp6_parseERKSt6vectorISsSaISsEE+0x149e>
  408018:	48 8d bc 24 f8 01 00 	lea    0x1f8(%rsp),%rdi
  40801f:	00 
  408020:	48 89 c3             	mov    %rax,%rbx
  408023:	e8 78 cc ff ff       	callq  404ca0 <_ZNSt15basic_stringbufIcSt11char_traitsIcESaIcEED1Ev>
  408028:	48 8d bc 24 e0 01 00 	lea    0x1e0(%rsp),%rdi
  40802f:	00 
  408030:	be 68 27 61 00       	mov    $0x612768,%esi
  408035:	e8 e6 a7 ff ff       	callq  402820 <_ZNSdD2Ev@plt>
  40803a:	eb 92                	jmp    407fce <_ZN6GetOpt9GetOpt_pp6_parseERKSt6vectorISsSaISsEE+0x149e>
  40803c:	48 8d bc 24 e0 01 00 	lea    0x1e0(%rsp),%rdi
  408043:	00 
  408044:	48 89 c3             	mov    %rax,%rbx
  408047:	e8 94 ab ff ff       	callq  402be0 <_ZNSt18basic_stringstreamIcSt11char_traitsIcESaIcEED1Ev@plt>
  40804c:	e9 44 fd ff ff       	jmpq   407d95 <_ZN6GetOpt9GetOpt_pp6_parseERKSt6vectorISsSaISsEE+0x1265>
  408051:	b9 50 2c 40 00       	mov    $0x402c50,%ecx
  408056:	48 8d 57 10          	lea    0x10(%rdi),%rdx
  40805a:	48 85 c9             	test   %rcx,%rcx
  40805d:	74 54                	je     4080b3 <_ZN6GetOpt9GetOpt_pp6_parseERKSt6vectorISsSaISsEE+0x1583>
  40805f:	b8 ff ff ff ff       	mov    $0xffffffff,%eax
  408064:	f0 0f c1 02          	lock xadd %eax,(%rdx)
  408068:	85 c0                	test   %eax,%eax
  40806a:	0f 8f cb f1 ff ff    	jg     40723b <_ZN6GetOpt9GetOpt_pp6_parseERKSt6vectorISsSaISsEE+0x70b>
  408070:	48 8d b4 24 50 03 00 	lea    0x350(%rsp),%rsi
  408077:	00 
  408078:	e8 43 a9 ff ff       	callq  4029c0 <_ZNSs4_Rep10_M_destroyERKSaIcE@plt>
  40807d:	e9 b9 f1 ff ff       	jmpq   40723b <_ZN6GetOpt9GetOpt_pp6_parseERKSt6vectorISsSaISsEE+0x70b>
  408082:	b9 50 2c 40 00       	mov    $0x402c50,%ecx
  408087:	48 8d 57 10          	lea    0x10(%rdi),%rdx
  40808b:	48 85 c9             	test   %rcx,%rcx
  40808e:	74 30                	je     4080c0 <_ZN6GetOpt9GetOpt_pp6_parseERKSt6vectorISsSaISsEE+0x1590>
  408090:	b8 ff ff ff ff       	mov    $0xffffffff,%eax
  408095:	f0 0f c1 02          	lock xadd %eax,(%rdx)
  408099:	85 c0                	test   %eax,%eax
  40809b:	0f 8f 7a f7 ff ff    	jg     40781b <_ZN6GetOpt9GetOpt_pp6_parseERKSt6vectorISsSaISsEE+0xceb>
  4080a1:	48 8d b4 24 e0 01 00 	lea    0x1e0(%rsp),%rsi
  4080a8:	00 
  4080a9:	e8 12 a9 ff ff       	callq  4029c0 <_ZNSs4_Rep10_M_destroyERKSaIcE@plt>
  4080ae:	e9 68 f7 ff ff       	jmpq   40781b <_ZN6GetOpt9GetOpt_pp6_parseERKSt6vectorISsSaISsEE+0xceb>
  4080b3:	8b 50 f8             	mov    -0x8(%rax),%edx
  4080b6:	8d 4a ff             	lea    -0x1(%rdx),%ecx
  4080b9:	89 48 f8             	mov    %ecx,-0x8(%rax)
  4080bc:	89 d0                	mov    %edx,%eax
  4080be:	eb a8                	jmp    408068 <_ZN6GetOpt9GetOpt_pp6_parseERKSt6vectorISsSaISsEE+0x1538>
  4080c0:	8b 50 f8             	mov    -0x8(%rax),%edx
  4080c3:	8d 4a ff             	lea    -0x1(%rdx),%ecx
  4080c6:	89 48 f8             	mov    %ecx,-0x8(%rax)
  4080c9:	89 d0                	mov    %edx,%eax
  4080cb:	eb cc                	jmp    408099 <_ZN6GetOpt9GetOpt_pp6_parseERKSt6vectorISsSaISsEE+0x1569>
  4080cd:	48 89 c3             	mov    %rax,%rbx
  4080d0:	48 8b 44 24 60       	mov    0x60(%rsp),%rax
  4080d5:	48 8b 74 24 48       	mov    0x48(%rsp),%rsi
  4080da:	48 8d 78 e8          	lea    -0x18(%rax),%rdi
  4080de:	e8 5d a8 ff ff       	callq  402940 <_ZNSs4_Rep10_M_disposeERKSaIcE@plt>
  4080e3:	e9 ad fc ff ff       	jmpq   407d95 <_ZN6GetOpt9GetOpt_pp6_parseERKSt6vectorISsSaISsEE+0x1265>
  4080e8:	4c 89 f7             	mov    %r14,%rdi
  4080eb:	48 89 c3             	mov    %rax,%rbx
  4080ee:	e8 3d a9 ff ff       	callq  402a30 <_ZdlPv@plt>
  4080f3:	eb db                	jmp    4080d0 <_ZN6GetOpt9GetOpt_pp6_parseERKSt6vectorISsSaISsEE+0x15a0>
  4080f5:	b9 50 2c 40 00       	mov    $0x402c50,%ecx
  4080fa:	48 8d 57 10          	lea    0x10(%rdi),%rdx
  4080fe:	48 85 c9             	test   %rcx,%rcx
  408101:	74 25                	je     408128 <_ZN6GetOpt9GetOpt_pp6_parseERKSt6vectorISsSaISsEE+0x15f8>
  408103:	b8 ff ff ff ff       	mov    $0xffffffff,%eax
  408108:	f0 0f c1 02          	lock xadd %eax,(%rdx)
  40810c:	85 c0                	test   %eax,%eax
  40810e:	0f 8f f8 f8 ff ff    	jg     407a0c <_ZN6GetOpt9GetOpt_pp6_parseERKSt6vectorISsSaISsEE+0xedc>
  408114:	48 8b 74 24 48       	mov    0x48(%rsp),%rsi
  408119:	e8 a2 a8 ff ff       	callq  4029c0 <_ZNSs4_Rep10_M_destroyERKSaIcE@plt>
  40811e:	e9 e9 f8 ff ff       	jmpq   407a0c <_ZN6GetOpt9GetOpt_pp6_parseERKSt6vectorISsSaISsEE+0xedc>
  408123:	e9 7f fc ff ff       	jmpq   407da7 <_ZN6GetOpt9GetOpt_pp6_parseERKSt6vectorISsSaISsEE+0x1277>
  408128:	8b 50 f8             	mov    -0x8(%rax),%edx
  40812b:	8d 4a ff             	lea    -0x1(%rdx),%ecx
  40812e:	89 48 f8             	mov    %ecx,-0x8(%rax)
  408131:	89 d0                	mov    %edx,%eax
  408133:	eb d7                	jmp    40810c <_ZN6GetOpt9GetOpt_pp6_parseERKSt6vectorISsSaISsEE+0x15dc>
  408135:	b9 50 2c 40 00       	mov    $0x402c50,%ecx
  40813a:	48 8d 57 10          	lea    0x10(%rdi),%rdx
  40813e:	48 85 c9             	test   %rcx,%rcx
  408141:	74 36                	je     408179 <_ZN6GetOpt9GetOpt_pp6_parseERKSt6vectorISsSaISsEE+0x1649>
  408143:	b8 ff ff ff ff       	mov    $0xffffffff,%eax
  408148:	f0 0f c1 02          	lock xadd %eax,(%rdx)
  40814c:	85 c0                	test   %eax,%eax
  40814e:	0f 8f 72 fb ff ff    	jg     407cc6 <_ZN6GetOpt9GetOpt_pp6_parseERKSt6vectorISsSaISsEE+0x1196>
  408154:	48 8d b4 24 50 03 00 	lea    0x350(%rsp),%rsi
  40815b:	00 
  40815c:	e8 5f a8 ff ff       	callq  4029c0 <_ZNSs4_Rep10_M_destroyERKSaIcE@plt>
  408161:	e9 60 fb ff ff       	jmpq   407cc6 <_ZN6GetOpt9GetOpt_pp6_parseERKSt6vectorISsSaISsEE+0x1196>
  408166:	48 89 c5             	mov    %rax,%rbp
  408169:	48 89 df             	mov    %rbx,%rdi
  40816c:	e8 bf a8 ff ff       	callq  402a30 <_ZdlPv@plt>
  408171:	48 89 ef             	mov    %rbp,%rdi
  408174:	e8 37 ab ff ff       	callq  402cb0 <_Unwind_Resume@plt>
  408179:	8b 50 f8             	mov    -0x8(%rax),%edx
  40817c:	8d 4a ff             	lea    -0x1(%rdx),%ecx
  40817f:	89 48 f8             	mov    %ecx,-0x8(%rax)
  408182:	89 d0                	mov    %edx,%eax
  408184:	eb c6                	jmp    40814c <_ZN6GetOpt9GetOpt_pp6_parseERKSt6vectorISsSaISsEE+0x161c>
  408186:	4c 89 e7             	mov    %r12,%rdi
  408189:	48 89 c3             	mov    %rax,%rbx
  40818c:	e8 9f a8 ff ff       	callq  402a30 <_ZdlPv@plt>
  408191:	e9 ff fb ff ff       	jmpq   407d95 <_ZN6GetOpt9GetOpt_pp6_parseERKSt6vectorISsSaISsEE+0x1265>
  408196:	90                   	nop
  408197:	90                   	nop
  408198:	90                   	nop
  408199:	90                   	nop
  40819a:	90                   	nop
  40819b:	90                   	nop
  40819c:	90                   	nop
  40819d:	90                   	nop
  40819e:	90                   	nop
  40819f:	90                   	nop

00000000004081a0 <_ZN6GetOpt9GetOpt_pp15_parse_sub_fileERKSs>:
  4081a0:	41 56                	push   %r14
  4081a2:	41 55                	push   %r13
  4081a4:	49 89 f5             	mov    %rsi,%r13
  4081a7:	41 54                	push   %r12
  4081a9:	55                   	push   %rbp
  4081aa:	48 89 fd             	mov    %rdi,%rbp
  4081ad:	53                   	push   %rbx
  4081ae:	48 81 ec 50 02 00 00 	sub    $0x250,%rsp
  4081b5:	4c 8b 36             	mov    (%rsi),%r14
  4081b8:	48 8d bc 24 40 01 00 	lea    0x140(%rsp),%rdi
  4081bf:	00 
  4081c0:	64 48 8b 04 25 28 00 	mov    %fs:0x28,%rax
  4081c7:	00 00 
  4081c9:	48 89 84 24 48 02 00 	mov    %rax,0x248(%rsp)
  4081d0:	00 
  4081d1:	31 c0                	xor    %eax,%eax
  4081d3:	e8 88 a6 ff ff       	callq  402860 <_ZNSt8ios_baseC2Ev@plt>
  4081d8:	48 8b 1d 49 a7 20 00 	mov    0x20a749(%rip),%rbx        # 612928 <_ZTTSt14basic_ifstreamIcSt11char_traitsIcEE@@GLIBCXX_3.4+0x8>
  4081df:	c6 84 24 20 02 00 00 	movb   $0x0,0x220(%rsp)
  4081e6:	00 
  4081e7:	48 8d 7c 24 40       	lea    0x40(%rsp),%rdi
  4081ec:	4c 8b 25 3d a7 20 00 	mov    0x20a73d(%rip),%r12        # 612930 <_ZTTSt14basic_ifstreamIcSt11char_traitsIcEE@@GLIBCXX_3.4+0x10>
  4081f3:	48 c7 84 24 40 01 00 	movq   $0x6122f0,0x140(%rsp)
  4081fa:	00 f0 22 61 00 
  4081ff:	31 f6                	xor    %esi,%esi
  408201:	48 c7 84 24 18 02 00 	movq   $0x0,0x218(%rsp)
  408208:	00 00 00 00 00 
  40820d:	c6 84 24 21 02 00 00 	movb   $0x0,0x221(%rsp)
  408214:	00 
  408215:	48 8b 43 e8          	mov    -0x18(%rbx),%rax
  408219:	48 c7 84 24 28 02 00 	movq   $0x0,0x228(%rsp)
  408220:	00 00 00 00 00 
  408225:	48 c7 84 24 30 02 00 	movq   $0x0,0x230(%rsp)
  40822c:	00 00 00 00 00 
  408231:	48 c7 84 24 38 02 00 	movq   $0x0,0x238(%rsp)
  408238:	00 00 00 00 00 
  40823d:	48 c7 84 24 40 02 00 	movq   $0x0,0x240(%rsp)
  408244:	00 00 00 00 00 
  408249:	48 89 5c 24 40       	mov    %rbx,0x40(%rsp)
  40824e:	4c 89 64 04 40       	mov    %r12,0x40(%rsp,%rax,1)
  408253:	48 c7 44 24 48 00 00 	movq   $0x0,0x48(%rsp)
  40825a:	00 00 
  40825c:	48 03 7b e8          	add    -0x18(%rbx),%rdi
  408260:	e8 1b a9 ff ff       	callq  402b80 <_ZNSt9basic_iosIcSt11char_traitsIcEE4initEPSt15basic_streambufIcS1_E@plt>
  408265:	48 8d 44 24 40       	lea    0x40(%rsp),%rax
  40826a:	48 c7 44 24 40 98 24 	movq   $0x612498,0x40(%rsp)
  408271:	61 00 
  408273:	48 c7 84 24 40 01 00 	movq   $0x6124c0,0x140(%rsp)
  40827a:	00 c0 24 61 00 
  40827f:	48 8d 78 10          	lea    0x10(%rax),%rdi
  408283:	e8 f8 a7 ff ff       	callq  402a80 <_ZNSt13basic_filebufIcSt11char_traitsIcEEC1Ev@plt>
  408288:	48 8d 44 24 40       	lea    0x40(%rsp),%rax
  40828d:	48 8d 70 10          	lea    0x10(%rax),%rsi
  408291:	48 8d b8 00 01 00 00 	lea    0x100(%rax),%rdi
  408298:	e8 e3 a8 ff ff       	callq  402b80 <_ZNSt9basic_iosIcSt11char_traitsIcEE4initEPSt15basic_streambufIcS1_E@plt>
  40829d:	48 8d 44 24 40       	lea    0x40(%rsp),%rax
  4082a2:	ba 08 00 00 00       	mov    $0x8,%edx
  4082a7:	4c 89 f6             	mov    %r14,%rsi
  4082aa:	48 8d 78 10          	lea    0x10(%rax),%rdi
  4082ae:	e8 6d a7 ff ff       	callq  402a20 <_ZNSt13basic_filebufIcSt11char_traitsIcEE4openEPKcSt13_Ios_Openmode@plt>
  4082b3:	48 85 c0             	test   %rax,%rax
  4082b6:	48 8d 7c 24 40       	lea    0x40(%rsp),%rdi
  4082bb:	48 8b 44 24 40       	mov    0x40(%rsp),%rax
  4082c0:	0f 84 ce 01 00 00    	je     408494 <_ZN6GetOpt9GetOpt_pp15_parse_sub_fileERKSs+0x2f4>
  4082c6:	48 03 78 e8          	add    -0x18(%rax),%rdi
  4082ca:	31 f6                	xor    %esi,%esi
  4082cc:	e8 9f a9 ff ff       	callq  402c70 <_ZNSt9basic_iosIcSt11char_traitsIcEE5clearESt12_Ios_Iostate@plt>
  4082d1:	f6 84 24 60 01 00 00 	testb  $0x5,0x160(%rsp)
  4082d8:	05 
  4082d9:	0f 85 ee 02 00 00    	jne    4085cd <_ZN6GetOpt9GetOpt_pp15_parse_sub_fileERKSs+0x42d>
  4082df:	48 c7 44 24 20 00 00 	movq   $0x0,0x20(%rsp)
  4082e6:	00 00 
  4082e8:	48 c7 44 24 28 00 00 	movq   $0x0,0x28(%rsp)
  4082ef:	00 00 
  4082f1:	48 c7 44 24 30 00 00 	movq   $0x0,0x30(%rsp)
  4082f8:	00 00 
  4082fa:	48 c7 44 24 10 18 23 	movq   $0x612318,0x10(%rsp)
  408301:	61 00 
  408303:	eb 1b                	jmp    408320 <_ZN6GetOpt9GetOpt_pp15_parse_sub_fileERKSs+0x180>
  408305:	0f 1f 00             	nopl   (%rax)
  408308:	48 8d 74 24 10       	lea    0x10(%rsp),%rsi
  40830d:	e8 fe a5 ff ff       	callq  402910 <_ZNSsC1ERKSs@plt>
  408312:	48 8b 44 24 28       	mov    0x28(%rsp),%rax
  408317:	48 83 c0 08          	add    $0x8,%rax
  40831b:	48 89 44 24 28       	mov    %rax,0x28(%rsp)
  408320:	48 8d 74 24 10       	lea    0x10(%rsp),%rsi
  408325:	48 8d 7c 24 40       	lea    0x40(%rsp),%rdi
  40832a:	e8 81 a5 ff ff       	callq  4028b0 <_ZStrsIcSt11char_traitsIcESaIcEERSt13basic_istreamIT_T0_ES7_RSbIS4_S5_T1_E@plt>
  40832f:	48 8b 10             	mov    (%rax),%rdx
  408332:	48 8b 52 e8          	mov    -0x18(%rdx),%rdx
  408336:	f6 44 10 20 05       	testb  $0x5,0x20(%rax,%rdx,1)
  40833b:	75 23                	jne    408360 <_ZN6GetOpt9GetOpt_pp15_parse_sub_fileERKSs+0x1c0>
  40833d:	48 8b 7c 24 28       	mov    0x28(%rsp),%rdi
  408342:	48 3b 7c 24 30       	cmp    0x30(%rsp),%rdi
  408347:	0f 84 33 01 00 00    	je     408480 <_ZN6GetOpt9GetOpt_pp15_parse_sub_fileERKSs+0x2e0>
  40834d:	48 85 ff             	test   %rdi,%rdi
  408350:	75 b6                	jne    408308 <_ZN6GetOpt9GetOpt_pp15_parse_sub_fileERKSs+0x168>
  408352:	31 c0                	xor    %eax,%eax
  408354:	eb c1                	jmp    408317 <_ZN6GetOpt9GetOpt_pp15_parse_sub_fileERKSs+0x177>
  408356:	66 2e 0f 1f 84 00 00 	nopw   %cs:0x0(%rax,%rax,1)
  40835d:	00 00 00 
  408360:	48 8d 74 24 20       	lea    0x20(%rsp),%rsi
  408365:	48 89 ef             	mov    %rbp,%rdi
  408368:	e8 c3 e7 ff ff       	callq  406b30 <_ZN6GetOpt9GetOpt_pp6_parseERKSt6vectorISsSaISsEE>
  40836d:	48 8b 44 24 10       	mov    0x10(%rsp),%rax
  408372:	48 8d 78 e8          	lea    -0x18(%rax),%rdi
  408376:	48 81 ff 00 23 61 00 	cmp    $0x612300,%rdi
  40837d:	0f 85 a5 01 00 00    	jne    408528 <_ZN6GetOpt9GetOpt_pp15_parse_sub_fileERKSs+0x388>
  408383:	4c 8b 6c 24 28       	mov    0x28(%rsp),%r13
  408388:	48 8b 6c 24 20       	mov    0x20(%rsp),%rbp
  40838d:	49 39 ed             	cmp    %rbp,%r13
  408390:	0f 84 12 01 00 00    	je     4084a8 <_ZN6GetOpt9GetOpt_pp15_parse_sub_fileERKSs+0x308>
  408396:	b8 50 2c 40 00       	mov    $0x402c50,%eax
  40839b:	48 85 c0             	test   %rax,%rax
  40839e:	0f 84 b2 01 00 00    	je     408556 <_ZN6GetOpt9GetOpt_pp15_parse_sub_fileERKSs+0x3b6>
  4083a4:	0f 1f 40 00          	nopl   0x0(%rax)
  4083a8:	48 8b 45 00          	mov    0x0(%rbp),%rax
  4083ac:	48 8d 78 e8          	lea    -0x18(%rax),%rdi
  4083b0:	48 81 ff 00 23 61 00 	cmp    $0x612300,%rdi
  4083b7:	0f 85 f3 00 00 00    	jne    4084b0 <_ZN6GetOpt9GetOpt_pp15_parse_sub_fileERKSs+0x310>
  4083bd:	48 83 c5 08          	add    $0x8,%rbp
  4083c1:	49 39 ed             	cmp    %rbp,%r13
  4083c4:	75 e2                	jne    4083a8 <_ZN6GetOpt9GetOpt_pp15_parse_sub_fileERKSs+0x208>
  4083c6:	48 8b 7c 24 20       	mov    0x20(%rsp),%rdi
  4083cb:	48 85 ff             	test   %rdi,%rdi
  4083ce:	74 05                	je     4083d5 <_ZN6GetOpt9GetOpt_pp15_parse_sub_fileERKSs+0x235>
  4083d0:	e8 5b a6 ff ff       	callq  402a30 <_ZdlPv@plt>
  4083d5:	48 8d 7c 24 50       	lea    0x50(%rsp),%rdi
  4083da:	48 c7 44 24 40 98 24 	movq   $0x612498,0x40(%rsp)
  4083e1:	61 00 
  4083e3:	48 c7 84 24 40 01 00 	movq   $0x6124c0,0x140(%rsp)
  4083ea:	00 c0 24 61 00 
  4083ef:	48 c7 44 24 50 f0 26 	movq   $0x6126f0,0x50(%rsp)
  4083f6:	61 00 
  4083f8:	e8 43 a4 ff ff       	callq  402840 <_ZNSt13basic_filebufIcSt11char_traitsIcEE5closeEv@plt>
  4083fd:	48 8d bc 24 b8 00 00 	lea    0xb8(%rsp),%rdi
  408404:	00 
  408405:	e8 c6 a8 ff ff       	callq  402cd0 <_ZNSt12__basic_fileIcED1Ev@plt>
  40840a:	48 8d bc 24 88 00 00 	lea    0x88(%rsp),%rdi
  408411:	00 
  408412:	48 c7 44 24 50 b0 23 	movq   $0x6123b0,0x50(%rsp)
  408419:	61 00 
  40841b:	e8 70 a7 ff ff       	callq  402b90 <_ZNSt6localeD1Ev@plt>
  408420:	48 8b 43 e8          	mov    -0x18(%rbx),%rax
  408424:	48 8d bc 24 40 01 00 	lea    0x140(%rsp),%rdi
  40842b:	00 
  40842c:	48 89 5c 24 40       	mov    %rbx,0x40(%rsp)
  408431:	4c 89 64 04 40       	mov    %r12,0x40(%rsp,%rax,1)
  408436:	48 c7 44 24 48 00 00 	movq   $0x0,0x48(%rsp)
  40843d:	00 00 
  40843f:	48 c7 84 24 40 01 00 	movq   $0x6122f0,0x140(%rsp)
  408446:	00 f0 22 61 00 
  40844b:	e8 20 a4 ff ff       	callq  402870 <_ZNSt8ios_baseD2Ev@plt>
  408450:	48 8b 84 24 48 02 00 	mov    0x248(%rsp),%rax
  408457:	00 
  408458:	64 48 33 04 25 28 00 	xor    %fs:0x28,%rax
  40845f:	00 00 
  408461:	0f 85 8e 00 00 00    	jne    4084f5 <_ZN6GetOpt9GetOpt_pp15_parse_sub_fileERKSs+0x355>
  408467:	48 81 c4 50 02 00 00 	add    $0x250,%rsp
  40846e:	5b                   	pop    %rbx
  40846f:	5d                   	pop    %rbp
  408470:	41 5c                	pop    %r12
  408472:	41 5d                	pop    %r13
  408474:	41 5e                	pop    %r14
  408476:	c3                   	retq   
  408477:	66 0f 1f 84 00 00 00 	nopw   0x0(%rax,%rax,1)
  40847e:	00 00 
  408480:	48 8d 74 24 10       	lea    0x10(%rsp),%rsi
  408485:	48 8d 7c 24 20       	lea    0x20(%rsp),%rdi
  40848a:	e8 31 d0 ff ff       	callq  4054c0 <_ZNSt6vectorISsSaISsEE19_M_emplace_back_auxIIRKSsEEEvDpOT_>
  40848f:	e9 8c fe ff ff       	jmpq   408320 <_ZN6GetOpt9GetOpt_pp15_parse_sub_fileERKSs+0x180>
  408494:	48 03 78 e8          	add    -0x18(%rax),%rdi
  408498:	8b 77 20             	mov    0x20(%rdi),%esi
  40849b:	83 ce 04             	or     $0x4,%esi
  40849e:	e8 cd a7 ff ff       	callq  402c70 <_ZNSt9basic_iosIcSt11char_traitsIcEE5clearESt12_Ios_Iostate@plt>
  4084a3:	e9 29 fe ff ff       	jmpq   4082d1 <_ZN6GetOpt9GetOpt_pp15_parse_sub_fileERKSs+0x131>
  4084a8:	4c 89 ef             	mov    %r13,%rdi
  4084ab:	e9 1b ff ff ff       	jmpq   4083cb <_ZN6GetOpt9GetOpt_pp15_parse_sub_fileERKSs+0x22b>
  4084b0:	ba ff ff ff ff       	mov    $0xffffffff,%edx
  4084b5:	f0 0f c1 50 f8       	lock xadd %edx,-0x8(%rax)
  4084ba:	85 d2                	test   %edx,%edx
  4084bc:	0f 8f fb fe ff ff    	jg     4083bd <_ZN6GetOpt9GetOpt_pp15_parse_sub_fileERKSs+0x21d>
  4084c2:	48 8d 74 24 0f       	lea    0xf(%rsp),%rsi
  4084c7:	e8 f4 a4 ff ff       	callq  4029c0 <_ZNSs4_Rep10_M_destroyERKSaIcE@plt>
  4084cc:	e9 ec fe ff ff       	jmpq   4083bd <_ZN6GetOpt9GetOpt_pp15_parse_sub_fileERKSs+0x21d>
  4084d1:	48 89 c3             	mov    %rax,%rbx
  4084d4:	48 8d bc 24 40 01 00 	lea    0x140(%rsp),%rdi
  4084db:	00 
  4084dc:	48 c7 84 24 40 01 00 	movq   $0x6122f0,0x140(%rsp)
  4084e3:	00 f0 22 61 00 
  4084e8:	e8 83 a3 ff ff       	callq  402870 <_ZNSt8ios_baseD2Ev@plt>
  4084ed:	48 89 df             	mov    %rbx,%rdi
  4084f0:	e8 bb a7 ff ff       	callq  402cb0 <_Unwind_Resume@plt>
  4084f5:	e8 b6 a5 ff ff       	callq  402ab0 <__stack_chk_fail@plt>
  4084fa:	48 8d 7c 24 50       	lea    0x50(%rsp),%rdi
  4084ff:	48 89 c5             	mov    %rax,%rbp
  408502:	e8 09 a7 ff ff       	callq  402c10 <_ZNSt13basic_filebufIcSt11char_traitsIcEED1Ev@plt>
  408507:	48 89 e8             	mov    %rbp,%rax
  40850a:	48 8b 53 e8          	mov    -0x18(%rbx),%rdx
  40850e:	48 89 5c 24 40       	mov    %rbx,0x40(%rsp)
  408513:	48 89 c3             	mov    %rax,%rbx
  408516:	4c 89 64 14 40       	mov    %r12,0x40(%rsp,%rdx,1)
  40851b:	48 c7 44 24 48 00 00 	movq   $0x0,0x48(%rsp)
  408522:	00 00 
  408524:	eb ae                	jmp    4084d4 <_ZN6GetOpt9GetOpt_pp15_parse_sub_fileERKSs+0x334>
  408526:	eb e2                	jmp    40850a <_ZN6GetOpt9GetOpt_pp15_parse_sub_fileERKSs+0x36a>
  408528:	b9 50 2c 40 00       	mov    $0x402c50,%ecx
  40852d:	48 8d 57 10          	lea    0x10(%rdi),%rdx
  408531:	48 85 c9             	test   %rcx,%rcx
  408534:	74 3f                	je     408575 <_ZN6GetOpt9GetOpt_pp15_parse_sub_fileERKSs+0x3d5>
  408536:	b8 ff ff ff ff       	mov    $0xffffffff,%eax
  40853b:	f0 0f c1 02          	lock xadd %eax,(%rdx)
  40853f:	85 c0                	test   %eax,%eax
  408541:	0f 8f 3c fe ff ff    	jg     408383 <_ZN6GetOpt9GetOpt_pp15_parse_sub_fileERKSs+0x1e3>
  408547:	48 8d 74 24 0f       	lea    0xf(%rsp),%rsi
  40854c:	e8 6f a4 ff ff       	callq  4029c0 <_ZNSs4_Rep10_M_destroyERKSaIcE@plt>
  408551:	e9 2d fe ff ff       	jmpq   408383 <_ZN6GetOpt9GetOpt_pp15_parse_sub_fileERKSs+0x1e3>
  408556:	48 8b 45 00          	mov    0x0(%rbp),%rax
  40855a:	48 8d 78 e8          	lea    -0x18(%rax),%rdi
  40855e:	48 81 ff 00 23 61 00 	cmp    $0x612300,%rdi
  408565:	75 1b                	jne    408582 <_ZN6GetOpt9GetOpt_pp15_parse_sub_fileERKSs+0x3e2>
  408567:	48 83 c5 08          	add    $0x8,%rbp
  40856b:	49 39 ed             	cmp    %rbp,%r13
  40856e:	75 e6                	jne    408556 <_ZN6GetOpt9GetOpt_pp15_parse_sub_fileERKSs+0x3b6>
  408570:	e9 51 fe ff ff       	jmpq   4083c6 <_ZN6GetOpt9GetOpt_pp15_parse_sub_fileERKSs+0x226>
  408575:	8b 50 f8             	mov    -0x8(%rax),%edx
  408578:	8d 4a ff             	lea    -0x1(%rdx),%ecx
  40857b:	89 48 f8             	mov    %ecx,-0x8(%rax)
  40857e:	89 d0                	mov    %edx,%eax
  408580:	eb bd                	jmp    40853f <_ZN6GetOpt9GetOpt_pp15_parse_sub_fileERKSs+0x39f>
  408582:	8b 50 f8             	mov    -0x8(%rax),%edx
  408585:	8d 4a ff             	lea    -0x1(%rdx),%ecx
  408588:	85 d2                	test   %edx,%edx
  40858a:	89 48 f8             	mov    %ecx,-0x8(%rax)
  40858d:	7f d8                	jg     408567 <_ZN6GetOpt9GetOpt_pp15_parse_sub_fileERKSs+0x3c7>
  40858f:	48 8d 74 24 0f       	lea    0xf(%rsp),%rsi
  408594:	e8 27 a4 ff ff       	callq  4029c0 <_ZNSs4_Rep10_M_destroyERKSaIcE@plt>
  408599:	eb cc                	jmp    408567 <_ZN6GetOpt9GetOpt_pp15_parse_sub_fileERKSs+0x3c7>
  40859b:	48 89 c3             	mov    %rax,%rbx
  40859e:	48 8b 44 24 10       	mov    0x10(%rsp),%rax
  4085a3:	48 8d 74 24 0f       	lea    0xf(%rsp),%rsi
  4085a8:	48 8d 78 e8          	lea    -0x18(%rax),%rdi
  4085ac:	e8 8f a3 ff ff       	callq  402940 <_ZNSs4_Rep10_M_disposeERKSaIcE@plt>
  4085b1:	48 8d 7c 24 20       	lea    0x20(%rsp),%rdi
  4085b6:	e8 75 cd ff ff       	callq  405330 <_ZNSt6vectorISsSaISsEED1Ev>
  4085bb:	48 8d 7c 24 40       	lea    0x40(%rsp),%rdi
  4085c0:	e8 8b a2 ff ff       	callq  402850 <_ZNSt14basic_ifstreamIcSt11char_traitsIcEED1Ev@plt>
  4085c5:	48 89 df             	mov    %rbx,%rdi
  4085c8:	e8 e3 a6 ff ff       	callq  402cb0 <_Unwind_Resume@plt>
  4085cd:	bf 10 00 00 00       	mov    $0x10,%edi
  4085d2:	e8 f9 a2 ff ff       	callq  4028d0 <__cxa_allocate_exception@plt>
  4085d7:	48 8d 78 08          	lea    0x8(%rax),%rdi
  4085db:	48 c7 00 f0 f4 40 00 	movq   $0x40f4f0,(%rax)
  4085e2:	4c 89 ee             	mov    %r13,%rsi
  4085e5:	48 89 c3             	mov    %rax,%rbx
  4085e8:	e8 23 a3 ff ff       	callq  402910 <_ZNSsC1ERKSs@plt>
  4085ed:	ba 10 4d 40 00       	mov    $0x404d10,%edx
  4085f2:	be 00 f3 40 00       	mov    $0x40f300,%esi
  4085f7:	48 89 df             	mov    %rbx,%rdi
  4085fa:	e8 91 a6 ff ff       	callq  402c90 <__cxa_throw@plt>
  4085ff:	48 89 df             	mov    %rbx,%rdi
  408602:	48 c7 03 70 f3 40 00 	movq   $0x40f370,(%rbx)
  408609:	48 89 c5             	mov    %rax,%rbp
  40860c:	e8 af a6 ff ff       	callq  402cc0 <_ZNSt9exceptionD2Ev@plt>
  408611:	48 89 df             	mov    %rbx,%rdi
  408614:	48 89 eb             	mov    %rbp,%rbx
  408617:	e8 74 a3 ff ff       	callq  402990 <__cxa_free_exception@plt>
  40861c:	eb 9d                	jmp    4085bb <_ZN6GetOpt9GetOpt_pp15_parse_sub_fileERKSs+0x41b>
  40861e:	48 89 c3             	mov    %rax,%rbx
  408621:	eb 98                	jmp    4085bb <_ZN6GetOpt9GetOpt_pp15_parse_sub_fileERKSs+0x41b>
  408623:	90                   	nop
  408624:	90                   	nop
  408625:	90                   	nop
  408626:	90                   	nop
  408627:	90                   	nop
  408628:	90                   	nop
  408629:	90                   	nop
  40862a:	90                   	nop
  40862b:	90                   	nop
  40862c:	90                   	nop
  40862d:	90                   	nop
  40862e:	90                   	nop
  40862f:	90                   	nop

0000000000408630 <_ZN6GetOpt9GetOpt_ppC1EiPKPKc>:
  408630:	41 55                	push   %r13
  408632:	48 8d 47 08          	lea    0x8(%rdi),%rax
  408636:	49 89 d5             	mov    %rdx,%r13
  408639:	41 54                	push   %r12
  40863b:	41 89 f4             	mov    %esi,%r12d
  40863e:	55                   	push   %rbp
  40863f:	53                   	push   %rbx
  408640:	48 89 fb             	mov    %rdi,%rbx
  408643:	48 83 ec 38          	sub    $0x38,%rsp
  408647:	48 89 47 18          	mov    %rax,0x18(%rdi)
  40864b:	48 89 47 20          	mov    %rax,0x20(%rdi)
  40864f:	48 8d 47 38          	lea    0x38(%rdi),%rax
  408653:	c7 47 08 00 00 00 00 	movl   $0x0,0x8(%rdi)
  40865a:	48 c7 47 10 00 00 00 	movq   $0x0,0x10(%rdi)
  408661:	00 
  408662:	48 c7 47 28 00 00 00 	movq   $0x0,0x28(%rdi)
  408669:	00 
  40866a:	c7 47 38 00 00 00 00 	movl   $0x0,0x38(%rdi)
  408671:	48 89 47 48          	mov    %rax,0x48(%rdi)
  408675:	48 89 47 50          	mov    %rax,0x50(%rdi)
  408679:	48 8d 47 78          	lea    0x78(%rdi),%rax
  40867d:	48 c7 47 40 00 00 00 	movq   $0x0,0x40(%rdi)
  408684:	00 
  408685:	48 c7 47 58 00 00 00 	movq   $0x0,0x58(%rdi)
  40868c:	00 
  40868d:	c7 47 60 00 00 00 00 	movl   $0x0,0x60(%rdi)
  408694:	48 c7 47 70 18 23 61 	movq   $0x612318,0x70(%rdi)
  40869b:	00 
  40869c:	48 c7 47 78 00 00 00 	movq   $0x0,0x78(%rdi)
  4086a3:	00 
  4086a4:	48 c7 87 80 00 00 00 	movq   $0x0,0x80(%rdi)
  4086ab:	00 00 00 00 
  4086af:	48 89 87 88 00 00 00 	mov    %rax,0x88(%rdi)
  4086b6:	e8 a5 c7 ff ff       	callq  404e60 <_ZN6GetOpt9GetOpt_pp11_init_flagsEv>
  4086bb:	48 8d 6c 24 10       	lea    0x10(%rsp),%rbp
  4086c0:	4c 89 ee             	mov    %r13,%rsi
  4086c3:	44 89 e7             	mov    %r12d,%edi
  4086c6:	48 c7 44 24 10 00 00 	movq   $0x0,0x10(%rsp)
  4086cd:	00 00 
  4086cf:	48 c7 44 24 18 00 00 	movq   $0x0,0x18(%rsp)
  4086d6:	00 00 
  4086d8:	48 89 ea             	mov    %rbp,%rdx
  4086db:	48 c7 44 24 20 00 00 	movq   $0x0,0x20(%rsp)
  4086e2:	00 00 
  4086e4:	e8 c7 da ff ff       	callq  4061b0 <_ZN6GetOpt9GetOpt_pp20_argc_argv_to_vectorEiPKPKcRSt6vectorISsSaISsEE>
  4086e9:	48 89 ee             	mov    %rbp,%rsi
  4086ec:	48 89 df             	mov    %rbx,%rdi
  4086ef:	e8 3c e4 ff ff       	callq  406b30 <_ZN6GetOpt9GetOpt_pp6_parseERKSt6vectorISsSaISsEE>
  4086f4:	48 8b 6c 24 18       	mov    0x18(%rsp),%rbp
  4086f9:	48 8b 5c 24 10       	mov    0x10(%rsp),%rbx
  4086fe:	48 39 dd             	cmp    %rbx,%rbp
  408701:	74 48                	je     40874b <_ZN6GetOpt9GetOpt_ppC1EiPKPKc+0x11b>
  408703:	b8 50 2c 40 00       	mov    $0x402c50,%eax
  408708:	48 85 c0             	test   %rax,%rax
  40870b:	0f 84 ab 00 00 00    	je     4087bc <_ZN6GetOpt9GetOpt_ppC1EiPKPKc+0x18c>
  408711:	0f 1f 80 00 00 00 00 	nopl   0x0(%rax)
  408718:	48 8b 03             	mov    (%rbx),%rax
  40871b:	48 8d 78 e8          	lea    -0x18(%rax),%rdi
  40871f:	48 81 ff 00 23 61 00 	cmp    $0x612300,%rdi
  408726:	75 28                	jne    408750 <_ZN6GetOpt9GetOpt_ppC1EiPKPKc+0x120>
  408728:	48 83 c3 08          	add    $0x8,%rbx
  40872c:	48 39 dd             	cmp    %rbx,%rbp
  40872f:	75 e7                	jne    408718 <_ZN6GetOpt9GetOpt_ppC1EiPKPKc+0xe8>
  408731:	48 8b 7c 24 10       	mov    0x10(%rsp),%rdi
  408736:	48 85 ff             	test   %rdi,%rdi
  408739:	74 05                	je     408740 <_ZN6GetOpt9GetOpt_ppC1EiPKPKc+0x110>
  40873b:	e8 f0 a2 ff ff       	callq  402a30 <_ZdlPv@plt>
  408740:	48 83 c4 38          	add    $0x38,%rsp
  408744:	5b                   	pop    %rbx
  408745:	5d                   	pop    %rbp
  408746:	41 5c                	pop    %r12
  408748:	41 5d                	pop    %r13
  40874a:	c3                   	retq   
  40874b:	48 89 ef             	mov    %rbp,%rdi
  40874e:	eb e6                	jmp    408736 <_ZN6GetOpt9GetOpt_ppC1EiPKPKc+0x106>
  408750:	ba ff ff ff ff       	mov    $0xffffffff,%edx
  408755:	f0 0f c1 50 f8       	lock xadd %edx,-0x8(%rax)
  40875a:	85 d2                	test   %edx,%edx
  40875c:	7f ca                	jg     408728 <_ZN6GetOpt9GetOpt_ppC1EiPKPKc+0xf8>
  40875e:	48 8d 74 24 0f       	lea    0xf(%rsp),%rsi
  408763:	e8 58 a2 ff ff       	callq  4029c0 <_ZNSs4_Rep10_M_destroyERKSaIcE@plt>
  408768:	eb be                	jmp    408728 <_ZN6GetOpt9GetOpt_ppC1EiPKPKc+0xf8>
  40876a:	48 89 ef             	mov    %rbp,%rdi
  40876d:	49 89 c4             	mov    %rax,%r12
  408770:	e8 bb cb ff ff       	callq  405330 <_ZNSt6vectorISsSaISsEED1Ev>
  408775:	48 8d bb 88 00 00 00 	lea    0x88(%rbx),%rdi
  40877c:	e8 9f c9 ff ff       	callq  405120 <_ZN6GetOpt9GetOpt_pp13TokensDeleterD1Ev>
  408781:	48 8b 43 70          	mov    0x70(%rbx),%rax
  408785:	48 89 ee             	mov    %rbp,%rsi
  408788:	48 8d 78 e8          	lea    -0x18(%rax),%rdi
  40878c:	e8 af a1 ff ff       	callq  402940 <_ZNSs4_Rep10_M_disposeERKSaIcE@plt>
  408791:	48 8b 73 40          	mov    0x40(%rbx),%rsi
  408795:	48 8d 7b 30          	lea    0x30(%rbx),%rdi
  408799:	e8 02 d1 ff ff       	callq  4058a0 <_ZNSt8_Rb_treeISsSt4pairIKSsN6GetOpt10OptionDataEESt10_Select1stIS4_ESt4lessISsESaIS4_EE8_M_eraseEPSt13_Rb_tree_nodeIS4_E>
  40879e:	48 8b 73 10          	mov    0x10(%rbx),%rsi
  4087a2:	48 89 df             	mov    %rbx,%rdi
  4087a5:	e8 26 cf ff ff       	callq  4056d0 <_ZNSt8_Rb_treeIcSt4pairIKcN6GetOpt10OptionDataEESt10_Select1stIS4_ESt4lessIcESaIS4_EE8_M_eraseEPSt13_Rb_tree_nodeIS4_E>
  4087aa:	4c 89 e7             	mov    %r12,%rdi
  4087ad:	e8 fe a4 ff ff       	callq  402cb0 <_Unwind_Resume@plt>
  4087b2:	49 89 c4             	mov    %rax,%r12
  4087b5:	48 8d 6c 24 10       	lea    0x10(%rsp),%rbp
  4087ba:	eb b9                	jmp    408775 <_ZN6GetOpt9GetOpt_ppC1EiPKPKc+0x145>
  4087bc:	48 8b 03             	mov    (%rbx),%rax
  4087bf:	48 8d 78 e8          	lea    -0x18(%rax),%rdi
  4087c3:	48 81 ff 00 23 61 00 	cmp    $0x612300,%rdi
  4087ca:	75 0e                	jne    4087da <_ZN6GetOpt9GetOpt_ppC1EiPKPKc+0x1aa>
  4087cc:	48 83 c3 08          	add    $0x8,%rbx
  4087d0:	48 39 dd             	cmp    %rbx,%rbp
  4087d3:	75 e7                	jne    4087bc <_ZN6GetOpt9GetOpt_ppC1EiPKPKc+0x18c>
  4087d5:	e9 57 ff ff ff       	jmpq   408731 <_ZN6GetOpt9GetOpt_ppC1EiPKPKc+0x101>
  4087da:	8b 50 f8             	mov    -0x8(%rax),%edx
  4087dd:	8d 4a ff             	lea    -0x1(%rdx),%ecx
  4087e0:	85 d2                	test   %edx,%edx
  4087e2:	89 48 f8             	mov    %ecx,-0x8(%rax)
  4087e5:	7f e5                	jg     4087cc <_ZN6GetOpt9GetOpt_ppC1EiPKPKc+0x19c>
  4087e7:	48 8d 74 24 0f       	lea    0xf(%rsp),%rsi
  4087ec:	e8 cf a1 ff ff       	callq  4029c0 <_ZNSs4_Rep10_M_destroyERKSaIcE@plt>
  4087f1:	eb d9                	jmp    4087cc <_ZN6GetOpt9GetOpt_ppC1EiPKPKc+0x19c>
  4087f3:	90                   	nop
  4087f4:	90                   	nop
  4087f5:	90                   	nop
  4087f6:	90                   	nop
  4087f7:	90                   	nop
  4087f8:	90                   	nop
  4087f9:	90                   	nop
  4087fa:	90                   	nop
  4087fb:	90                   	nop
  4087fc:	90                   	nop
  4087fd:	90                   	nop
  4087fe:	90                   	nop
  4087ff:	90                   	nop

0000000000408800 <_ZN6GetOpt7_OptionD1Ev>:
  408800:	48 c7 07 50 fa 40 00 	movq   $0x40fa50,(%rdi)
  408807:	c3                   	retq   
  408808:	90                   	nop
  408809:	90                   	nop
  40880a:	90                   	nop
  40880b:	90                   	nop
  40880c:	90                   	nop
  40880d:	90                   	nop
  40880e:	90                   	nop
  40880f:	90                   	nop

0000000000408810 <_ZN6GetOpt7_OptionD0Ev>:
  408810:	48 c7 07 50 fa 40 00 	movq   $0x40fa50,(%rdi)
  408817:	e9 14 a2 ff ff       	jmpq   402a30 <_ZdlPv@plt>
  40881c:	90                   	nop
  40881d:	90                   	nop
  40881e:	90                   	nop
  40881f:	90                   	nop

0000000000408820 <_ZN10RelaxationIfLl100EE7iterateEv._omp_fn.1>:
  408820:	41 54                	push   %r12
  408822:	49 89 fc             	mov    %rdi,%r12
  408825:	55                   	push   %rbp
  408826:	53                   	push   %rbx
  408827:	48 8b 1f             	mov    (%rdi),%rbx
  40882a:	e8 c1 a4 ff ff       	callq  402cf0 <omp_get_num_threads@plt>
  40882f:	48 63 e8             	movslq %eax,%rbp
  408832:	e8 e9 a3 ff ff       	callq  402c20 <omp_get_thread_num@plt>
  408837:	48 63 c8             	movslq %eax,%rcx
  40883a:	b8 62 00 00 00       	mov    $0x62,%eax
  40883f:	48 99                	cqto   
  408841:	48 f7 fd             	idiv   %rbp
  408844:	48 39 d1             	cmp    %rdx,%rcx
  408847:	7d 06                	jge    40884f <_ZN10RelaxationIfLl100EE7iterateEv._omp_fn.1+0x2f>
  408849:	48 83 c0 01          	add    $0x1,%rax
  40884d:	31 d2                	xor    %edx,%edx
  40884f:	48 0f af c8          	imul   %rax,%rcx
  408853:	48 01 ca             	add    %rcx,%rdx
  408856:	48 01 d0             	add    %rdx,%rax
  408859:	48 39 c2             	cmp    %rax,%rdx
  40885c:	0f 8d f9 00 00 00    	jge    40895b <_ZN10RelaxationIfLl100EE7iterateEv._omp_fn.1+0x13b>
  408862:	4c 8d 5a 01          	lea    0x1(%rdx),%r11
  408866:	48 8d 68 01          	lea    0x1(%rax),%rbp
  40886a:	0f 57 db             	xorps  %xmm3,%xmm3
  40886d:	f3 0f 10 25 fb 72 00 	movss  0x72fb(%rip),%xmm4        # 40fb70 <_ZTVN6GetOpt13_DefValOptionIdNS_8_OptionTIdEEEE+0x30>
  408874:	00 
  408875:	4b 8d 04 9b          	lea    (%r11,%r11,4),%rax
  408879:	4c 8d 04 80          	lea    (%rax,%rax,4),%r8
  40887d:	0f 28 eb             	movaps %xmm3,%xmm5
  408880:	49 c1 e0 04          	shl    $0x4,%r8
  408884:	4d 03 44 24 08       	add    0x8(%r12),%r8
  408889:	0f 1f 80 00 00 00 00 	nopl   0x0(%rax)
  408890:	4c 89 da             	mov    %r11,%rdx
  408893:	49 83 c3 01          	add    $0x1,%r11
  408897:	41 c7 00 00 00 00 00 	movl   $0x0,(%r8)
  40889e:	48 8d 14 92          	lea    (%rdx,%rdx,4),%rdx
  4088a2:	b8 01 00 00 00       	mov    $0x1,%eax
  4088a7:	4c 8d 14 92          	lea    (%rdx,%rdx,4),%r10
  4088ab:	4b 8d 14 9b          	lea    (%r11,%r11,4),%rdx
  4088af:	4c 8d 0c 92          	lea    (%rdx,%rdx,4),%r9
  4088b3:	4b 8d 54 9b f6       	lea    -0xa(%r11,%r11,4),%rdx
  4088b8:	49 c1 e2 04          	shl    $0x4,%r10
  4088bc:	48 8d 3c 92          	lea    (%rdx,%rdx,4),%rdi
  4088c0:	49 c1 e1 04          	shl    $0x4,%r9
  4088c4:	48 c1 e7 04          	shl    $0x4,%rdi
  4088c8:	eb 17                	jmp    4088e1 <_ZN10RelaxationIfLl100EE7iterateEv._omp_fn.1+0xc1>
  4088ca:	66 0f 1f 44 00 00    	nopw   0x0(%rax,%rax,1)
  4088d0:	f3 0f 5d c8          	minss  %xmm0,%xmm1
  4088d4:	48 83 f8 63          	cmp    $0x63,%rax
  4088d8:	f3 41 0f 11 4c 80 fc 	movss  %xmm1,-0x4(%r8,%rax,4)
  4088df:	74 5f                	je     408940 <_ZN10RelaxationIfLl100EE7iterateEv._omp_fn.1+0x120>
  4088e1:	48 8b 4b 28          	mov    0x28(%rbx),%rcx
  4088e5:	48 89 c6             	mov    %rax,%rsi
  4088e8:	f3 0f 10 0b          	movss  (%rbx),%xmm1
  4088ec:	4a 8d 14 11          	lea    (%rcx,%r10,1),%rdx
  4088f0:	48 8d 0c b1          	lea    (%rcx,%rsi,4),%rcx
  4088f4:	f3 0f 10 14 82       	movss  (%rdx,%rax,4),%xmm2
  4088f9:	48 83 c0 01          	add    $0x1,%rax
  4088fd:	0f 28 c2             	movaps %xmm2,%xmm0
  408900:	f3 0f 59 c4          	mulss  %xmm4,%xmm0
  408904:	f3 42 0f 58 04 09    	addss  (%rcx,%r9,1),%xmm0
  40890a:	f3 0f 58 04 39       	addss  (%rcx,%rdi,1),%xmm0
  40890f:	f3 0f 58 04 82       	addss  (%rdx,%rax,4),%xmm0
  408914:	f3 0f 58 44 82 f8    	addss  -0x8(%rdx,%rax,4),%xmm0
  40891a:	f3 0f 59 43 04       	mulss  0x4(%rbx),%xmm0
  40891f:	f3 0f 58 c2          	addss  %xmm2,%xmm0
  408923:	0f 2e d8             	ucomiss %xmm0,%xmm3
  408926:	76 a8                	jbe    4088d0 <_ZN10RelaxationIfLl100EE7iterateEv._omp_fn.1+0xb0>
  408928:	0f 28 cd             	movaps %xmm5,%xmm1
  40892b:	48 83 f8 63          	cmp    $0x63,%rax
  40892f:	f3 41 0f 11 4c 80 fc 	movss  %xmm1,-0x4(%r8,%rax,4)
  408936:	75 a9                	jne    4088e1 <_ZN10RelaxationIfLl100EE7iterateEv._omp_fn.1+0xc1>
  408938:	0f 1f 84 00 00 00 00 	nopl   0x0(%rax,%rax,1)
  40893f:	00 
  408940:	41 c7 80 8c 01 00 00 	movl   $0x0,0x18c(%r8)
  408947:	00 00 00 00 
  40894b:	49 81 c0 90 01 00 00 	add    $0x190,%r8
  408952:	4c 39 dd             	cmp    %r11,%rbp
  408955:	0f 85 35 ff ff ff    	jne    408890 <_ZN10RelaxationIfLl100EE7iterateEv._omp_fn.1+0x70>
  40895b:	5b                   	pop    %rbx
  40895c:	5d                   	pop    %rbp
  40895d:	41 5c                	pop    %r12
  40895f:	c3                   	retq   

0000000000408960 <_ZN10RelaxationIdLl100EE7iterateEv._omp_fn.9>:
  408960:	41 54                	push   %r12
  408962:	49 89 fc             	mov    %rdi,%r12
  408965:	55                   	push   %rbp
  408966:	53                   	push   %rbx
  408967:	48 8b 1f             	mov    (%rdi),%rbx
  40896a:	e8 81 a3 ff ff       	callq  402cf0 <omp_get_num_threads@plt>
  40896f:	48 63 e8             	movslq %eax,%rbp
  408972:	e8 a9 a2 ff ff       	callq  402c20 <omp_get_thread_num@plt>
  408977:	48 63 c8             	movslq %eax,%rcx
  40897a:	b8 62 00 00 00       	mov    $0x62,%eax
  40897f:	48 99                	cqto   
  408981:	48 f7 fd             	idiv   %rbp
  408984:	48 39 d1             	cmp    %rdx,%rcx
  408987:	7d 06                	jge    40898f <_ZN10RelaxationIdLl100EE7iterateEv._omp_fn.9+0x2f>
  408989:	48 83 c0 01          	add    $0x1,%rax
  40898d:	31 d2                	xor    %edx,%edx
  40898f:	48 0f af c8          	imul   %rax,%rcx
  408993:	48 01 ca             	add    %rcx,%rdx
  408996:	48 01 d0             	add    %rdx,%rax
  408999:	48 39 c2             	cmp    %rax,%rdx
  40899c:	0f 8d f0 00 00 00    	jge    408a92 <_ZN10RelaxationIdLl100EE7iterateEv._omp_fn.9+0x132>
  4089a2:	4c 8d 52 01          	lea    0x1(%rdx),%r10
  4089a6:	4c 8d 58 01          	lea    0x1(%rax),%r11
  4089aa:	48 8b 53 30          	mov    0x30(%rbx),%rdx
  4089ae:	66 0f 57 d2          	xorpd  %xmm2,%xmm2
  4089b2:	4b 8d 04 92          	lea    (%r10,%r10,4),%rax
  4089b6:	f2 0f 10 1d d2 71 00 	movsd  0x71d2(%rip),%xmm3        # 40fb90 <_ZTVN6GetOpt13_DefValOptionIdNS_8_OptionTIdEEEE+0x50>
  4089bd:	00 
  4089be:	48 8d 04 80          	lea    (%rax,%rax,4),%rax
  4089c2:	66 0f 28 e2          	movapd %xmm2,%xmm4
  4089c6:	48 c1 e0 05          	shl    $0x5,%rax
  4089ca:	48 89 c6             	mov    %rax,%rsi
  4089cd:	49 03 74 24 08       	add    0x8(%r12),%rsi
  4089d2:	4c 8d 4c 02 08       	lea    0x8(%rdx,%rax,1),%r9
  4089d7:	66 0f 1f 84 00 00 00 	nopw   0x0(%rax,%rax,1)
  4089de:	00 00 
  4089e0:	48 c7 06 00 00 00 00 	movq   $0x0,(%rsi)
  4089e7:	49 83 c2 01          	add    $0x1,%r10
  4089eb:	4d 8d 81 18 03 00 00 	lea    0x318(%r9),%r8
  4089f2:	49 8d b9 d8 fc ff ff 	lea    -0x328(%r9),%rdi
  4089f9:	4c 89 ca             	mov    %r9,%rdx
  4089fc:	b8 01 00 00 00       	mov    $0x1,%eax
  408a01:	eb 1d                	jmp    408a20 <_ZN10RelaxationIdLl100EE7iterateEv._omp_fn.9+0xc0>
  408a03:	0f 1f 44 00 00       	nopl   0x0(%rax,%rax,1)
  408a08:	f2 0f 10 0b          	movsd  (%rbx),%xmm1
  408a0c:	48 83 c2 08          	add    $0x8,%rdx
  408a10:	48 83 f8 63          	cmp    $0x63,%rax
  408a14:	f2 0f 5d c8          	minsd  %xmm0,%xmm1
  408a18:	f2 0f 11 4c c6 f8    	movsd  %xmm1,-0x8(%rsi,%rax,8)
  408a1e:	74 50                	je     408a70 <_ZN10RelaxationIdLl100EE7iterateEv._omp_fn.9+0x110>
  408a20:	f2 0f 10 0a          	movsd  (%rdx),%xmm1
  408a24:	48 89 c1             	mov    %rax,%rcx
  408a27:	48 83 c0 01          	add    $0x1,%rax
  408a2b:	66 0f 28 c1          	movapd %xmm1,%xmm0
  408a2f:	f2 0f 59 c3          	mulsd  %xmm3,%xmm0
  408a33:	f2 41 0f 58 04 c8    	addsd  (%r8,%rcx,8),%xmm0
  408a39:	f2 0f 58 04 cf       	addsd  (%rdi,%rcx,8),%xmm0
  408a3e:	f2 0f 58 42 08       	addsd  0x8(%rdx),%xmm0
  408a43:	f2 0f 58 42 f8       	addsd  -0x8(%rdx),%xmm0
  408a48:	f2 0f 59 43 08       	mulsd  0x8(%rbx),%xmm0
  408a4d:	f2 0f 58 c1          	addsd  %xmm1,%xmm0
  408a51:	66 0f 2e d0          	ucomisd %xmm0,%xmm2
  408a55:	76 b1                	jbe    408a08 <_ZN10RelaxationIdLl100EE7iterateEv._omp_fn.9+0xa8>
  408a57:	66 0f 28 cc          	movapd %xmm4,%xmm1
  408a5b:	48 83 c2 08          	add    $0x8,%rdx
  408a5f:	48 83 f8 63          	cmp    $0x63,%rax
  408a63:	f2 0f 11 4c c6 f8    	movsd  %xmm1,-0x8(%rsi,%rax,8)
  408a69:	75 b5                	jne    408a20 <_ZN10RelaxationIdLl100EE7iterateEv._omp_fn.9+0xc0>
  408a6b:	0f 1f 44 00 00       	nopl   0x0(%rax,%rax,1)
  408a70:	48 c7 86 18 03 00 00 	movq   $0x0,0x318(%rsi)
  408a77:	00 00 00 00 
  408a7b:	49 81 c1 20 03 00 00 	add    $0x320,%r9
  408a82:	48 81 c6 20 03 00 00 	add    $0x320,%rsi
  408a89:	4d 39 d3             	cmp    %r10,%r11
  408a8c:	0f 85 4e ff ff ff    	jne    4089e0 <_ZN10RelaxationIdLl100EE7iterateEv._omp_fn.9+0x80>
  408a92:	5b                   	pop    %rbx
  408a93:	5d                   	pop    %rbp
  408a94:	41 5c                	pop    %r12
  408a96:	c3                   	retq   
  408a97:	90                   	nop
  408a98:	90                   	nop
  408a99:	90                   	nop
  408a9a:	90                   	nop
  408a9b:	90                   	nop
  408a9c:	90                   	nop
  408a9d:	90                   	nop
  408a9e:	90                   	nop
  408a9f:	90                   	nop

0000000000408aa0 <_ZN10RelaxationIdLl500EE7iterateEv._omp_fn.11>:
  408aa0:	41 54                	push   %r12
  408aa2:	49 89 fc             	mov    %rdi,%r12
  408aa5:	55                   	push   %rbp
  408aa6:	53                   	push   %rbx
  408aa7:	48 8b 1f             	mov    (%rdi),%rbx
  408aaa:	e8 41 a2 ff ff       	callq  402cf0 <omp_get_num_threads@plt>
  408aaf:	48 63 e8             	movslq %eax,%rbp
  408ab2:	e8 69 a1 ff ff       	callq  402c20 <omp_get_thread_num@plt>
  408ab7:	48 63 c8             	movslq %eax,%rcx
  408aba:	b8 f2 01 00 00       	mov    $0x1f2,%eax
  408abf:	48 99                	cqto   
  408ac1:	48 f7 fd             	idiv   %rbp
  408ac4:	48 39 d1             	cmp    %rdx,%rcx
  408ac7:	7d 06                	jge    408acf <_ZN10RelaxationIdLl500EE7iterateEv._omp_fn.11+0x2f>
  408ac9:	48 83 c0 01          	add    $0x1,%rax
  408acd:	31 d2                	xor    %edx,%edx
  408acf:	48 0f af c8          	imul   %rax,%rcx
  408ad3:	48 01 ca             	add    %rcx,%rdx
  408ad6:	48 01 d0             	add    %rdx,%rax
  408ad9:	48 39 c2             	cmp    %rax,%rdx
  408adc:	0f 8d e0 00 00 00    	jge    408bc2 <_ZN10RelaxationIdLl500EE7iterateEv._omp_fn.11+0x122>
  408ae2:	4c 8d 52 01          	lea    0x1(%rdx),%r10
  408ae6:	4c 8d 58 01          	lea    0x1(%rax),%r11
  408aea:	48 8b 53 30          	mov    0x30(%rbx),%rdx
  408aee:	66 0f 57 d2          	xorpd  %xmm2,%xmm2
  408af2:	49 69 c2 a0 0f 00 00 	imul   $0xfa0,%r10,%rax
  408af9:	f2 0f 10 1d 8f 70 00 	movsd  0x708f(%rip),%xmm3        # 40fb90 <_ZTVN6GetOpt13_DefValOptionIdNS_8_OptionTIdEEEE+0x50>
  408b00:	00 
  408b01:	66 0f 28 e2          	movapd %xmm2,%xmm4
  408b05:	48 89 c6             	mov    %rax,%rsi
  408b08:	49 03 74 24 08       	add    0x8(%r12),%rsi
  408b0d:	4c 8d 4c 02 08       	lea    0x8(%rdx,%rax,1),%r9
  408b12:	66 0f 1f 44 00 00    	nopw   0x0(%rax,%rax,1)
  408b18:	48 c7 06 00 00 00 00 	movq   $0x0,(%rsi)
  408b1f:	49 83 c2 01          	add    $0x1,%r10
  408b23:	4d 8d 81 98 0f 00 00 	lea    0xf98(%r9),%r8
  408b2a:	49 8d b9 58 f0 ff ff 	lea    -0xfa8(%r9),%rdi
  408b31:	4c 89 ca             	mov    %r9,%rdx
  408b34:	b8 01 00 00 00       	mov    $0x1,%eax
  408b39:	eb 1f                	jmp    408b5a <_ZN10RelaxationIdLl500EE7iterateEv._omp_fn.11+0xba>
  408b3b:	0f 1f 44 00 00       	nopl   0x0(%rax,%rax,1)
  408b40:	f2 0f 10 0b          	movsd  (%rbx),%xmm1
  408b44:	f2 0f 5d c8          	minsd  %xmm0,%xmm1
  408b48:	48 83 c2 08          	add    $0x8,%rdx
  408b4c:	48 3d f3 01 00 00    	cmp    $0x1f3,%rax
  408b52:	f2 0f 11 4c c6 f8    	movsd  %xmm1,-0x8(%rsi,%rax,8)
  408b58:	74 46                	je     408ba0 <_ZN10RelaxationIdLl500EE7iterateEv._omp_fn.11+0x100>
  408b5a:	f2 0f 10 0a          	movsd  (%rdx),%xmm1
  408b5e:	48 89 c1             	mov    %rax,%rcx
  408b61:	48 83 c0 01          	add    $0x1,%rax
  408b65:	66 0f 28 c1          	movapd %xmm1,%xmm0
  408b69:	f2 0f 59 c3          	mulsd  %xmm3,%xmm0
  408b6d:	f2 41 0f 58 04 c8    	addsd  (%r8,%rcx,8),%xmm0
  408b73:	f2 0f 58 04 cf       	addsd  (%rdi,%rcx,8),%xmm0
  408b78:	f2 0f 58 42 08       	addsd  0x8(%rdx),%xmm0
  408b7d:	f2 0f 58 42 f8       	addsd  -0x8(%rdx),%xmm0
  408b82:	f2 0f 59 43 08       	mulsd  0x8(%rbx),%xmm0
  408b87:	f2 0f 58 c1          	addsd  %xmm1,%xmm0
  408b8b:	66 0f 2e d0          	ucomisd %xmm0,%xmm2
  408b8f:	76 af                	jbe    408b40 <_ZN10RelaxationIdLl500EE7iterateEv._omp_fn.11+0xa0>
  408b91:	66 0f 28 cc          	movapd %xmm4,%xmm1
  408b95:	eb b1                	jmp    408b48 <_ZN10RelaxationIdLl500EE7iterateEv._omp_fn.11+0xa8>
  408b97:	66 0f 1f 84 00 00 00 	nopw   0x0(%rax,%rax,1)
  408b9e:	00 00 
  408ba0:	48 c7 86 98 0f 00 00 	movq   $0x0,0xf98(%rsi)
  408ba7:	00 00 00 00 
  408bab:	49 81 c1 a0 0f 00 00 	add    $0xfa0,%r9
  408bb2:	48 81 c6 a0 0f 00 00 	add    $0xfa0,%rsi
  408bb9:	4d 39 d3             	cmp    %r10,%r11
  408bbc:	0f 85 56 ff ff ff    	jne    408b18 <_ZN10RelaxationIdLl500EE7iterateEv._omp_fn.11+0x78>
  408bc2:	5b                   	pop    %rbx
  408bc3:	5d                   	pop    %rbp
  408bc4:	41 5c                	pop    %r12
  408bc6:	c3                   	retq   
  408bc7:	90                   	nop
  408bc8:	90                   	nop
  408bc9:	90                   	nop
  408bca:	90                   	nop
  408bcb:	90                   	nop
  408bcc:	90                   	nop
  408bcd:	90                   	nop
  408bce:	90                   	nop
  408bcf:	90                   	nop

0000000000408bd0 <_ZN10RelaxationIdLl1000EE7iterateEv._omp_fn.13>:
  408bd0:	41 54                	push   %r12
  408bd2:	49 89 fc             	mov    %rdi,%r12
  408bd5:	55                   	push   %rbp
  408bd6:	53                   	push   %rbx
  408bd7:	48 8b 1f             	mov    (%rdi),%rbx
  408bda:	e8 11 a1 ff ff       	callq  402cf0 <omp_get_num_threads@plt>
  408bdf:	48 63 e8             	movslq %eax,%rbp
  408be2:	e8 39 a0 ff ff       	callq  402c20 <omp_get_thread_num@plt>
  408be7:	48 63 c8             	movslq %eax,%rcx
  408bea:	b8 e6 03 00 00       	mov    $0x3e6,%eax
  408bef:	48 99                	cqto   
  408bf1:	48 f7 fd             	idiv   %rbp
  408bf4:	48 39 d1             	cmp    %rdx,%rcx
  408bf7:	7d 06                	jge    408bff <_ZN10RelaxationIdLl1000EE7iterateEv._omp_fn.13+0x2f>
  408bf9:	48 83 c0 01          	add    $0x1,%rax
  408bfd:	31 d2                	xor    %edx,%edx
  408bff:	48 0f af c8          	imul   %rax,%rcx
  408c03:	48 01 ca             	add    %rcx,%rdx
  408c06:	48 01 d0             	add    %rdx,%rax
  408c09:	48 39 c2             	cmp    %rax,%rdx
  408c0c:	0f 8d e0 00 00 00    	jge    408cf2 <_ZN10RelaxationIdLl1000EE7iterateEv._omp_fn.13+0x122>
  408c12:	4c 8d 52 01          	lea    0x1(%rdx),%r10
  408c16:	4c 8d 58 01          	lea    0x1(%rax),%r11
  408c1a:	48 8b 53 30          	mov    0x30(%rbx),%rdx
  408c1e:	66 0f 57 d2          	xorpd  %xmm2,%xmm2
  408c22:	49 69 c2 40 1f 00 00 	imul   $0x1f40,%r10,%rax
  408c29:	f2 0f 10 1d 5f 6f 00 	movsd  0x6f5f(%rip),%xmm3        # 40fb90 <_ZTVN6GetOpt13_DefValOptionIdNS_8_OptionTIdEEEE+0x50>
  408c30:	00 
  408c31:	66 0f 28 e2          	movapd %xmm2,%xmm4
  408c35:	48 89 c6             	mov    %rax,%rsi
  408c38:	49 03 74 24 08       	add    0x8(%r12),%rsi
  408c3d:	4c 8d 4c 02 08       	lea    0x8(%rdx,%rax,1),%r9
  408c42:	66 0f 1f 44 00 00    	nopw   0x0(%rax,%rax,1)
  408c48:	48 c7 06 00 00 00 00 	movq   $0x0,(%rsi)
  408c4f:	49 83 c2 01          	add    $0x1,%r10
  408c53:	4d 8d 81 38 1f 00 00 	lea    0x1f38(%r9),%r8
  408c5a:	49 8d b9 b8 e0 ff ff 	lea    -0x1f48(%r9),%rdi
  408c61:	4c 89 ca             	mov    %r9,%rdx
  408c64:	b8 01 00 00 00       	mov    $0x1,%eax
  408c69:	eb 1f                	jmp    408c8a <_ZN10RelaxationIdLl1000EE7iterateEv._omp_fn.13+0xba>
  408c6b:	0f 1f 44 00 00       	nopl   0x0(%rax,%rax,1)
  408c70:	f2 0f 10 0b          	movsd  (%rbx),%xmm1
  408c74:	f2 0f 5d c8          	minsd  %xmm0,%xmm1
  408c78:	48 83 c2 08          	add    $0x8,%rdx
  408c7c:	48 3d e7 03 00 00    	cmp    $0x3e7,%rax
  408c82:	f2 0f 11 4c c6 f8    	movsd  %xmm1,-0x8(%rsi,%rax,8)
  408c88:	74 46                	je     408cd0 <_ZN10RelaxationIdLl1000EE7iterateEv._omp_fn.13+0x100>
  408c8a:	f2 0f 10 0a          	movsd  (%rdx),%xmm1
  408c8e:	48 89 c1             	mov    %rax,%rcx
  408c91:	48 83 c0 01          	add    $0x1,%rax
  408c95:	66 0f 28 c1          	movapd %xmm1,%xmm0
  408c99:	f2 0f 59 c3          	mulsd  %xmm3,%xmm0
  408c9d:	f2 41 0f 58 04 c8    	addsd  (%r8,%rcx,8),%xmm0
  408ca3:	f2 0f 58 04 cf       	addsd  (%rdi,%rcx,8),%xmm0
  408ca8:	f2 0f 58 42 08       	addsd  0x8(%rdx),%xmm0
  408cad:	f2 0f 58 42 f8       	addsd  -0x8(%rdx),%xmm0
  408cb2:	f2 0f 59 43 08       	mulsd  0x8(%rbx),%xmm0
  408cb7:	f2 0f 58 c1          	addsd  %xmm1,%xmm0
  408cbb:	66 0f 2e d0          	ucomisd %xmm0,%xmm2
  408cbf:	76 af                	jbe    408c70 <_ZN10RelaxationIdLl1000EE7iterateEv._omp_fn.13+0xa0>
  408cc1:	66 0f 28 cc          	movapd %xmm4,%xmm1
  408cc5:	eb b1                	jmp    408c78 <_ZN10RelaxationIdLl1000EE7iterateEv._omp_fn.13+0xa8>
  408cc7:	66 0f 1f 84 00 00 00 	nopw   0x0(%rax,%rax,1)
  408cce:	00 00 
  408cd0:	48 c7 86 38 1f 00 00 	movq   $0x0,0x1f38(%rsi)
  408cd7:	00 00 00 00 
  408cdb:	49 81 c1 40 1f 00 00 	add    $0x1f40,%r9
  408ce2:	48 81 c6 40 1f 00 00 	add    $0x1f40,%rsi
  408ce9:	4d 39 d3             	cmp    %r10,%r11
  408cec:	0f 85 56 ff ff ff    	jne    408c48 <_ZN10RelaxationIdLl1000EE7iterateEv._omp_fn.13+0x78>
  408cf2:	5b                   	pop    %rbx
  408cf3:	5d                   	pop    %rbp
  408cf4:	41 5c                	pop    %r12
  408cf6:	c3                   	retq   
  408cf7:	90                   	nop
  408cf8:	90                   	nop
  408cf9:	90                   	nop
  408cfa:	90                   	nop
  408cfb:	90                   	nop
  408cfc:	90                   	nop
  408cfd:	90                   	nop
  408cfe:	90                   	nop
  408cff:	90                   	nop

0000000000408d00 <_ZN10RelaxationIdLl10000EE7iterateEv._omp_fn.15>:
  408d00:	41 54                	push   %r12
  408d02:	49 89 fc             	mov    %rdi,%r12
  408d05:	55                   	push   %rbp
  408d06:	53                   	push   %rbx
  408d07:	48 8b 1f             	mov    (%rdi),%rbx
  408d0a:	e8 e1 9f ff ff       	callq  402cf0 <omp_get_num_threads@plt>
  408d0f:	48 63 e8             	movslq %eax,%rbp
  408d12:	e8 09 9f ff ff       	callq  402c20 <omp_get_thread_num@plt>
  408d17:	48 63 c8             	movslq %eax,%rcx
  408d1a:	b8 0e 27 00 00       	mov    $0x270e,%eax
  408d1f:	48 99                	cqto   
  408d21:	48 f7 fd             	idiv   %rbp
  408d24:	48 39 d1             	cmp    %rdx,%rcx
  408d27:	7d 06                	jge    408d2f <_ZN10RelaxationIdLl10000EE7iterateEv._omp_fn.15+0x2f>
  408d29:	48 83 c0 01          	add    $0x1,%rax
  408d2d:	31 d2                	xor    %edx,%edx
  408d2f:	48 0f af c8          	imul   %rax,%rcx
  408d33:	48 01 ca             	add    %rcx,%rdx
  408d36:	48 01 d0             	add    %rdx,%rax
  408d39:	48 39 c2             	cmp    %rax,%rdx
  408d3c:	0f 8d e0 00 00 00    	jge    408e22 <_ZN10RelaxationIdLl10000EE7iterateEv._omp_fn.15+0x122>
  408d42:	4c 8d 52 01          	lea    0x1(%rdx),%r10
  408d46:	4c 8d 58 01          	lea    0x1(%rax),%r11
  408d4a:	48 8b 53 30          	mov    0x30(%rbx),%rdx
  408d4e:	66 0f 57 d2          	xorpd  %xmm2,%xmm2
  408d52:	49 69 c2 80 38 01 00 	imul   $0x13880,%r10,%rax
  408d59:	f2 0f 10 1d 2f 6e 00 	movsd  0x6e2f(%rip),%xmm3        # 40fb90 <_ZTVN6GetOpt13_DefValOptionIdNS_8_OptionTIdEEEE+0x50>
  408d60:	00 
  408d61:	66 0f 28 e2          	movapd %xmm2,%xmm4
  408d65:	48 89 c6             	mov    %rax,%rsi
  408d68:	49 03 74 24 08       	add    0x8(%r12),%rsi
  408d6d:	4c 8d 4c 02 08       	lea    0x8(%rdx,%rax,1),%r9
  408d72:	66 0f 1f 44 00 00    	nopw   0x0(%rax,%rax,1)
  408d78:	48 c7 06 00 00 00 00 	movq   $0x0,(%rsi)
  408d7f:	49 83 c2 01          	add    $0x1,%r10
  408d83:	4d 8d 81 78 38 01 00 	lea    0x13878(%r9),%r8
  408d8a:	49 8d b9 78 c7 fe ff 	lea    -0x13888(%r9),%rdi
  408d91:	4c 89 ca             	mov    %r9,%rdx
  408d94:	b8 01 00 00 00       	mov    $0x1,%eax
  408d99:	eb 1f                	jmp    408dba <_ZN10RelaxationIdLl10000EE7iterateEv._omp_fn.15+0xba>
  408d9b:	0f 1f 44 00 00       	nopl   0x0(%rax,%rax,1)
  408da0:	f2 0f 10 0b          	movsd  (%rbx),%xmm1
  408da4:	f2 0f 5d c8          	minsd  %xmm0,%xmm1
  408da8:	48 83 c2 08          	add    $0x8,%rdx
  408dac:	48 3d 0f 27 00 00    	cmp    $0x270f,%rax
  408db2:	f2 0f 11 4c c6 f8    	movsd  %xmm1,-0x8(%rsi,%rax,8)
  408db8:	74 46                	je     408e00 <_ZN10RelaxationIdLl10000EE7iterateEv._omp_fn.15+0x100>
  408dba:	f2 0f 10 0a          	movsd  (%rdx),%xmm1
  408dbe:	48 89 c1             	mov    %rax,%rcx
  408dc1:	48 83 c0 01          	add    $0x1,%rax
  408dc5:	66 0f 28 c1          	movapd %xmm1,%xmm0
  408dc9:	f2 0f 59 c3          	mulsd  %xmm3,%xmm0
  408dcd:	f2 41 0f 58 04 c8    	addsd  (%r8,%rcx,8),%xmm0
  408dd3:	f2 0f 58 04 cf       	addsd  (%rdi,%rcx,8),%xmm0
  408dd8:	f2 0f 58 42 08       	addsd  0x8(%rdx),%xmm0
  408ddd:	f2 0f 58 42 f8       	addsd  -0x8(%rdx),%xmm0
  408de2:	f2 0f 59 43 08       	mulsd  0x8(%rbx),%xmm0
  408de7:	f2 0f 58 c1          	addsd  %xmm1,%xmm0
  408deb:	66 0f 2e d0          	ucomisd %xmm0,%xmm2
  408def:	76 af                	jbe    408da0 <_ZN10RelaxationIdLl10000EE7iterateEv._omp_fn.15+0xa0>
  408df1:	66 0f 28 cc          	movapd %xmm4,%xmm1
  408df5:	eb b1                	jmp    408da8 <_ZN10RelaxationIdLl10000EE7iterateEv._omp_fn.15+0xa8>
  408df7:	66 0f 1f 84 00 00 00 	nopw   0x0(%rax,%rax,1)
  408dfe:	00 00 
  408e00:	48 c7 86 78 38 01 00 	movq   $0x0,0x13878(%rsi)
  408e07:	00 00 00 00 
  408e0b:	49 81 c1 80 38 01 00 	add    $0x13880,%r9
  408e12:	48 81 c6 80 38 01 00 	add    $0x13880,%rsi
  408e19:	4d 39 d3             	cmp    %r10,%r11
  408e1c:	0f 85 56 ff ff ff    	jne    408d78 <_ZN10RelaxationIdLl10000EE7iterateEv._omp_fn.15+0x78>
  408e22:	5b                   	pop    %rbx
  408e23:	5d                   	pop    %rbp
  408e24:	41 5c                	pop    %r12
  408e26:	c3                   	retq   
  408e27:	90                   	nop
  408e28:	90                   	nop
  408e29:	90                   	nop
  408e2a:	90                   	nop
  408e2b:	90                   	nop
  408e2c:	90                   	nop
  408e2d:	90                   	nop
  408e2e:	90                   	nop
  408e2f:	90                   	nop

0000000000408e30 <_ZN10RelaxationIfLl100EEC2Effllff._omp_fn.0>:
  408e30:	41 57                	push   %r15
  408e32:	41 56                	push   %r14
  408e34:	41 55                	push   %r13
  408e36:	41 54                	push   %r12
  408e38:	55                   	push   %rbp
  408e39:	53                   	push   %rbx
  408e3a:	48 83 ec 18          	sub    $0x18,%rsp
  408e3e:	48 8b 2f             	mov    (%rdi),%rbp
  408e41:	e8 aa 9e ff ff       	callq  402cf0 <omp_get_num_threads@plt>
  408e46:	48 63 d8             	movslq %eax,%rbx
  408e49:	e8 d2 9d ff ff       	callq  402c20 <omp_get_thread_num@plt>
  408e4e:	48 63 c8             	movslq %eax,%rcx
  408e51:	b8 62 00 00 00       	mov    $0x62,%eax
  408e56:	48 99                	cqto   
  408e58:	48 f7 fb             	idiv   %rbx
  408e5b:	48 39 d1             	cmp    %rdx,%rcx
  408e5e:	7d 06                	jge    408e66 <_ZN10RelaxationIfLl100EEC2Effllff._omp_fn.0+0x36>
  408e60:	48 83 c0 01          	add    $0x1,%rax
  408e64:	31 d2                	xor    %edx,%edx
  408e66:	48 0f af c8          	imul   %rax,%rcx
  408e6a:	48 01 ca             	add    %rcx,%rdx
  408e6d:	48 01 d0             	add    %rdx,%rax
  408e70:	48 39 c2             	cmp    %rax,%rdx
  408e73:	0f 8d d2 00 00 00    	jge    408f4b <_ZN10RelaxationIfLl100EEC2Effllff._omp_fn.0+0x11b>
  408e79:	48 8b 4d 28          	mov    0x28(%rbp),%rcx
  408e7d:	0f 57 d2             	xorps  %xmm2,%xmm2
  408e80:	4c 8d 6a 01          	lea    0x1(%rdx),%r13
  408e84:	4c 8d 78 01          	lea    0x1(%rax),%r15
  408e88:	0f 1f 84 00 00 00 00 	nopl   0x0(%rax,%rax,1)
  408e8f:	00 
  408e90:	4b 8d 44 ad 00       	lea    0x0(%r13,%r13,4),%rax
  408e95:	bb 01 00 00 00       	mov    $0x1,%ebx
  408e9a:	4c 8d 34 80          	lea    (%rax,%rax,4),%r14
  408e9e:	4d 89 f4             	mov    %r14,%r12
  408ea1:	49 c1 e4 04          	shl    $0x4,%r12
  408ea5:	49 01 cc             	add    %rcx,%r12
  408ea8:	41 c7 04 24 00 00 00 	movl   $0x0,(%r12)
  408eaf:	00 
  408eb0:	eb 26                	jmp    408ed8 <_ZN10RelaxationIfLl100EEC2Effllff._omp_fn.0+0xa8>
  408eb2:	66 0f 1f 44 00 00    	nopw   0x0(%rax,%rax,1)
  408eb8:	f3 48 0f 2a 45 20    	cvtsi2ssq 0x20(%rbp),%xmm0
  408ebe:	f3 41 0f 11 04 9c    	movss  %xmm0,(%r12,%rbx,4)
  408ec4:	48 83 c3 01          	add    $0x1,%rbx
  408ec8:	48 83 fb 63          	cmp    $0x63,%rbx
  408ecc:	74 58                	je     408f26 <_ZN10RelaxationIfLl100EEC2Effllff._omp_fn.0+0xf6>
  408ece:	4d 89 f4             	mov    %r14,%r12
  408ed1:	49 c1 e4 04          	shl    $0x4,%r12
  408ed5:	49 01 cc             	add    %rcx,%r12
  408ed8:	48 8b 55 08          	mov    0x8(%rbp),%rdx
  408edc:	48 8b 45 10          	mov    0x10(%rbp),%rax
  408ee0:	4c 29 ea             	sub    %r13,%rdx
  408ee3:	48 29 d8             	sub    %rbx,%rax
  408ee6:	48 0f af d2          	imul   %rdx,%rdx
  408eea:	48 0f af c0          	imul   %rax,%rax
  408eee:	48 01 d0             	add    %rdx,%rax
  408ef1:	f2 48 0f 2a c0       	cvtsi2sd %rax,%xmm0
  408ef6:	f2 0f 51 c8          	sqrtsd %xmm0,%xmm1
  408efa:	66 0f 2e c9          	ucomisd %xmm1,%xmm1
  408efe:	7a 5a                	jp     408f5a <_ZN10RelaxationIfLl100EEC2Effllff._omp_fn.0+0x12a>
  408f00:	66 0f 14 c9          	unpcklpd %xmm1,%xmm1
  408f04:	f3 48 0f 2a 45 18    	cvtsi2ssq 0x18(%rbp),%xmm0
  408f0a:	66 0f 5a c9          	cvtpd2ps %xmm1,%xmm1
  408f0e:	0f 2e c1             	ucomiss %xmm1,%xmm0
  408f11:	77 a5                	ja     408eb8 <_ZN10RelaxationIfLl100EEC2Effllff._omp_fn.0+0x88>
  408f13:	0f 28 c2             	movaps %xmm2,%xmm0
  408f16:	f3 41 0f 11 04 9c    	movss  %xmm0,(%r12,%rbx,4)
  408f1c:	48 83 c3 01          	add    $0x1,%rbx
  408f20:	48 83 fb 63          	cmp    $0x63,%rbx
  408f24:	75 a8                	jne    408ece <_ZN10RelaxationIfLl100EEC2Effllff._omp_fn.0+0x9e>
  408f26:	4b 8d 44 ad 00       	lea    0x0(%r13,%r13,4),%rax
  408f2b:	49 83 c5 01          	add    $0x1,%r13
  408f2f:	48 8d 04 80          	lea    (%rax,%rax,4),%rax
  408f33:	48 c1 e0 04          	shl    $0x4,%rax
  408f37:	4d 39 ef             	cmp    %r13,%r15
  408f3a:	c7 84 01 8c 01 00 00 	movl   $0x0,0x18c(%rcx,%rax,1)
  408f41:	00 00 00 00 
  408f45:	0f 85 45 ff ff ff    	jne    408e90 <_ZN10RelaxationIfLl100EEC2Effllff._omp_fn.0+0x60>
  408f4b:	48 83 c4 18          	add    $0x18,%rsp
  408f4f:	5b                   	pop    %rbx
  408f50:	5d                   	pop    %rbp
  408f51:	41 5c                	pop    %r12
  408f53:	41 5d                	pop    %r13
  408f55:	41 5e                	pop    %r14
  408f57:	41 5f                	pop    %r15
  408f59:	c3                   	retq   
  408f5a:	f3 0f 11 54 24 0c    	movss  %xmm2,0xc(%rsp)
  408f60:	e8 3b 9a ff ff       	callq  4029a0 <sqrt@plt>
  408f65:	48 8b 4d 28          	mov    0x28(%rbp),%rcx
  408f69:	66 0f 28 c8          	movapd %xmm0,%xmm1
  408f6d:	f3 0f 10 54 24 0c    	movss  0xc(%rsp),%xmm2
  408f73:	eb 8b                	jmp    408f00 <_ZN10RelaxationIfLl100EEC2Effllff._omp_fn.0+0xd0>
  408f75:	90                   	nop
  408f76:	90                   	nop
  408f77:	90                   	nop
  408f78:	90                   	nop
  408f79:	90                   	nop
  408f7a:	90                   	nop
  408f7b:	90                   	nop
  408f7c:	90                   	nop
  408f7d:	90                   	nop
  408f7e:	90                   	nop
  408f7f:	90                   	nop

0000000000408f80 <_ZN10RelaxationIfLl500EEC2Effllff._omp_fn.2>:
  408f80:	41 57                	push   %r15
  408f82:	41 56                	push   %r14
  408f84:	41 55                	push   %r13
  408f86:	41 54                	push   %r12
  408f88:	55                   	push   %rbp
  408f89:	53                   	push   %rbx
  408f8a:	48 83 ec 18          	sub    $0x18,%rsp
  408f8e:	48 8b 2f             	mov    (%rdi),%rbp
  408f91:	e8 5a 9d ff ff       	callq  402cf0 <omp_get_num_threads@plt>
  408f96:	48 63 d8             	movslq %eax,%rbx
  408f99:	e8 82 9c ff ff       	callq  402c20 <omp_get_thread_num@plt>
  408f9e:	48 63 c8             	movslq %eax,%rcx
  408fa1:	b8 f2 01 00 00       	mov    $0x1f2,%eax
  408fa6:	48 99                	cqto   
  408fa8:	48 f7 fb             	idiv   %rbx
  408fab:	48 39 d1             	cmp    %rdx,%rcx
  408fae:	7d 06                	jge    408fb6 <_ZN10RelaxationIfLl500EEC2Effllff._omp_fn.2+0x36>
  408fb0:	48 83 c0 01          	add    $0x1,%rax
  408fb4:	31 d2                	xor    %edx,%edx
  408fb6:	48 0f af c8          	imul   %rax,%rcx
  408fba:	48 01 ca             	add    %rcx,%rdx
  408fbd:	48 01 d0             	add    %rdx,%rax
  408fc0:	48 39 c2             	cmp    %rax,%rdx
  408fc3:	0f 8d b6 00 00 00    	jge    40907f <_ZN10RelaxationIfLl500EEC2Effllff._omp_fn.2+0xff>
  408fc9:	48 8b 4d 28          	mov    0x28(%rbp),%rcx
  408fcd:	0f 57 d2             	xorps  %xmm2,%xmm2
  408fd0:	4c 8d 6a 01          	lea    0x1(%rdx),%r13
  408fd4:	4c 8d 78 01          	lea    0x1(%rax),%r15
  408fd8:	0f 1f 84 00 00 00 00 	nopl   0x0(%rax,%rax,1)
  408fdf:	00 
  408fe0:	4d 69 f5 d0 07 00 00 	imul   $0x7d0,%r13,%r14
  408fe7:	bb 01 00 00 00       	mov    $0x1,%ebx
  408fec:	4e 8d 24 31          	lea    (%rcx,%r14,1),%r12
  408ff0:	41 c7 04 24 00 00 00 	movl   $0x0,(%r12)
  408ff7:	00 
  408ff8:	eb 23                	jmp    40901d <_ZN10RelaxationIfLl500EEC2Effllff._omp_fn.2+0x9d>
  408ffa:	66 0f 1f 44 00 00    	nopw   0x0(%rax,%rax,1)
  409000:	f3 48 0f 2a 45 20    	cvtsi2ssq 0x20(%rbp),%xmm0
  409006:	f3 41 0f 11 04 9c    	movss  %xmm0,(%r12,%rbx,4)
  40900c:	48 83 c3 01          	add    $0x1,%rbx
  409010:	48 81 fb f3 01 00 00 	cmp    $0x1f3,%rbx
  409017:	74 47                	je     409060 <_ZN10RelaxationIfLl500EEC2Effllff._omp_fn.2+0xe0>
  409019:	4e 8d 24 31          	lea    (%rcx,%r14,1),%r12
  40901d:	48 8b 55 08          	mov    0x8(%rbp),%rdx
  409021:	48 8b 45 10          	mov    0x10(%rbp),%rax
  409025:	4c 29 ea             	sub    %r13,%rdx
  409028:	48 29 d8             	sub    %rbx,%rax
  40902b:	48 0f af d2          	imul   %rdx,%rdx
  40902f:	48 0f af c0          	imul   %rax,%rax
  409033:	48 01 d0             	add    %rdx,%rax
  409036:	f2 48 0f 2a c0       	cvtsi2sd %rax,%xmm0
  40903b:	f2 0f 51 c8          	sqrtsd %xmm0,%xmm1
  40903f:	66 0f 2e c9          	ucomisd %xmm1,%xmm1
  409043:	7a 49                	jp     40908e <_ZN10RelaxationIfLl500EEC2Effllff._omp_fn.2+0x10e>
  409045:	66 0f 14 c9          	unpcklpd %xmm1,%xmm1
  409049:	f3 48 0f 2a 45 18    	cvtsi2ssq 0x18(%rbp),%xmm0
  40904f:	66 0f 5a c9          	cvtpd2ps %xmm1,%xmm1
  409053:	0f 2e c1             	ucomiss %xmm1,%xmm0
  409056:	77 a8                	ja     409000 <_ZN10RelaxationIfLl500EEC2Effllff._omp_fn.2+0x80>
  409058:	0f 28 c2             	movaps %xmm2,%xmm0
  40905b:	eb a9                	jmp    409006 <_ZN10RelaxationIfLl500EEC2Effllff._omp_fn.2+0x86>
  40905d:	0f 1f 00             	nopl   (%rax)
  409060:	49 69 c5 d0 07 00 00 	imul   $0x7d0,%r13,%rax
  409067:	49 83 c5 01          	add    $0x1,%r13
  40906b:	4d 39 ef             	cmp    %r13,%r15
  40906e:	c7 84 01 cc 07 00 00 	movl   $0x0,0x7cc(%rcx,%rax,1)
  409075:	00 00 00 00 
  409079:	0f 85 61 ff ff ff    	jne    408fe0 <_ZN10RelaxationIfLl500EEC2Effllff._omp_fn.2+0x60>
  40907f:	48 83 c4 18          	add    $0x18,%rsp
  409083:	5b                   	pop    %rbx
  409084:	5d                   	pop    %rbp
  409085:	41 5c                	pop    %r12
  409087:	41 5d                	pop    %r13
  409089:	41 5e                	pop    %r14
  40908b:	41 5f                	pop    %r15
  40908d:	c3                   	retq   
  40908e:	f3 0f 11 54 24 0c    	movss  %xmm2,0xc(%rsp)
  409094:	e8 07 99 ff ff       	callq  4029a0 <sqrt@plt>
  409099:	48 8b 4d 28          	mov    0x28(%rbp),%rcx
  40909d:	66 0f 28 c8          	movapd %xmm0,%xmm1
  4090a1:	f3 0f 10 54 24 0c    	movss  0xc(%rsp),%xmm2
  4090a7:	eb 9c                	jmp    409045 <_ZN10RelaxationIfLl500EEC2Effllff._omp_fn.2+0xc5>
  4090a9:	90                   	nop
  4090aa:	90                   	nop
  4090ab:	90                   	nop
  4090ac:	90                   	nop
  4090ad:	90                   	nop
  4090ae:	90                   	nop
  4090af:	90                   	nop

00000000004090b0 <_ZN10RelaxationIfLl1000EEC2Effllff._omp_fn.4>:
  4090b0:	41 57                	push   %r15
  4090b2:	41 56                	push   %r14
  4090b4:	41 55                	push   %r13
  4090b6:	41 54                	push   %r12
  4090b8:	55                   	push   %rbp
  4090b9:	53                   	push   %rbx
  4090ba:	48 83 ec 18          	sub    $0x18,%rsp
  4090be:	48 8b 2f             	mov    (%rdi),%rbp
  4090c1:	e8 2a 9c ff ff       	callq  402cf0 <omp_get_num_threads@plt>
  4090c6:	48 63 d8             	movslq %eax,%rbx
  4090c9:	e8 52 9b ff ff       	callq  402c20 <omp_get_thread_num@plt>
  4090ce:	48 63 c8             	movslq %eax,%rcx
  4090d1:	b8 e6 03 00 00       	mov    $0x3e6,%eax
  4090d6:	48 99                	cqto   
  4090d8:	48 f7 fb             	idiv   %rbx
  4090db:	48 39 d1             	cmp    %rdx,%rcx
  4090de:	7d 06                	jge    4090e6 <_ZN10RelaxationIfLl1000EEC2Effllff._omp_fn.4+0x36>
  4090e0:	48 83 c0 01          	add    $0x1,%rax
  4090e4:	31 d2                	xor    %edx,%edx
  4090e6:	48 0f af c8          	imul   %rax,%rcx
  4090ea:	48 01 ca             	add    %rcx,%rdx
  4090ed:	48 01 d0             	add    %rdx,%rax
  4090f0:	48 39 c2             	cmp    %rax,%rdx
  4090f3:	0f 8d b6 00 00 00    	jge    4091af <_ZN10RelaxationIfLl1000EEC2Effllff._omp_fn.4+0xff>
  4090f9:	48 8b 4d 28          	mov    0x28(%rbp),%rcx
  4090fd:	0f 57 d2             	xorps  %xmm2,%xmm2
  409100:	4c 8d 6a 01          	lea    0x1(%rdx),%r13
  409104:	4c 8d 78 01          	lea    0x1(%rax),%r15
  409108:	0f 1f 84 00 00 00 00 	nopl   0x0(%rax,%rax,1)
  40910f:	00 
  409110:	4d 69 f5 a0 0f 00 00 	imul   $0xfa0,%r13,%r14
  409117:	bb 01 00 00 00       	mov    $0x1,%ebx
  40911c:	4e 8d 24 31          	lea    (%rcx,%r14,1),%r12
  409120:	41 c7 04 24 00 00 00 	movl   $0x0,(%r12)
  409127:	00 
  409128:	eb 23                	jmp    40914d <_ZN10RelaxationIfLl1000EEC2Effllff._omp_fn.4+0x9d>
  40912a:	66 0f 1f 44 00 00    	nopw   0x0(%rax,%rax,1)
  409130:	f3 48 0f 2a 45 20    	cvtsi2ssq 0x20(%rbp),%xmm0
  409136:	f3 41 0f 11 04 9c    	movss  %xmm0,(%r12,%rbx,4)
  40913c:	48 83 c3 01          	add    $0x1,%rbx
  409140:	48 81 fb e7 03 00 00 	cmp    $0x3e7,%rbx
  409147:	74 47                	je     409190 <_ZN10RelaxationIfLl1000EEC2Effllff._omp_fn.4+0xe0>
  409149:	4e 8d 24 31          	lea    (%rcx,%r14,1),%r12
  40914d:	48 8b 55 08          	mov    0x8(%rbp),%rdx
  409151:	48 8b 45 10          	mov    0x10(%rbp),%rax
  409155:	4c 29 ea             	sub    %r13,%rdx
  409158:	48 29 d8             	sub    %rbx,%rax
  40915b:	48 0f af d2          	imul   %rdx,%rdx
  40915f:	48 0f af c0          	imul   %rax,%rax
  409163:	48 01 d0             	add    %rdx,%rax
  409166:	f2 48 0f 2a c0       	cvtsi2sd %rax,%xmm0
  40916b:	f2 0f 51 c8          	sqrtsd %xmm0,%xmm1
  40916f:	66 0f 2e c9          	ucomisd %xmm1,%xmm1
  409173:	7a 49                	jp     4091be <_ZN10RelaxationIfLl1000EEC2Effllff._omp_fn.4+0x10e>
  409175:	66 0f 14 c9          	unpcklpd %xmm1,%xmm1
  409179:	f3 48 0f 2a 45 18    	cvtsi2ssq 0x18(%rbp),%xmm0
  40917f:	66 0f 5a c9          	cvtpd2ps %xmm1,%xmm1
  409183:	0f 2e c1             	ucomiss %xmm1,%xmm0
  409186:	77 a8                	ja     409130 <_ZN10RelaxationIfLl1000EEC2Effllff._omp_fn.4+0x80>
  409188:	0f 28 c2             	movaps %xmm2,%xmm0
  40918b:	eb a9                	jmp    409136 <_ZN10RelaxationIfLl1000EEC2Effllff._omp_fn.4+0x86>
  40918d:	0f 1f 00             	nopl   (%rax)
  409190:	49 69 c5 a0 0f 00 00 	imul   $0xfa0,%r13,%rax
  409197:	49 83 c5 01          	add    $0x1,%r13
  40919b:	4d 39 ef             	cmp    %r13,%r15
  40919e:	c7 84 01 9c 0f 00 00 	movl   $0x0,0xf9c(%rcx,%rax,1)
  4091a5:	00 00 00 00 
  4091a9:	0f 85 61 ff ff ff    	jne    409110 <_ZN10RelaxationIfLl1000EEC2Effllff._omp_fn.4+0x60>
  4091af:	48 83 c4 18          	add    $0x18,%rsp
  4091b3:	5b                   	pop    %rbx
  4091b4:	5d                   	pop    %rbp
  4091b5:	41 5c                	pop    %r12
  4091b7:	41 5d                	pop    %r13
  4091b9:	41 5e                	pop    %r14
  4091bb:	41 5f                	pop    %r15
  4091bd:	c3                   	retq   
  4091be:	f3 0f 11 54 24 0c    	movss  %xmm2,0xc(%rsp)
  4091c4:	e8 d7 97 ff ff       	callq  4029a0 <sqrt@plt>
  4091c9:	48 8b 4d 28          	mov    0x28(%rbp),%rcx
  4091cd:	66 0f 28 c8          	movapd %xmm0,%xmm1
  4091d1:	f3 0f 10 54 24 0c    	movss  0xc(%rsp),%xmm2
  4091d7:	eb 9c                	jmp    409175 <_ZN10RelaxationIfLl1000EEC2Effllff._omp_fn.4+0xc5>
  4091d9:	90                   	nop
  4091da:	90                   	nop
  4091db:	90                   	nop
  4091dc:	90                   	nop
  4091dd:	90                   	nop
  4091de:	90                   	nop
  4091df:	90                   	nop

00000000004091e0 <_ZN10RelaxationIfLl10000EEC2Effllff._omp_fn.6>:
  4091e0:	41 57                	push   %r15
  4091e2:	41 56                	push   %r14
  4091e4:	41 55                	push   %r13
  4091e6:	41 54                	push   %r12
  4091e8:	55                   	push   %rbp
  4091e9:	53                   	push   %rbx
  4091ea:	48 83 ec 18          	sub    $0x18,%rsp
  4091ee:	48 8b 2f             	mov    (%rdi),%rbp
  4091f1:	e8 fa 9a ff ff       	callq  402cf0 <omp_get_num_threads@plt>
  4091f6:	48 63 d8             	movslq %eax,%rbx
  4091f9:	e8 22 9a ff ff       	callq  402c20 <omp_get_thread_num@plt>
  4091fe:	48 63 c8             	movslq %eax,%rcx
  409201:	b8 0e 27 00 00       	mov    $0x270e,%eax
  409206:	48 99                	cqto   
  409208:	48 f7 fb             	idiv   %rbx
  40920b:	48 39 d1             	cmp    %rdx,%rcx
  40920e:	7d 06                	jge    409216 <_ZN10RelaxationIfLl10000EEC2Effllff._omp_fn.6+0x36>
  409210:	48 83 c0 01          	add    $0x1,%rax
  409214:	31 d2                	xor    %edx,%edx
  409216:	48 0f af c8          	imul   %rax,%rcx
  40921a:	48 01 ca             	add    %rcx,%rdx
  40921d:	48 01 d0             	add    %rdx,%rax
  409220:	48 39 c2             	cmp    %rax,%rdx
  409223:	0f 8d b6 00 00 00    	jge    4092df <_ZN10RelaxationIfLl10000EEC2Effllff._omp_fn.6+0xff>
  409229:	48 8b 4d 28          	mov    0x28(%rbp),%rcx
  40922d:	0f 57 d2             	xorps  %xmm2,%xmm2
  409230:	4c 8d 6a 01          	lea    0x1(%rdx),%r13
  409234:	4c 8d 78 01          	lea    0x1(%rax),%r15
  409238:	0f 1f 84 00 00 00 00 	nopl   0x0(%rax,%rax,1)
  40923f:	00 
  409240:	4d 69 f5 40 9c 00 00 	imul   $0x9c40,%r13,%r14
  409247:	bb 01 00 00 00       	mov    $0x1,%ebx
  40924c:	4e 8d 24 31          	lea    (%rcx,%r14,1),%r12
  409250:	41 c7 04 24 00 00 00 	movl   $0x0,(%r12)
  409257:	00 
  409258:	eb 23                	jmp    40927d <_ZN10RelaxationIfLl10000EEC2Effllff._omp_fn.6+0x9d>
  40925a:	66 0f 1f 44 00 00    	nopw   0x0(%rax,%rax,1)
  409260:	f3 48 0f 2a 45 20    	cvtsi2ssq 0x20(%rbp),%xmm0
  409266:	f3 41 0f 11 04 9c    	movss  %xmm0,(%r12,%rbx,4)
  40926c:	48 83 c3 01          	add    $0x1,%rbx
  409270:	48 81 fb 0f 27 00 00 	cmp    $0x270f,%rbx
  409277:	74 47                	je     4092c0 <_ZN10RelaxationIfLl10000EEC2Effllff._omp_fn.6+0xe0>
  409279:	4e 8d 24 31          	lea    (%rcx,%r14,1),%r12
  40927d:	48 8b 55 08          	mov    0x8(%rbp),%rdx
  409281:	48 8b 45 10          	mov    0x10(%rbp),%rax
  409285:	4c 29 ea             	sub    %r13,%rdx
  409288:	48 29 d8             	sub    %rbx,%rax
  40928b:	48 0f af d2          	imul   %rdx,%rdx
  40928f:	48 0f af c0          	imul   %rax,%rax
  409293:	48 01 d0             	add    %rdx,%rax
  409296:	f2 48 0f 2a c0       	cvtsi2sd %rax,%xmm0
  40929b:	f2 0f 51 c8          	sqrtsd %xmm0,%xmm1
  40929f:	66 0f 2e c9          	ucomisd %xmm1,%xmm1
  4092a3:	7a 49                	jp     4092ee <_ZN10RelaxationIfLl10000EEC2Effllff._omp_fn.6+0x10e>
  4092a5:	66 0f 14 c9          	unpcklpd %xmm1,%xmm1
  4092a9:	f3 48 0f 2a 45 18    	cvtsi2ssq 0x18(%rbp),%xmm0
  4092af:	66 0f 5a c9          	cvtpd2ps %xmm1,%xmm1
  4092b3:	0f 2e c1             	ucomiss %xmm1,%xmm0
  4092b6:	77 a8                	ja     409260 <_ZN10RelaxationIfLl10000EEC2Effllff._omp_fn.6+0x80>
  4092b8:	0f 28 c2             	movaps %xmm2,%xmm0
  4092bb:	eb a9                	jmp    409266 <_ZN10RelaxationIfLl10000EEC2Effllff._omp_fn.6+0x86>
  4092bd:	0f 1f 00             	nopl   (%rax)
  4092c0:	49 69 c5 40 9c 00 00 	imul   $0x9c40,%r13,%rax
  4092c7:	49 83 c5 01          	add    $0x1,%r13
  4092cb:	4d 39 ef             	cmp    %r13,%r15
  4092ce:	c7 84 01 3c 9c 00 00 	movl   $0x0,0x9c3c(%rcx,%rax,1)
  4092d5:	00 00 00 00 
  4092d9:	0f 85 61 ff ff ff    	jne    409240 <_ZN10RelaxationIfLl10000EEC2Effllff._omp_fn.6+0x60>
  4092df:	48 83 c4 18          	add    $0x18,%rsp
  4092e3:	5b                   	pop    %rbx
  4092e4:	5d                   	pop    %rbp
  4092e5:	41 5c                	pop    %r12
  4092e7:	41 5d                	pop    %r13
  4092e9:	41 5e                	pop    %r14
  4092eb:	41 5f                	pop    %r15
  4092ed:	c3                   	retq   
  4092ee:	f3 0f 11 54 24 0c    	movss  %xmm2,0xc(%rsp)
  4092f4:	e8 a7 96 ff ff       	callq  4029a0 <sqrt@plt>
  4092f9:	48 8b 4d 28          	mov    0x28(%rbp),%rcx
  4092fd:	66 0f 28 c8          	movapd %xmm0,%xmm1
  409301:	f3 0f 10 54 24 0c    	movss  0xc(%rsp),%xmm2
  409307:	eb 9c                	jmp    4092a5 <_ZN10RelaxationIfLl10000EEC2Effllff._omp_fn.6+0xc5>
  409309:	90                   	nop
  40930a:	90                   	nop
  40930b:	90                   	nop
  40930c:	90                   	nop
  40930d:	90                   	nop
  40930e:	90                   	nop
  40930f:	90                   	nop

0000000000409310 <_ZN10RelaxationIdLl100EEC2Eddlldd._omp_fn.8>:
  409310:	41 57                	push   %r15
  409312:	41 56                	push   %r14
  409314:	41 55                	push   %r13
  409316:	41 54                	push   %r12
  409318:	55                   	push   %rbp
  409319:	53                   	push   %rbx
  40931a:	48 83 ec 18          	sub    $0x18,%rsp
  40931e:	48 8b 2f             	mov    (%rdi),%rbp
  409321:	e8 ca 99 ff ff       	callq  402cf0 <omp_get_num_threads@plt>
  409326:	48 63 d8             	movslq %eax,%rbx
  409329:	e8 f2 98 ff ff       	callq  402c20 <omp_get_thread_num@plt>
  40932e:	48 63 c8             	movslq %eax,%rcx
  409331:	b8 62 00 00 00       	mov    $0x62,%eax
  409336:	48 99                	cqto   
  409338:	48 f7 fb             	idiv   %rbx
  40933b:	48 39 d1             	cmp    %rdx,%rcx
  40933e:	7d 06                	jge    409346 <_ZN10RelaxationIdLl100EEC2Eddlldd._omp_fn.8+0x36>
  409340:	48 83 c0 01          	add    $0x1,%rax
  409344:	31 d2                	xor    %edx,%edx
  409346:	48 0f af c8          	imul   %rax,%rcx
  40934a:	48 01 ca             	add    %rcx,%rdx
  40934d:	48 01 d0             	add    %rdx,%rax
  409350:	48 39 c2             	cmp    %rax,%rdx
  409353:	0f 8d cd 00 00 00    	jge    409426 <_ZN10RelaxationIdLl100EEC2Eddlldd._omp_fn.8+0x116>
  409359:	48 8b 4d 30          	mov    0x30(%rbp),%rcx
  40935d:	66 0f 57 d2          	xorpd  %xmm2,%xmm2
  409361:	4c 8d 6a 01          	lea    0x1(%rdx),%r13
  409365:	4c 8d 78 01          	lea    0x1(%rax),%r15
  409369:	0f 1f 80 00 00 00 00 	nopl   0x0(%rax)
  409370:	4b 8d 44 ad 00       	lea    0x0(%r13,%r13,4),%rax
  409375:	bb 01 00 00 00       	mov    $0x1,%ebx
  40937a:	4c 8d 34 80          	lea    (%rax,%rax,4),%r14
  40937e:	4d 89 f4             	mov    %r14,%r12
  409381:	49 c1 e4 05          	shl    $0x5,%r12
  409385:	49 01 cc             	add    %rcx,%r12
  409388:	49 c7 04 24 00 00 00 	movq   $0x0,(%r12)
  40938f:	00 
  409390:	eb 26                	jmp    4093b8 <_ZN10RelaxationIdLl100EEC2Eddlldd._omp_fn.8+0xa8>
  409392:	66 0f 1f 44 00 00    	nopw   0x0(%rax,%rax,1)
  409398:	f2 48 0f 2a 45 28    	cvtsi2sdq 0x28(%rbp),%xmm0
  40939e:	f2 41 0f 11 04 dc    	movsd  %xmm0,(%r12,%rbx,8)
  4093a4:	48 83 c3 01          	add    $0x1,%rbx
  4093a8:	48 83 fb 63          	cmp    $0x63,%rbx
  4093ac:	74 52                	je     409400 <_ZN10RelaxationIdLl100EEC2Eddlldd._omp_fn.8+0xf0>
  4093ae:	4d 89 f4             	mov    %r14,%r12
  4093b1:	49 c1 e4 05          	shl    $0x5,%r12
  4093b5:	49 01 cc             	add    %rcx,%r12
  4093b8:	48 8b 55 10          	mov    0x10(%rbp),%rdx
  4093bc:	48 8b 45 18          	mov    0x18(%rbp),%rax
  4093c0:	4c 29 ea             	sub    %r13,%rdx
  4093c3:	48 29 d8             	sub    %rbx,%rax
  4093c6:	48 0f af d2          	imul   %rdx,%rdx
  4093ca:	48 0f af c0          	imul   %rax,%rax
  4093ce:	48 01 d0             	add    %rdx,%rax
  4093d1:	f2 48 0f 2a c0       	cvtsi2sd %rax,%xmm0
  4093d6:	f2 0f 51 c8          	sqrtsd %xmm0,%xmm1
  4093da:	66 0f 2e c9          	ucomisd %xmm1,%xmm1
  4093de:	7a 55                	jp     409435 <_ZN10RelaxationIdLl100EEC2Eddlldd._omp_fn.8+0x125>
  4093e0:	f2 48 0f 2a 45 20    	cvtsi2sdq 0x20(%rbp),%xmm0
  4093e6:	66 0f 2e c1          	ucomisd %xmm1,%xmm0
  4093ea:	77 ac                	ja     409398 <_ZN10RelaxationIdLl100EEC2Eddlldd._omp_fn.8+0x88>
  4093ec:	66 0f 28 c2          	movapd %xmm2,%xmm0
  4093f0:	f2 41 0f 11 04 dc    	movsd  %xmm0,(%r12,%rbx,8)
  4093f6:	48 83 c3 01          	add    $0x1,%rbx
  4093fa:	48 83 fb 63          	cmp    $0x63,%rbx
  4093fe:	75 ae                	jne    4093ae <_ZN10RelaxationIdLl100EEC2Eddlldd._omp_fn.8+0x9e>
  409400:	4b 8d 44 ad 00       	lea    0x0(%r13,%r13,4),%rax
  409405:	49 83 c5 01          	add    $0x1,%r13
  409409:	48 8d 04 80          	lea    (%rax,%rax,4),%rax
  40940d:	48 c1 e0 05          	shl    $0x5,%rax
  409411:	4d 39 ef             	cmp    %r13,%r15
  409414:	48 c7 84 01 18 03 00 	movq   $0x0,0x318(%rcx,%rax,1)
  40941b:	00 00 00 00 00 
  409420:	0f 85 4a ff ff ff    	jne    409370 <_ZN10RelaxationIdLl100EEC2Eddlldd._omp_fn.8+0x60>
  409426:	48 83 c4 18          	add    $0x18,%rsp
  40942a:	5b                   	pop    %rbx
  40942b:	5d                   	pop    %rbp
  40942c:	41 5c                	pop    %r12
  40942e:	41 5d                	pop    %r13
  409430:	41 5e                	pop    %r14
  409432:	41 5f                	pop    %r15
  409434:	c3                   	retq   
  409435:	f2 0f 11 54 24 08    	movsd  %xmm2,0x8(%rsp)
  40943b:	e8 60 95 ff ff       	callq  4029a0 <sqrt@plt>
  409440:	48 8b 4d 30          	mov    0x30(%rbp),%rcx
  409444:	66 0f 28 c8          	movapd %xmm0,%xmm1
  409448:	f2 0f 10 54 24 08    	movsd  0x8(%rsp),%xmm2
  40944e:	eb 90                	jmp    4093e0 <_ZN10RelaxationIdLl100EEC2Eddlldd._omp_fn.8+0xd0>

0000000000409450 <_ZN10RelaxationIdLl500EEC2Eddlldd._omp_fn.10>:
  409450:	41 57                	push   %r15
  409452:	41 56                	push   %r14
  409454:	41 55                	push   %r13
  409456:	41 54                	push   %r12
  409458:	55                   	push   %rbp
  409459:	53                   	push   %rbx
  40945a:	48 83 ec 18          	sub    $0x18,%rsp
  40945e:	48 8b 2f             	mov    (%rdi),%rbp
  409461:	e8 8a 98 ff ff       	callq  402cf0 <omp_get_num_threads@plt>
  409466:	48 63 d8             	movslq %eax,%rbx
  409469:	e8 b2 97 ff ff       	callq  402c20 <omp_get_thread_num@plt>
  40946e:	48 63 c8             	movslq %eax,%rcx
  409471:	b8 f2 01 00 00       	mov    $0x1f2,%eax
  409476:	48 99                	cqto   
  409478:	48 f7 fb             	idiv   %rbx
  40947b:	48 39 d1             	cmp    %rdx,%rcx
  40947e:	7d 06                	jge    409486 <_ZN10RelaxationIdLl500EEC2Eddlldd._omp_fn.10+0x36>
  409480:	48 83 c0 01          	add    $0x1,%rax
  409484:	31 d2                	xor    %edx,%edx
  409486:	48 0f af c8          	imul   %rax,%rcx
  40948a:	48 01 ca             	add    %rcx,%rdx
  40948d:	48 01 d0             	add    %rdx,%rax
  409490:	48 39 c2             	cmp    %rax,%rdx
  409493:	0f 8d b7 00 00 00    	jge    409550 <_ZN10RelaxationIdLl500EEC2Eddlldd._omp_fn.10+0x100>
  409499:	48 8b 4d 30          	mov    0x30(%rbp),%rcx
  40949d:	66 0f 57 d2          	xorpd  %xmm2,%xmm2
  4094a1:	4c 8d 6a 01          	lea    0x1(%rdx),%r13
  4094a5:	4c 8d 78 01          	lea    0x1(%rax),%r15
  4094a9:	0f 1f 80 00 00 00 00 	nopl   0x0(%rax)
  4094b0:	4d 69 f5 a0 0f 00 00 	imul   $0xfa0,%r13,%r14
  4094b7:	bb 01 00 00 00       	mov    $0x1,%ebx
  4094bc:	4e 8d 24 31          	lea    (%rcx,%r14,1),%r12
  4094c0:	49 c7 04 24 00 00 00 	movq   $0x0,(%r12)
  4094c7:	00 
  4094c8:	eb 23                	jmp    4094ed <_ZN10RelaxationIdLl500EEC2Eddlldd._omp_fn.10+0x9d>
  4094ca:	66 0f 1f 44 00 00    	nopw   0x0(%rax,%rax,1)
  4094d0:	f2 48 0f 2a 45 28    	cvtsi2sdq 0x28(%rbp),%xmm0
  4094d6:	f2 41 0f 11 04 dc    	movsd  %xmm0,(%r12,%rbx,8)
  4094dc:	48 83 c3 01          	add    $0x1,%rbx
  4094e0:	48 81 fb f3 01 00 00 	cmp    $0x1f3,%rbx
  4094e7:	74 47                	je     409530 <_ZN10RelaxationIdLl500EEC2Eddlldd._omp_fn.10+0xe0>
  4094e9:	4e 8d 24 31          	lea    (%rcx,%r14,1),%r12
  4094ed:	48 8b 55 10          	mov    0x10(%rbp),%rdx
  4094f1:	48 8b 45 18          	mov    0x18(%rbp),%rax
  4094f5:	4c 29 ea             	sub    %r13,%rdx
  4094f8:	48 29 d8             	sub    %rbx,%rax
  4094fb:	48 0f af d2          	imul   %rdx,%rdx
  4094ff:	48 0f af c0          	imul   %rax,%rax
  409503:	48 01 d0             	add    %rdx,%rax
  409506:	f2 48 0f 2a c0       	cvtsi2sd %rax,%xmm0
  40950b:	f2 0f 51 c8          	sqrtsd %xmm0,%xmm1
  40950f:	66 0f 2e c9          	ucomisd %xmm1,%xmm1
  409513:	7a 4a                	jp     40955f <_ZN10RelaxationIdLl500EEC2Eddlldd._omp_fn.10+0x10f>
  409515:	f2 48 0f 2a 45 20    	cvtsi2sdq 0x20(%rbp),%xmm0
  40951b:	66 0f 2e c1          	ucomisd %xmm1,%xmm0
  40951f:	77 af                	ja     4094d0 <_ZN10RelaxationIdLl500EEC2Eddlldd._omp_fn.10+0x80>
  409521:	66 0f 28 c2          	movapd %xmm2,%xmm0
  409525:	eb af                	jmp    4094d6 <_ZN10RelaxationIdLl500EEC2Eddlldd._omp_fn.10+0x86>
  409527:	66 0f 1f 84 00 00 00 	nopw   0x0(%rax,%rax,1)
  40952e:	00 00 
  409530:	49 69 c5 a0 0f 00 00 	imul   $0xfa0,%r13,%rax
  409537:	49 83 c5 01          	add    $0x1,%r13
  40953b:	4d 39 ef             	cmp    %r13,%r15
  40953e:	48 c7 84 01 98 0f 00 	movq   $0x0,0xf98(%rcx,%rax,1)
  409545:	00 00 00 00 00 
  40954a:	0f 85 60 ff ff ff    	jne    4094b0 <_ZN10RelaxationIdLl500EEC2Eddlldd._omp_fn.10+0x60>
  409550:	48 83 c4 18          	add    $0x18,%rsp
  409554:	5b                   	pop    %rbx
  409555:	5d                   	pop    %rbp
  409556:	41 5c                	pop    %r12
  409558:	41 5d                	pop    %r13
  40955a:	41 5e                	pop    %r14
  40955c:	41 5f                	pop    %r15
  40955e:	c3                   	retq   
  40955f:	f2 0f 11 54 24 08    	movsd  %xmm2,0x8(%rsp)
  409565:	e8 36 94 ff ff       	callq  4029a0 <sqrt@plt>
  40956a:	48 8b 4d 30          	mov    0x30(%rbp),%rcx
  40956e:	66 0f 28 c8          	movapd %xmm0,%xmm1
  409572:	f2 0f 10 54 24 08    	movsd  0x8(%rsp),%xmm2
  409578:	eb 9b                	jmp    409515 <_ZN10RelaxationIdLl500EEC2Eddlldd._omp_fn.10+0xc5>
  40957a:	90                   	nop
  40957b:	90                   	nop
  40957c:	90                   	nop
  40957d:	90                   	nop
  40957e:	90                   	nop
  40957f:	90                   	nop

0000000000409580 <_ZN10RelaxationIdLl1000EEC2Eddlldd._omp_fn.12>:
  409580:	41 57                	push   %r15
  409582:	41 56                	push   %r14
  409584:	41 55                	push   %r13
  409586:	41 54                	push   %r12
  409588:	55                   	push   %rbp
  409589:	53                   	push   %rbx
  40958a:	48 83 ec 18          	sub    $0x18,%rsp
  40958e:	48 8b 2f             	mov    (%rdi),%rbp
  409591:	e8 5a 97 ff ff       	callq  402cf0 <omp_get_num_threads@plt>
  409596:	48 63 d8             	movslq %eax,%rbx
  409599:	e8 82 96 ff ff       	callq  402c20 <omp_get_thread_num@plt>
  40959e:	48 63 c8             	movslq %eax,%rcx
  4095a1:	b8 e6 03 00 00       	mov    $0x3e6,%eax
  4095a6:	48 99                	cqto   
  4095a8:	48 f7 fb             	idiv   %rbx
  4095ab:	48 39 d1             	cmp    %rdx,%rcx
  4095ae:	7d 06                	jge    4095b6 <_ZN10RelaxationIdLl1000EEC2Eddlldd._omp_fn.12+0x36>
  4095b0:	48 83 c0 01          	add    $0x1,%rax
  4095b4:	31 d2                	xor    %edx,%edx
  4095b6:	48 0f af c8          	imul   %rax,%rcx
  4095ba:	48 01 ca             	add    %rcx,%rdx
  4095bd:	48 01 d0             	add    %rdx,%rax
  4095c0:	48 39 c2             	cmp    %rax,%rdx
  4095c3:	0f 8d b7 00 00 00    	jge    409680 <_ZN10RelaxationIdLl1000EEC2Eddlldd._omp_fn.12+0x100>
  4095c9:	48 8b 4d 30          	mov    0x30(%rbp),%rcx
  4095cd:	66 0f 57 d2          	xorpd  %xmm2,%xmm2
  4095d1:	4c 8d 6a 01          	lea    0x1(%rdx),%r13
  4095d5:	4c 8d 78 01          	lea    0x1(%rax),%r15
  4095d9:	0f 1f 80 00 00 00 00 	nopl   0x0(%rax)
  4095e0:	4d 69 f5 40 1f 00 00 	imul   $0x1f40,%r13,%r14
  4095e7:	bb 01 00 00 00       	mov    $0x1,%ebx
  4095ec:	4e 8d 24 31          	lea    (%rcx,%r14,1),%r12
  4095f0:	49 c7 04 24 00 00 00 	movq   $0x0,(%r12)
  4095f7:	00 
  4095f8:	eb 23                	jmp    40961d <_ZN10RelaxationIdLl1000EEC2Eddlldd._omp_fn.12+0x9d>
  4095fa:	66 0f 1f 44 00 00    	nopw   0x0(%rax,%rax,1)
  409600:	f2 48 0f 2a 45 28    	cvtsi2sdq 0x28(%rbp),%xmm0
  409606:	f2 41 0f 11 04 dc    	movsd  %xmm0,(%r12,%rbx,8)
  40960c:	48 83 c3 01          	add    $0x1,%rbx
  409610:	48 81 fb e7 03 00 00 	cmp    $0x3e7,%rbx
  409617:	74 47                	je     409660 <_ZN10RelaxationIdLl1000EEC2Eddlldd._omp_fn.12+0xe0>
  409619:	4e 8d 24 31          	lea    (%rcx,%r14,1),%r12
  40961d:	48 8b 55 10          	mov    0x10(%rbp),%rdx
  409621:	48 8b 45 18          	mov    0x18(%rbp),%rax
  409625:	4c 29 ea             	sub    %r13,%rdx
  409628:	48 29 d8             	sub    %rbx,%rax
  40962b:	48 0f af d2          	imul   %rdx,%rdx
  40962f:	48 0f af c0          	imul   %rax,%rax
  409633:	48 01 d0             	add    %rdx,%rax
  409636:	f2 48 0f 2a c0       	cvtsi2sd %rax,%xmm0
  40963b:	f2 0f 51 c8          	sqrtsd %xmm0,%xmm1
  40963f:	66 0f 2e c9          	ucomisd %xmm1,%xmm1
  409643:	7a 4a                	jp     40968f <_ZN10RelaxationIdLl1000EEC2Eddlldd._omp_fn.12+0x10f>
  409645:	f2 48 0f 2a 45 20    	cvtsi2sdq 0x20(%rbp),%xmm0
  40964b:	66 0f 2e c1          	ucomisd %xmm1,%xmm0
  40964f:	77 af                	ja     409600 <_ZN10RelaxationIdLl1000EEC2Eddlldd._omp_fn.12+0x80>
  409651:	66 0f 28 c2          	movapd %xmm2,%xmm0
  409655:	eb af                	jmp    409606 <_ZN10RelaxationIdLl1000EEC2Eddlldd._omp_fn.12+0x86>
  409657:	66 0f 1f 84 00 00 00 	nopw   0x0(%rax,%rax,1)
  40965e:	00 00 
  409660:	49 69 c5 40 1f 00 00 	imul   $0x1f40,%r13,%rax
  409667:	49 83 c5 01          	add    $0x1,%r13
  40966b:	4d 39 ef             	cmp    %r13,%r15
  40966e:	48 c7 84 01 38 1f 00 	movq   $0x0,0x1f38(%rcx,%rax,1)
  409675:	00 00 00 00 00 
  40967a:	0f 85 60 ff ff ff    	jne    4095e0 <_ZN10RelaxationIdLl1000EEC2Eddlldd._omp_fn.12+0x60>
  409680:	48 83 c4 18          	add    $0x18,%rsp
  409684:	5b                   	pop    %rbx
  409685:	5d                   	pop    %rbp
  409686:	41 5c                	pop    %r12
  409688:	41 5d                	pop    %r13
  40968a:	41 5e                	pop    %r14
  40968c:	41 5f                	pop    %r15
  40968e:	c3                   	retq   
  40968f:	f2 0f 11 54 24 08    	movsd  %xmm2,0x8(%rsp)
  409695:	e8 06 93 ff ff       	callq  4029a0 <sqrt@plt>
  40969a:	48 8b 4d 30          	mov    0x30(%rbp),%rcx
  40969e:	66 0f 28 c8          	movapd %xmm0,%xmm1
  4096a2:	f2 0f 10 54 24 08    	movsd  0x8(%rsp),%xmm2
  4096a8:	eb 9b                	jmp    409645 <_ZN10RelaxationIdLl1000EEC2Eddlldd._omp_fn.12+0xc5>
  4096aa:	90                   	nop
  4096ab:	90                   	nop
  4096ac:	90                   	nop
  4096ad:	90                   	nop
  4096ae:	90                   	nop
  4096af:	90                   	nop

00000000004096b0 <_ZN10RelaxationIdLl10000EEC2Eddlldd._omp_fn.14>:
  4096b0:	41 57                	push   %r15
  4096b2:	41 56                	push   %r14
  4096b4:	41 55                	push   %r13
  4096b6:	41 54                	push   %r12
  4096b8:	55                   	push   %rbp
  4096b9:	53                   	push   %rbx
  4096ba:	48 83 ec 18          	sub    $0x18,%rsp
  4096be:	48 8b 2f             	mov    (%rdi),%rbp
  4096c1:	e8 2a 96 ff ff       	callq  402cf0 <omp_get_num_threads@plt>
  4096c6:	48 63 d8             	movslq %eax,%rbx
  4096c9:	e8 52 95 ff ff       	callq  402c20 <omp_get_thread_num@plt>
  4096ce:	48 63 c8             	movslq %eax,%rcx
  4096d1:	b8 0e 27 00 00       	mov    $0x270e,%eax
  4096d6:	48 99                	cqto   
  4096d8:	48 f7 fb             	idiv   %rbx
  4096db:	48 39 d1             	cmp    %rdx,%rcx
  4096de:	7d 06                	jge    4096e6 <_ZN10RelaxationIdLl10000EEC2Eddlldd._omp_fn.14+0x36>
  4096e0:	48 83 c0 01          	add    $0x1,%rax
  4096e4:	31 d2                	xor    %edx,%edx
  4096e6:	48 0f af c8          	imul   %rax,%rcx
  4096ea:	48 01 ca             	add    %rcx,%rdx
  4096ed:	48 01 d0             	add    %rdx,%rax
  4096f0:	48 39 c2             	cmp    %rax,%rdx
  4096f3:	0f 8d b7 00 00 00    	jge    4097b0 <_ZN10RelaxationIdLl10000EEC2Eddlldd._omp_fn.14+0x100>
  4096f9:	48 8b 4d 30          	mov    0x30(%rbp),%rcx
  4096fd:	66 0f 57 d2          	xorpd  %xmm2,%xmm2
  409701:	4c 8d 6a 01          	lea    0x1(%rdx),%r13
  409705:	4c 8d 78 01          	lea    0x1(%rax),%r15
  409709:	0f 1f 80 00 00 00 00 	nopl   0x0(%rax)
  409710:	4d 69 f5 80 38 01 00 	imul   $0x13880,%r13,%r14
  409717:	bb 01 00 00 00       	mov    $0x1,%ebx
  40971c:	4e 8d 24 31          	lea    (%rcx,%r14,1),%r12
  409720:	49 c7 04 24 00 00 00 	movq   $0x0,(%r12)
  409727:	00 
  409728:	eb 23                	jmp    40974d <_ZN10RelaxationIdLl10000EEC2Eddlldd._omp_fn.14+0x9d>
  40972a:	66 0f 1f 44 00 00    	nopw   0x0(%rax,%rax,1)
  409730:	f2 48 0f 2a 45 28    	cvtsi2sdq 0x28(%rbp),%xmm0
  409736:	f2 41 0f 11 04 dc    	movsd  %xmm0,(%r12,%rbx,8)
  40973c:	48 83 c3 01          	add    $0x1,%rbx
  409740:	48 81 fb 0f 27 00 00 	cmp    $0x270f,%rbx
  409747:	74 47                	je     409790 <_ZN10RelaxationIdLl10000EEC2Eddlldd._omp_fn.14+0xe0>
  409749:	4e 8d 24 31          	lea    (%rcx,%r14,1),%r12
  40974d:	48 8b 55 10          	mov    0x10(%rbp),%rdx
  409751:	48 8b 45 18          	mov    0x18(%rbp),%rax
  409755:	4c 29 ea             	sub    %r13,%rdx
  409758:	48 29 d8             	sub    %rbx,%rax
  40975b:	48 0f af d2          	imul   %rdx,%rdx
  40975f:	48 0f af c0          	imul   %rax,%rax
  409763:	48 01 d0             	add    %rdx,%rax
  409766:	f2 48 0f 2a c0       	cvtsi2sd %rax,%xmm0
  40976b:	f2 0f 51 c8          	sqrtsd %xmm0,%xmm1
  40976f:	66 0f 2e c9          	ucomisd %xmm1,%xmm1
  409773:	7a 4a                	jp     4097bf <_ZN10RelaxationIdLl10000EEC2Eddlldd._omp_fn.14+0x10f>
  409775:	f2 48 0f 2a 45 20    	cvtsi2sdq 0x20(%rbp),%xmm0
  40977b:	66 0f 2e c1          	ucomisd %xmm1,%xmm0
  40977f:	77 af                	ja     409730 <_ZN10RelaxationIdLl10000EEC2Eddlldd._omp_fn.14+0x80>
  409781:	66 0f 28 c2          	movapd %xmm2,%xmm0
  409785:	eb af                	jmp    409736 <_ZN10RelaxationIdLl10000EEC2Eddlldd._omp_fn.14+0x86>
  409787:	66 0f 1f 84 00 00 00 	nopw   0x0(%rax,%rax,1)
  40978e:	00 00 
  409790:	49 69 c5 80 38 01 00 	imul   $0x13880,%r13,%rax
  409797:	49 83 c5 01          	add    $0x1,%r13
  40979b:	4d 39 ef             	cmp    %r13,%r15
  40979e:	48 c7 84 01 78 38 01 	movq   $0x0,0x13878(%rcx,%rax,1)
  4097a5:	00 00 00 00 00 
  4097aa:	0f 85 60 ff ff ff    	jne    409710 <_ZN10RelaxationIdLl10000EEC2Eddlldd._omp_fn.14+0x60>
  4097b0:	48 83 c4 18          	add    $0x18,%rsp
  4097b4:	5b                   	pop    %rbx
  4097b5:	5d                   	pop    %rbp
  4097b6:	41 5c                	pop    %r12
  4097b8:	41 5d                	pop    %r13
  4097ba:	41 5e                	pop    %r14
  4097bc:	41 5f                	pop    %r15
  4097be:	c3                   	retq   
  4097bf:	f2 0f 11 54 24 08    	movsd  %xmm2,0x8(%rsp)
  4097c5:	e8 d6 91 ff ff       	callq  4029a0 <sqrt@plt>
  4097ca:	48 8b 4d 30          	mov    0x30(%rbp),%rcx
  4097ce:	66 0f 28 c8          	movapd %xmm0,%xmm1
  4097d2:	f2 0f 10 54 24 08    	movsd  0x8(%rsp),%xmm2
  4097d8:	eb 9b                	jmp    409775 <_ZN10RelaxationIdLl10000EEC2Eddlldd._omp_fn.14+0xc5>
  4097da:	90                   	nop
  4097db:	90                   	nop
  4097dc:	90                   	nop
  4097dd:	90                   	nop
  4097de:	90                   	nop
  4097df:	90                   	nop

00000000004097e0 <_ZN10RelaxationIfLl500EE7iterateEv._omp_fn.3>:
  4097e0:	41 54                	push   %r12
  4097e2:	49 89 fc             	mov    %rdi,%r12
  4097e5:	55                   	push   %rbp
  4097e6:	53                   	push   %rbx
  4097e7:	48 8b 1f             	mov    (%rdi),%rbx
  4097ea:	e8 01 95 ff ff       	callq  402cf0 <omp_get_num_threads@plt>
  4097ef:	48 63 e8             	movslq %eax,%rbp
  4097f2:	e8 29 94 ff ff       	callq  402c20 <omp_get_thread_num@plt>
  4097f7:	48 63 c8             	movslq %eax,%rcx
  4097fa:	b8 f2 01 00 00       	mov    $0x1f2,%eax
  4097ff:	48 99                	cqto   
  409801:	48 f7 fd             	idiv   %rbp
  409804:	48 39 d1             	cmp    %rdx,%rcx
  409807:	7d 06                	jge    40980f <_ZN10RelaxationIfLl500EE7iterateEv._omp_fn.3+0x2f>
  409809:	48 83 c0 01          	add    $0x1,%rax
  40980d:	31 d2                	xor    %edx,%edx
  40980f:	48 0f af c8          	imul   %rax,%rcx
  409813:	48 01 ca             	add    %rcx,%rdx
  409816:	48 01 d0             	add    %rdx,%rax
  409819:	48 39 c2             	cmp    %rax,%rdx
  40981c:	0f 8d e9 00 00 00    	jge    40990b <_ZN10RelaxationIfLl500EE7iterateEv._omp_fn.3+0x12b>
  409822:	4c 8d 5a 01          	lea    0x1(%rdx),%r11
  409826:	0f 57 db             	xorps  %xmm3,%xmm3
  409829:	48 8d 68 01          	lea    0x1(%rax),%rbp
  40982d:	f3 0f 10 25 3b 63 00 	movss  0x633b(%rip),%xmm4        # 40fb70 <_ZTVN6GetOpt13_DefValOptionIdNS_8_OptionTIdEEEE+0x30>
  409834:	00 
  409835:	4d 69 c3 d0 07 00 00 	imul   $0x7d0,%r11,%r8
  40983c:	4d 03 44 24 08       	add    0x8(%r12),%r8
  409841:	0f 28 eb             	movaps %xmm3,%xmm5
  409844:	0f 1f 40 00          	nopl   0x0(%rax)
  409848:	4d 89 da             	mov    %r11,%r10
  40984b:	49 83 c3 01          	add    $0x1,%r11
  40984f:	41 c7 00 00 00 00 00 	movl   $0x0,(%r8)
  409856:	49 8d 7b fe          	lea    -0x2(%r11),%rdi
  40985a:	b8 01 00 00 00       	mov    $0x1,%eax
  40985f:	4d 69 d2 d0 07 00 00 	imul   $0x7d0,%r10,%r10
  409866:	4d 69 cb d0 07 00 00 	imul   $0x7d0,%r11,%r9
  40986d:	48 69 ff d0 07 00 00 	imul   $0x7d0,%rdi,%rdi
  409874:	eb 1d                	jmp    409893 <_ZN10RelaxationIfLl500EE7iterateEv._omp_fn.3+0xb3>
  409876:	66 2e 0f 1f 84 00 00 	nopw   %cs:0x0(%rax,%rax,1)
  40987d:	00 00 00 
  409880:	f3 0f 5d c8          	minss  %xmm0,%xmm1
  409884:	48 3d f3 01 00 00    	cmp    $0x1f3,%rax
  40988a:	f3 41 0f 11 4c 80 fc 	movss  %xmm1,-0x4(%r8,%rax,4)
  409891:	74 5d                	je     4098f0 <_ZN10RelaxationIfLl500EE7iterateEv._omp_fn.3+0x110>
  409893:	48 8b 4b 28          	mov    0x28(%rbx),%rcx
  409897:	48 89 c6             	mov    %rax,%rsi
  40989a:	f3 0f 10 0b          	movss  (%rbx),%xmm1
  40989e:	4a 8d 14 11          	lea    (%rcx,%r10,1),%rdx
  4098a2:	48 8d 0c b1          	lea    (%rcx,%rsi,4),%rcx
  4098a6:	f3 0f 10 14 82       	movss  (%rdx,%rax,4),%xmm2
  4098ab:	48 83 c0 01          	add    $0x1,%rax
  4098af:	0f 28 c2             	movaps %xmm2,%xmm0
  4098b2:	f3 0f 59 c4          	mulss  %xmm4,%xmm0
  4098b6:	f3 42 0f 58 04 09    	addss  (%rcx,%r9,1),%xmm0
  4098bc:	f3 0f 58 04 39       	addss  (%rcx,%rdi,1),%xmm0
  4098c1:	f3 0f 58 04 82       	addss  (%rdx,%rax,4),%xmm0
  4098c6:	f3 0f 58 44 82 f8    	addss  -0x8(%rdx,%rax,4),%xmm0
  4098cc:	f3 0f 59 43 04       	mulss  0x4(%rbx),%xmm0
  4098d1:	f3 0f 58 c2          	addss  %xmm2,%xmm0
  4098d5:	0f 2e d8             	ucomiss %xmm0,%xmm3
  4098d8:	76 a6                	jbe    409880 <_ZN10RelaxationIfLl500EE7iterateEv._omp_fn.3+0xa0>
  4098da:	0f 28 cd             	movaps %xmm5,%xmm1
  4098dd:	48 3d f3 01 00 00    	cmp    $0x1f3,%rax
  4098e3:	f3 41 0f 11 4c 80 fc 	movss  %xmm1,-0x4(%r8,%rax,4)
  4098ea:	75 a7                	jne    409893 <_ZN10RelaxationIfLl500EE7iterateEv._omp_fn.3+0xb3>
  4098ec:	0f 1f 40 00          	nopl   0x0(%rax)
  4098f0:	41 c7 80 cc 07 00 00 	movl   $0x0,0x7cc(%r8)
  4098f7:	00 00 00 00 
  4098fb:	49 81 c0 d0 07 00 00 	add    $0x7d0,%r8
  409902:	4c 39 dd             	cmp    %r11,%rbp
  409905:	0f 85 3d ff ff ff    	jne    409848 <_ZN10RelaxationIfLl500EE7iterateEv._omp_fn.3+0x68>
  40990b:	5b                   	pop    %rbx
  40990c:	5d                   	pop    %rbp
  40990d:	41 5c                	pop    %r12
  40990f:	c3                   	retq   

0000000000409910 <_ZN10RelaxationIfLl1000EE7iterateEv._omp_fn.5>:
  409910:	41 54                	push   %r12
  409912:	49 89 fc             	mov    %rdi,%r12
  409915:	55                   	push   %rbp
  409916:	53                   	push   %rbx
  409917:	48 8b 1f             	mov    (%rdi),%rbx
  40991a:	e8 d1 93 ff ff       	callq  402cf0 <omp_get_num_threads@plt>
  40991f:	48 63 e8             	movslq %eax,%rbp
  409922:	e8 f9 92 ff ff       	callq  402c20 <omp_get_thread_num@plt>
  409927:	48 63 c8             	movslq %eax,%rcx
  40992a:	b8 e6 03 00 00       	mov    $0x3e6,%eax
  40992f:	48 99                	cqto   
  409931:	48 f7 fd             	idiv   %rbp
  409934:	48 39 d1             	cmp    %rdx,%rcx
  409937:	7d 06                	jge    40993f <_ZN10RelaxationIfLl1000EE7iterateEv._omp_fn.5+0x2f>
  409939:	48 83 c0 01          	add    $0x1,%rax
  40993d:	31 d2                	xor    %edx,%edx
  40993f:	48 0f af c8          	imul   %rax,%rcx
  409943:	48 01 ca             	add    %rcx,%rdx
  409946:	48 01 d0             	add    %rdx,%rax
  409949:	48 39 c2             	cmp    %rax,%rdx
  40994c:	0f 8d e9 00 00 00    	jge    409a3b <_ZN10RelaxationIfLl1000EE7iterateEv._omp_fn.5+0x12b>
  409952:	4c 8d 5a 01          	lea    0x1(%rdx),%r11
  409956:	0f 57 db             	xorps  %xmm3,%xmm3
  409959:	48 8d 68 01          	lea    0x1(%rax),%rbp
  40995d:	f3 0f 10 25 0b 62 00 	movss  0x620b(%rip),%xmm4        # 40fb70 <_ZTVN6GetOpt13_DefValOptionIdNS_8_OptionTIdEEEE+0x30>
  409964:	00 
  409965:	4d 69 c3 a0 0f 00 00 	imul   $0xfa0,%r11,%r8
  40996c:	4d 03 44 24 08       	add    0x8(%r12),%r8
  409971:	0f 28 eb             	movaps %xmm3,%xmm5
  409974:	0f 1f 40 00          	nopl   0x0(%rax)
  409978:	4d 89 da             	mov    %r11,%r10
  40997b:	49 83 c3 01          	add    $0x1,%r11
  40997f:	41 c7 00 00 00 00 00 	movl   $0x0,(%r8)
  409986:	49 8d 7b fe          	lea    -0x2(%r11),%rdi
  40998a:	b8 01 00 00 00       	mov    $0x1,%eax
  40998f:	4d 69 d2 a0 0f 00 00 	imul   $0xfa0,%r10,%r10
  409996:	4d 69 cb a0 0f 00 00 	imul   $0xfa0,%r11,%r9
  40999d:	48 69 ff a0 0f 00 00 	imul   $0xfa0,%rdi,%rdi
  4099a4:	eb 1d                	jmp    4099c3 <_ZN10RelaxationIfLl1000EE7iterateEv._omp_fn.5+0xb3>
  4099a6:	66 2e 0f 1f 84 00 00 	nopw   %cs:0x0(%rax,%rax,1)
  4099ad:	00 00 00 
  4099b0:	f3 0f 5d c8          	minss  %xmm0,%xmm1
  4099b4:	48 3d e7 03 00 00    	cmp    $0x3e7,%rax
  4099ba:	f3 41 0f 11 4c 80 fc 	movss  %xmm1,-0x4(%r8,%rax,4)
  4099c1:	74 5d                	je     409a20 <_ZN10RelaxationIfLl1000EE7iterateEv._omp_fn.5+0x110>
  4099c3:	48 8b 4b 28          	mov    0x28(%rbx),%rcx
  4099c7:	48 89 c6             	mov    %rax,%rsi
  4099ca:	f3 0f 10 0b          	movss  (%rbx),%xmm1
  4099ce:	4a 8d 14 11          	lea    (%rcx,%r10,1),%rdx
  4099d2:	48 8d 0c b1          	lea    (%rcx,%rsi,4),%rcx
  4099d6:	f3 0f 10 14 82       	movss  (%rdx,%rax,4),%xmm2
  4099db:	48 83 c0 01          	add    $0x1,%rax
  4099df:	0f 28 c2             	movaps %xmm2,%xmm0
  4099e2:	f3 0f 59 c4          	mulss  %xmm4,%xmm0
  4099e6:	f3 42 0f 58 04 09    	addss  (%rcx,%r9,1),%xmm0
  4099ec:	f3 0f 58 04 39       	addss  (%rcx,%rdi,1),%xmm0
  4099f1:	f3 0f 58 04 82       	addss  (%rdx,%rax,4),%xmm0
  4099f6:	f3 0f 58 44 82 f8    	addss  -0x8(%rdx,%rax,4),%xmm0
  4099fc:	f3 0f 59 43 04       	mulss  0x4(%rbx),%xmm0
  409a01:	f3 0f 58 c2          	addss  %xmm2,%xmm0
  409a05:	0f 2e d8             	ucomiss %xmm0,%xmm3
  409a08:	76 a6                	jbe    4099b0 <_ZN10RelaxationIfLl1000EE7iterateEv._omp_fn.5+0xa0>
  409a0a:	0f 28 cd             	movaps %xmm5,%xmm1
  409a0d:	48 3d e7 03 00 00    	cmp    $0x3e7,%rax
  409a13:	f3 41 0f 11 4c 80 fc 	movss  %xmm1,-0x4(%r8,%rax,4)
  409a1a:	75 a7                	jne    4099c3 <_ZN10RelaxationIfLl1000EE7iterateEv._omp_fn.5+0xb3>
  409a1c:	0f 1f 40 00          	nopl   0x0(%rax)
  409a20:	41 c7 80 9c 0f 00 00 	movl   $0x0,0xf9c(%r8)
  409a27:	00 00 00 00 
  409a2b:	49 81 c0 a0 0f 00 00 	add    $0xfa0,%r8
  409a32:	4c 39 dd             	cmp    %r11,%rbp
  409a35:	0f 85 3d ff ff ff    	jne    409978 <_ZN10RelaxationIfLl1000EE7iterateEv._omp_fn.5+0x68>
  409a3b:	5b                   	pop    %rbx
  409a3c:	5d                   	pop    %rbp
  409a3d:	41 5c                	pop    %r12
  409a3f:	c3                   	retq   

0000000000409a40 <_ZN10RelaxationIfLl10000EE7iterateEv._omp_fn.7>:
  409a40:	41 54                	push   %r12
  409a42:	49 89 fc             	mov    %rdi,%r12
  409a45:	55                   	push   %rbp
  409a46:	53                   	push   %rbx
  409a47:	48 8b 1f             	mov    (%rdi),%rbx
  409a4a:	e8 a1 92 ff ff       	callq  402cf0 <omp_get_num_threads@plt>
  409a4f:	48 63 e8             	movslq %eax,%rbp
  409a52:	e8 c9 91 ff ff       	callq  402c20 <omp_get_thread_num@plt>
  409a57:	48 63 c8             	movslq %eax,%rcx
  409a5a:	b8 0e 27 00 00       	mov    $0x270e,%eax
  409a5f:	48 99                	cqto   
  409a61:	48 f7 fd             	idiv   %rbp
  409a64:	48 39 d1             	cmp    %rdx,%rcx
  409a67:	7d 06                	jge    409a6f <_ZN10RelaxationIfLl10000EE7iterateEv._omp_fn.7+0x2f>
  409a69:	48 83 c0 01          	add    $0x1,%rax
  409a6d:	31 d2                	xor    %edx,%edx
  409a6f:	48 0f af c8          	imul   %rax,%rcx
  409a73:	48 01 ca             	add    %rcx,%rdx
  409a76:	48 01 d0             	add    %rdx,%rax
  409a79:	48 39 c2             	cmp    %rax,%rdx
  409a7c:	0f 8d e9 00 00 00    	jge    409b6b <_ZN10RelaxationIfLl10000EE7iterateEv._omp_fn.7+0x12b>
  409a82:	4c 8d 5a 01          	lea    0x1(%rdx),%r11
  409a86:	0f 57 db             	xorps  %xmm3,%xmm3
  409a89:	48 8d 68 01          	lea    0x1(%rax),%rbp
  409a8d:	f3 0f 10 25 db 60 00 	movss  0x60db(%rip),%xmm4        # 40fb70 <_ZTVN6GetOpt13_DefValOptionIdNS_8_OptionTIdEEEE+0x30>
  409a94:	00 
  409a95:	4d 69 c3 40 9c 00 00 	imul   $0x9c40,%r11,%r8
  409a9c:	4d 03 44 24 08       	add    0x8(%r12),%r8
  409aa1:	0f 28 eb             	movaps %xmm3,%xmm5
  409aa4:	0f 1f 40 00          	nopl   0x0(%rax)
  409aa8:	4d 89 da             	mov    %r11,%r10
  409aab:	49 83 c3 01          	add    $0x1,%r11
  409aaf:	41 c7 00 00 00 00 00 	movl   $0x0,(%r8)
  409ab6:	49 8d 7b fe          	lea    -0x2(%r11),%rdi
  409aba:	b8 01 00 00 00       	mov    $0x1,%eax
  409abf:	4d 69 d2 40 9c 00 00 	imul   $0x9c40,%r10,%r10
  409ac6:	4d 69 cb 40 9c 00 00 	imul   $0x9c40,%r11,%r9
  409acd:	48 69 ff 40 9c 00 00 	imul   $0x9c40,%rdi,%rdi
  409ad4:	eb 1d                	jmp    409af3 <_ZN10RelaxationIfLl10000EE7iterateEv._omp_fn.7+0xb3>
  409ad6:	66 2e 0f 1f 84 00 00 	nopw   %cs:0x0(%rax,%rax,1)
  409add:	00 00 00 
  409ae0:	f3 0f 5d c8          	minss  %xmm0,%xmm1
  409ae4:	48 3d 0f 27 00 00    	cmp    $0x270f,%rax
  409aea:	f3 41 0f 11 4c 80 fc 	movss  %xmm1,-0x4(%r8,%rax,4)
  409af1:	74 5d                	je     409b50 <_ZN10RelaxationIfLl10000EE7iterateEv._omp_fn.7+0x110>
  409af3:	48 8b 4b 28          	mov    0x28(%rbx),%rcx
  409af7:	48 89 c6             	mov    %rax,%rsi
  409afa:	f3 0f 10 0b          	movss  (%rbx),%xmm1
  409afe:	4a 8d 14 11          	lea    (%rcx,%r10,1),%rdx
  409b02:	48 8d 0c b1          	lea    (%rcx,%rsi,4),%rcx
  409b06:	f3 0f 10 14 82       	movss  (%rdx,%rax,4),%xmm2
  409b0b:	48 83 c0 01          	add    $0x1,%rax
  409b0f:	0f 28 c2             	movaps %xmm2,%xmm0
  409b12:	f3 0f 59 c4          	mulss  %xmm4,%xmm0
  409b16:	f3 42 0f 58 04 09    	addss  (%rcx,%r9,1),%xmm0
  409b1c:	f3 0f 58 04 39       	addss  (%rcx,%rdi,1),%xmm0
  409b21:	f3 0f 58 04 82       	addss  (%rdx,%rax,4),%xmm0
  409b26:	f3 0f 58 44 82 f8    	addss  -0x8(%rdx,%rax,4),%xmm0
  409b2c:	f3 0f 59 43 04       	mulss  0x4(%rbx),%xmm0
  409b31:	f3 0f 58 c2          	addss  %xmm2,%xmm0
  409b35:	0f 2e d8             	ucomiss %xmm0,%xmm3
  409b38:	76 a6                	jbe    409ae0 <_ZN10RelaxationIfLl10000EE7iterateEv._omp_fn.7+0xa0>
  409b3a:	0f 28 cd             	movaps %xmm5,%xmm1
  409b3d:	48 3d 0f 27 00 00    	cmp    $0x270f,%rax
  409b43:	f3 41 0f 11 4c 80 fc 	movss  %xmm1,-0x4(%r8,%rax,4)
  409b4a:	75 a7                	jne    409af3 <_ZN10RelaxationIfLl10000EE7iterateEv._omp_fn.7+0xb3>
  409b4c:	0f 1f 40 00          	nopl   0x0(%rax)
  409b50:	41 c7 80 3c 9c 00 00 	movl   $0x0,0x9c3c(%r8)
  409b57:	00 00 00 00 
  409b5b:	49 81 c0 40 9c 00 00 	add    $0x9c40,%r8
  409b62:	4c 39 dd             	cmp    %r11,%rbp
  409b65:	0f 85 3d ff ff ff    	jne    409aa8 <_ZN10RelaxationIfLl10000EE7iterateEv._omp_fn.7+0x68>
  409b6b:	5b                   	pop    %rbx
  409b6c:	5d                   	pop    %rbp
  409b6d:	41 5c                	pop    %r12
  409b6f:	c3                   	retq   

0000000000409b70 <_ZN9__gnu_cxx12__to_xstringISscEET_PFiPT0_mPKS2_P13__va_list_tagEmS5_z.constprop.69>:
  409b70:	55                   	push   %rbp
  409b71:	48 89 e5             	mov    %rsp,%rbp
  409b74:	41 56                	push   %r14
  409b76:	41 55                	push   %r13
  409b78:	41 54                	push   %r12
  409b7a:	49 89 fc             	mov    %rdi,%r12
  409b7d:	53                   	push   %rbx
  409b7e:	48 81 ec e0 00 00 00 	sub    $0xe0,%rsp
  409b85:	84 c0                	test   %al,%al
  409b87:	4c 89 85 50 ff ff ff 	mov    %r8,-0xb0(%rbp)
  409b8e:	4c 89 8d 58 ff ff ff 	mov    %r9,-0xa8(%rbp)
  409b95:	74 26                	je     409bbd <_ZN9__gnu_cxx12__to_xstringISscEET_PFiPT0_mPKS2_P13__va_list_tagEmS5_z.constprop.69+0x4d>
  409b97:	0f 29 85 60 ff ff ff 	movaps %xmm0,-0xa0(%rbp)
  409b9e:	0f 29 8d 70 ff ff ff 	movaps %xmm1,-0x90(%rbp)
  409ba5:	0f 29 55 80          	movaps %xmm2,-0x80(%rbp)
  409ba9:	0f 29 5d 90          	movaps %xmm3,-0x70(%rbp)
  409bad:	0f 29 65 a0          	movaps %xmm4,-0x60(%rbp)
  409bb1:	0f 29 6d b0          	movaps %xmm5,-0x50(%rbp)
  409bb5:	0f 29 75 c0          	movaps %xmm6,-0x40(%rbp)
  409bb9:	0f 29 7d d0          	movaps %xmm7,-0x30(%rbp)
  409bbd:	48 83 ec 20          	sub    $0x20,%rsp
  409bc1:	4c 8d 8d 10 ff ff ff 	lea    -0xf0(%rbp),%r9
  409bc8:	41 b8 09 f5 40 00    	mov    $0x40f509,%r8d
  409bce:	64 48 8b 04 25 28 00 	mov    %fs:0x28,%rax
  409bd5:	00 00 
  409bd7:	48 89 85 28 ff ff ff 	mov    %rax,-0xd8(%rbp)
  409bde:	31 c0                	xor    %eax,%eax
  409be0:	48 8d 5c 24 0f       	lea    0xf(%rsp),%rbx
  409be5:	48 8d 45 10          	lea    0x10(%rbp),%rax
  409be9:	b9 10 00 00 00       	mov    $0x10,%ecx
  409bee:	ba 01 00 00 00       	mov    $0x1,%edx
  409bf3:	be 10 00 00 00       	mov    $0x10,%esi
  409bf8:	c7 85 10 ff ff ff 20 	movl   $0x20,-0xf0(%rbp)
  409bff:	00 00 00 
  409c02:	48 83 e3 f0          	and    $0xfffffffffffffff0,%rbx
  409c06:	48 89 85 18 ff ff ff 	mov    %rax,-0xe8(%rbp)
  409c0d:	48 8d 85 30 ff ff ff 	lea    -0xd0(%rbp),%rax
  409c14:	48 89 df             	mov    %rbx,%rdi
  409c17:	c7 85 14 ff ff ff 30 	movl   $0x30,-0xec(%rbp)
  409c1e:	00 00 00 
  409c21:	48 89 85 20 ff ff ff 	mov    %rax,-0xe0(%rbp)
  409c28:	e8 a3 8d ff ff       	callq  4029d0 <__vsnprintf_chk@plt>
  409c2d:	4c 63 e8             	movslq %eax,%r13
  409c30:	49 01 dd             	add    %rbx,%r13
  409c33:	4c 39 eb             	cmp    %r13,%rbx
  409c36:	74 78                	je     409cb0 <_ZN9__gnu_cxx12__to_xstringISscEET_PFiPT0_mPKS2_P13__va_list_tagEmS5_z.constprop.69+0x140>
  409c38:	49 29 dd             	sub    %rbx,%r13
  409c3b:	48 8d 95 0f ff ff ff 	lea    -0xf1(%rbp),%rdx
  409c42:	31 f6                	xor    %esi,%esi
  409c44:	4c 89 ef             	mov    %r13,%rdi
  409c47:	e8 c4 90 ff ff       	callq  402d10 <_ZNSs4_Rep9_S_createEmmRKSaIcE@plt>
  409c4c:	49 83 fd 01          	cmp    $0x1,%r13
  409c50:	49 89 c6             	mov    %rax,%r14
  409c53:	48 8d 48 18          	lea    0x18(%rax),%rcx
  409c57:	74 47                	je     409ca0 <_ZN9__gnu_cxx12__to_xstringISscEET_PFiPT0_mPKS2_P13__va_list_tagEmS5_z.constprop.69+0x130>
  409c59:	48 89 cf             	mov    %rcx,%rdi
  409c5c:	4c 89 ea             	mov    %r13,%rdx
  409c5f:	48 89 de             	mov    %rbx,%rsi
  409c62:	e8 79 8d ff ff       	callq  4029e0 <memcpy@plt>
  409c67:	48 89 c1             	mov    %rax,%rcx
  409c6a:	49 81 fe 00 23 61 00 	cmp    $0x612300,%r14
  409c71:	75 49                	jne    409cbc <_ZN9__gnu_cxx12__to_xstringISscEET_PFiPT0_mPKS2_P13__va_list_tagEmS5_z.constprop.69+0x14c>
  409c73:	48 8b b5 28 ff ff ff 	mov    -0xd8(%rbp),%rsi
  409c7a:	64 48 33 34 25 28 00 	xor    %fs:0x28,%rsi
  409c81:	00 00 
  409c83:	49 89 0c 24          	mov    %rcx,(%r12)
  409c87:	4c 89 e0             	mov    %r12,%rax
  409c8a:	75 2b                	jne    409cb7 <_ZN9__gnu_cxx12__to_xstringISscEET_PFiPT0_mPKS2_P13__va_list_tagEmS5_z.constprop.69+0x147>
  409c8c:	48 8d 65 e0          	lea    -0x20(%rbp),%rsp
  409c90:	5b                   	pop    %rbx
  409c91:	41 5c                	pop    %r12
  409c93:	41 5d                	pop    %r13
  409c95:	41 5e                	pop    %r14
  409c97:	5d                   	pop    %rbp
  409c98:	c3                   	retq   
  409c99:	0f 1f 80 00 00 00 00 	nopl   0x0(%rax)
  409ca0:	0f b6 03             	movzbl (%rbx),%eax
  409ca3:	41 88 46 18          	mov    %al,0x18(%r14)
  409ca7:	eb c1                	jmp    409c6a <_ZN9__gnu_cxx12__to_xstringISscEET_PFiPT0_mPKS2_P13__va_list_tagEmS5_z.constprop.69+0xfa>
  409ca9:	0f 1f 80 00 00 00 00 	nopl   0x0(%rax)
  409cb0:	b9 18 23 61 00       	mov    $0x612318,%ecx
  409cb5:	eb bc                	jmp    409c73 <_ZN9__gnu_cxx12__to_xstringISscEET_PFiPT0_mPKS2_P13__va_list_tagEmS5_z.constprop.69+0x103>
  409cb7:	e8 f4 8d ff ff       	callq  402ab0 <__stack_chk_fail@plt>
  409cbc:	41 c7 46 10 00 00 00 	movl   $0x0,0x10(%r14)
  409cc3:	00 
  409cc4:	4d 89 2e             	mov    %r13,(%r14)
  409cc7:	43 c6 44 2e 18 00    	movb   $0x0,0x18(%r14,%r13,1)
  409ccd:	eb a4                	jmp    409c73 <_ZN9__gnu_cxx12__to_xstringISscEET_PFiPT0_mPKS2_P13__va_list_tagEmS5_z.constprop.69+0x103>
  409ccf:	90                   	nop

0000000000409cd0 <_ZN6GetOpt12_OptionTBaseIiED1Ev>:
  409cd0:	53                   	push   %rbx
  409cd1:	48 89 fb             	mov    %rdi,%rbx
  409cd4:	48 83 ec 10          	sub    $0x10,%rsp
  409cd8:	48 8b 47 10          	mov    0x10(%rdi),%rax
  409cdc:	48 c7 07 90 fa 40 00 	movq   $0x40fa90,(%rdi)
  409ce3:	48 8d 78 e8          	lea    -0x18(%rax),%rdi
  409ce7:	48 81 ff 00 23 61 00 	cmp    $0x612300,%rdi
  409cee:	75 0d                	jne    409cfd <_ZN6GetOpt12_OptionTBaseIiED1Ev+0x2d>
  409cf0:	48 c7 03 50 fa 40 00 	movq   $0x40fa50,(%rbx)
  409cf7:	48 83 c4 10          	add    $0x10,%rsp
  409cfb:	5b                   	pop    %rbx
  409cfc:	c3                   	retq   
  409cfd:	b9 50 2c 40 00       	mov    $0x402c50,%ecx
  409d02:	48 8d 57 10          	lea    0x10(%rdi),%rdx
  409d06:	48 85 c9             	test   %rcx,%rcx
  409d09:	74 17                	je     409d22 <_ZN6GetOpt12_OptionTBaseIiED1Ev+0x52>
  409d0b:	83 c8 ff             	or     $0xffffffff,%eax
  409d0e:	f0 0f c1 02          	lock xadd %eax,(%rdx)
  409d12:	85 c0                	test   %eax,%eax
  409d14:	7f da                	jg     409cf0 <_ZN6GetOpt12_OptionTBaseIiED1Ev+0x20>
  409d16:	48 8d 74 24 0f       	lea    0xf(%rsp),%rsi
  409d1b:	e8 a0 8c ff ff       	callq  4029c0 <_ZNSs4_Rep10_M_destroyERKSaIcE@plt>
  409d20:	eb ce                	jmp    409cf0 <_ZN6GetOpt12_OptionTBaseIiED1Ev+0x20>
  409d22:	8b 50 f8             	mov    -0x8(%rax),%edx
  409d25:	8d 4a ff             	lea    -0x1(%rdx),%ecx
  409d28:	89 48 f8             	mov    %ecx,-0x8(%rax)
  409d2b:	89 d0                	mov    %edx,%eax
  409d2d:	eb e3                	jmp    409d12 <_ZN6GetOpt12_OptionTBaseIiED1Ev+0x42>
  409d2f:	90                   	nop

0000000000409d30 <_ZN6GetOpt12_OptionTBaseIdED1Ev>:
  409d30:	53                   	push   %rbx
  409d31:	48 89 fb             	mov    %rdi,%rbx
  409d34:	48 83 ec 10          	sub    $0x10,%rsp
  409d38:	48 8b 47 10          	mov    0x10(%rdi),%rax
  409d3c:	48 c7 07 10 fb 40 00 	movq   $0x40fb10,(%rdi)
  409d43:	48 8d 78 e8          	lea    -0x18(%rax),%rdi
  409d47:	48 81 ff 00 23 61 00 	cmp    $0x612300,%rdi
  409d4e:	75 0d                	jne    409d5d <_ZN6GetOpt12_OptionTBaseIdED1Ev+0x2d>
  409d50:	48 c7 03 50 fa 40 00 	movq   $0x40fa50,(%rbx)
  409d57:	48 83 c4 10          	add    $0x10,%rsp
  409d5b:	5b                   	pop    %rbx
  409d5c:	c3                   	retq   
  409d5d:	b9 50 2c 40 00       	mov    $0x402c50,%ecx
  409d62:	48 8d 57 10          	lea    0x10(%rdi),%rdx
  409d66:	48 85 c9             	test   %rcx,%rcx
  409d69:	74 17                	je     409d82 <_ZN6GetOpt12_OptionTBaseIdED1Ev+0x52>
  409d6b:	83 c8 ff             	or     $0xffffffff,%eax
  409d6e:	f0 0f c1 02          	lock xadd %eax,(%rdx)
  409d72:	85 c0                	test   %eax,%eax
  409d74:	7f da                	jg     409d50 <_ZN6GetOpt12_OptionTBaseIdED1Ev+0x20>
  409d76:	48 8d 74 24 0f       	lea    0xf(%rsp),%rsi
  409d7b:	e8 40 8c ff ff       	callq  4029c0 <_ZNSs4_Rep10_M_destroyERKSaIcE@plt>
  409d80:	eb ce                	jmp    409d50 <_ZN6GetOpt12_OptionTBaseIdED1Ev+0x20>
  409d82:	8b 50 f8             	mov    -0x8(%rax),%edx
  409d85:	8d 4a ff             	lea    -0x1(%rdx),%ecx
  409d88:	89 48 f8             	mov    %ecx,-0x8(%rax)
  409d8b:	89 d0                	mov    %edx,%eax
  409d8d:	eb e3                	jmp    409d72 <_ZN6GetOpt12_OptionTBaseIdED1Ev+0x42>
  409d8f:	90                   	nop

0000000000409d90 <_ZN6GetOpt13_DefValOptionIiNS_8_OptionTIiEEED1Ev>:
  409d90:	53                   	push   %rbx
  409d91:	48 89 fb             	mov    %rdi,%rbx
  409d94:	48 83 ec 10          	sub    $0x10,%rsp
  409d98:	48 8b 47 10          	mov    0x10(%rdi),%rax
  409d9c:	48 c7 07 90 fa 40 00 	movq   $0x40fa90,(%rdi)
  409da3:	48 8d 78 e8          	lea    -0x18(%rax),%rdi
  409da7:	48 81 ff 00 23 61 00 	cmp    $0x612300,%rdi
  409dae:	75 0d                	jne    409dbd <_ZN6GetOpt13_DefValOptionIiNS_8_OptionTIiEEED1Ev+0x2d>
  409db0:	48 c7 03 50 fa 40 00 	movq   $0x40fa50,(%rbx)
  409db7:	48 83 c4 10          	add    $0x10,%rsp
  409dbb:	5b                   	pop    %rbx
  409dbc:	c3                   	retq   
  409dbd:	b9 50 2c 40 00       	mov    $0x402c50,%ecx
  409dc2:	48 8d 57 10          	lea    0x10(%rdi),%rdx
  409dc6:	48 85 c9             	test   %rcx,%rcx
  409dc9:	74 17                	je     409de2 <_ZN6GetOpt13_DefValOptionIiNS_8_OptionTIiEEED1Ev+0x52>
  409dcb:	83 c8 ff             	or     $0xffffffff,%eax
  409dce:	f0 0f c1 02          	lock xadd %eax,(%rdx)
  409dd2:	85 c0                	test   %eax,%eax
  409dd4:	7f da                	jg     409db0 <_ZN6GetOpt13_DefValOptionIiNS_8_OptionTIiEEED1Ev+0x20>
  409dd6:	48 8d 74 24 0f       	lea    0xf(%rsp),%rsi
  409ddb:	e8 e0 8b ff ff       	callq  4029c0 <_ZNSs4_Rep10_M_destroyERKSaIcE@plt>
  409de0:	eb ce                	jmp    409db0 <_ZN6GetOpt13_DefValOptionIiNS_8_OptionTIiEEED1Ev+0x20>
  409de2:	8b 50 f8             	mov    -0x8(%rax),%edx
  409de5:	8d 4a ff             	lea    -0x1(%rdx),%ecx
  409de8:	89 48 f8             	mov    %ecx,-0x8(%rax)
  409deb:	89 d0                	mov    %edx,%eax
  409ded:	eb e3                	jmp    409dd2 <_ZN6GetOpt13_DefValOptionIiNS_8_OptionTIiEEED1Ev+0x42>
  409def:	90                   	nop

0000000000409df0 <_ZN6GetOpt13_DefValOptionIdNS_8_OptionTIdEEED1Ev>:
  409df0:	53                   	push   %rbx
  409df1:	48 89 fb             	mov    %rdi,%rbx
  409df4:	48 83 ec 10          	sub    $0x10,%rsp
  409df8:	48 8b 47 10          	mov    0x10(%rdi),%rax
  409dfc:	48 c7 07 10 fb 40 00 	movq   $0x40fb10,(%rdi)
  409e03:	48 8d 78 e8          	lea    -0x18(%rax),%rdi
  409e07:	48 81 ff 00 23 61 00 	cmp    $0x612300,%rdi
  409e0e:	75 0d                	jne    409e1d <_ZN6GetOpt13_DefValOptionIdNS_8_OptionTIdEEED1Ev+0x2d>
  409e10:	48 c7 03 50 fa 40 00 	movq   $0x40fa50,(%rbx)
  409e17:	48 83 c4 10          	add    $0x10,%rsp
  409e1b:	5b                   	pop    %rbx
  409e1c:	c3                   	retq   
  409e1d:	b9 50 2c 40 00       	mov    $0x402c50,%ecx
  409e22:	48 8d 57 10          	lea    0x10(%rdi),%rdx
  409e26:	48 85 c9             	test   %rcx,%rcx
  409e29:	74 17                	je     409e42 <_ZN6GetOpt13_DefValOptionIdNS_8_OptionTIdEEED1Ev+0x52>
  409e2b:	83 c8 ff             	or     $0xffffffff,%eax
  409e2e:	f0 0f c1 02          	lock xadd %eax,(%rdx)
  409e32:	85 c0                	test   %eax,%eax
  409e34:	7f da                	jg     409e10 <_ZN6GetOpt13_DefValOptionIdNS_8_OptionTIdEEED1Ev+0x20>
  409e36:	48 8d 74 24 0f       	lea    0xf(%rsp),%rsi
  409e3b:	e8 80 8b ff ff       	callq  4029c0 <_ZNSs4_Rep10_M_destroyERKSaIcE@plt>
  409e40:	eb ce                	jmp    409e10 <_ZN6GetOpt13_DefValOptionIdNS_8_OptionTIdEEED1Ev+0x20>
  409e42:	8b 50 f8             	mov    -0x8(%rax),%edx
  409e45:	8d 4a ff             	lea    -0x1(%rdx),%ecx
  409e48:	89 48 f8             	mov    %ecx,-0x8(%rax)
  409e4b:	89 d0                	mov    %edx,%eax
  409e4d:	eb e3                	jmp    409e32 <_ZN6GetOpt13_DefValOptionIdNS_8_OptionTIdEEED1Ev+0x42>
  409e4f:	90                   	nop

0000000000409e50 <_ZN6GetOpt12_OptionTBaseIiED0Ev>:
  409e50:	53                   	push   %rbx
  409e51:	48 89 fb             	mov    %rdi,%rbx
  409e54:	48 83 ec 10          	sub    $0x10,%rsp
  409e58:	48 8b 47 10          	mov    0x10(%rdi),%rax
  409e5c:	48 c7 07 90 fa 40 00 	movq   $0x40fa90,(%rdi)
  409e63:	48 8d 78 e8          	lea    -0x18(%rax),%rdi
  409e67:	48 81 ff 00 23 61 00 	cmp    $0x612300,%rdi
  409e6e:	75 15                	jne    409e85 <_ZN6GetOpt12_OptionTBaseIiED0Ev+0x35>
  409e70:	48 c7 03 50 fa 40 00 	movq   $0x40fa50,(%rbx)
  409e77:	48 89 df             	mov    %rbx,%rdi
  409e7a:	e8 b1 8b ff ff       	callq  402a30 <_ZdlPv@plt>
  409e7f:	48 83 c4 10          	add    $0x10,%rsp
  409e83:	5b                   	pop    %rbx
  409e84:	c3                   	retq   
  409e85:	b9 50 2c 40 00       	mov    $0x402c50,%ecx
  409e8a:	48 8d 57 10          	lea    0x10(%rdi),%rdx
  409e8e:	48 85 c9             	test   %rcx,%rcx
  409e91:	74 17                	je     409eaa <_ZN6GetOpt12_OptionTBaseIiED0Ev+0x5a>
  409e93:	83 c8 ff             	or     $0xffffffff,%eax
  409e96:	f0 0f c1 02          	lock xadd %eax,(%rdx)
  409e9a:	85 c0                	test   %eax,%eax
  409e9c:	7f d2                	jg     409e70 <_ZN6GetOpt12_OptionTBaseIiED0Ev+0x20>
  409e9e:	48 8d 74 24 0f       	lea    0xf(%rsp),%rsi
  409ea3:	e8 18 8b ff ff       	callq  4029c0 <_ZNSs4_Rep10_M_destroyERKSaIcE@plt>
  409ea8:	eb c6                	jmp    409e70 <_ZN6GetOpt12_OptionTBaseIiED0Ev+0x20>
  409eaa:	8b 50 f8             	mov    -0x8(%rax),%edx
  409ead:	8d 4a ff             	lea    -0x1(%rdx),%ecx
  409eb0:	89 48 f8             	mov    %ecx,-0x8(%rax)
  409eb3:	89 d0                	mov    %edx,%eax
  409eb5:	eb e3                	jmp    409e9a <_ZN6GetOpt12_OptionTBaseIiED0Ev+0x4a>
  409eb7:	90                   	nop
  409eb8:	90                   	nop
  409eb9:	90                   	nop
  409eba:	90                   	nop
  409ebb:	90                   	nop
  409ebc:	90                   	nop
  409ebd:	90                   	nop
  409ebe:	90                   	nop
  409ebf:	90                   	nop

0000000000409ec0 <_ZN6GetOpt12_OptionTBaseIdED0Ev>:
  409ec0:	53                   	push   %rbx
  409ec1:	48 89 fb             	mov    %rdi,%rbx
  409ec4:	48 83 ec 10          	sub    $0x10,%rsp
  409ec8:	48 8b 47 10          	mov    0x10(%rdi),%rax
  409ecc:	48 c7 07 10 fb 40 00 	movq   $0x40fb10,(%rdi)
  409ed3:	48 8d 78 e8          	lea    -0x18(%rax),%rdi
  409ed7:	48 81 ff 00 23 61 00 	cmp    $0x612300,%rdi
  409ede:	75 15                	jne    409ef5 <_ZN6GetOpt12_OptionTBaseIdED0Ev+0x35>
  409ee0:	48 c7 03 50 fa 40 00 	movq   $0x40fa50,(%rbx)
  409ee7:	48 89 df             	mov    %rbx,%rdi
  409eea:	e8 41 8b ff ff       	callq  402a30 <_ZdlPv@plt>
  409eef:	48 83 c4 10          	add    $0x10,%rsp
  409ef3:	5b                   	pop    %rbx
  409ef4:	c3                   	retq   
  409ef5:	b9 50 2c 40 00       	mov    $0x402c50,%ecx
  409efa:	48 8d 57 10          	lea    0x10(%rdi),%rdx
  409efe:	48 85 c9             	test   %rcx,%rcx
  409f01:	74 17                	je     409f1a <_ZN6GetOpt12_OptionTBaseIdED0Ev+0x5a>
  409f03:	83 c8 ff             	or     $0xffffffff,%eax
  409f06:	f0 0f c1 02          	lock xadd %eax,(%rdx)
  409f0a:	85 c0                	test   %eax,%eax
  409f0c:	7f d2                	jg     409ee0 <_ZN6GetOpt12_OptionTBaseIdED0Ev+0x20>
  409f0e:	48 8d 74 24 0f       	lea    0xf(%rsp),%rsi
  409f13:	e8 a8 8a ff ff       	callq  4029c0 <_ZNSs4_Rep10_M_destroyERKSaIcE@plt>
  409f18:	eb c6                	jmp    409ee0 <_ZN6GetOpt12_OptionTBaseIdED0Ev+0x20>
  409f1a:	8b 50 f8             	mov    -0x8(%rax),%edx
  409f1d:	8d 4a ff             	lea    -0x1(%rdx),%ecx
  409f20:	89 48 f8             	mov    %ecx,-0x8(%rax)
  409f23:	89 d0                	mov    %edx,%eax
  409f25:	eb e3                	jmp    409f0a <_ZN6GetOpt12_OptionTBaseIdED0Ev+0x4a>
  409f27:	90                   	nop
  409f28:	90                   	nop
  409f29:	90                   	nop
  409f2a:	90                   	nop
  409f2b:	90                   	nop
  409f2c:	90                   	nop
  409f2d:	90                   	nop
  409f2e:	90                   	nop
  409f2f:	90                   	nop

0000000000409f30 <_ZN6GetOpt13_DefValOptionIiNS_8_OptionTIiEEED0Ev>:
  409f30:	53                   	push   %rbx
  409f31:	48 89 fb             	mov    %rdi,%rbx
  409f34:	48 83 ec 10          	sub    $0x10,%rsp
  409f38:	48 8b 47 10          	mov    0x10(%rdi),%rax
  409f3c:	48 c7 07 90 fa 40 00 	movq   $0x40fa90,(%rdi)
  409f43:	48 8d 78 e8          	lea    -0x18(%rax),%rdi
  409f47:	48 81 ff 00 23 61 00 	cmp    $0x612300,%rdi
  409f4e:	75 15                	jne    409f65 <_ZN6GetOpt13_DefValOptionIiNS_8_OptionTIiEEED0Ev+0x35>
  409f50:	48 c7 03 50 fa 40 00 	movq   $0x40fa50,(%rbx)
  409f57:	48 89 df             	mov    %rbx,%rdi
  409f5a:	e8 d1 8a ff ff       	callq  402a30 <_ZdlPv@plt>
  409f5f:	48 83 c4 10          	add    $0x10,%rsp
  409f63:	5b                   	pop    %rbx
  409f64:	c3                   	retq   
  409f65:	b9 50 2c 40 00       	mov    $0x402c50,%ecx
  409f6a:	48 8d 57 10          	lea    0x10(%rdi),%rdx
  409f6e:	48 85 c9             	test   %rcx,%rcx
  409f71:	74 17                	je     409f8a <_ZN6GetOpt13_DefValOptionIiNS_8_OptionTIiEEED0Ev+0x5a>
  409f73:	83 c8 ff             	or     $0xffffffff,%eax
  409f76:	f0 0f c1 02          	lock xadd %eax,(%rdx)
  409f7a:	85 c0                	test   %eax,%eax
  409f7c:	7f d2                	jg     409f50 <_ZN6GetOpt13_DefValOptionIiNS_8_OptionTIiEEED0Ev+0x20>
  409f7e:	48 8d 74 24 0f       	lea    0xf(%rsp),%rsi
  409f83:	e8 38 8a ff ff       	callq  4029c0 <_ZNSs4_Rep10_M_destroyERKSaIcE@plt>
  409f88:	eb c6                	jmp    409f50 <_ZN6GetOpt13_DefValOptionIiNS_8_OptionTIiEEED0Ev+0x20>
  409f8a:	8b 50 f8             	mov    -0x8(%rax),%edx
  409f8d:	8d 4a ff             	lea    -0x1(%rdx),%ecx
  409f90:	89 48 f8             	mov    %ecx,-0x8(%rax)
  409f93:	89 d0                	mov    %edx,%eax
  409f95:	eb e3                	jmp    409f7a <_ZN6GetOpt13_DefValOptionIiNS_8_OptionTIiEEED0Ev+0x4a>
  409f97:	90                   	nop
  409f98:	90                   	nop
  409f99:	90                   	nop
  409f9a:	90                   	nop
  409f9b:	90                   	nop
  409f9c:	90                   	nop
  409f9d:	90                   	nop
  409f9e:	90                   	nop
  409f9f:	90                   	nop

0000000000409fa0 <_ZN6GetOpt13_DefValOptionIdNS_8_OptionTIdEEED0Ev>:
  409fa0:	53                   	push   %rbx
  409fa1:	48 89 fb             	mov    %rdi,%rbx
  409fa4:	48 83 ec 10          	sub    $0x10,%rsp
  409fa8:	48 8b 47 10          	mov    0x10(%rdi),%rax
  409fac:	48 c7 07 10 fb 40 00 	movq   $0x40fb10,(%rdi)
  409fb3:	48 8d 78 e8          	lea    -0x18(%rax),%rdi
  409fb7:	48 81 ff 00 23 61 00 	cmp    $0x612300,%rdi
  409fbe:	75 15                	jne    409fd5 <_ZN6GetOpt13_DefValOptionIdNS_8_OptionTIdEEED0Ev+0x35>
  409fc0:	48 c7 03 50 fa 40 00 	movq   $0x40fa50,(%rbx)
  409fc7:	48 89 df             	mov    %rbx,%rdi
  409fca:	e8 61 8a ff ff       	callq  402a30 <_ZdlPv@plt>
  409fcf:	48 83 c4 10          	add    $0x10,%rsp
  409fd3:	5b                   	pop    %rbx
  409fd4:	c3                   	retq   
  409fd5:	b9 50 2c 40 00       	mov    $0x402c50,%ecx
  409fda:	48 8d 57 10          	lea    0x10(%rdi),%rdx
  409fde:	48 85 c9             	test   %rcx,%rcx
  409fe1:	74 17                	je     409ffa <_ZN6GetOpt13_DefValOptionIdNS_8_OptionTIdEEED0Ev+0x5a>
  409fe3:	83 c8 ff             	or     $0xffffffff,%eax
  409fe6:	f0 0f c1 02          	lock xadd %eax,(%rdx)
  409fea:	85 c0                	test   %eax,%eax
  409fec:	7f d2                	jg     409fc0 <_ZN6GetOpt13_DefValOptionIdNS_8_OptionTIdEEED0Ev+0x20>
  409fee:	48 8d 74 24 0f       	lea    0xf(%rsp),%rsi
  409ff3:	e8 c8 89 ff ff       	callq  4029c0 <_ZNSs4_Rep10_M_destroyERKSaIcE@plt>
  409ff8:	eb c6                	jmp    409fc0 <_ZN6GetOpt13_DefValOptionIdNS_8_OptionTIdEEED0Ev+0x20>
  409ffa:	8b 50 f8             	mov    -0x8(%rax),%edx
  409ffd:	8d 4a ff             	lea    -0x1(%rdx),%ecx
  40a000:	89 48 f8             	mov    %ecx,-0x8(%rax)
  40a003:	89 d0                	mov    %edx,%eax
  40a005:	eb e3                	jmp    409fea <_ZN6GetOpt13_DefValOptionIdNS_8_OptionTIdEEED0Ev+0x4a>
  40a007:	90                   	nop
  40a008:	90                   	nop
  40a009:	90                   	nop
  40a00a:	90                   	nop
  40a00b:	90                   	nop
  40a00c:	90                   	nop
  40a00d:	90                   	nop
  40a00e:	90                   	nop
  40a00f:	90                   	nop

000000000040a010 <_ZStplIcSt11char_traitsIcESaIcEESbIT_T0_T1_ERKS6_PKS3_>:
  40a010:	55                   	push   %rbp
  40a011:	48 89 d5             	mov    %rdx,%rbp
  40a014:	53                   	push   %rbx
  40a015:	48 89 fb             	mov    %rdi,%rbx
  40a018:	48 83 ec 18          	sub    $0x18,%rsp
  40a01c:	e8 ef 88 ff ff       	callq  402910 <_ZNSsC1ERKSs@plt>
  40a021:	48 89 ef             	mov    %rbp,%rdi
  40a024:	e8 67 88 ff ff       	callq  402890 <strlen@plt>
  40a029:	48 89 ee             	mov    %rbp,%rsi
  40a02c:	48 89 c2             	mov    %rax,%rdx
  40a02f:	48 89 df             	mov    %rbx,%rdi
  40a032:	e8 d9 87 ff ff       	callq  402810 <_ZNSs6appendEPKcm@plt>
  40a037:	48 83 c4 18          	add    $0x18,%rsp
  40a03b:	48 89 d8             	mov    %rbx,%rax
  40a03e:	5b                   	pop    %rbx
  40a03f:	5d                   	pop    %rbp
  40a040:	c3                   	retq   
  40a041:	48 8b 3b             	mov    (%rbx),%rdi
  40a044:	48 8d 74 24 0f       	lea    0xf(%rsp),%rsi
  40a049:	48 89 c5             	mov    %rax,%rbp
  40a04c:	48 83 ef 18          	sub    $0x18,%rdi
  40a050:	e8 eb 88 ff ff       	callq  402940 <_ZNSs4_Rep10_M_disposeERKSaIcE@plt>
  40a055:	48 89 ef             	mov    %rbp,%rdi
  40a058:	e8 53 8c ff ff       	callq  402cb0 <_Unwind_Resume@plt>
  40a05d:	90                   	nop
  40a05e:	90                   	nop
  40a05f:	90                   	nop

000000000040a060 <_ZNK6GetOpt12_OptionTBaseIdEclERSt3mapIcNS_10OptionDataESt4lessIcESaISt4pairIKcS3_EEERS2_ISsS3_S4_ISsESaIS6_IKSsS3_EEEPNS_5TokenESt13_Ios_Fmtflags>:
  40a060:	53                   	push   %rbx
  40a061:	48 89 f1             	mov    %rsi,%rcx
  40a064:	48 89 fb             	mov    %rdi,%rbx
  40a067:	48 83 ec 20          	sub    $0x20,%rsp
  40a06b:	44 0f b6 4f 08       	movzbl 0x8(%rdi),%r9d
  40a070:	45 84 c9             	test   %r9b,%r9b
  40a073:	75 1b                	jne    40a090 <_ZNK6GetOpt12_OptionTBaseIdEclERSt3mapIcNS_10OptionDataESt4lessIcESaISt4pairIKcS3_EEERS2_ISsS3_S4_ISsESaIS6_IKSsS3_EEEPNS_5TokenESt13_Ios_Fmtflags+0x30>
  40a075:	48 8b 43 10          	mov    0x10(%rbx),%rax
  40a079:	48 83 78 e8 00       	cmpq   $0x0,-0x18(%rax)
  40a07e:	75 70                	jne    40a0f0 <_ZNK6GetOpt12_OptionTBaseIdEclERSt3mapIcNS_10OptionDataESt4lessIcESaISt4pairIKcS3_EEERS2_ISsS3_S4_ISsESaIS6_IKSsS3_EEEPNS_5TokenESt13_Ios_Fmtflags+0x90>
  40a080:	48 83 c4 20          	add    $0x20,%rsp
  40a084:	b8 02 00 00 00       	mov    $0x2,%eax
  40a089:	5b                   	pop    %rbx
  40a08a:	c3                   	retq   
  40a08b:	0f 1f 44 00 00       	nopl   0x0(%rax,%rax,1)
  40a090:	48 8b 41 10          	mov    0x10(%rcx),%rax
  40a094:	48 8d 76 08          	lea    0x8(%rsi),%rsi
  40a098:	48 85 c0             	test   %rax,%rax
  40a09b:	74 d8                	je     40a075 <_ZNK6GetOpt12_OptionTBaseIdEclERSt3mapIcNS_10OptionDataESt4lessIcESaISt4pairIKcS3_EEERS2_ISsS3_S4_ISsESaIS6_IKSsS3_EEEPNS_5TokenESt13_Ios_Fmtflags+0x15>
  40a09d:	49 89 f2             	mov    %rsi,%r10
  40a0a0:	eb 12                	jmp    40a0b4 <_ZNK6GetOpt12_OptionTBaseIdEclERSt3mapIcNS_10OptionDataESt4lessIcESaISt4pairIKcS3_EEERS2_ISsS3_S4_ISsESaIS6_IKSsS3_EEEPNS_5TokenESt13_Ios_Fmtflags+0x54>
  40a0a2:	66 0f 1f 44 00 00    	nopw   0x0(%rax,%rax,1)
  40a0a8:	49 89 c2             	mov    %rax,%r10
  40a0ab:	48 8b 40 10          	mov    0x10(%rax),%rax
  40a0af:	48 85 c0             	test   %rax,%rax
  40a0b2:	74 0f                	je     40a0c3 <_ZNK6GetOpt12_OptionTBaseIdEclERSt3mapIcNS_10OptionDataESt4lessIcESaISt4pairIKcS3_EEERS2_ISsS3_S4_ISsESaIS6_IKSsS3_EEEPNS_5TokenESt13_Ios_Fmtflags+0x63>
  40a0b4:	44 3a 48 20          	cmp    0x20(%rax),%r9b
  40a0b8:	7e ee                	jle    40a0a8 <_ZNK6GetOpt12_OptionTBaseIdEclERSt3mapIcNS_10OptionDataESt4lessIcESaISt4pairIKcS3_EEERS2_ISsS3_S4_ISsESaIS6_IKSsS3_EEEPNS_5TokenESt13_Ios_Fmtflags+0x48>
  40a0ba:	48 8b 40 18          	mov    0x18(%rax),%rax
  40a0be:	48 85 c0             	test   %rax,%rax
  40a0c1:	75 f1                	jne    40a0b4 <_ZNK6GetOpt12_OptionTBaseIdEclERSt3mapIcNS_10OptionDataESt4lessIcESaISt4pairIKcS3_EEERS2_ISsS3_S4_ISsESaIS6_IKSsS3_EEEPNS_5TokenESt13_Ios_Fmtflags+0x54>
  40a0c3:	4c 39 d6             	cmp    %r10,%rsi
  40a0c6:	74 ad                	je     40a075 <_ZNK6GetOpt12_OptionTBaseIdEclERSt3mapIcNS_10OptionDataESt4lessIcESaISt4pairIKcS3_EEERS2_ISsS3_S4_ISsESaIS6_IKSsS3_EEEPNS_5TokenESt13_Ios_Fmtflags+0x15>
  40a0c8:	45 3a 4a 20          	cmp    0x20(%r10),%r9b
  40a0cc:	7c a7                	jl     40a075 <_ZNK6GetOpt12_OptionTBaseIdEclERSt3mapIcNS_10OptionDataESt4lessIcESaISt4pairIKcS3_EEERS2_ISsS3_S4_ISsESaIS6_IKSsS3_EEEPNS_5TokenESt13_Ios_Fmtflags+0x15>
  40a0ce:	48 8b 03             	mov    (%rbx),%rax
  40a0d1:	49 8b 72 30          	mov    0x30(%r10),%rsi
  40a0d5:	41 c7 42 28 01 00 00 	movl   $0x1,0x28(%r10)
  40a0dc:	00 
  40a0dd:	48 8b 40 18          	mov    0x18(%rax),%rax
  40a0e1:	48 83 c4 20          	add    $0x20,%rsp
  40a0e5:	48 89 df             	mov    %rbx,%rdi
  40a0e8:	44 89 c2             	mov    %r8d,%edx
  40a0eb:	5b                   	pop    %rbx
  40a0ec:	ff e0                	jmpq   *%rax
  40a0ee:	66 90                	xchg   %ax,%ax
  40a0f0:	48 8d 73 10          	lea    0x10(%rbx),%rsi
  40a0f4:	48 89 d7             	mov    %rdx,%rdi
  40a0f7:	48 89 54 24 08       	mov    %rdx,0x8(%rsp)
  40a0fc:	44 89 44 24 1c       	mov    %r8d,0x1c(%rsp)
  40a101:	48 89 4c 24 10       	mov    %rcx,0x10(%rsp)
  40a106:	e8 d5 b2 ff ff       	callq  4053e0 <_ZNSt8_Rb_treeISsSt4pairIKSsN6GetOpt10OptionDataEESt10_Select1stIS4_ESt4lessISsESaIS4_EE4findERS1_>
  40a10b:	48 8b 54 24 08       	mov    0x8(%rsp),%rdx
  40a110:	48 83 c2 08          	add    $0x8,%rdx
  40a114:	48 39 d0             	cmp    %rdx,%rax
  40a117:	0f 84 63 ff ff ff    	je     40a080 <_ZNK6GetOpt12_OptionTBaseIdEclERSt3mapIcNS_10OptionDataESt4lessIcESaISt4pairIKcS3_EEERS2_ISsS3_S4_ISsESaIS6_IKSsS3_EEEPNS_5TokenESt13_Ios_Fmtflags+0x20>
  40a11d:	48 8b 13             	mov    (%rbx),%rdx
  40a120:	c7 40 28 01 00 00 00 	movl   $0x1,0x28(%rax)
  40a127:	48 8b 70 30          	mov    0x30(%rax),%rsi
  40a12b:	48 8b 4c 24 10       	mov    0x10(%rsp),%rcx
  40a130:	44 8b 44 24 1c       	mov    0x1c(%rsp),%r8d
  40a135:	48 8b 42 18          	mov    0x18(%rdx),%rax
  40a139:	eb a6                	jmp    40a0e1 <_ZNK6GetOpt12_OptionTBaseIdEclERSt3mapIcNS_10OptionDataESt4lessIcESaISt4pairIKcS3_EEERS2_ISsS3_S4_ISsESaIS6_IKSsS3_EEEPNS_5TokenESt13_Ios_Fmtflags+0x81>
  40a13b:	90                   	nop
  40a13c:	90                   	nop
  40a13d:	90                   	nop
  40a13e:	90                   	nop
  40a13f:	90                   	nop

000000000040a140 <_ZNK6GetOpt12_OptionTBaseIiEclERSt3mapIcNS_10OptionDataESt4lessIcESaISt4pairIKcS3_EEERS2_ISsS3_S4_ISsESaIS6_IKSsS3_EEEPNS_5TokenESt13_Ios_Fmtflags>:
  40a140:	53                   	push   %rbx
  40a141:	48 89 f1             	mov    %rsi,%rcx
  40a144:	48 89 fb             	mov    %rdi,%rbx
  40a147:	48 83 ec 20          	sub    $0x20,%rsp
  40a14b:	44 0f b6 4f 08       	movzbl 0x8(%rdi),%r9d
  40a150:	45 84 c9             	test   %r9b,%r9b
  40a153:	75 1b                	jne    40a170 <_ZNK6GetOpt12_OptionTBaseIiEclERSt3mapIcNS_10OptionDataESt4lessIcESaISt4pairIKcS3_EEERS2_ISsS3_S4_ISsESaIS6_IKSsS3_EEEPNS_5TokenESt13_Ios_Fmtflags+0x30>
  40a155:	48 8b 43 10          	mov    0x10(%rbx),%rax
  40a159:	48 83 78 e8 00       	cmpq   $0x0,-0x18(%rax)
  40a15e:	75 70                	jne    40a1d0 <_ZNK6GetOpt12_OptionTBaseIiEclERSt3mapIcNS_10OptionDataESt4lessIcESaISt4pairIKcS3_EEERS2_ISsS3_S4_ISsESaIS6_IKSsS3_EEEPNS_5TokenESt13_Ios_Fmtflags+0x90>
  40a160:	48 83 c4 20          	add    $0x20,%rsp
  40a164:	b8 02 00 00 00       	mov    $0x2,%eax
  40a169:	5b                   	pop    %rbx
  40a16a:	c3                   	retq   
  40a16b:	0f 1f 44 00 00       	nopl   0x0(%rax,%rax,1)
  40a170:	48 8b 41 10          	mov    0x10(%rcx),%rax
  40a174:	48 8d 76 08          	lea    0x8(%rsi),%rsi
  40a178:	48 85 c0             	test   %rax,%rax
  40a17b:	74 d8                	je     40a155 <_ZNK6GetOpt12_OptionTBaseIiEclERSt3mapIcNS_10OptionDataESt4lessIcESaISt4pairIKcS3_EEERS2_ISsS3_S4_ISsESaIS6_IKSsS3_EEEPNS_5TokenESt13_Ios_Fmtflags+0x15>
  40a17d:	49 89 f2             	mov    %rsi,%r10
  40a180:	eb 12                	jmp    40a194 <_ZNK6GetOpt12_OptionTBaseIiEclERSt3mapIcNS_10OptionDataESt4lessIcESaISt4pairIKcS3_EEERS2_ISsS3_S4_ISsESaIS6_IKSsS3_EEEPNS_5TokenESt13_Ios_Fmtflags+0x54>
  40a182:	66 0f 1f 44 00 00    	nopw   0x0(%rax,%rax,1)
  40a188:	49 89 c2             	mov    %rax,%r10
  40a18b:	48 8b 40 10          	mov    0x10(%rax),%rax
  40a18f:	48 85 c0             	test   %rax,%rax
  40a192:	74 0f                	je     40a1a3 <_ZNK6GetOpt12_OptionTBaseIiEclERSt3mapIcNS_10OptionDataESt4lessIcESaISt4pairIKcS3_EEERS2_ISsS3_S4_ISsESaIS6_IKSsS3_EEEPNS_5TokenESt13_Ios_Fmtflags+0x63>
  40a194:	44 3a 48 20          	cmp    0x20(%rax),%r9b
  40a198:	7e ee                	jle    40a188 <_ZNK6GetOpt12_OptionTBaseIiEclERSt3mapIcNS_10OptionDataESt4lessIcESaISt4pairIKcS3_EEERS2_ISsS3_S4_ISsESaIS6_IKSsS3_EEEPNS_5TokenESt13_Ios_Fmtflags+0x48>
  40a19a:	48 8b 40 18          	mov    0x18(%rax),%rax
  40a19e:	48 85 c0             	test   %rax,%rax
  40a1a1:	75 f1                	jne    40a194 <_ZNK6GetOpt12_OptionTBaseIiEclERSt3mapIcNS_10OptionDataESt4lessIcESaISt4pairIKcS3_EEERS2_ISsS3_S4_ISsESaIS6_IKSsS3_EEEPNS_5TokenESt13_Ios_Fmtflags+0x54>
  40a1a3:	4c 39 d6             	cmp    %r10,%rsi
  40a1a6:	74 ad                	je     40a155 <_ZNK6GetOpt12_OptionTBaseIiEclERSt3mapIcNS_10OptionDataESt4lessIcESaISt4pairIKcS3_EEERS2_ISsS3_S4_ISsESaIS6_IKSsS3_EEEPNS_5TokenESt13_Ios_Fmtflags+0x15>
  40a1a8:	45 3a 4a 20          	cmp    0x20(%r10),%r9b
  40a1ac:	7c a7                	jl     40a155 <_ZNK6GetOpt12_OptionTBaseIiEclERSt3mapIcNS_10OptionDataESt4lessIcESaISt4pairIKcS3_EEERS2_ISsS3_S4_ISsESaIS6_IKSsS3_EEEPNS_5TokenESt13_Ios_Fmtflags+0x15>
  40a1ae:	48 8b 03             	mov    (%rbx),%rax
  40a1b1:	49 8b 72 30          	mov    0x30(%r10),%rsi
  40a1b5:	41 c7 42 28 01 00 00 	movl   $0x1,0x28(%r10)
  40a1bc:	00 
  40a1bd:	48 8b 40 18          	mov    0x18(%rax),%rax
  40a1c1:	48 83 c4 20          	add    $0x20,%rsp
  40a1c5:	48 89 df             	mov    %rbx,%rdi
  40a1c8:	44 89 c2             	mov    %r8d,%edx
  40a1cb:	5b                   	pop    %rbx
  40a1cc:	ff e0                	jmpq   *%rax
  40a1ce:	66 90                	xchg   %ax,%ax
  40a1d0:	48 8d 73 10          	lea    0x10(%rbx),%rsi
  40a1d4:	48 89 d7             	mov    %rdx,%rdi
  40a1d7:	48 89 54 24 08       	mov    %rdx,0x8(%rsp)
  40a1dc:	44 89 44 24 1c       	mov    %r8d,0x1c(%rsp)
  40a1e1:	48 89 4c 24 10       	mov    %rcx,0x10(%rsp)
  40a1e6:	e8 f5 b1 ff ff       	callq  4053e0 <_ZNSt8_Rb_treeISsSt4pairIKSsN6GetOpt10OptionDataEESt10_Select1stIS4_ESt4lessISsESaIS4_EE4findERS1_>
  40a1eb:	48 8b 54 24 08       	mov    0x8(%rsp),%rdx
  40a1f0:	48 83 c2 08          	add    $0x8,%rdx
  40a1f4:	48 39 d0             	cmp    %rdx,%rax
  40a1f7:	0f 84 63 ff ff ff    	je     40a160 <_ZNK6GetOpt12_OptionTBaseIiEclERSt3mapIcNS_10OptionDataESt4lessIcESaISt4pairIKcS3_EEERS2_ISsS3_S4_ISsESaIS6_IKSsS3_EEEPNS_5TokenESt13_Ios_Fmtflags+0x20>
  40a1fd:	48 8b 13             	mov    (%rbx),%rdx
  40a200:	c7 40 28 01 00 00 00 	movl   $0x1,0x28(%rax)
  40a207:	48 8b 70 30          	mov    0x30(%rax),%rsi
  40a20b:	48 8b 4c 24 10       	mov    0x10(%rsp),%rcx
  40a210:	44 8b 44 24 1c       	mov    0x1c(%rsp),%r8d
  40a215:	48 8b 42 18          	mov    0x18(%rdx),%rax
  40a219:	eb a6                	jmp    40a1c1 <_ZNK6GetOpt12_OptionTBaseIiEclERSt3mapIcNS_10OptionDataESt4lessIcESaISt4pairIKcS3_EEERS2_ISsS3_S4_ISsESaIS6_IKSsS3_EEEPNS_5TokenESt13_Ios_Fmtflags+0x81>
  40a21b:	90                   	nop
  40a21c:	90                   	nop
  40a21d:	90                   	nop
  40a21e:	90                   	nop
  40a21f:	90                   	nop

000000000040a220 <_ZNK6GetOpt13_DefValOptionIdNS_8_OptionTIdEEEclERSt3mapIcNS_10OptionDataESt4lessIcESaISt4pairIKcS5_EEERS4_ISsS5_S6_ISsESaIS8_IKSsS5_EEEPNS_5TokenESt13_Ios_Fmtflags>:
  40a220:	53                   	push   %rbx
  40a221:	48 89 f1             	mov    %rsi,%rcx
  40a224:	48 89 fb             	mov    %rdi,%rbx
  40a227:	48 83 ec 20          	sub    $0x20,%rsp
  40a22b:	44 0f b6 4f 08       	movzbl 0x8(%rdi),%r9d
  40a230:	45 84 c9             	test   %r9b,%r9b
  40a233:	75 2b                	jne    40a260 <_ZNK6GetOpt13_DefValOptionIdNS_8_OptionTIdEEEclERSt3mapIcNS_10OptionDataESt4lessIcESaISt4pairIKcS5_EEERS4_ISsS5_S6_ISsESaIS8_IKSsS5_EEEPNS_5TokenESt13_Ios_Fmtflags+0x40>
  40a235:	48 8b 43 10          	mov    0x10(%rbx),%rax
  40a239:	48 83 78 e8 00       	cmpq   $0x0,-0x18(%rax)
  40a23e:	0f 85 84 00 00 00    	jne    40a2c8 <_ZNK6GetOpt13_DefValOptionIdNS_8_OptionTIdEEEclERSt3mapIcNS_10OptionDataESt4lessIcESaISt4pairIKcS5_EEERS4_ISsS5_S6_ISsESaIS8_IKSsS5_EEEPNS_5TokenESt13_Ios_Fmtflags+0xa8>
  40a244:	48 8b 43 18          	mov    0x18(%rbx),%rax
  40a248:	f2 0f 10 43 20       	movsd  0x20(%rbx),%xmm0
  40a24d:	f2 0f 11 00          	movsd  %xmm0,(%rax)
  40a251:	48 83 c4 20          	add    $0x20,%rsp
  40a255:	31 c0                	xor    %eax,%eax
  40a257:	5b                   	pop    %rbx
  40a258:	c3                   	retq   
  40a259:	0f 1f 80 00 00 00 00 	nopl   0x0(%rax)
  40a260:	48 8b 41 10          	mov    0x10(%rcx),%rax
  40a264:	48 8d 76 08          	lea    0x8(%rsi),%rsi
  40a268:	48 85 c0             	test   %rax,%rax
  40a26b:	74 c8                	je     40a235 <_ZNK6GetOpt13_DefValOptionIdNS_8_OptionTIdEEEclERSt3mapIcNS_10OptionDataESt4lessIcESaISt4pairIKcS5_EEERS4_ISsS5_S6_ISsESaIS8_IKSsS5_EEEPNS_5TokenESt13_Ios_Fmtflags+0x15>
  40a26d:	49 89 f2             	mov    %rsi,%r10
  40a270:	eb 12                	jmp    40a284 <_ZNK6GetOpt13_DefValOptionIdNS_8_OptionTIdEEEclERSt3mapIcNS_10OptionDataESt4lessIcESaISt4pairIKcS5_EEERS4_ISsS5_S6_ISsESaIS8_IKSsS5_EEEPNS_5TokenESt13_Ios_Fmtflags+0x64>
  40a272:	66 0f 1f 44 00 00    	nopw   0x0(%rax,%rax,1)
  40a278:	49 89 c2             	mov    %rax,%r10
  40a27b:	48 8b 40 10          	mov    0x10(%rax),%rax
  40a27f:	48 85 c0             	test   %rax,%rax
  40a282:	74 0f                	je     40a293 <_ZNK6GetOpt13_DefValOptionIdNS_8_OptionTIdEEEclERSt3mapIcNS_10OptionDataESt4lessIcESaISt4pairIKcS5_EEERS4_ISsS5_S6_ISsESaIS8_IKSsS5_EEEPNS_5TokenESt13_Ios_Fmtflags+0x73>
  40a284:	44 3a 48 20          	cmp    0x20(%rax),%r9b
  40a288:	7e ee                	jle    40a278 <_ZNK6GetOpt13_DefValOptionIdNS_8_OptionTIdEEEclERSt3mapIcNS_10OptionDataESt4lessIcESaISt4pairIKcS5_EEERS4_ISsS5_S6_ISsESaIS8_IKSsS5_EEEPNS_5TokenESt13_Ios_Fmtflags+0x58>
  40a28a:	48 8b 40 18          	mov    0x18(%rax),%rax
  40a28e:	48 85 c0             	test   %rax,%rax
  40a291:	75 f1                	jne    40a284 <_ZNK6GetOpt13_DefValOptionIdNS_8_OptionTIdEEEclERSt3mapIcNS_10OptionDataESt4lessIcESaISt4pairIKcS5_EEERS4_ISsS5_S6_ISsESaIS8_IKSsS5_EEEPNS_5TokenESt13_Ios_Fmtflags+0x64>
  40a293:	4c 39 d6             	cmp    %r10,%rsi
  40a296:	74 9d                	je     40a235 <_ZNK6GetOpt13_DefValOptionIdNS_8_OptionTIdEEEclERSt3mapIcNS_10OptionDataESt4lessIcESaISt4pairIKcS5_EEERS4_ISsS5_S6_ISsESaIS8_IKSsS5_EEEPNS_5TokenESt13_Ios_Fmtflags+0x15>
  40a298:	45 3a 4a 20          	cmp    0x20(%r10),%r9b
  40a29c:	7c 97                	jl     40a235 <_ZNK6GetOpt13_DefValOptionIdNS_8_OptionTIdEEEclERSt3mapIcNS_10OptionDataESt4lessIcESaISt4pairIKcS5_EEERS4_ISsS5_S6_ISsESaIS8_IKSsS5_EEEPNS_5TokenESt13_Ios_Fmtflags+0x15>
  40a29e:	48 8b 03             	mov    (%rbx),%rax
  40a2a1:	41 c7 42 28 01 00 00 	movl   $0x1,0x28(%r10)
  40a2a8:	00 
  40a2a9:	44 89 c2             	mov    %r8d,%edx
  40a2ac:	49 8b 72 30          	mov    0x30(%r10),%rsi
  40a2b0:	48 89 df             	mov    %rbx,%rdi
  40a2b3:	ff 50 18             	callq  *0x18(%rax)
  40a2b6:	83 f8 02             	cmp    $0x2,%eax
  40a2b9:	74 89                	je     40a244 <_ZNK6GetOpt13_DefValOptionIdNS_8_OptionTIdEEEclERSt3mapIcNS_10OptionDataESt4lessIcESaISt4pairIKcS5_EEERS4_ISsS5_S6_ISsESaIS8_IKSsS5_EEEPNS_5TokenESt13_Ios_Fmtflags+0x24>
  40a2bb:	48 83 c4 20          	add    $0x20,%rsp
  40a2bf:	5b                   	pop    %rbx
  40a2c0:	c3                   	retq   
  40a2c1:	0f 1f 80 00 00 00 00 	nopl   0x0(%rax)
  40a2c8:	48 8d 73 10          	lea    0x10(%rbx),%rsi
  40a2cc:	48 89 d7             	mov    %rdx,%rdi
  40a2cf:	48 89 54 24 08       	mov    %rdx,0x8(%rsp)
  40a2d4:	44 89 44 24 1c       	mov    %r8d,0x1c(%rsp)
  40a2d9:	48 89 4c 24 10       	mov    %rcx,0x10(%rsp)
  40a2de:	e8 fd b0 ff ff       	callq  4053e0 <_ZNSt8_Rb_treeISsSt4pairIKSsN6GetOpt10OptionDataEESt10_Select1stIS4_ESt4lessISsESaIS4_EE4findERS1_>
  40a2e3:	48 8b 54 24 08       	mov    0x8(%rsp),%rdx
  40a2e8:	48 83 c2 08          	add    $0x8,%rdx
  40a2ec:	48 39 d0             	cmp    %rdx,%rax
  40a2ef:	0f 84 4f ff ff ff    	je     40a244 <_ZNK6GetOpt13_DefValOptionIdNS_8_OptionTIdEEEclERSt3mapIcNS_10OptionDataESt4lessIcESaISt4pairIKcS5_EEERS4_ISsS5_S6_ISsESaIS8_IKSsS5_EEEPNS_5TokenESt13_Ios_Fmtflags+0x24>
  40a2f5:	44 8b 44 24 1c       	mov    0x1c(%rsp),%r8d
  40a2fa:	4c 8b 0b             	mov    (%rbx),%r9
  40a2fd:	48 89 df             	mov    %rbx,%rdi
  40a300:	48 8b 70 30          	mov    0x30(%rax),%rsi
  40a304:	48 8b 4c 24 10       	mov    0x10(%rsp),%rcx
  40a309:	c7 40 28 01 00 00 00 	movl   $0x1,0x28(%rax)
  40a310:	44 89 c2             	mov    %r8d,%edx
  40a313:	41 ff 51 18          	callq  *0x18(%r9)
  40a317:	eb 9d                	jmp    40a2b6 <_ZNK6GetOpt13_DefValOptionIdNS_8_OptionTIdEEEclERSt3mapIcNS_10OptionDataESt4lessIcESaISt4pairIKcS5_EEERS4_ISsS5_S6_ISsESaIS8_IKSsS5_EEEPNS_5TokenESt13_Ios_Fmtflags+0x96>
  40a319:	90                   	nop
  40a31a:	90                   	nop
  40a31b:	90                   	nop
  40a31c:	90                   	nop
  40a31d:	90                   	nop
  40a31e:	90                   	nop
  40a31f:	90                   	nop

000000000040a320 <_ZNK6GetOpt13_DefValOptionIiNS_8_OptionTIiEEEclERSt3mapIcNS_10OptionDataESt4lessIcESaISt4pairIKcS5_EEERS4_ISsS5_S6_ISsESaIS8_IKSsS5_EEEPNS_5TokenESt13_Ios_Fmtflags>:
  40a320:	53                   	push   %rbx
  40a321:	48 89 f1             	mov    %rsi,%rcx
  40a324:	48 89 fb             	mov    %rdi,%rbx
  40a327:	48 83 ec 20          	sub    $0x20,%rsp
  40a32b:	44 0f b6 4f 08       	movzbl 0x8(%rdi),%r9d
  40a330:	45 84 c9             	test   %r9b,%r9b
  40a333:	75 23                	jne    40a358 <_ZNK6GetOpt13_DefValOptionIiNS_8_OptionTIiEEEclERSt3mapIcNS_10OptionDataESt4lessIcESaISt4pairIKcS5_EEERS4_ISsS5_S6_ISsESaIS8_IKSsS5_EEEPNS_5TokenESt13_Ios_Fmtflags+0x38>
  40a335:	48 8b 43 10          	mov    0x10(%rbx),%rax
  40a339:	48 83 78 e8 00       	cmpq   $0x0,-0x18(%rax)
  40a33e:	0f 85 7c 00 00 00    	jne    40a3c0 <_ZNK6GetOpt13_DefValOptionIiNS_8_OptionTIiEEEclERSt3mapIcNS_10OptionDataESt4lessIcESaISt4pairIKcS5_EEERS4_ISsS5_S6_ISsESaIS8_IKSsS5_EEEPNS_5TokenESt13_Ios_Fmtflags+0xa0>
  40a344:	48 8b 43 18          	mov    0x18(%rbx),%rax
  40a348:	8b 53 20             	mov    0x20(%rbx),%edx
  40a34b:	89 10                	mov    %edx,(%rax)
  40a34d:	48 83 c4 20          	add    $0x20,%rsp
  40a351:	31 c0                	xor    %eax,%eax
  40a353:	5b                   	pop    %rbx
  40a354:	c3                   	retq   
  40a355:	0f 1f 00             	nopl   (%rax)
  40a358:	48 8b 41 10          	mov    0x10(%rcx),%rax
  40a35c:	48 8d 76 08          	lea    0x8(%rsi),%rsi
  40a360:	48 85 c0             	test   %rax,%rax
  40a363:	74 d0                	je     40a335 <_ZNK6GetOpt13_DefValOptionIiNS_8_OptionTIiEEEclERSt3mapIcNS_10OptionDataESt4lessIcESaISt4pairIKcS5_EEERS4_ISsS5_S6_ISsESaIS8_IKSsS5_EEEPNS_5TokenESt13_Ios_Fmtflags+0x15>
  40a365:	49 89 f2             	mov    %rsi,%r10
  40a368:	eb 12                	jmp    40a37c <_ZNK6GetOpt13_DefValOptionIiNS_8_OptionTIiEEEclERSt3mapIcNS_10OptionDataESt4lessIcESaISt4pairIKcS5_EEERS4_ISsS5_S6_ISsESaIS8_IKSsS5_EEEPNS_5TokenESt13_Ios_Fmtflags+0x5c>
  40a36a:	66 0f 1f 44 00 00    	nopw   0x0(%rax,%rax,1)
  40a370:	49 89 c2             	mov    %rax,%r10
  40a373:	48 8b 40 10          	mov    0x10(%rax),%rax
  40a377:	48 85 c0             	test   %rax,%rax
  40a37a:	74 0f                	je     40a38b <_ZNK6GetOpt13_DefValOptionIiNS_8_OptionTIiEEEclERSt3mapIcNS_10OptionDataESt4lessIcESaISt4pairIKcS5_EEERS4_ISsS5_S6_ISsESaIS8_IKSsS5_EEEPNS_5TokenESt13_Ios_Fmtflags+0x6b>
  40a37c:	44 3a 48 20          	cmp    0x20(%rax),%r9b
  40a380:	7e ee                	jle    40a370 <_ZNK6GetOpt13_DefValOptionIiNS_8_OptionTIiEEEclERSt3mapIcNS_10OptionDataESt4lessIcESaISt4pairIKcS5_EEERS4_ISsS5_S6_ISsESaIS8_IKSsS5_EEEPNS_5TokenESt13_Ios_Fmtflags+0x50>
  40a382:	48 8b 40 18          	mov    0x18(%rax),%rax
  40a386:	48 85 c0             	test   %rax,%rax
  40a389:	75 f1                	jne    40a37c <_ZNK6GetOpt13_DefValOptionIiNS_8_OptionTIiEEEclERSt3mapIcNS_10OptionDataESt4lessIcESaISt4pairIKcS5_EEERS4_ISsS5_S6_ISsESaIS8_IKSsS5_EEEPNS_5TokenESt13_Ios_Fmtflags+0x5c>
  40a38b:	4c 39 d6             	cmp    %r10,%rsi
  40a38e:	74 a5                	je     40a335 <_ZNK6GetOpt13_DefValOptionIiNS_8_OptionTIiEEEclERSt3mapIcNS_10OptionDataESt4lessIcESaISt4pairIKcS5_EEERS4_ISsS5_S6_ISsESaIS8_IKSsS5_EEEPNS_5TokenESt13_Ios_Fmtflags+0x15>
  40a390:	45 3a 4a 20          	cmp    0x20(%r10),%r9b
  40a394:	7c 9f                	jl     40a335 <_ZNK6GetOpt13_DefValOptionIiNS_8_OptionTIiEEEclERSt3mapIcNS_10OptionDataESt4lessIcESaISt4pairIKcS5_EEERS4_ISsS5_S6_ISsESaIS8_IKSsS5_EEEPNS_5TokenESt13_Ios_Fmtflags+0x15>
  40a396:	48 8b 03             	mov    (%rbx),%rax
  40a399:	41 c7 42 28 01 00 00 	movl   $0x1,0x28(%r10)
  40a3a0:	00 
  40a3a1:	44 89 c2             	mov    %r8d,%edx
  40a3a4:	49 8b 72 30          	mov    0x30(%r10),%rsi
  40a3a8:	48 89 df             	mov    %rbx,%rdi
  40a3ab:	ff 50 18             	callq  *0x18(%rax)
  40a3ae:	83 f8 02             	cmp    $0x2,%eax
  40a3b1:	74 91                	je     40a344 <_ZNK6GetOpt13_DefValOptionIiNS_8_OptionTIiEEEclERSt3mapIcNS_10OptionDataESt4lessIcESaISt4pairIKcS5_EEERS4_ISsS5_S6_ISsESaIS8_IKSsS5_EEEPNS_5TokenESt13_Ios_Fmtflags+0x24>
  40a3b3:	48 83 c4 20          	add    $0x20,%rsp
  40a3b7:	5b                   	pop    %rbx
  40a3b8:	c3                   	retq   
  40a3b9:	0f 1f 80 00 00 00 00 	nopl   0x0(%rax)
  40a3c0:	48 8d 73 10          	lea    0x10(%rbx),%rsi
  40a3c4:	48 89 d7             	mov    %rdx,%rdi
  40a3c7:	48 89 54 24 08       	mov    %rdx,0x8(%rsp)
  40a3cc:	44 89 44 24 1c       	mov    %r8d,0x1c(%rsp)
  40a3d1:	48 89 4c 24 10       	mov    %rcx,0x10(%rsp)
  40a3d6:	e8 05 b0 ff ff       	callq  4053e0 <_ZNSt8_Rb_treeISsSt4pairIKSsN6GetOpt10OptionDataEESt10_Select1stIS4_ESt4lessISsESaIS4_EE4findERS1_>
  40a3db:	48 8b 54 24 08       	mov    0x8(%rsp),%rdx
  40a3e0:	48 83 c2 08          	add    $0x8,%rdx
  40a3e4:	48 39 d0             	cmp    %rdx,%rax
  40a3e7:	0f 84 57 ff ff ff    	je     40a344 <_ZNK6GetOpt13_DefValOptionIiNS_8_OptionTIiEEEclERSt3mapIcNS_10OptionDataESt4lessIcESaISt4pairIKcS5_EEERS4_ISsS5_S6_ISsESaIS8_IKSsS5_EEEPNS_5TokenESt13_Ios_Fmtflags+0x24>
  40a3ed:	44 8b 44 24 1c       	mov    0x1c(%rsp),%r8d
  40a3f2:	4c 8b 0b             	mov    (%rbx),%r9
  40a3f5:	48 89 df             	mov    %rbx,%rdi
  40a3f8:	48 8b 70 30          	mov    0x30(%rax),%rsi
  40a3fc:	48 8b 4c 24 10       	mov    0x10(%rsp),%rcx
  40a401:	c7 40 28 01 00 00 00 	movl   $0x1,0x28(%rax)
  40a408:	44 89 c2             	mov    %r8d,%edx
  40a40b:	41 ff 51 18          	callq  *0x18(%r9)
  40a40f:	eb 9d                	jmp    40a3ae <_ZNK6GetOpt13_DefValOptionIiNS_8_OptionTIiEEEclERSt3mapIcNS_10OptionDataESt4lessIcESaISt4pairIKcS5_EEERS4_ISsS5_S6_ISsESaIS8_IKSsS5_EEEPNS_5TokenESt13_Ios_Fmtflags+0x8e>
  40a411:	90                   	nop
  40a412:	90                   	nop
  40a413:	90                   	nop
  40a414:	90                   	nop
  40a415:	90                   	nop
  40a416:	90                   	nop
  40a417:	90                   	nop
  40a418:	90                   	nop
  40a419:	90                   	nop
  40a41a:	90                   	nop
  40a41b:	90                   	nop
  40a41c:	90                   	nop
  40a41d:	90                   	nop
  40a41e:	90                   	nop
  40a41f:	90                   	nop

000000000040a420 <_ZN6GetOpt9GetOpt_ppD1Ev>:
  40a420:	53                   	push   %rbx
  40a421:	48 89 fb             	mov    %rdi,%rbx
  40a424:	48 8d bf 88 00 00 00 	lea    0x88(%rdi),%rdi
  40a42b:	48 83 ec 10          	sub    $0x10,%rsp
  40a42f:	e8 ec ac ff ff       	callq  405120 <_ZN6GetOpt9GetOpt_pp13TokensDeleterD1Ev>
  40a434:	48 8b 43 70          	mov    0x70(%rbx),%rax
  40a438:	48 8d 78 e8          	lea    -0x18(%rax),%rdi
  40a43c:	48 81 ff 00 23 61 00 	cmp    $0x612300,%rdi
  40a443:	75 1f                	jne    40a464 <_ZN6GetOpt9GetOpt_ppD1Ev+0x44>
  40a445:	48 8b 73 40          	mov    0x40(%rbx),%rsi
  40a449:	48 8d 7b 30          	lea    0x30(%rbx),%rdi
  40a44d:	e8 4e b4 ff ff       	callq  4058a0 <_ZNSt8_Rb_treeISsSt4pairIKSsN6GetOpt10OptionDataEESt10_Select1stIS4_ESt4lessISsESaIS4_EE8_M_eraseEPSt13_Rb_tree_nodeIS4_E>
  40a452:	48 8b 73 10          	mov    0x10(%rbx),%rsi
  40a456:	48 89 df             	mov    %rbx,%rdi
  40a459:	e8 72 b2 ff ff       	callq  4056d0 <_ZNSt8_Rb_treeIcSt4pairIKcN6GetOpt10OptionDataEESt10_Select1stIS4_ESt4lessIcESaIS4_EE8_M_eraseEPSt13_Rb_tree_nodeIS4_E>
  40a45e:	48 83 c4 10          	add    $0x10,%rsp
  40a462:	5b                   	pop    %rbx
  40a463:	c3                   	retq   
  40a464:	b9 50 2c 40 00       	mov    $0x402c50,%ecx
  40a469:	48 8d 57 10          	lea    0x10(%rdi),%rdx
  40a46d:	48 85 c9             	test   %rcx,%rcx
  40a470:	74 17                	je     40a489 <_ZN6GetOpt9GetOpt_ppD1Ev+0x69>
  40a472:	83 c8 ff             	or     $0xffffffff,%eax
  40a475:	f0 0f c1 02          	lock xadd %eax,(%rdx)
  40a479:	85 c0                	test   %eax,%eax
  40a47b:	7f c8                	jg     40a445 <_ZN6GetOpt9GetOpt_ppD1Ev+0x25>
  40a47d:	48 8d 74 24 0f       	lea    0xf(%rsp),%rsi
  40a482:	e8 39 85 ff ff       	callq  4029c0 <_ZNSs4_Rep10_M_destroyERKSaIcE@plt>
  40a487:	eb bc                	jmp    40a445 <_ZN6GetOpt9GetOpt_ppD1Ev+0x25>
  40a489:	8b 50 f8             	mov    -0x8(%rax),%edx
  40a48c:	8d 4a ff             	lea    -0x1(%rdx),%ecx
  40a48f:	89 48 f8             	mov    %ecx,-0x8(%rax)
  40a492:	89 d0                	mov    %edx,%eax
  40a494:	eb e3                	jmp    40a479 <_ZN6GetOpt9GetOpt_ppD1Ev+0x59>
  40a496:	90                   	nop
  40a497:	90                   	nop
  40a498:	90                   	nop
  40a499:	90                   	nop
  40a49a:	90                   	nop
  40a49b:	90                   	nop
  40a49c:	90                   	nop
  40a49d:	90                   	nop
  40a49e:	90                   	nop
  40a49f:	90                   	nop

000000000040a4a0 <_ZN10RelaxationIfLl100EEC1Effllff>:
  40a4a0:	f3 48 0f 2c c2       	cvttss2si %xmm2,%rax
  40a4a5:	41 54                	push   %r12
  40a4a7:	49 89 f4             	mov    %rsi,%r12
  40a4aa:	55                   	push   %rbp
  40a4ab:	48 89 d5             	mov    %rdx,%rbp
  40a4ae:	53                   	push   %rbx
  40a4af:	48 89 fb             	mov    %rdi,%rbx
  40a4b2:	48 83 ec 50          	sub    $0x50,%rsp
  40a4b6:	f3 0f 11 03          	movss  %xmm0,(%rbx)
  40a4ba:	f3 0f 11 4f 04       	movss  %xmm1,0x4(%rdi)
  40a4bf:	48 89 73 08          	mov    %rsi,0x8(%rbx)
  40a4c3:	48 89 53 10          	mov    %rdx,0x10(%rbx)
  40a4c7:	f3 0f 11 44 24 0c    	movss  %xmm0,0xc(%rsp)
  40a4cd:	f3 0f 11 54 24 04    	movss  %xmm2,0x4(%rsp)
  40a4d3:	f3 0f 11 5c 24 08    	movss  %xmm3,0x8(%rsp)
  40a4d9:	48 89 47 18          	mov    %rax,0x18(%rdi)
  40a4dd:	f3 48 0f 2c c3       	cvttss2si %xmm3,%rax
  40a4e2:	48 89 47 20          	mov    %rax,0x20(%rdi)
  40a4e6:	bf 40 9c 00 00       	mov    $0x9c40,%edi
  40a4eb:	e8 70 85 ff ff       	callq  402a60 <_Znwm@plt>
  40a4f0:	f3 0f 10 05 7c 56 00 	movss  0x567c(%rip),%xmm0        # 40fb74 <_ZTVN6GetOpt13_DefValOptionIdNS_8_OptionTIdEEEE+0x34>
  40a4f7:	00 
  40a4f8:	49 89 c0             	mov    %rax,%r8
  40a4fb:	0f 2e 44 24 04       	ucomiss 0x4(%rsp),%xmm0
  40a500:	48 89 43 28          	mov    %rax,0x28(%rbx)
  40a504:	0f 87 c0 02 00 00    	ja     40a7ca <_ZN10RelaxationIfLl100EEC1Effllff+0x32a>
  40a50a:	49 8d 44 24 ff       	lea    -0x1(%r12),%rax
  40a50f:	48 83 f8 61          	cmp    $0x61,%rax
  40a513:	0f 87 5e 02 00 00    	ja     40a777 <_ZN10RelaxationIfLl100EEC1Effllff+0x2d7>
  40a519:	48 8d 45 ff          	lea    -0x1(%rbp),%rax
  40a51d:	48 83 f8 61          	cmp    $0x61,%rax
  40a521:	0f 87 50 02 00 00    	ja     40a777 <_ZN10RelaxationIfLl100EEC1Effllff+0x2d7>
  40a527:	f3 49 0f 2a c4       	cvtsi2ss %r12,%xmm0
  40a52c:	f3 0f 10 64 24 04    	movss  0x4(%rsp),%xmm4
  40a532:	0f 57 c9             	xorps  %xmm1,%xmm1
  40a535:	0f 28 d0             	movaps %xmm0,%xmm2
  40a538:	f3 0f 5c d4          	subss  %xmm4,%xmm2
  40a53c:	0f 2e ca             	ucomiss %xmm2,%xmm1
  40a53f:	0f 87 29 03 00 00    	ja     40a86e <_ZN10RelaxationIfLl100EEC1Effllff+0x3ce>
  40a545:	f3 0f 58 c4          	addss  %xmm4,%xmm0
  40a549:	0f 2e 05 28 56 00 00 	ucomiss 0x5628(%rip),%xmm0        # 40fb78 <_ZTVN6GetOpt13_DefValOptionIdNS_8_OptionTIdEEEE+0x38>
  40a550:	0f 87 18 03 00 00    	ja     40a86e <_ZN10RelaxationIfLl100EEC1Effllff+0x3ce>
  40a556:	f3 48 0f 2a c5       	cvtsi2ss %rbp,%xmm0
  40a55b:	0f 28 d0             	movaps %xmm0,%xmm2
  40a55e:	f3 0f 5c d4          	subss  %xmm4,%xmm2
  40a562:	0f 2e ca             	ucomiss %xmm2,%xmm1
  40a565:	0f 87 03 03 00 00    	ja     40a86e <_ZN10RelaxationIfLl100EEC1Effllff+0x3ce>
  40a56b:	f3 0f 58 c4          	addss  %xmm4,%xmm0
  40a56f:	0f 2e 05 02 56 00 00 	ucomiss 0x5602(%rip),%xmm0        # 40fb78 <_ZTVN6GetOpt13_DefValOptionIdNS_8_OptionTIdEEEE+0x38>
  40a576:	0f 87 f2 02 00 00    	ja     40a86e <_ZN10RelaxationIfLl100EEC1Effllff+0x3ce>
  40a57c:	f3 0f 10 74 24 08    	movss  0x8(%rsp),%xmm6
  40a582:	0f 2e 74 24 0c       	ucomiss 0xc(%rsp),%xmm6
  40a587:	0f 87 97 01 00 00    	ja     40a724 <_ZN10RelaxationIfLl100EEC1Effllff+0x284>
  40a58d:	49 8d b8 b0 9a 00 00 	lea    0x9ab0(%r8),%rdi
  40a594:	be 90 01 00 00       	mov    $0x190,%esi
  40a599:	40 f6 c7 01          	test   $0x1,%dil
  40a59d:	0f 85 cd 00 00 00    	jne    40a670 <_ZN10RelaxationIfLl100EEC1Effllff+0x1d0>
  40a5a3:	40 f6 c7 02          	test   $0x2,%dil
  40a5a7:	0f 85 e3 00 00 00    	jne    40a690 <_ZN10RelaxationIfLl100EEC1Effllff+0x1f0>
  40a5ad:	40 f6 c7 04          	test   $0x4,%dil
  40a5b1:	0f 85 f9 00 00 00    	jne    40a6b0 <_ZN10RelaxationIfLl100EEC1Effllff+0x210>
  40a5b7:	89 f1                	mov    %esi,%ecx
  40a5b9:	31 c0                	xor    %eax,%eax
  40a5bb:	c1 e9 03             	shr    $0x3,%ecx
  40a5be:	40 f6 c6 04          	test   $0x4,%sil
  40a5c2:	f3 48 ab             	rep stos %rax,%es:(%rdi)
  40a5c5:	74 0a                	je     40a5d1 <_ZN10RelaxationIfLl100EEC1Effllff+0x131>
  40a5c7:	c7 07 00 00 00 00    	movl   $0x0,(%rdi)
  40a5cd:	48 83 c7 04          	add    $0x4,%rdi
  40a5d1:	40 f6 c6 02          	test   $0x2,%sil
  40a5d5:	74 0c                	je     40a5e3 <_ZN10RelaxationIfLl100EEC1Effllff+0x143>
  40a5d7:	45 31 c9             	xor    %r9d,%r9d
  40a5da:	48 83 c7 02          	add    $0x2,%rdi
  40a5de:	66 44 89 4f fe       	mov    %r9w,-0x2(%rdi)
  40a5e3:	83 e6 01             	and    $0x1,%esi
  40a5e6:	74 03                	je     40a5eb <_ZN10RelaxationIfLl100EEC1Effllff+0x14b>
  40a5e8:	c6 07 00             	movb   $0x0,(%rdi)
  40a5eb:	41 f6 c0 01          	test   $0x1,%r8b
  40a5ef:	4c 89 c7             	mov    %r8,%rdi
  40a5f2:	ba 90 01 00 00       	mov    $0x190,%edx
  40a5f7:	0f 85 cb 00 00 00    	jne    40a6c8 <_ZN10RelaxationIfLl100EEC1Effllff+0x228>
  40a5fd:	40 f6 c7 02          	test   $0x2,%dil
  40a601:	0f 85 d9 00 00 00    	jne    40a6e0 <_ZN10RelaxationIfLl100EEC1Effllff+0x240>
  40a607:	40 f6 c7 04          	test   $0x4,%dil
  40a60b:	0f 85 ef 00 00 00    	jne    40a700 <_ZN10RelaxationIfLl100EEC1Effllff+0x260>
  40a611:	89 d1                	mov    %edx,%ecx
  40a613:	31 c0                	xor    %eax,%eax
  40a615:	c1 e9 03             	shr    $0x3,%ecx
  40a618:	f6 c2 04             	test   $0x4,%dl
  40a61b:	f3 48 ab             	rep stos %rax,%es:(%rdi)
  40a61e:	74 0a                	je     40a62a <_ZN10RelaxationIfLl100EEC1Effllff+0x18a>
  40a620:	c7 07 00 00 00 00    	movl   $0x0,(%rdi)
  40a626:	48 83 c7 04          	add    $0x4,%rdi
  40a62a:	f6 c2 02             	test   $0x2,%dl
  40a62d:	74 0a                	je     40a639 <_ZN10RelaxationIfLl100EEC1Effllff+0x199>
  40a62f:	31 c9                	xor    %ecx,%ecx
  40a631:	48 83 c7 02          	add    $0x2,%rdi
  40a635:	66 89 4f fe          	mov    %cx,-0x2(%rdi)
  40a639:	83 e2 01             	and    $0x1,%edx
  40a63c:	74 03                	je     40a641 <_ZN10RelaxationIfLl100EEC1Effllff+0x1a1>
  40a63e:	c6 07 00             	movb   $0x0,(%rdi)
  40a641:	48 8d 74 24 40       	lea    0x40(%rsp),%rsi
  40a646:	31 d2                	xor    %edx,%edx
  40a648:	bf 30 8e 40 00       	mov    $0x408e30,%edi
  40a64d:	48 89 5c 24 40       	mov    %rbx,0x40(%rsp)
  40a652:	e8 a9 82 ff ff       	callq  402900 <GOMP_parallel_start@plt>
  40a657:	48 8d 7c 24 40       	lea    0x40(%rsp),%rdi
  40a65c:	e8 cf e7 ff ff       	callq  408e30 <_ZN10RelaxationIfLl100EEC2Effllff._omp_fn.0>
  40a661:	e8 8a 81 ff ff       	callq  4027f0 <GOMP_parallel_end@plt>
  40a666:	48 83 c4 50          	add    $0x50,%rsp
  40a66a:	5b                   	pop    %rbx
  40a66b:	5d                   	pop    %rbp
  40a66c:	41 5c                	pop    %r12
  40a66e:	c3                   	retq   
  40a66f:	90                   	nop
  40a670:	49 8d b8 b1 9a 00 00 	lea    0x9ab1(%r8),%rdi
  40a677:	41 c6 80 b0 9a 00 00 	movb   $0x0,0x9ab0(%r8)
  40a67e:	00 
  40a67f:	40 b6 8f             	mov    $0x8f,%sil
  40a682:	40 f6 c7 02          	test   $0x2,%dil
  40a686:	0f 84 21 ff ff ff    	je     40a5ad <_ZN10RelaxationIfLl100EEC1Effllff+0x10d>
  40a68c:	0f 1f 40 00          	nopl   0x0(%rax)
  40a690:	45 31 d2             	xor    %r10d,%r10d
  40a693:	48 83 c7 02          	add    $0x2,%rdi
  40a697:	83 ee 02             	sub    $0x2,%esi
  40a69a:	66 44 89 57 fe       	mov    %r10w,-0x2(%rdi)
  40a69f:	40 f6 c7 04          	test   $0x4,%dil
  40a6a3:	0f 84 0e ff ff ff    	je     40a5b7 <_ZN10RelaxationIfLl100EEC1Effllff+0x117>
  40a6a9:	0f 1f 80 00 00 00 00 	nopl   0x0(%rax)
  40a6b0:	c7 07 00 00 00 00    	movl   $0x0,(%rdi)
  40a6b6:	83 ee 04             	sub    $0x4,%esi
  40a6b9:	48 83 c7 04          	add    $0x4,%rdi
  40a6bd:	e9 f5 fe ff ff       	jmpq   40a5b7 <_ZN10RelaxationIfLl100EEC1Effllff+0x117>
  40a6c2:	66 0f 1f 44 00 00    	nopw   0x0(%rax,%rax,1)
  40a6c8:	48 83 c7 01          	add    $0x1,%rdi
  40a6cc:	41 c6 00 00          	movb   $0x0,(%r8)
  40a6d0:	b2 8f                	mov    $0x8f,%dl
  40a6d2:	40 f6 c7 02          	test   $0x2,%dil
  40a6d6:	0f 84 2b ff ff ff    	je     40a607 <_ZN10RelaxationIfLl100EEC1Effllff+0x167>
  40a6dc:	0f 1f 40 00          	nopl   0x0(%rax)
  40a6e0:	31 f6                	xor    %esi,%esi
  40a6e2:	48 83 c7 02          	add    $0x2,%rdi
  40a6e6:	83 ea 02             	sub    $0x2,%edx
  40a6e9:	66 89 77 fe          	mov    %si,-0x2(%rdi)
  40a6ed:	40 f6 c7 04          	test   $0x4,%dil
  40a6f1:	0f 84 1a ff ff ff    	je     40a611 <_ZN10RelaxationIfLl100EEC1Effllff+0x171>
  40a6f7:	66 0f 1f 84 00 00 00 	nopw   0x0(%rax,%rax,1)
  40a6fe:	00 00 
  40a700:	c7 07 00 00 00 00    	movl   $0x0,(%rdi)
  40a706:	83 ea 04             	sub    $0x4,%edx
  40a709:	48 83 c7 04          	add    $0x4,%rdi
  40a70d:	e9 ff fe ff ff       	jmpq   40a611 <_ZN10RelaxationIfLl100EEC1Effllff+0x171>
  40a712:	48 89 c7             	mov    %rax,%rdi
  40a715:	48 83 fa ff          	cmp    $0xffffffffffffffff,%rdx
  40a719:	0f 84 a2 01 00 00    	je     40a8c1 <_ZN10RelaxationIfLl100EEC1Effllff+0x421>
  40a71f:	e8 8c 85 ff ff       	callq  402cb0 <_Unwind_Resume@plt>
  40a724:	bf 10 00 00 00       	mov    $0x10,%edi
  40a729:	e8 a2 81 ff ff       	callq  4028d0 <__cxa_allocate_exception@plt>
  40a72e:	48 8d 54 24 20       	lea    0x20(%rsp),%rdx
  40a733:	48 8d 7c 24 40       	lea    0x40(%rsp),%rdi
  40a738:	be f8 f6 40 00       	mov    $0x40f6f8,%esi
  40a73d:	48 89 c3             	mov    %rax,%rbx
  40a740:	e8 8b 83 ff ff       	callq  402ad0 <_ZNSsC1EPKcRKSaIcE@plt>
  40a745:	48 8d 74 24 40       	lea    0x40(%rsp),%rsi
  40a74a:	48 89 df             	mov    %rbx,%rdi
  40a74d:	e8 ae 82 ff ff       	callq  402a00 <_ZNSt11logic_errorC1ERKSs@plt>
  40a752:	48 8b 44 24 40       	mov    0x40(%rsp),%rax
  40a757:	48 8d 74 24 30       	lea    0x30(%rsp),%rsi
  40a75c:	48 8d 78 e8          	lea    -0x18(%rax),%rdi
  40a760:	e8 db 81 ff ff       	callq  402940 <_ZNSs4_Rep10_M_disposeERKSaIcE@plt>
  40a765:	ba 10 2b 40 00       	mov    $0x402b10,%edx
  40a76a:	be b0 27 61 00       	mov    $0x6127b0,%esi
  40a76f:	48 89 df             	mov    %rbx,%rdi
  40a772:	e8 19 85 ff ff       	callq  402c90 <__cxa_throw@plt>
  40a777:	bf 10 00 00 00       	mov    $0x10,%edi
  40a77c:	e8 4f 81 ff ff       	callq  4028d0 <__cxa_allocate_exception@plt>
  40a781:	48 8d 54 24 30       	lea    0x30(%rsp),%rdx
  40a786:	48 8d 7c 24 20       	lea    0x20(%rsp),%rdi
  40a78b:	be 30 f6 40 00       	mov    $0x40f630,%esi
  40a790:	48 89 c3             	mov    %rax,%rbx
  40a793:	e8 38 83 ff ff       	callq  402ad0 <_ZNSsC1EPKcRKSaIcE@plt>
  40a798:	48 8d 74 24 20       	lea    0x20(%rsp),%rsi
  40a79d:	48 89 df             	mov    %rbx,%rdi
  40a7a0:	e8 5b 82 ff ff       	callq  402a00 <_ZNSt11logic_errorC1ERKSs@plt>
  40a7a5:	48 8b 44 24 20       	mov    0x20(%rsp),%rax
  40a7aa:	48 8d 74 24 40       	lea    0x40(%rsp),%rsi
  40a7af:	48 8d 78 e8          	lea    -0x18(%rax),%rdi
  40a7b3:	e8 88 81 ff ff       	callq  402940 <_ZNSs4_Rep10_M_disposeERKSaIcE@plt>
  40a7b8:	ba 10 2b 40 00       	mov    $0x402b10,%edx
  40a7bd:	be b0 27 61 00       	mov    $0x6127b0,%esi
  40a7c2:	48 89 df             	mov    %rbx,%rdi
  40a7c5:	e8 c6 84 ff ff       	callq  402c90 <__cxa_throw@plt>
  40a7ca:	bf 10 00 00 00       	mov    $0x10,%edi
  40a7cf:	e8 fc 80 ff ff       	callq  4028d0 <__cxa_allocate_exception@plt>
  40a7d4:	48 8d 54 24 30       	lea    0x30(%rsp),%rdx
  40a7d9:	48 8d 7c 24 10       	lea    0x10(%rsp),%rdi
  40a7de:	be 08 f6 40 00       	mov    $0x40f608,%esi
  40a7e3:	48 89 c3             	mov    %rax,%rbx
  40a7e6:	e8 e5 82 ff ff       	callq  402ad0 <_ZNSsC1EPKcRKSaIcE@plt>
  40a7eb:	48 8d 74 24 10       	lea    0x10(%rsp),%rsi
  40a7f0:	48 89 df             	mov    %rbx,%rdi
  40a7f3:	e8 08 82 ff ff       	callq  402a00 <_ZNSt11logic_errorC1ERKSs@plt>
  40a7f8:	48 8b 44 24 10       	mov    0x10(%rsp),%rax
  40a7fd:	48 8d 74 24 40       	lea    0x40(%rsp),%rsi
  40a802:	48 8d 78 e8          	lea    -0x18(%rax),%rdi
  40a806:	e8 35 81 ff ff       	callq  402940 <_ZNSs4_Rep10_M_disposeERKSaIcE@plt>
  40a80b:	ba 10 2b 40 00       	mov    $0x402b10,%edx
  40a810:	be b0 27 61 00       	mov    $0x6127b0,%esi
  40a815:	48 89 df             	mov    %rbx,%rdi
  40a818:	e8 73 84 ff ff       	callq  402c90 <__cxa_throw@plt>
  40a81d:	48 89 c5             	mov    %rax,%rbp
  40a820:	48 8b 44 24 20       	mov    0x20(%rsp),%rax
  40a825:	48 8d 74 24 40       	lea    0x40(%rsp),%rsi
  40a82a:	49 89 d4             	mov    %rdx,%r12
  40a82d:	48 8d 78 e8          	lea    -0x18(%rax),%rdi
  40a831:	e8 0a 81 ff ff       	callq  402940 <_ZNSs4_Rep10_M_disposeERKSaIcE@plt>
  40a836:	48 89 df             	mov    %rbx,%rdi
  40a839:	e8 52 81 ff ff       	callq  402990 <__cxa_free_exception@plt>
  40a83e:	48 89 ef             	mov    %rbp,%rdi
  40a841:	4c 89 e2             	mov    %r12,%rdx
  40a844:	e9 cc fe ff ff       	jmpq   40a715 <_ZN10RelaxationIfLl100EEC1Effllff+0x275>
  40a849:	48 89 c5             	mov    %rax,%rbp
  40a84c:	49 89 d4             	mov    %rdx,%r12
  40a84f:	eb e5                	jmp    40a836 <_ZN10RelaxationIfLl100EEC1Effllff+0x396>
  40a851:	48 89 c5             	mov    %rax,%rbp
  40a854:	48 8b 44 24 10       	mov    0x10(%rsp),%rax
  40a859:	48 8d 74 24 40       	lea    0x40(%rsp),%rsi
  40a85e:	49 89 d4             	mov    %rdx,%r12
  40a861:	48 8d 78 e8          	lea    -0x18(%rax),%rdi
  40a865:	e8 d6 80 ff ff       	callq  402940 <_ZNSs4_Rep10_M_disposeERKSaIcE@plt>
  40a86a:	eb ca                	jmp    40a836 <_ZN10RelaxationIfLl100EEC1Effllff+0x396>
  40a86c:	eb db                	jmp    40a849 <_ZN10RelaxationIfLl100EEC1Effllff+0x3a9>
  40a86e:	bf 10 00 00 00       	mov    $0x10,%edi
  40a873:	e8 58 80 ff ff       	callq  4028d0 <__cxa_allocate_exception@plt>
  40a878:	48 8d 54 24 20       	lea    0x20(%rsp),%rdx
  40a87d:	48 8d 7c 24 30       	lea    0x30(%rsp),%rdi
  40a882:	be 90 f6 40 00       	mov    $0x40f690,%esi
  40a887:	48 89 c3             	mov    %rax,%rbx
  40a88a:	e8 41 82 ff ff       	callq  402ad0 <_ZNSsC1EPKcRKSaIcE@plt>
  40a88f:	48 8d 74 24 30       	lea    0x30(%rsp),%rsi
  40a894:	48 89 df             	mov    %rbx,%rdi
  40a897:	e8 64 81 ff ff       	callq  402a00 <_ZNSt11logic_errorC1ERKSs@plt>
  40a89c:	48 8b 44 24 30       	mov    0x30(%rsp),%rax
  40a8a1:	48 8d 74 24 40       	lea    0x40(%rsp),%rsi
  40a8a6:	48 8d 78 e8          	lea    -0x18(%rax),%rdi
  40a8aa:	e8 91 80 ff ff       	callq  402940 <_ZNSs4_Rep10_M_disposeERKSaIcE@plt>
  40a8af:	ba 10 2b 40 00       	mov    $0x402b10,%edx
  40a8b4:	be b0 27 61 00       	mov    $0x6127b0,%esi
  40a8b9:	48 89 df             	mov    %rbx,%rdi
  40a8bc:	e8 cf 83 ff ff       	callq  402c90 <__cxa_throw@plt>
  40a8c1:	e8 8a 82 ff ff       	callq  402b50 <__cxa_call_unexpected@plt>
  40a8c6:	48 89 c5             	mov    %rax,%rbp
  40a8c9:	48 8b 44 24 30       	mov    0x30(%rsp),%rax
  40a8ce:	48 8d 74 24 40       	lea    0x40(%rsp),%rsi
  40a8d3:	49 89 d4             	mov    %rdx,%r12
  40a8d6:	48 8d 78 e8          	lea    -0x18(%rax),%rdi
  40a8da:	e8 61 80 ff ff       	callq  402940 <_ZNSs4_Rep10_M_disposeERKSaIcE@plt>
  40a8df:	e9 52 ff ff ff       	jmpq   40a836 <_ZN10RelaxationIfLl100EEC1Effllff+0x396>
  40a8e4:	e9 60 ff ff ff       	jmpq   40a849 <_ZN10RelaxationIfLl100EEC1Effllff+0x3a9>
  40a8e9:	48 89 c5             	mov    %rax,%rbp
  40a8ec:	48 8b 44 24 40       	mov    0x40(%rsp),%rax
  40a8f1:	48 8d 74 24 30       	lea    0x30(%rsp),%rsi
  40a8f6:	49 89 d4             	mov    %rdx,%r12
  40a8f9:	48 8d 78 e8          	lea    -0x18(%rax),%rdi
  40a8fd:	e8 3e 80 ff ff       	callq  402940 <_ZNSs4_Rep10_M_disposeERKSaIcE@plt>
  40a902:	e9 2f ff ff ff       	jmpq   40a836 <_ZN10RelaxationIfLl100EEC1Effllff+0x396>
  40a907:	e9 3d ff ff ff       	jmpq   40a849 <_ZN10RelaxationIfLl100EEC1Effllff+0x3a9>
  40a90c:	90                   	nop
  40a90d:	90                   	nop
  40a90e:	90                   	nop
  40a90f:	90                   	nop

000000000040a910 <_Z9benchmarkIfLl100EEmi>:
  40a910:	41 57                	push   %r15
  40a912:	41 56                	push   %r14
  40a914:	41 55                	push   %r13
  40a916:	41 54                	push   %r12
  40a918:	55                   	push   %rbp
  40a919:	53                   	push   %rbx
  40a91a:	48 83 ec 48          	sub    $0x48,%rsp
  40a91e:	e8 9d 81 ff ff       	callq  402ac0 <omp_set_num_threads@plt>
  40a923:	e8 38 83 ff ff       	callq  402c60 <omp_get_max_threads@plt>
  40a928:	ba 12 00 00 00       	mov    $0x12,%edx
  40a92d:	89 c3                	mov    %eax,%ebx
  40a92f:	be 0c f5 40 00       	mov    $0x40f50c,%esi
  40a934:	bf e0 24 61 00       	mov    $0x6124e0,%edi
  40a939:	e8 a2 81 ff ff       	callq  402ae0 <_ZSt16__ostream_insertIcSt11char_traitsIcEERSt13basic_ostreamIT_T0_ES6_PKS3_l@plt>
  40a93e:	89 de                	mov    %ebx,%esi
  40a940:	bf e0 24 61 00       	mov    $0x6124e0,%edi
  40a945:	e8 56 83 ff ff       	callq  402ca0 <_ZNSolsEi@plt>
  40a94a:	ba 09 00 00 00       	mov    $0x9,%edx
  40a94f:	48 89 c5             	mov    %rax,%rbp
  40a952:	be 1f f5 40 00       	mov    $0x40f51f,%esi
  40a957:	48 89 c7             	mov    %rax,%rdi
  40a95a:	e8 81 81 ff ff       	callq  402ae0 <_ZSt16__ostream_insertIcSt11char_traitsIcEERSt13basic_ostreamIT_T0_ES6_PKS3_l@plt>
  40a95f:	48 8b 45 00          	mov    0x0(%rbp),%rax
  40a963:	48 8b 40 e8          	mov    -0x18(%rax),%rax
  40a967:	48 8b 9c 05 f0 00 00 	mov    0xf0(%rbp,%rax,1),%rbx
  40a96e:	00 
  40a96f:	48 85 db             	test   %rbx,%rbx
  40a972:	0f 84 b0 03 00 00    	je     40ad28 <_Z9benchmarkIfLl100EEmi+0x418>
  40a978:	80 7b 38 00          	cmpb   $0x0,0x38(%rbx)
  40a97c:	0f 84 ab 03 00 00    	je     40ad2d <_Z9benchmarkIfLl100EEmi+0x41d>
  40a982:	0f b6 43 43          	movzbl 0x43(%rbx),%eax
  40a986:	0f be f0             	movsbl %al,%esi
  40a989:	48 89 ef             	mov    %rbp,%rdi
  40a98c:	e8 4f 7e ff ff       	callq  4027e0 <_ZNSo3putEc@plt>
  40a991:	48 89 c7             	mov    %rax,%rdi
  40a994:	e8 d7 7f ff ff       	callq  402970 <_ZNSo5flushEv@plt>
  40a999:	8b 2d c1 7f 20 00    	mov    0x207fc1(%rip),%ebp        # 612960 <steps>
  40a99f:	ba 0f 00 00 00       	mov    $0xf,%edx
  40a9a4:	be 29 f5 40 00       	mov    $0x40f529,%esi
  40a9a9:	bf e0 24 61 00       	mov    $0x6124e0,%edi
  40a9ae:	e8 2d 81 ff ff       	callq  402ae0 <_ZSt16__ostream_insertIcSt11char_traitsIcEERSt13basic_ostreamIT_T0_ES6_PKS3_l@plt>
  40a9b3:	be 64 00 00 00       	mov    $0x64,%esi
  40a9b8:	bf e0 24 61 00       	mov    $0x6124e0,%edi
  40a9bd:	e8 7e 80 ff ff       	callq  402a40 <_ZNSo9_M_insertIlEERSoT_@plt>
  40a9c2:	ba 06 00 00 00       	mov    $0x6,%edx
  40a9c7:	48 89 c3             	mov    %rax,%rbx
  40a9ca:	be 18 f5 40 00       	mov    $0x40f518,%esi
  40a9cf:	48 89 c7             	mov    %rax,%rdi
  40a9d2:	e8 09 81 ff ff       	callq  402ae0 <_ZSt16__ostream_insertIcSt11char_traitsIcEERSt13basic_ostreamIT_T0_ES6_PKS3_l@plt>
  40a9d7:	89 ee                	mov    %ebp,%esi
  40a9d9:	48 89 df             	mov    %rbx,%rdi
  40a9dc:	e8 bf 82 ff ff       	callq  402ca0 <_ZNSolsEi@plt>
  40a9e1:	ba 0f 00 00 00       	mov    $0xf,%edx
  40a9e6:	48 89 c3             	mov    %rax,%rbx
  40a9e9:	be 39 f5 40 00       	mov    $0x40f539,%esi
  40a9ee:	48 89 c7             	mov    %rax,%rdi
  40a9f1:	e8 ea 80 ff ff       	callq  402ae0 <_ZSt16__ostream_insertIcSt11char_traitsIcEERSt13basic_ostreamIT_T0_ES6_PKS3_l@plt>
  40a9f6:	48 89 df             	mov    %rbx,%rdi
  40a9f9:	be 0a 00 00 00       	mov    $0xa,%esi
  40a9fe:	e8 9d 82 ff ff       	callq  402ca0 <_ZNSolsEi@plt>
  40aa03:	ba 06 00 00 00       	mov    $0x6,%edx
  40aa08:	48 89 c5             	mov    %rax,%rbp
  40aa0b:	be 49 f5 40 00       	mov    $0x40f549,%esi
  40aa10:	48 89 c7             	mov    %rax,%rdi
  40aa13:	e8 c8 80 ff ff       	callq  402ae0 <_ZSt16__ostream_insertIcSt11char_traitsIcEERSt13basic_ostreamIT_T0_ES6_PKS3_l@plt>
  40aa18:	48 8b 45 00          	mov    0x0(%rbp),%rax
  40aa1c:	48 8b 40 e8          	mov    -0x18(%rax),%rax
  40aa20:	48 8b 9c 05 f0 00 00 	mov    0xf0(%rbp,%rax,1),%rbx
  40aa27:	00 
  40aa28:	48 85 db             	test   %rbx,%rbx
  40aa2b:	0f 84 f7 02 00 00    	je     40ad28 <_Z9benchmarkIfLl100EEmi+0x418>
  40aa31:	80 7b 38 00          	cmpb   $0x0,0x38(%rbx)
  40aa35:	0f 84 d2 02 00 00    	je     40ad0d <_Z9benchmarkIfLl100EEmi+0x3fd>
  40aa3b:	0f b6 43 43          	movzbl 0x43(%rbx),%eax
  40aa3f:	48 89 ef             	mov    %rbp,%rdi
  40aa42:	0f be f0             	movsbl %al,%esi
  40aa45:	48 8d 6c 24 10       	lea    0x10(%rsp),%rbp
  40aa4a:	e8 91 7d ff ff       	callq  4027e0 <_ZNSo3putEc@plt>
  40aa4f:	41 bd 0a 00 00 00    	mov    $0xa,%r13d
  40aa55:	48 89 c7             	mov    %rax,%rdi
  40aa58:	45 31 e4             	xor    %r12d,%r12d
  40aa5b:	e8 10 7f ff ff       	callq  402970 <_ZNSo5flushEv@plt>
  40aa60:	0f 31                	rdtsc  
  40aa62:	f2 0f 10 1d de 7e 20 	movsd  0x207ede(%rip),%xmm3        # 612948 <heat>
  40aa69:	00 
  40aa6a:	49 89 d6             	mov    %rdx,%r14
  40aa6d:	89 c0                	mov    %eax,%eax
  40aa6f:	49 c1 e6 20          	shl    $0x20,%r14
  40aa73:	ba 32 00 00 00       	mov    $0x32,%edx
  40aa78:	be 32 00 00 00       	mov    $0x32,%esi
  40aa7d:	66 0f 5a db          	cvtpd2ps %xmm3,%xmm3
  40aa81:	f3 0f 2a 15 c7 7e 20 	cvtsi2ssl 0x207ec7(%rip),%xmm2        # 612950 <radius>
  40aa88:	00 
  40aa89:	48 89 ef             	mov    %rbp,%rdi
  40aa8c:	49 09 c6             	or     %rax,%r14
  40aa8f:	f3 0f 10 0d e5 50 00 	movss  0x50e5(%rip),%xmm1        # 40fb7c <_ZTVN6GetOpt13_DefValOptionIdNS_8_OptionTIdEEEE+0x3c>
  40aa96:	00 
  40aa97:	f3 0f 10 05 e1 50 00 	movss  0x50e1(%rip),%xmm0        # 40fb80 <_ZTVN6GetOpt13_DefValOptionIdNS_8_OptionTIdEEEE+0x40>
  40aa9e:	00 
  40aa9f:	e8 fc f9 ff ff       	callq  40a4a0 <_ZN10RelaxationIfLl100EEC1Effllff>
  40aaa4:	ba 12 00 00 00       	mov    $0x12,%edx
  40aaa9:	be 50 f5 40 00       	mov    $0x40f550,%esi
  40aaae:	bf e0 24 61 00       	mov    $0x6124e0,%edi
  40aab3:	e8 28 80 ff ff       	callq  402ae0 <_ZSt16__ostream_insertIcSt11char_traitsIcEERSt13basic_ostreamIT_T0_ES6_PKS3_l@plt>
  40aab8:	48 8b 05 21 7a 20 00 	mov    0x207a21(%rip),%rax        # 6124e0 <_ZSt4cout@@GLIBCXX_3.4>
  40aabf:	48 8b 40 e8          	mov    -0x18(%rax),%rax
  40aac3:	48 8b 98 d0 25 61 00 	mov    0x6125d0(%rax),%rbx
  40aaca:	48 85 db             	test   %rbx,%rbx
  40aacd:	0f 84 08 02 00 00    	je     40acdb <_Z9benchmarkIfLl100EEmi+0x3cb>
  40aad3:	80 7b 38 00          	cmpb   $0x0,0x38(%rbx)
  40aad7:	0f 84 de 01 00 00    	je     40acbb <_Z9benchmarkIfLl100EEmi+0x3ab>
  40aadd:	0f b6 43 43          	movzbl 0x43(%rbx),%eax
  40aae1:	0f be f0             	movsbl %al,%esi
  40aae4:	bf e0 24 61 00       	mov    $0x6124e0,%edi
  40aae9:	e8 f2 7c ff ff       	callq  4027e0 <_ZNSo3putEc@plt>
  40aaee:	48 89 c7             	mov    %rax,%rdi
  40aaf1:	e8 7a 7e ff ff       	callq  402970 <_ZNSo5flushEv@plt>
  40aaf6:	44 8b 1d 63 7e 20 00 	mov    0x207e63(%rip),%r11d        # 612960 <steps>
  40aafd:	bb 01 00 00 00       	mov    $0x1,%ebx
  40ab02:	48 8b 7c 24 38       	mov    0x38(%rsp),%rdi
  40ab07:	45 85 db             	test   %r11d,%r11d
  40ab0a:	0f 8e 06 01 00 00    	jle    40ac16 <_Z9benchmarkIfLl100EEmi+0x306>
  40ab10:	ba 09 00 00 00       	mov    $0x9,%edx
  40ab15:	be 63 f5 40 00       	mov    $0x40f563,%esi
  40ab1a:	bf e0 24 61 00       	mov    $0x6124e0,%edi
  40ab1f:	e8 bc 7f ff ff       	callq  402ae0 <_ZSt16__ostream_insertIcSt11char_traitsIcEERSt13basic_ostreamIT_T0_ES6_PKS3_l@plt>
  40ab24:	48 8b 05 b5 79 20 00 	mov    0x2079b5(%rip),%rax        # 6124e0 <_ZSt4cout@@GLIBCXX_3.4>
  40ab2b:	48 8b 40 e8          	mov    -0x18(%rax),%rax
  40ab2f:	4c 8b b8 d0 25 61 00 	mov    0x6125d0(%rax),%r15
  40ab36:	4d 85 ff             	test   %r15,%r15
  40ab39:	0f 84 97 01 00 00    	je     40acd6 <_Z9benchmarkIfLl100EEmi+0x3c6>
  40ab3f:	41 80 7f 38 00       	cmpb   $0x0,0x38(%r15)
  40ab44:	0f 84 56 01 00 00    	je     40aca0 <_Z9benchmarkIfLl100EEmi+0x390>
  40ab4a:	41 0f b6 47 43       	movzbl 0x43(%r15),%eax
  40ab4f:	0f be f0             	movsbl %al,%esi
  40ab52:	bf e0 24 61 00       	mov    $0x6124e0,%edi
  40ab57:	e8 84 7c ff ff       	callq  4027e0 <_ZNSo3putEc@plt>
  40ab5c:	48 89 c7             	mov    %rax,%rdi
  40ab5f:	e8 0c 7e ff ff       	callq  402970 <_ZNSo5flushEv@plt>
  40ab64:	bf 40 9c 00 00       	mov    $0x9c40,%edi
  40ab69:	e8 f2 7e ff ff       	callq  402a60 <_Znwm@plt>
  40ab6e:	48 8b 4c 24 38       	mov    0x38(%rsp),%rcx
  40ab73:	48 8d 50 10          	lea    0x10(%rax),%rdx
  40ab77:	48 8d b1 b0 9a 00 00 	lea    0x9ab0(%rcx),%rsi
  40ab7e:	48 39 f2             	cmp    %rsi,%rdx
  40ab81:	0f 87 e1 00 00 00    	ja     40ac68 <_Z9benchmarkIfLl100EEmi+0x358>
  40ab87:	31 d2                	xor    %edx,%edx
  40ab89:	0f 1f 80 00 00 00 00 	nopl   0x0(%rax)
  40ab90:	48 c7 84 11 b0 9a 00 	movq   $0x0,0x9ab0(%rcx,%rdx,1)
  40ab97:	00 00 00 00 00 
  40ab9c:	48 c7 84 11 b8 9a 00 	movq   $0x0,0x9ab8(%rcx,%rdx,1)
  40aba3:	00 00 00 00 00 
  40aba8:	48 c7 04 10 00 00 00 	movq   $0x0,(%rax,%rdx,1)
  40abaf:	00 
  40abb0:	48 c7 44 10 08 00 00 	movq   $0x0,0x8(%rax,%rdx,1)
  40abb7:	00 00 
  40abb9:	48 83 c2 10          	add    $0x10,%rdx
  40abbd:	48 81 fa 90 01 00 00 	cmp    $0x190,%rdx
  40abc4:	75 ca                	jne    40ab90 <_Z9benchmarkIfLl100EEmi+0x280>
  40abc6:	31 d2                	xor    %edx,%edx
  40abc8:	48 89 e6             	mov    %rsp,%rsi
  40abcb:	bf 20 88 40 00       	mov    $0x408820,%edi
  40abd0:	48 89 44 24 08       	mov    %rax,0x8(%rsp)
  40abd5:	48 89 2c 24          	mov    %rbp,(%rsp)
  40abd9:	e8 22 7d ff ff       	callq  402900 <GOMP_parallel_start@plt>
  40abde:	48 89 e7             	mov    %rsp,%rdi
  40abe1:	e8 3a dc ff ff       	callq  408820 <_ZN10RelaxationIfLl100EE7iterateEv._omp_fn.1>
  40abe6:	e8 05 7c ff ff       	callq  4027f0 <GOMP_parallel_end@plt>
  40abeb:	48 8b 7c 24 38       	mov    0x38(%rsp),%rdi
  40abf0:	4c 8b 7c 24 08       	mov    0x8(%rsp),%r15
  40abf5:	48 85 ff             	test   %rdi,%rdi
  40abf8:	74 05                	je     40abff <_Z9benchmarkIfLl100EEmi+0x2ef>
  40abfa:	e8 61 7f ff ff       	callq  402b60 <_ZdaPv@plt>
  40abff:	83 c3 01             	add    $0x1,%ebx
  40ac02:	39 1d 58 7d 20 00    	cmp    %ebx,0x207d58(%rip)        # 612960 <steps>
  40ac08:	4c 89 7c 24 38       	mov    %r15,0x38(%rsp)
  40ac0d:	0f 8d fd fe ff ff    	jge    40ab10 <_Z9benchmarkIfLl100EEmi+0x200>
  40ac13:	4c 89 ff             	mov    %r15,%rdi
  40ac16:	0f 31                	rdtsc  
  40ac18:	48 c1 e2 20          	shl    $0x20,%rdx
  40ac1c:	89 c0                	mov    %eax,%eax
  40ac1e:	48 09 c2             	or     %rax,%rdx
  40ac21:	4c 29 f2             	sub    %r14,%rdx
  40ac24:	49 01 d4             	add    %rdx,%r12
  40ac27:	48 85 ff             	test   %rdi,%rdi
  40ac2a:	74 05                	je     40ac31 <_Z9benchmarkIfLl100EEmi+0x321>
  40ac2c:	e8 2f 7f ff ff       	callq  402b60 <_ZdaPv@plt>
  40ac31:	41 83 ed 01          	sub    $0x1,%r13d
  40ac35:	0f 85 25 fe ff ff    	jne    40aa60 <_Z9benchmarkIfLl100EEmi+0x150>
  40ac3b:	48 83 c4 48          	add    $0x48,%rsp
  40ac3f:	4c 89 e0             	mov    %r12,%rax
  40ac42:	48 ba cd cc cc cc cc 	movabs $0xcccccccccccccccd,%rdx
  40ac49:	cc cc cc 
  40ac4c:	5b                   	pop    %rbx
  40ac4d:	48 f7 e2             	mul    %rdx
  40ac50:	5d                   	pop    %rbp
  40ac51:	41 5c                	pop    %r12
  40ac53:	41 5d                	pop    %r13
  40ac55:	48 c1 ea 03          	shr    $0x3,%rdx
  40ac59:	41 5e                	pop    %r14
  40ac5b:	48 89 d0             	mov    %rdx,%rax
  40ac5e:	41 5f                	pop    %r15
  40ac60:	c3                   	retq   
  40ac61:	0f 1f 80 00 00 00 00 	nopl   0x0(%rax)
  40ac68:	48 8d 91 c0 9a 00 00 	lea    0x9ac0(%rcx),%rdx
  40ac6f:	48 39 d0             	cmp    %rdx,%rax
  40ac72:	0f 83 0f ff ff ff    	jae    40ab87 <_Z9benchmarkIfLl100EEmi+0x277>
  40ac78:	31 d2                	xor    %edx,%edx
  40ac7a:	66 0f 1f 44 00 00    	nopw   0x0(%rax,%rax,1)
  40ac80:	c7 04 96 00 00 00 00 	movl   $0x0,(%rsi,%rdx,4)
  40ac87:	c7 04 90 00 00 00 00 	movl   $0x0,(%rax,%rdx,4)
  40ac8e:	48 83 c2 01          	add    $0x1,%rdx
  40ac92:	48 83 fa 64          	cmp    $0x64,%rdx
  40ac96:	75 e8                	jne    40ac80 <_Z9benchmarkIfLl100EEmi+0x370>
  40ac98:	e9 29 ff ff ff       	jmpq   40abc6 <_Z9benchmarkIfLl100EEmi+0x2b6>
  40ac9d:	0f 1f 00             	nopl   (%rax)
  40aca0:	4c 89 ff             	mov    %r15,%rdi
  40aca3:	e8 48 7e ff ff       	callq  402af0 <_ZNKSt5ctypeIcE13_M_widen_initEv@plt>
  40aca8:	49 8b 07             	mov    (%r15),%rax
  40acab:	be 0a 00 00 00       	mov    $0xa,%esi
  40acb0:	4c 89 ff             	mov    %r15,%rdi
  40acb3:	ff 50 30             	callq  *0x30(%rax)
  40acb6:	e9 94 fe ff ff       	jmpq   40ab4f <_Z9benchmarkIfLl100EEmi+0x23f>
  40acbb:	48 89 df             	mov    %rbx,%rdi
  40acbe:	e8 2d 7e ff ff       	callq  402af0 <_ZNKSt5ctypeIcE13_M_widen_initEv@plt>
  40acc3:	48 8b 03             	mov    (%rbx),%rax
  40acc6:	be 0a 00 00 00       	mov    $0xa,%esi
  40accb:	48 89 df             	mov    %rbx,%rdi
  40acce:	ff 50 30             	callq  *0x30(%rax)
  40acd1:	e9 0b fe ff ff       	jmpq   40aae1 <_Z9benchmarkIfLl100EEmi+0x1d1>
  40acd6:	e8 65 7e ff ff       	callq  402b40 <_ZSt16__throw_bad_castv@plt>
  40acdb:	0f 1f 44 00 00       	nopl   0x0(%rax,%rax,1)
  40ace0:	e8 5b 7e ff ff       	callq  402b40 <_ZSt16__throw_bad_castv@plt>
  40ace5:	48 8b 7c 24 38       	mov    0x38(%rsp),%rdi
  40acea:	48 89 c3             	mov    %rax,%rbx
  40aced:	48 85 ff             	test   %rdi,%rdi
  40acf0:	74 05                	je     40acf7 <_Z9benchmarkIfLl100EEmi+0x3e7>
  40acf2:	e8 69 7e ff ff       	callq  402b60 <_ZdaPv@plt>
  40acf7:	48 89 df             	mov    %rbx,%rdi
  40acfa:	e8 b1 7f ff ff       	callq  402cb0 <_Unwind_Resume@plt>
  40acff:	48 83 fa ff          	cmp    $0xffffffffffffffff,%rdx
  40ad03:	48 89 c7             	mov    %rax,%rdi
  40ad06:	75 f2                	jne    40acfa <_Z9benchmarkIfLl100EEmi+0x3ea>
  40ad08:	e8 43 7e ff ff       	callq  402b50 <__cxa_call_unexpected@plt>
  40ad0d:	48 89 df             	mov    %rbx,%rdi
  40ad10:	e8 db 7d ff ff       	callq  402af0 <_ZNKSt5ctypeIcE13_M_widen_initEv@plt>
  40ad15:	48 8b 03             	mov    (%rbx),%rax
  40ad18:	be 0a 00 00 00       	mov    $0xa,%esi
  40ad1d:	48 89 df             	mov    %rbx,%rdi
  40ad20:	ff 50 30             	callq  *0x30(%rax)
  40ad23:	e9 17 fd ff ff       	jmpq   40aa3f <_Z9benchmarkIfLl100EEmi+0x12f>
  40ad28:	e8 13 7e ff ff       	callq  402b40 <_ZSt16__throw_bad_castv@plt>
  40ad2d:	48 89 df             	mov    %rbx,%rdi
  40ad30:	e8 bb 7d ff ff       	callq  402af0 <_ZNKSt5ctypeIcE13_M_widen_initEv@plt>
  40ad35:	48 8b 03             	mov    (%rbx),%rax
  40ad38:	be 0a 00 00 00       	mov    $0xa,%esi
  40ad3d:	48 89 df             	mov    %rbx,%rdi
  40ad40:	ff 50 30             	callq  *0x30(%rax)
  40ad43:	e9 3e fc ff ff       	jmpq   40a986 <_Z9benchmarkIfLl100EEmi+0x76>
  40ad48:	90                   	nop
  40ad49:	90                   	nop
  40ad4a:	90                   	nop
  40ad4b:	90                   	nop
  40ad4c:	90                   	nop
  40ad4d:	90                   	nop
  40ad4e:	90                   	nop
  40ad4f:	90                   	nop

000000000040ad50 <_ZN10RelaxationIfLl500EEC1Effllff>:
  40ad50:	f3 48 0f 2c c2       	cvttss2si %xmm2,%rax
  40ad55:	41 54                	push   %r12
  40ad57:	49 89 f4             	mov    %rsi,%r12
  40ad5a:	55                   	push   %rbp
  40ad5b:	48 89 d5             	mov    %rdx,%rbp
  40ad5e:	53                   	push   %rbx
  40ad5f:	48 89 fb             	mov    %rdi,%rbx
  40ad62:	48 83 ec 50          	sub    $0x50,%rsp
  40ad66:	f3 0f 11 03          	movss  %xmm0,(%rbx)
  40ad6a:	f3 0f 11 4f 04       	movss  %xmm1,0x4(%rdi)
  40ad6f:	48 89 73 08          	mov    %rsi,0x8(%rbx)
  40ad73:	48 89 53 10          	mov    %rdx,0x10(%rbx)
  40ad77:	f3 0f 11 44 24 0c    	movss  %xmm0,0xc(%rsp)
  40ad7d:	f3 0f 11 54 24 04    	movss  %xmm2,0x4(%rsp)
  40ad83:	f3 0f 11 5c 24 08    	movss  %xmm3,0x8(%rsp)
  40ad89:	48 89 47 18          	mov    %rax,0x18(%rdi)
  40ad8d:	f3 48 0f 2c c3       	cvttss2si %xmm3,%rax
  40ad92:	48 89 47 20          	mov    %rax,0x20(%rdi)
  40ad96:	bf 40 42 0f 00       	mov    $0xf4240,%edi
  40ad9b:	e8 c0 7c ff ff       	callq  402a60 <_Znwm@plt>
  40ada0:	f3 0f 10 05 cc 4d 00 	movss  0x4dcc(%rip),%xmm0        # 40fb74 <_ZTVN6GetOpt13_DefValOptionIdNS_8_OptionTIdEEEE+0x34>
  40ada7:	00 
  40ada8:	49 89 c0             	mov    %rax,%r8
  40adab:	0f 2e 44 24 04       	ucomiss 0x4(%rsp),%xmm0
  40adb0:	48 89 43 28          	mov    %rax,0x28(%rbx)
  40adb4:	0f 87 c0 02 00 00    	ja     40b07a <_ZN10RelaxationIfLl500EEC1Effllff+0x32a>
  40adba:	49 8d 44 24 ff       	lea    -0x1(%r12),%rax
  40adbf:	48 3d f1 01 00 00    	cmp    $0x1f1,%rax
  40adc5:	0f 87 5c 02 00 00    	ja     40b027 <_ZN10RelaxationIfLl500EEC1Effllff+0x2d7>
  40adcb:	48 8d 45 ff          	lea    -0x1(%rbp),%rax
  40adcf:	48 3d f1 01 00 00    	cmp    $0x1f1,%rax
  40add5:	0f 87 4c 02 00 00    	ja     40b027 <_ZN10RelaxationIfLl500EEC1Effllff+0x2d7>
  40addb:	f3 49 0f 2a c4       	cvtsi2ss %r12,%xmm0
  40ade0:	f3 0f 10 64 24 04    	movss  0x4(%rsp),%xmm4
  40ade6:	0f 57 c9             	xorps  %xmm1,%xmm1
  40ade9:	0f 28 d0             	movaps %xmm0,%xmm2
  40adec:	f3 0f 5c d4          	subss  %xmm4,%xmm2
  40adf0:	0f 2e ca             	ucomiss %xmm2,%xmm1
  40adf3:	0f 87 25 03 00 00    	ja     40b11e <_ZN10RelaxationIfLl500EEC1Effllff+0x3ce>
  40adf9:	f3 0f 58 c4          	addss  %xmm4,%xmm0
  40adfd:	0f 2e 05 80 4d 00 00 	ucomiss 0x4d80(%rip),%xmm0        # 40fb84 <_ZTVN6GetOpt13_DefValOptionIdNS_8_OptionTIdEEEE+0x44>
  40ae04:	0f 87 14 03 00 00    	ja     40b11e <_ZN10RelaxationIfLl500EEC1Effllff+0x3ce>
  40ae0a:	f3 48 0f 2a c5       	cvtsi2ss %rbp,%xmm0
  40ae0f:	0f 28 d0             	movaps %xmm0,%xmm2
  40ae12:	f3 0f 5c d4          	subss  %xmm4,%xmm2
  40ae16:	0f 2e ca             	ucomiss %xmm2,%xmm1
  40ae19:	0f 87 ff 02 00 00    	ja     40b11e <_ZN10RelaxationIfLl500EEC1Effllff+0x3ce>
  40ae1f:	f3 0f 58 c4          	addss  %xmm4,%xmm0
  40ae23:	0f 2e 05 5a 4d 00 00 	ucomiss 0x4d5a(%rip),%xmm0        # 40fb84 <_ZTVN6GetOpt13_DefValOptionIdNS_8_OptionTIdEEEE+0x44>
  40ae2a:	0f 87 ee 02 00 00    	ja     40b11e <_ZN10RelaxationIfLl500EEC1Effllff+0x3ce>
  40ae30:	f3 0f 10 74 24 08    	movss  0x8(%rsp),%xmm6
  40ae36:	0f 2e 74 24 0c       	ucomiss 0xc(%rsp),%xmm6
  40ae3b:	0f 87 93 01 00 00    	ja     40afd4 <_ZN10RelaxationIfLl500EEC1Effllff+0x284>
  40ae41:	49 8d b8 70 3a 0f 00 	lea    0xf3a70(%r8),%rdi
  40ae48:	be d0 07 00 00       	mov    $0x7d0,%esi
  40ae4d:	40 f6 c7 01          	test   $0x1,%dil
  40ae51:	0f 85 d1 00 00 00    	jne    40af28 <_ZN10RelaxationIfLl500EEC1Effllff+0x1d8>
  40ae57:	40 f6 c7 02          	test   $0x2,%dil
  40ae5b:	0f 85 e7 00 00 00    	jne    40af48 <_ZN10RelaxationIfLl500EEC1Effllff+0x1f8>
  40ae61:	40 f6 c7 04          	test   $0x4,%dil
  40ae65:	0f 85 f5 00 00 00    	jne    40af60 <_ZN10RelaxationIfLl500EEC1Effllff+0x210>
  40ae6b:	89 f1                	mov    %esi,%ecx
  40ae6d:	31 c0                	xor    %eax,%eax
  40ae6f:	c1 e9 03             	shr    $0x3,%ecx
  40ae72:	40 f6 c6 04          	test   $0x4,%sil
  40ae76:	f3 48 ab             	rep stos %rax,%es:(%rdi)
  40ae79:	74 0a                	je     40ae85 <_ZN10RelaxationIfLl500EEC1Effllff+0x135>
  40ae7b:	c7 07 00 00 00 00    	movl   $0x0,(%rdi)
  40ae81:	48 83 c7 04          	add    $0x4,%rdi
  40ae85:	40 f6 c6 02          	test   $0x2,%sil
  40ae89:	74 0a                	je     40ae95 <_ZN10RelaxationIfLl500EEC1Effllff+0x145>
  40ae8b:	31 c0                	xor    %eax,%eax
  40ae8d:	48 83 c7 02          	add    $0x2,%rdi
  40ae91:	66 89 47 fe          	mov    %ax,-0x2(%rdi)
  40ae95:	83 e6 01             	and    $0x1,%esi
  40ae98:	74 03                	je     40ae9d <_ZN10RelaxationIfLl500EEC1Effllff+0x14d>
  40ae9a:	c6 07 00             	movb   $0x0,(%rdi)
  40ae9d:	41 f6 c0 01          	test   $0x1,%r8b
  40aea1:	4c 89 c7             	mov    %r8,%rdi
  40aea4:	ba d0 07 00 00       	mov    $0x7d0,%edx
  40aea9:	0f 85 c9 00 00 00    	jne    40af78 <_ZN10RelaxationIfLl500EEC1Effllff+0x228>
  40aeaf:	40 f6 c7 02          	test   $0x2,%dil
  40aeb3:	0f 85 d7 00 00 00    	jne    40af90 <_ZN10RelaxationIfLl500EEC1Effllff+0x240>
  40aeb9:	40 f6 c7 04          	test   $0x4,%dil
  40aebd:	0f 85 ed 00 00 00    	jne    40afb0 <_ZN10RelaxationIfLl500EEC1Effllff+0x260>
  40aec3:	89 d1                	mov    %edx,%ecx
  40aec5:	31 c0                	xor    %eax,%eax
  40aec7:	c1 e9 03             	shr    $0x3,%ecx
  40aeca:	f6 c2 04             	test   $0x4,%dl
  40aecd:	f3 48 ab             	rep stos %rax,%es:(%rdi)
  40aed0:	74 0a                	je     40aedc <_ZN10RelaxationIfLl500EEC1Effllff+0x18c>
  40aed2:	c7 07 00 00 00 00    	movl   $0x0,(%rdi)
  40aed8:	48 83 c7 04          	add    $0x4,%rdi
  40aedc:	f6 c2 02             	test   $0x2,%dl
  40aedf:	74 0a                	je     40aeeb <_ZN10RelaxationIfLl500EEC1Effllff+0x19b>
  40aee1:	31 ed                	xor    %ebp,%ebp
  40aee3:	48 83 c7 02          	add    $0x2,%rdi
  40aee7:	66 89 6f fe          	mov    %bp,-0x2(%rdi)
  40aeeb:	83 e2 01             	and    $0x1,%edx
  40aeee:	74 03                	je     40aef3 <_ZN10RelaxationIfLl500EEC1Effllff+0x1a3>
  40aef0:	c6 07 00             	movb   $0x0,(%rdi)
  40aef3:	48 8d 74 24 40       	lea    0x40(%rsp),%rsi
  40aef8:	31 d2                	xor    %edx,%edx
  40aefa:	bf 80 8f 40 00       	mov    $0x408f80,%edi
  40aeff:	48 89 5c 24 40       	mov    %rbx,0x40(%rsp)
  40af04:	e8 f7 79 ff ff       	callq  402900 <GOMP_parallel_start@plt>
  40af09:	48 8d 7c 24 40       	lea    0x40(%rsp),%rdi
  40af0e:	e8 6d e0 ff ff       	callq  408f80 <_ZN10RelaxationIfLl500EEC2Effllff._omp_fn.2>
  40af13:	e8 d8 78 ff ff       	callq  4027f0 <GOMP_parallel_end@plt>
  40af18:	48 83 c4 50          	add    $0x50,%rsp
  40af1c:	5b                   	pop    %rbx
  40af1d:	5d                   	pop    %rbp
  40af1e:	41 5c                	pop    %r12
  40af20:	c3                   	retq   
  40af21:	0f 1f 80 00 00 00 00 	nopl   0x0(%rax)
  40af28:	49 8d b8 71 3a 0f 00 	lea    0xf3a71(%r8),%rdi
  40af2f:	41 c6 80 70 3a 0f 00 	movb   $0x0,0xf3a70(%r8)
  40af36:	00 
  40af37:	40 b6 cf             	mov    $0xcf,%sil
  40af3a:	40 f6 c7 02          	test   $0x2,%dil
  40af3e:	0f 84 1d ff ff ff    	je     40ae61 <_ZN10RelaxationIfLl500EEC1Effllff+0x111>
  40af44:	0f 1f 40 00          	nopl   0x0(%rax)
  40af48:	31 c0                	xor    %eax,%eax
  40af4a:	48 83 c7 02          	add    $0x2,%rdi
  40af4e:	83 ee 02             	sub    $0x2,%esi
  40af51:	66 89 47 fe          	mov    %ax,-0x2(%rdi)
  40af55:	40 f6 c7 04          	test   $0x4,%dil
  40af59:	0f 84 0c ff ff ff    	je     40ae6b <_ZN10RelaxationIfLl500EEC1Effllff+0x11b>
  40af5f:	90                   	nop
  40af60:	c7 07 00 00 00 00    	movl   $0x0,(%rdi)
  40af66:	83 ee 04             	sub    $0x4,%esi
  40af69:	48 83 c7 04          	add    $0x4,%rdi
  40af6d:	e9 f9 fe ff ff       	jmpq   40ae6b <_ZN10RelaxationIfLl500EEC1Effllff+0x11b>
  40af72:	66 0f 1f 44 00 00    	nopw   0x0(%rax,%rax,1)
  40af78:	48 83 c7 01          	add    $0x1,%rdi
  40af7c:	41 c6 00 00          	movb   $0x0,(%r8)
  40af80:	b2 cf                	mov    $0xcf,%dl
  40af82:	40 f6 c7 02          	test   $0x2,%dil
  40af86:	0f 84 2d ff ff ff    	je     40aeb9 <_ZN10RelaxationIfLl500EEC1Effllff+0x169>
  40af8c:	0f 1f 40 00          	nopl   0x0(%rax)
  40af90:	45 31 e4             	xor    %r12d,%r12d
  40af93:	48 83 c7 02          	add    $0x2,%rdi
  40af97:	83 ea 02             	sub    $0x2,%edx
  40af9a:	66 44 89 67 fe       	mov    %r12w,-0x2(%rdi)
  40af9f:	40 f6 c7 04          	test   $0x4,%dil
  40afa3:	0f 84 1a ff ff ff    	je     40aec3 <_ZN10RelaxationIfLl500EEC1Effllff+0x173>
  40afa9:	0f 1f 80 00 00 00 00 	nopl   0x0(%rax)
  40afb0:	c7 07 00 00 00 00    	movl   $0x0,(%rdi)
  40afb6:	83 ea 04             	sub    $0x4,%edx
  40afb9:	48 83 c7 04          	add    $0x4,%rdi
  40afbd:	e9 01 ff ff ff       	jmpq   40aec3 <_ZN10RelaxationIfLl500EEC1Effllff+0x173>
  40afc2:	48 89 c7             	mov    %rax,%rdi
  40afc5:	48 83 fa ff          	cmp    $0xffffffffffffffff,%rdx
  40afc9:	0f 84 a2 01 00 00    	je     40b171 <_ZN10RelaxationIfLl500EEC1Effllff+0x421>
  40afcf:	e8 dc 7c ff ff       	callq  402cb0 <_Unwind_Resume@plt>
  40afd4:	bf 10 00 00 00       	mov    $0x10,%edi
  40afd9:	e8 f2 78 ff ff       	callq  4028d0 <__cxa_allocate_exception@plt>
  40afde:	48 8d 54 24 20       	lea    0x20(%rsp),%rdx
  40afe3:	48 8d 7c 24 40       	lea    0x40(%rsp),%rdi
  40afe8:	be f8 f6 40 00       	mov    $0x40f6f8,%esi
  40afed:	48 89 c3             	mov    %rax,%rbx
  40aff0:	e8 db 7a ff ff       	callq  402ad0 <_ZNSsC1EPKcRKSaIcE@plt>
  40aff5:	48 8d 74 24 40       	lea    0x40(%rsp),%rsi
  40affa:	48 89 df             	mov    %rbx,%rdi
  40affd:	e8 fe 79 ff ff       	callq  402a00 <_ZNSt11logic_errorC1ERKSs@plt>
  40b002:	48 8b 44 24 40       	mov    0x40(%rsp),%rax
  40b007:	48 8d 74 24 30       	lea    0x30(%rsp),%rsi
  40b00c:	48 8d 78 e8          	lea    -0x18(%rax),%rdi
  40b010:	e8 2b 79 ff ff       	callq  402940 <_ZNSs4_Rep10_M_disposeERKSaIcE@plt>
  40b015:	ba 10 2b 40 00       	mov    $0x402b10,%edx
  40b01a:	be b0 27 61 00       	mov    $0x6127b0,%esi
  40b01f:	48 89 df             	mov    %rbx,%rdi
  40b022:	e8 69 7c ff ff       	callq  402c90 <__cxa_throw@plt>
  40b027:	bf 10 00 00 00       	mov    $0x10,%edi
  40b02c:	e8 9f 78 ff ff       	callq  4028d0 <__cxa_allocate_exception@plt>
  40b031:	48 8d 54 24 30       	lea    0x30(%rsp),%rdx
  40b036:	48 8d 7c 24 20       	lea    0x20(%rsp),%rdi
  40b03b:	be 30 f6 40 00       	mov    $0x40f630,%esi
  40b040:	48 89 c3             	mov    %rax,%rbx
  40b043:	e8 88 7a ff ff       	callq  402ad0 <_ZNSsC1EPKcRKSaIcE@plt>
  40b048:	48 8d 74 24 20       	lea    0x20(%rsp),%rsi
  40b04d:	48 89 df             	mov    %rbx,%rdi
  40b050:	e8 ab 79 ff ff       	callq  402a00 <_ZNSt11logic_errorC1ERKSs@plt>
  40b055:	48 8b 44 24 20       	mov    0x20(%rsp),%rax
  40b05a:	48 8d 74 24 40       	lea    0x40(%rsp),%rsi
  40b05f:	48 8d 78 e8          	lea    -0x18(%rax),%rdi
  40b063:	e8 d8 78 ff ff       	callq  402940 <_ZNSs4_Rep10_M_disposeERKSaIcE@plt>
  40b068:	ba 10 2b 40 00       	mov    $0x402b10,%edx
  40b06d:	be b0 27 61 00       	mov    $0x6127b0,%esi
  40b072:	48 89 df             	mov    %rbx,%rdi
  40b075:	e8 16 7c ff ff       	callq  402c90 <__cxa_throw@plt>
  40b07a:	bf 10 00 00 00       	mov    $0x10,%edi
  40b07f:	e8 4c 78 ff ff       	callq  4028d0 <__cxa_allocate_exception@plt>
  40b084:	48 8d 54 24 30       	lea    0x30(%rsp),%rdx
  40b089:	48 8d 7c 24 10       	lea    0x10(%rsp),%rdi
  40b08e:	be 08 f6 40 00       	mov    $0x40f608,%esi
  40b093:	48 89 c3             	mov    %rax,%rbx
  40b096:	e8 35 7a ff ff       	callq  402ad0 <_ZNSsC1EPKcRKSaIcE@plt>
  40b09b:	48 8d 74 24 10       	lea    0x10(%rsp),%rsi
  40b0a0:	48 89 df             	mov    %rbx,%rdi
  40b0a3:	e8 58 79 ff ff       	callq  402a00 <_ZNSt11logic_errorC1ERKSs@plt>
  40b0a8:	48 8b 44 24 10       	mov    0x10(%rsp),%rax
  40b0ad:	48 8d 74 24 40       	lea    0x40(%rsp),%rsi
  40b0b2:	48 8d 78 e8          	lea    -0x18(%rax),%rdi
  40b0b6:	e8 85 78 ff ff       	callq  402940 <_ZNSs4_Rep10_M_disposeERKSaIcE@plt>
  40b0bb:	ba 10 2b 40 00       	mov    $0x402b10,%edx
  40b0c0:	be b0 27 61 00       	mov    $0x6127b0,%esi
  40b0c5:	48 89 df             	mov    %rbx,%rdi
  40b0c8:	e8 c3 7b ff ff       	callq  402c90 <__cxa_throw@plt>
  40b0cd:	48 89 c5             	mov    %rax,%rbp
  40b0d0:	48 8b 44 24 20       	mov    0x20(%rsp),%rax
  40b0d5:	48 8d 74 24 40       	lea    0x40(%rsp),%rsi
  40b0da:	49 89 d4             	mov    %rdx,%r12
  40b0dd:	48 8d 78 e8          	lea    -0x18(%rax),%rdi
  40b0e1:	e8 5a 78 ff ff       	callq  402940 <_ZNSs4_Rep10_M_disposeERKSaIcE@plt>
  40b0e6:	48 89 df             	mov    %rbx,%rdi
  40b0e9:	e8 a2 78 ff ff       	callq  402990 <__cxa_free_exception@plt>
  40b0ee:	48 89 ef             	mov    %rbp,%rdi
  40b0f1:	4c 89 e2             	mov    %r12,%rdx
  40b0f4:	e9 cc fe ff ff       	jmpq   40afc5 <_ZN10RelaxationIfLl500EEC1Effllff+0x275>
  40b0f9:	48 89 c5             	mov    %rax,%rbp
  40b0fc:	49 89 d4             	mov    %rdx,%r12
  40b0ff:	eb e5                	jmp    40b0e6 <_ZN10RelaxationIfLl500EEC1Effllff+0x396>
  40b101:	48 89 c5             	mov    %rax,%rbp
  40b104:	48 8b 44 24 10       	mov    0x10(%rsp),%rax
  40b109:	48 8d 74 24 40       	lea    0x40(%rsp),%rsi
  40b10e:	49 89 d4             	mov    %rdx,%r12
  40b111:	48 8d 78 e8          	lea    -0x18(%rax),%rdi
  40b115:	e8 26 78 ff ff       	callq  402940 <_ZNSs4_Rep10_M_disposeERKSaIcE@plt>
  40b11a:	eb ca                	jmp    40b0e6 <_ZN10RelaxationIfLl500EEC1Effllff+0x396>
  40b11c:	eb db                	jmp    40b0f9 <_ZN10RelaxationIfLl500EEC1Effllff+0x3a9>
  40b11e:	bf 10 00 00 00       	mov    $0x10,%edi
  40b123:	e8 a8 77 ff ff       	callq  4028d0 <__cxa_allocate_exception@plt>
  40b128:	48 8d 54 24 20       	lea    0x20(%rsp),%rdx
  40b12d:	48 8d 7c 24 30       	lea    0x30(%rsp),%rdi
  40b132:	be 90 f6 40 00       	mov    $0x40f690,%esi
  40b137:	48 89 c3             	mov    %rax,%rbx
  40b13a:	e8 91 79 ff ff       	callq  402ad0 <_ZNSsC1EPKcRKSaIcE@plt>
  40b13f:	48 8d 74 24 30       	lea    0x30(%rsp),%rsi
  40b144:	48 89 df             	mov    %rbx,%rdi
  40b147:	e8 b4 78 ff ff       	callq  402a00 <_ZNSt11logic_errorC1ERKSs@plt>
  40b14c:	48 8b 44 24 30       	mov    0x30(%rsp),%rax
  40b151:	48 8d 74 24 40       	lea    0x40(%rsp),%rsi
  40b156:	48 8d 78 e8          	lea    -0x18(%rax),%rdi
  40b15a:	e8 e1 77 ff ff       	callq  402940 <_ZNSs4_Rep10_M_disposeERKSaIcE@plt>
  40b15f:	ba 10 2b 40 00       	mov    $0x402b10,%edx
  40b164:	be b0 27 61 00       	mov    $0x6127b0,%esi
  40b169:	48 89 df             	mov    %rbx,%rdi
  40b16c:	e8 1f 7b ff ff       	callq  402c90 <__cxa_throw@plt>
  40b171:	e8 da 79 ff ff       	callq  402b50 <__cxa_call_unexpected@plt>
  40b176:	48 89 c5             	mov    %rax,%rbp
  40b179:	48 8b 44 24 30       	mov    0x30(%rsp),%rax
  40b17e:	48 8d 74 24 40       	lea    0x40(%rsp),%rsi
  40b183:	49 89 d4             	mov    %rdx,%r12
  40b186:	48 8d 78 e8          	lea    -0x18(%rax),%rdi
  40b18a:	e8 b1 77 ff ff       	callq  402940 <_ZNSs4_Rep10_M_disposeERKSaIcE@plt>
  40b18f:	e9 52 ff ff ff       	jmpq   40b0e6 <_ZN10RelaxationIfLl500EEC1Effllff+0x396>
  40b194:	e9 60 ff ff ff       	jmpq   40b0f9 <_ZN10RelaxationIfLl500EEC1Effllff+0x3a9>
  40b199:	48 89 c5             	mov    %rax,%rbp
  40b19c:	48 8b 44 24 40       	mov    0x40(%rsp),%rax
  40b1a1:	48 8d 74 24 30       	lea    0x30(%rsp),%rsi
  40b1a6:	49 89 d4             	mov    %rdx,%r12
  40b1a9:	48 8d 78 e8          	lea    -0x18(%rax),%rdi
  40b1ad:	e8 8e 77 ff ff       	callq  402940 <_ZNSs4_Rep10_M_disposeERKSaIcE@plt>
  40b1b2:	e9 2f ff ff ff       	jmpq   40b0e6 <_ZN10RelaxationIfLl500EEC1Effllff+0x396>
  40b1b7:	e9 3d ff ff ff       	jmpq   40b0f9 <_ZN10RelaxationIfLl500EEC1Effllff+0x3a9>
  40b1bc:	90                   	nop
  40b1bd:	90                   	nop
  40b1be:	90                   	nop
  40b1bf:	90                   	nop

000000000040b1c0 <_Z9benchmarkIfLl500EEmi>:
  40b1c0:	41 57                	push   %r15
  40b1c2:	41 56                	push   %r14
  40b1c4:	41 55                	push   %r13
  40b1c6:	41 54                	push   %r12
  40b1c8:	55                   	push   %rbp
  40b1c9:	53                   	push   %rbx
  40b1ca:	48 83 ec 48          	sub    $0x48,%rsp
  40b1ce:	e8 ed 78 ff ff       	callq  402ac0 <omp_set_num_threads@plt>
  40b1d3:	e8 88 7a ff ff       	callq  402c60 <omp_get_max_threads@plt>
  40b1d8:	ba 12 00 00 00       	mov    $0x12,%edx
  40b1dd:	89 c3                	mov    %eax,%ebx
  40b1df:	be 0c f5 40 00       	mov    $0x40f50c,%esi
  40b1e4:	bf e0 24 61 00       	mov    $0x6124e0,%edi
  40b1e9:	e8 f2 78 ff ff       	callq  402ae0 <_ZSt16__ostream_insertIcSt11char_traitsIcEERSt13basic_ostreamIT_T0_ES6_PKS3_l@plt>
  40b1ee:	89 de                	mov    %ebx,%esi
  40b1f0:	bf e0 24 61 00       	mov    $0x6124e0,%edi
  40b1f5:	e8 a6 7a ff ff       	callq  402ca0 <_ZNSolsEi@plt>
  40b1fa:	ba 09 00 00 00       	mov    $0x9,%edx
  40b1ff:	48 89 c5             	mov    %rax,%rbp
  40b202:	be 1f f5 40 00       	mov    $0x40f51f,%esi
  40b207:	48 89 c7             	mov    %rax,%rdi
  40b20a:	e8 d1 78 ff ff       	callq  402ae0 <_ZSt16__ostream_insertIcSt11char_traitsIcEERSt13basic_ostreamIT_T0_ES6_PKS3_l@plt>
  40b20f:	48 8b 45 00          	mov    0x0(%rbp),%rax
  40b213:	48 8b 40 e8          	mov    -0x18(%rax),%rax
  40b217:	48 8b 9c 05 f0 00 00 	mov    0xf0(%rbp,%rax,1),%rbx
  40b21e:	00 
  40b21f:	48 85 db             	test   %rbx,%rbx
  40b222:	0f 84 b0 03 00 00    	je     40b5d8 <_Z9benchmarkIfLl500EEmi+0x418>
  40b228:	80 7b 38 00          	cmpb   $0x0,0x38(%rbx)
  40b22c:	0f 84 ab 03 00 00    	je     40b5dd <_Z9benchmarkIfLl500EEmi+0x41d>
  40b232:	0f b6 43 43          	movzbl 0x43(%rbx),%eax
  40b236:	0f be f0             	movsbl %al,%esi
  40b239:	48 89 ef             	mov    %rbp,%rdi
  40b23c:	e8 9f 75 ff ff       	callq  4027e0 <_ZNSo3putEc@plt>
  40b241:	48 89 c7             	mov    %rax,%rdi
  40b244:	e8 27 77 ff ff       	callq  402970 <_ZNSo5flushEv@plt>
  40b249:	8b 2d 11 77 20 00    	mov    0x207711(%rip),%ebp        # 612960 <steps>
  40b24f:	ba 0f 00 00 00       	mov    $0xf,%edx
  40b254:	be 29 f5 40 00       	mov    $0x40f529,%esi
  40b259:	bf e0 24 61 00       	mov    $0x6124e0,%edi
  40b25e:	e8 7d 78 ff ff       	callq  402ae0 <_ZSt16__ostream_insertIcSt11char_traitsIcEERSt13basic_ostreamIT_T0_ES6_PKS3_l@plt>
  40b263:	be f4 01 00 00       	mov    $0x1f4,%esi
  40b268:	bf e0 24 61 00       	mov    $0x6124e0,%edi
  40b26d:	e8 ce 77 ff ff       	callq  402a40 <_ZNSo9_M_insertIlEERSoT_@plt>
  40b272:	ba 06 00 00 00       	mov    $0x6,%edx
  40b277:	48 89 c3             	mov    %rax,%rbx
  40b27a:	be 18 f5 40 00       	mov    $0x40f518,%esi
  40b27f:	48 89 c7             	mov    %rax,%rdi
  40b282:	e8 59 78 ff ff       	callq  402ae0 <_ZSt16__ostream_insertIcSt11char_traitsIcEERSt13basic_ostreamIT_T0_ES6_PKS3_l@plt>
  40b287:	89 ee                	mov    %ebp,%esi
  40b289:	48 89 df             	mov    %rbx,%rdi
  40b28c:	e8 0f 7a ff ff       	callq  402ca0 <_ZNSolsEi@plt>
  40b291:	ba 0f 00 00 00       	mov    $0xf,%edx
  40b296:	48 89 c3             	mov    %rax,%rbx
  40b299:	be 39 f5 40 00       	mov    $0x40f539,%esi
  40b29e:	48 89 c7             	mov    %rax,%rdi
  40b2a1:	e8 3a 78 ff ff       	callq  402ae0 <_ZSt16__ostream_insertIcSt11char_traitsIcEERSt13basic_ostreamIT_T0_ES6_PKS3_l@plt>
  40b2a6:	48 89 df             	mov    %rbx,%rdi
  40b2a9:	be 0a 00 00 00       	mov    $0xa,%esi
  40b2ae:	e8 ed 79 ff ff       	callq  402ca0 <_ZNSolsEi@plt>
  40b2b3:	ba 06 00 00 00       	mov    $0x6,%edx
  40b2b8:	48 89 c5             	mov    %rax,%rbp
  40b2bb:	be 49 f5 40 00       	mov    $0x40f549,%esi
  40b2c0:	48 89 c7             	mov    %rax,%rdi
  40b2c3:	e8 18 78 ff ff       	callq  402ae0 <_ZSt16__ostream_insertIcSt11char_traitsIcEERSt13basic_ostreamIT_T0_ES6_PKS3_l@plt>
  40b2c8:	48 8b 45 00          	mov    0x0(%rbp),%rax
  40b2cc:	48 8b 40 e8          	mov    -0x18(%rax),%rax
  40b2d0:	48 8b 9c 05 f0 00 00 	mov    0xf0(%rbp,%rax,1),%rbx
  40b2d7:	00 
  40b2d8:	48 85 db             	test   %rbx,%rbx
  40b2db:	0f 84 f7 02 00 00    	je     40b5d8 <_Z9benchmarkIfLl500EEmi+0x418>
  40b2e1:	80 7b 38 00          	cmpb   $0x0,0x38(%rbx)
  40b2e5:	0f 84 d2 02 00 00    	je     40b5bd <_Z9benchmarkIfLl500EEmi+0x3fd>
  40b2eb:	0f b6 43 43          	movzbl 0x43(%rbx),%eax
  40b2ef:	48 89 ef             	mov    %rbp,%rdi
  40b2f2:	0f be f0             	movsbl %al,%esi
  40b2f5:	48 8d 6c 24 10       	lea    0x10(%rsp),%rbp
  40b2fa:	e8 e1 74 ff ff       	callq  4027e0 <_ZNSo3putEc@plt>
  40b2ff:	41 bd 0a 00 00 00    	mov    $0xa,%r13d
  40b305:	48 89 c7             	mov    %rax,%rdi
  40b308:	45 31 e4             	xor    %r12d,%r12d
  40b30b:	e8 60 76 ff ff       	callq  402970 <_ZNSo5flushEv@plt>
  40b310:	0f 31                	rdtsc  
  40b312:	f2 0f 10 1d 2e 76 20 	movsd  0x20762e(%rip),%xmm3        # 612948 <heat>
  40b319:	00 
  40b31a:	49 89 d6             	mov    %rdx,%r14
  40b31d:	89 c0                	mov    %eax,%eax
  40b31f:	49 c1 e6 20          	shl    $0x20,%r14
  40b323:	ba fa 00 00 00       	mov    $0xfa,%edx
  40b328:	be fa 00 00 00       	mov    $0xfa,%esi
  40b32d:	66 0f 5a db          	cvtpd2ps %xmm3,%xmm3
  40b331:	f3 0f 2a 15 17 76 20 	cvtsi2ssl 0x207617(%rip),%xmm2        # 612950 <radius>
  40b338:	00 
  40b339:	48 89 ef             	mov    %rbp,%rdi
  40b33c:	49 09 c6             	or     %rax,%r14
  40b33f:	f3 0f 10 0d 35 48 00 	movss  0x4835(%rip),%xmm1        # 40fb7c <_ZTVN6GetOpt13_DefValOptionIdNS_8_OptionTIdEEEE+0x3c>
  40b346:	00 
  40b347:	f3 0f 10 05 31 48 00 	movss  0x4831(%rip),%xmm0        # 40fb80 <_ZTVN6GetOpt13_DefValOptionIdNS_8_OptionTIdEEEE+0x40>
  40b34e:	00 
  40b34f:	e8 fc f9 ff ff       	callq  40ad50 <_ZN10RelaxationIfLl500EEC1Effllff>
  40b354:	ba 12 00 00 00       	mov    $0x12,%edx
  40b359:	be 50 f5 40 00       	mov    $0x40f550,%esi
  40b35e:	bf e0 24 61 00       	mov    $0x6124e0,%edi
  40b363:	e8 78 77 ff ff       	callq  402ae0 <_ZSt16__ostream_insertIcSt11char_traitsIcEERSt13basic_ostreamIT_T0_ES6_PKS3_l@plt>
  40b368:	48 8b 05 71 71 20 00 	mov    0x207171(%rip),%rax        # 6124e0 <_ZSt4cout@@GLIBCXX_3.4>
  40b36f:	48 8b 40 e8          	mov    -0x18(%rax),%rax
  40b373:	48 8b 98 d0 25 61 00 	mov    0x6125d0(%rax),%rbx
  40b37a:	48 85 db             	test   %rbx,%rbx
  40b37d:	0f 84 08 02 00 00    	je     40b58b <_Z9benchmarkIfLl500EEmi+0x3cb>
  40b383:	80 7b 38 00          	cmpb   $0x0,0x38(%rbx)
  40b387:	0f 84 de 01 00 00    	je     40b56b <_Z9benchmarkIfLl500EEmi+0x3ab>
  40b38d:	0f b6 43 43          	movzbl 0x43(%rbx),%eax
  40b391:	0f be f0             	movsbl %al,%esi
  40b394:	bf e0 24 61 00       	mov    $0x6124e0,%edi
  40b399:	e8 42 74 ff ff       	callq  4027e0 <_ZNSo3putEc@plt>
  40b39e:	48 89 c7             	mov    %rax,%rdi
  40b3a1:	e8 ca 75 ff ff       	callq  402970 <_ZNSo5flushEv@plt>
  40b3a6:	8b 05 b4 75 20 00    	mov    0x2075b4(%rip),%eax        # 612960 <steps>
  40b3ac:	bb 01 00 00 00       	mov    $0x1,%ebx
  40b3b1:	48 8b 7c 24 38       	mov    0x38(%rsp),%rdi
  40b3b6:	85 c0                	test   %eax,%eax
  40b3b8:	0f 8e 08 01 00 00    	jle    40b4c6 <_Z9benchmarkIfLl500EEmi+0x306>
  40b3be:	66 90                	xchg   %ax,%ax
  40b3c0:	ba 09 00 00 00       	mov    $0x9,%edx
  40b3c5:	be 63 f5 40 00       	mov    $0x40f563,%esi
  40b3ca:	bf e0 24 61 00       	mov    $0x6124e0,%edi
  40b3cf:	e8 0c 77 ff ff       	callq  402ae0 <_ZSt16__ostream_insertIcSt11char_traitsIcEERSt13basic_ostreamIT_T0_ES6_PKS3_l@plt>
  40b3d4:	48 8b 05 05 71 20 00 	mov    0x207105(%rip),%rax        # 6124e0 <_ZSt4cout@@GLIBCXX_3.4>
  40b3db:	48 8b 40 e8          	mov    -0x18(%rax),%rax
  40b3df:	4c 8b b8 d0 25 61 00 	mov    0x6125d0(%rax),%r15
  40b3e6:	4d 85 ff             	test   %r15,%r15
  40b3e9:	0f 84 97 01 00 00    	je     40b586 <_Z9benchmarkIfLl500EEmi+0x3c6>
  40b3ef:	41 80 7f 38 00       	cmpb   $0x0,0x38(%r15)
  40b3f4:	0f 84 56 01 00 00    	je     40b550 <_Z9benchmarkIfLl500EEmi+0x390>
  40b3fa:	41 0f b6 47 43       	movzbl 0x43(%r15),%eax
  40b3ff:	0f be f0             	movsbl %al,%esi
  40b402:	bf e0 24 61 00       	mov    $0x6124e0,%edi
  40b407:	e8 d4 73 ff ff       	callq  4027e0 <_ZNSo3putEc@plt>
  40b40c:	48 89 c7             	mov    %rax,%rdi
  40b40f:	e8 5c 75 ff ff       	callq  402970 <_ZNSo5flushEv@plt>
  40b414:	bf 40 42 0f 00       	mov    $0xf4240,%edi
  40b419:	e8 42 76 ff ff       	callq  402a60 <_Znwm@plt>
  40b41e:	48 8b 4c 24 38       	mov    0x38(%rsp),%rcx
  40b423:	48 8d 50 10          	lea    0x10(%rax),%rdx
  40b427:	48 8d b1 70 3a 0f 00 	lea    0xf3a70(%rcx),%rsi
  40b42e:	48 39 f2             	cmp    %rsi,%rdx
  40b431:	0f 87 e1 00 00 00    	ja     40b518 <_Z9benchmarkIfLl500EEmi+0x358>
  40b437:	31 d2                	xor    %edx,%edx
  40b439:	0f 1f 80 00 00 00 00 	nopl   0x0(%rax)
  40b440:	48 c7 84 11 70 3a 0f 	movq   $0x0,0xf3a70(%rcx,%rdx,1)
  40b447:	00 00 00 00 00 
  40b44c:	48 c7 84 11 78 3a 0f 	movq   $0x0,0xf3a78(%rcx,%rdx,1)
  40b453:	00 00 00 00 00 
  40b458:	48 c7 04 10 00 00 00 	movq   $0x0,(%rax,%rdx,1)
  40b45f:	00 
  40b460:	48 c7 44 10 08 00 00 	movq   $0x0,0x8(%rax,%rdx,1)
  40b467:	00 00 
  40b469:	48 83 c2 10          	add    $0x10,%rdx
  40b46d:	48 81 fa d0 07 00 00 	cmp    $0x7d0,%rdx
  40b474:	75 ca                	jne    40b440 <_Z9benchmarkIfLl500EEmi+0x280>
  40b476:	31 d2                	xor    %edx,%edx
  40b478:	48 89 e6             	mov    %rsp,%rsi
  40b47b:	bf e0 97 40 00       	mov    $0x4097e0,%edi
  40b480:	48 89 44 24 08       	mov    %rax,0x8(%rsp)
  40b485:	48 89 2c 24          	mov    %rbp,(%rsp)
  40b489:	e8 72 74 ff ff       	callq  402900 <GOMP_parallel_start@plt>
  40b48e:	48 89 e7             	mov    %rsp,%rdi
  40b491:	e8 4a e3 ff ff       	callq  4097e0 <_ZN10RelaxationIfLl500EE7iterateEv._omp_fn.3>
  40b496:	e8 55 73 ff ff       	callq  4027f0 <GOMP_parallel_end@plt>
  40b49b:	48 8b 7c 24 38       	mov    0x38(%rsp),%rdi
  40b4a0:	4c 8b 7c 24 08       	mov    0x8(%rsp),%r15
  40b4a5:	48 85 ff             	test   %rdi,%rdi
  40b4a8:	74 05                	je     40b4af <_Z9benchmarkIfLl500EEmi+0x2ef>
  40b4aa:	e8 b1 76 ff ff       	callq  402b60 <_ZdaPv@plt>
  40b4af:	83 c3 01             	add    $0x1,%ebx
  40b4b2:	39 1d a8 74 20 00    	cmp    %ebx,0x2074a8(%rip)        # 612960 <steps>
  40b4b8:	4c 89 7c 24 38       	mov    %r15,0x38(%rsp)
  40b4bd:	0f 8d fd fe ff ff    	jge    40b3c0 <_Z9benchmarkIfLl500EEmi+0x200>
  40b4c3:	4c 89 ff             	mov    %r15,%rdi
  40b4c6:	0f 31                	rdtsc  
  40b4c8:	48 c1 e2 20          	shl    $0x20,%rdx
  40b4cc:	89 c0                	mov    %eax,%eax
  40b4ce:	48 09 c2             	or     %rax,%rdx
  40b4d1:	4c 29 f2             	sub    %r14,%rdx
  40b4d4:	49 01 d4             	add    %rdx,%r12
  40b4d7:	48 85 ff             	test   %rdi,%rdi
  40b4da:	74 05                	je     40b4e1 <_Z9benchmarkIfLl500EEmi+0x321>
  40b4dc:	e8 7f 76 ff ff       	callq  402b60 <_ZdaPv@plt>
  40b4e1:	41 83 ed 01          	sub    $0x1,%r13d
  40b4e5:	0f 85 25 fe ff ff    	jne    40b310 <_Z9benchmarkIfLl500EEmi+0x150>
  40b4eb:	48 83 c4 48          	add    $0x48,%rsp
  40b4ef:	4c 89 e0             	mov    %r12,%rax
  40b4f2:	48 ba cd cc cc cc cc 	movabs $0xcccccccccccccccd,%rdx
  40b4f9:	cc cc cc 
  40b4fc:	5b                   	pop    %rbx
  40b4fd:	48 f7 e2             	mul    %rdx
  40b500:	5d                   	pop    %rbp
  40b501:	41 5c                	pop    %r12
  40b503:	41 5d                	pop    %r13
  40b505:	48 c1 ea 03          	shr    $0x3,%rdx
  40b509:	41 5e                	pop    %r14
  40b50b:	48 89 d0             	mov    %rdx,%rax
  40b50e:	41 5f                	pop    %r15
  40b510:	c3                   	retq   
  40b511:	0f 1f 80 00 00 00 00 	nopl   0x0(%rax)
  40b518:	48 8d 91 80 3a 0f 00 	lea    0xf3a80(%rcx),%rdx
  40b51f:	48 39 d0             	cmp    %rdx,%rax
  40b522:	0f 83 0f ff ff ff    	jae    40b437 <_Z9benchmarkIfLl500EEmi+0x277>
  40b528:	31 d2                	xor    %edx,%edx
  40b52a:	66 0f 1f 44 00 00    	nopw   0x0(%rax,%rax,1)
  40b530:	c7 04 96 00 00 00 00 	movl   $0x0,(%rsi,%rdx,4)
  40b537:	c7 04 90 00 00 00 00 	movl   $0x0,(%rax,%rdx,4)
  40b53e:	48 83 c2 01          	add    $0x1,%rdx
  40b542:	48 81 fa f4 01 00 00 	cmp    $0x1f4,%rdx
  40b549:	75 e5                	jne    40b530 <_Z9benchmarkIfLl500EEmi+0x370>
  40b54b:	e9 26 ff ff ff       	jmpq   40b476 <_Z9benchmarkIfLl500EEmi+0x2b6>
  40b550:	4c 89 ff             	mov    %r15,%rdi
  40b553:	e8 98 75 ff ff       	callq  402af0 <_ZNKSt5ctypeIcE13_M_widen_initEv@plt>
  40b558:	49 8b 07             	mov    (%r15),%rax
  40b55b:	be 0a 00 00 00       	mov    $0xa,%esi
  40b560:	4c 89 ff             	mov    %r15,%rdi
  40b563:	ff 50 30             	callq  *0x30(%rax)
  40b566:	e9 94 fe ff ff       	jmpq   40b3ff <_Z9benchmarkIfLl500EEmi+0x23f>
  40b56b:	48 89 df             	mov    %rbx,%rdi
  40b56e:	e8 7d 75 ff ff       	callq  402af0 <_ZNKSt5ctypeIcE13_M_widen_initEv@plt>
  40b573:	48 8b 03             	mov    (%rbx),%rax
  40b576:	be 0a 00 00 00       	mov    $0xa,%esi
  40b57b:	48 89 df             	mov    %rbx,%rdi
  40b57e:	ff 50 30             	callq  *0x30(%rax)
  40b581:	e9 0b fe ff ff       	jmpq   40b391 <_Z9benchmarkIfLl500EEmi+0x1d1>
  40b586:	e8 b5 75 ff ff       	callq  402b40 <_ZSt16__throw_bad_castv@plt>
  40b58b:	0f 1f 44 00 00       	nopl   0x0(%rax,%rax,1)
  40b590:	e8 ab 75 ff ff       	callq  402b40 <_ZSt16__throw_bad_castv@plt>
  40b595:	48 8b 7c 24 38       	mov    0x38(%rsp),%rdi
  40b59a:	48 89 c3             	mov    %rax,%rbx
  40b59d:	48 85 ff             	test   %rdi,%rdi
  40b5a0:	74 05                	je     40b5a7 <_Z9benchmarkIfLl500EEmi+0x3e7>
  40b5a2:	e8 b9 75 ff ff       	callq  402b60 <_ZdaPv@plt>
  40b5a7:	48 89 df             	mov    %rbx,%rdi
  40b5aa:	e8 01 77 ff ff       	callq  402cb0 <_Unwind_Resume@plt>
  40b5af:	48 83 fa ff          	cmp    $0xffffffffffffffff,%rdx
  40b5b3:	48 89 c7             	mov    %rax,%rdi
  40b5b6:	75 f2                	jne    40b5aa <_Z9benchmarkIfLl500EEmi+0x3ea>
  40b5b8:	e8 93 75 ff ff       	callq  402b50 <__cxa_call_unexpected@plt>
  40b5bd:	48 89 df             	mov    %rbx,%rdi
  40b5c0:	e8 2b 75 ff ff       	callq  402af0 <_ZNKSt5ctypeIcE13_M_widen_initEv@plt>
  40b5c5:	48 8b 03             	mov    (%rbx),%rax
  40b5c8:	be 0a 00 00 00       	mov    $0xa,%esi
  40b5cd:	48 89 df             	mov    %rbx,%rdi
  40b5d0:	ff 50 30             	callq  *0x30(%rax)
  40b5d3:	e9 17 fd ff ff       	jmpq   40b2ef <_Z9benchmarkIfLl500EEmi+0x12f>
  40b5d8:	e8 63 75 ff ff       	callq  402b40 <_ZSt16__throw_bad_castv@plt>
  40b5dd:	48 89 df             	mov    %rbx,%rdi
  40b5e0:	e8 0b 75 ff ff       	callq  402af0 <_ZNKSt5ctypeIcE13_M_widen_initEv@plt>
  40b5e5:	48 8b 03             	mov    (%rbx),%rax
  40b5e8:	be 0a 00 00 00       	mov    $0xa,%esi
  40b5ed:	48 89 df             	mov    %rbx,%rdi
  40b5f0:	ff 50 30             	callq  *0x30(%rax)
  40b5f3:	e9 3e fc ff ff       	jmpq   40b236 <_Z9benchmarkIfLl500EEmi+0x76>
  40b5f8:	90                   	nop
  40b5f9:	90                   	nop
  40b5fa:	90                   	nop
  40b5fb:	90                   	nop
  40b5fc:	90                   	nop
  40b5fd:	90                   	nop
  40b5fe:	90                   	nop
  40b5ff:	90                   	nop

000000000040b600 <_ZN10RelaxationIfLl1000EEC1Effllff>:
  40b600:	f3 48 0f 2c c2       	cvttss2si %xmm2,%rax
  40b605:	41 54                	push   %r12
  40b607:	49 89 f4             	mov    %rsi,%r12
  40b60a:	55                   	push   %rbp
  40b60b:	48 89 d5             	mov    %rdx,%rbp
  40b60e:	53                   	push   %rbx
  40b60f:	48 89 fb             	mov    %rdi,%rbx
  40b612:	48 83 ec 50          	sub    $0x50,%rsp
  40b616:	f3 0f 11 03          	movss  %xmm0,(%rbx)
  40b61a:	f3 0f 11 4f 04       	movss  %xmm1,0x4(%rdi)
  40b61f:	48 89 73 08          	mov    %rsi,0x8(%rbx)
  40b623:	48 89 53 10          	mov    %rdx,0x10(%rbx)
  40b627:	f3 0f 11 44 24 0c    	movss  %xmm0,0xc(%rsp)
  40b62d:	f3 0f 11 54 24 04    	movss  %xmm2,0x4(%rsp)
  40b633:	f3 0f 11 5c 24 08    	movss  %xmm3,0x8(%rsp)
  40b639:	48 89 47 18          	mov    %rax,0x18(%rdi)
  40b63d:	f3 48 0f 2c c3       	cvttss2si %xmm3,%rax
  40b642:	48 89 47 20          	mov    %rax,0x20(%rdi)
  40b646:	bf 00 09 3d 00       	mov    $0x3d0900,%edi
  40b64b:	e8 10 74 ff ff       	callq  402a60 <_Znwm@plt>
  40b650:	f3 0f 10 05 1c 45 00 	movss  0x451c(%rip),%xmm0        # 40fb74 <_ZTVN6GetOpt13_DefValOptionIdNS_8_OptionTIdEEEE+0x34>
  40b657:	00 
  40b658:	49 89 c0             	mov    %rax,%r8
  40b65b:	0f 2e 44 24 04       	ucomiss 0x4(%rsp),%xmm0
  40b660:	48 89 43 28          	mov    %rax,0x28(%rbx)
  40b664:	0f 87 c0 02 00 00    	ja     40b92a <_ZN10RelaxationIfLl1000EEC1Effllff+0x32a>
  40b66a:	49 8d 44 24 ff       	lea    -0x1(%r12),%rax
  40b66f:	48 3d e5 03 00 00    	cmp    $0x3e5,%rax
  40b675:	0f 87 5c 02 00 00    	ja     40b8d7 <_ZN10RelaxationIfLl1000EEC1Effllff+0x2d7>
  40b67b:	48 8d 45 ff          	lea    -0x1(%rbp),%rax
  40b67f:	48 3d e5 03 00 00    	cmp    $0x3e5,%rax
  40b685:	0f 87 4c 02 00 00    	ja     40b8d7 <_ZN10RelaxationIfLl1000EEC1Effllff+0x2d7>
  40b68b:	f3 49 0f 2a c4       	cvtsi2ss %r12,%xmm0
  40b690:	f3 0f 10 64 24 04    	movss  0x4(%rsp),%xmm4
  40b696:	0f 57 c9             	xorps  %xmm1,%xmm1
  40b699:	0f 28 d0             	movaps %xmm0,%xmm2
  40b69c:	f3 0f 5c d4          	subss  %xmm4,%xmm2
  40b6a0:	0f 2e ca             	ucomiss %xmm2,%xmm1
  40b6a3:	0f 87 25 03 00 00    	ja     40b9ce <_ZN10RelaxationIfLl1000EEC1Effllff+0x3ce>
  40b6a9:	f3 0f 58 c4          	addss  %xmm4,%xmm0
  40b6ad:	0f 2e 05 d4 44 00 00 	ucomiss 0x44d4(%rip),%xmm0        # 40fb88 <_ZTVN6GetOpt13_DefValOptionIdNS_8_OptionTIdEEEE+0x48>
  40b6b4:	0f 87 14 03 00 00    	ja     40b9ce <_ZN10RelaxationIfLl1000EEC1Effllff+0x3ce>
  40b6ba:	f3 48 0f 2a c5       	cvtsi2ss %rbp,%xmm0
  40b6bf:	0f 28 d0             	movaps %xmm0,%xmm2
  40b6c2:	f3 0f 5c d4          	subss  %xmm4,%xmm2
  40b6c6:	0f 2e ca             	ucomiss %xmm2,%xmm1
  40b6c9:	0f 87 ff 02 00 00    	ja     40b9ce <_ZN10RelaxationIfLl1000EEC1Effllff+0x3ce>
  40b6cf:	f3 0f 58 c4          	addss  %xmm4,%xmm0
  40b6d3:	0f 2e 05 ae 44 00 00 	ucomiss 0x44ae(%rip),%xmm0        # 40fb88 <_ZTVN6GetOpt13_DefValOptionIdNS_8_OptionTIdEEEE+0x48>
  40b6da:	0f 87 ee 02 00 00    	ja     40b9ce <_ZN10RelaxationIfLl1000EEC1Effllff+0x3ce>
  40b6e0:	f3 0f 10 74 24 08    	movss  0x8(%rsp),%xmm6
  40b6e6:	0f 2e 74 24 0c       	ucomiss 0xc(%rsp),%xmm6
  40b6eb:	0f 87 93 01 00 00    	ja     40b884 <_ZN10RelaxationIfLl1000EEC1Effllff+0x284>
  40b6f1:	49 8d b8 60 f9 3c 00 	lea    0x3cf960(%r8),%rdi
  40b6f8:	be a0 0f 00 00       	mov    $0xfa0,%esi
  40b6fd:	40 f6 c7 01          	test   $0x1,%dil
  40b701:	0f 85 d1 00 00 00    	jne    40b7d8 <_ZN10RelaxationIfLl1000EEC1Effllff+0x1d8>
  40b707:	40 f6 c7 02          	test   $0x2,%dil
  40b70b:	0f 85 e7 00 00 00    	jne    40b7f8 <_ZN10RelaxationIfLl1000EEC1Effllff+0x1f8>
  40b711:	40 f6 c7 04          	test   $0x4,%dil
  40b715:	0f 85 f5 00 00 00    	jne    40b810 <_ZN10RelaxationIfLl1000EEC1Effllff+0x210>
  40b71b:	89 f1                	mov    %esi,%ecx
  40b71d:	31 c0                	xor    %eax,%eax
  40b71f:	c1 e9 03             	shr    $0x3,%ecx
  40b722:	40 f6 c6 04          	test   $0x4,%sil
  40b726:	f3 48 ab             	rep stos %rax,%es:(%rdi)
  40b729:	74 0a                	je     40b735 <_ZN10RelaxationIfLl1000EEC1Effllff+0x135>
  40b72b:	c7 07 00 00 00 00    	movl   $0x0,(%rdi)
  40b731:	48 83 c7 04          	add    $0x4,%rdi
  40b735:	40 f6 c6 02          	test   $0x2,%sil
  40b739:	74 0a                	je     40b745 <_ZN10RelaxationIfLl1000EEC1Effllff+0x145>
  40b73b:	31 c0                	xor    %eax,%eax
  40b73d:	48 83 c7 02          	add    $0x2,%rdi
  40b741:	66 89 47 fe          	mov    %ax,-0x2(%rdi)
  40b745:	83 e6 01             	and    $0x1,%esi
  40b748:	74 03                	je     40b74d <_ZN10RelaxationIfLl1000EEC1Effllff+0x14d>
  40b74a:	c6 07 00             	movb   $0x0,(%rdi)
  40b74d:	41 f6 c0 01          	test   $0x1,%r8b
  40b751:	4c 89 c7             	mov    %r8,%rdi
  40b754:	ba a0 0f 00 00       	mov    $0xfa0,%edx
  40b759:	0f 85 c9 00 00 00    	jne    40b828 <_ZN10RelaxationIfLl1000EEC1Effllff+0x228>
  40b75f:	40 f6 c7 02          	test   $0x2,%dil
  40b763:	0f 85 d7 00 00 00    	jne    40b840 <_ZN10RelaxationIfLl1000EEC1Effllff+0x240>
  40b769:	40 f6 c7 04          	test   $0x4,%dil
  40b76d:	0f 85 ed 00 00 00    	jne    40b860 <_ZN10RelaxationIfLl1000EEC1Effllff+0x260>
  40b773:	89 d1                	mov    %edx,%ecx
  40b775:	31 c0                	xor    %eax,%eax
  40b777:	c1 e9 03             	shr    $0x3,%ecx
  40b77a:	f6 c2 04             	test   $0x4,%dl
  40b77d:	f3 48 ab             	rep stos %rax,%es:(%rdi)
  40b780:	74 0a                	je     40b78c <_ZN10RelaxationIfLl1000EEC1Effllff+0x18c>
  40b782:	c7 07 00 00 00 00    	movl   $0x0,(%rdi)
  40b788:	48 83 c7 04          	add    $0x4,%rdi
  40b78c:	f6 c2 02             	test   $0x2,%dl
  40b78f:	74 0a                	je     40b79b <_ZN10RelaxationIfLl1000EEC1Effllff+0x19b>
  40b791:	31 c0                	xor    %eax,%eax
  40b793:	48 83 c7 02          	add    $0x2,%rdi
  40b797:	66 89 47 fe          	mov    %ax,-0x2(%rdi)
  40b79b:	83 e2 01             	and    $0x1,%edx
  40b79e:	74 03                	je     40b7a3 <_ZN10RelaxationIfLl1000EEC1Effllff+0x1a3>
  40b7a0:	c6 07 00             	movb   $0x0,(%rdi)
  40b7a3:	48 8d 74 24 40       	lea    0x40(%rsp),%rsi
  40b7a8:	31 d2                	xor    %edx,%edx
  40b7aa:	bf b0 90 40 00       	mov    $0x4090b0,%edi
  40b7af:	48 89 5c 24 40       	mov    %rbx,0x40(%rsp)
  40b7b4:	e8 47 71 ff ff       	callq  402900 <GOMP_parallel_start@plt>
  40b7b9:	48 8d 7c 24 40       	lea    0x40(%rsp),%rdi
  40b7be:	e8 ed d8 ff ff       	callq  4090b0 <_ZN10RelaxationIfLl1000EEC2Effllff._omp_fn.4>
  40b7c3:	e8 28 70 ff ff       	callq  4027f0 <GOMP_parallel_end@plt>
  40b7c8:	48 83 c4 50          	add    $0x50,%rsp
  40b7cc:	5b                   	pop    %rbx
  40b7cd:	5d                   	pop    %rbp
  40b7ce:	41 5c                	pop    %r12
  40b7d0:	c3                   	retq   
  40b7d1:	0f 1f 80 00 00 00 00 	nopl   0x0(%rax)
  40b7d8:	49 8d b8 61 f9 3c 00 	lea    0x3cf961(%r8),%rdi
  40b7df:	41 c6 80 60 f9 3c 00 	movb   $0x0,0x3cf960(%r8)
  40b7e6:	00 
  40b7e7:	40 b6 9f             	mov    $0x9f,%sil
  40b7ea:	40 f6 c7 02          	test   $0x2,%dil
  40b7ee:	0f 84 1d ff ff ff    	je     40b711 <_ZN10RelaxationIfLl1000EEC1Effllff+0x111>
  40b7f4:	0f 1f 40 00          	nopl   0x0(%rax)
  40b7f8:	31 d2                	xor    %edx,%edx
  40b7fa:	48 83 c7 02          	add    $0x2,%rdi
  40b7fe:	83 ee 02             	sub    $0x2,%esi
  40b801:	66 89 57 fe          	mov    %dx,-0x2(%rdi)
  40b805:	40 f6 c7 04          	test   $0x4,%dil
  40b809:	0f 84 0c ff ff ff    	je     40b71b <_ZN10RelaxationIfLl1000EEC1Effllff+0x11b>
  40b80f:	90                   	nop
  40b810:	c7 07 00 00 00 00    	movl   $0x0,(%rdi)
  40b816:	83 ee 04             	sub    $0x4,%esi
  40b819:	48 83 c7 04          	add    $0x4,%rdi
  40b81d:	e9 f9 fe ff ff       	jmpq   40b71b <_ZN10RelaxationIfLl1000EEC1Effllff+0x11b>
  40b822:	66 0f 1f 44 00 00    	nopw   0x0(%rax,%rax,1)
  40b828:	48 83 c7 01          	add    $0x1,%rdi
  40b82c:	41 c6 00 00          	movb   $0x0,(%r8)
  40b830:	b2 9f                	mov    $0x9f,%dl
  40b832:	40 f6 c7 02          	test   $0x2,%dil
  40b836:	0f 84 2d ff ff ff    	je     40b769 <_ZN10RelaxationIfLl1000EEC1Effllff+0x169>
  40b83c:	0f 1f 40 00          	nopl   0x0(%rax)
  40b840:	31 c0                	xor    %eax,%eax
  40b842:	48 83 c7 02          	add    $0x2,%rdi
  40b846:	83 ea 02             	sub    $0x2,%edx
  40b849:	66 89 47 fe          	mov    %ax,-0x2(%rdi)
  40b84d:	40 f6 c7 04          	test   $0x4,%dil
  40b851:	0f 84 1c ff ff ff    	je     40b773 <_ZN10RelaxationIfLl1000EEC1Effllff+0x173>
  40b857:	66 0f 1f 84 00 00 00 	nopw   0x0(%rax,%rax,1)
  40b85e:	00 00 
  40b860:	c7 07 00 00 00 00    	movl   $0x0,(%rdi)
  40b866:	83 ea 04             	sub    $0x4,%edx
  40b869:	48 83 c7 04          	add    $0x4,%rdi
  40b86d:	e9 01 ff ff ff       	jmpq   40b773 <_ZN10RelaxationIfLl1000EEC1Effllff+0x173>
  40b872:	48 89 c7             	mov    %rax,%rdi
  40b875:	48 83 fa ff          	cmp    $0xffffffffffffffff,%rdx
  40b879:	0f 84 a2 01 00 00    	je     40ba21 <_ZN10RelaxationIfLl1000EEC1Effllff+0x421>
  40b87f:	e8 2c 74 ff ff       	callq  402cb0 <_Unwind_Resume@plt>
  40b884:	bf 10 00 00 00       	mov    $0x10,%edi
  40b889:	e8 42 70 ff ff       	callq  4028d0 <__cxa_allocate_exception@plt>
  40b88e:	48 8d 54 24 20       	lea    0x20(%rsp),%rdx
  40b893:	48 8d 7c 24 40       	lea    0x40(%rsp),%rdi
  40b898:	be f8 f6 40 00       	mov    $0x40f6f8,%esi
  40b89d:	48 89 c3             	mov    %rax,%rbx
  40b8a0:	e8 2b 72 ff ff       	callq  402ad0 <_ZNSsC1EPKcRKSaIcE@plt>
  40b8a5:	48 8d 74 24 40       	lea    0x40(%rsp),%rsi
  40b8aa:	48 89 df             	mov    %rbx,%rdi
  40b8ad:	e8 4e 71 ff ff       	callq  402a00 <_ZNSt11logic_errorC1ERKSs@plt>
  40b8b2:	48 8b 44 24 40       	mov    0x40(%rsp),%rax
  40b8b7:	48 8d 74 24 30       	lea    0x30(%rsp),%rsi
  40b8bc:	48 8d 78 e8          	lea    -0x18(%rax),%rdi
  40b8c0:	e8 7b 70 ff ff       	callq  402940 <_ZNSs4_Rep10_M_disposeERKSaIcE@plt>
  40b8c5:	ba 10 2b 40 00       	mov    $0x402b10,%edx
  40b8ca:	be b0 27 61 00       	mov    $0x6127b0,%esi
  40b8cf:	48 89 df             	mov    %rbx,%rdi
  40b8d2:	e8 b9 73 ff ff       	callq  402c90 <__cxa_throw@plt>
  40b8d7:	bf 10 00 00 00       	mov    $0x10,%edi
  40b8dc:	e8 ef 6f ff ff       	callq  4028d0 <__cxa_allocate_exception@plt>
  40b8e1:	48 8d 54 24 30       	lea    0x30(%rsp),%rdx
  40b8e6:	48 8d 7c 24 20       	lea    0x20(%rsp),%rdi
  40b8eb:	be 30 f6 40 00       	mov    $0x40f630,%esi
  40b8f0:	48 89 c3             	mov    %rax,%rbx
  40b8f3:	e8 d8 71 ff ff       	callq  402ad0 <_ZNSsC1EPKcRKSaIcE@plt>
  40b8f8:	48 8d 74 24 20       	lea    0x20(%rsp),%rsi
  40b8fd:	48 89 df             	mov    %rbx,%rdi
  40b900:	e8 fb 70 ff ff       	callq  402a00 <_ZNSt11logic_errorC1ERKSs@plt>
  40b905:	48 8b 44 24 20       	mov    0x20(%rsp),%rax
  40b90a:	48 8d 74 24 40       	lea    0x40(%rsp),%rsi
  40b90f:	48 8d 78 e8          	lea    -0x18(%rax),%rdi
  40b913:	e8 28 70 ff ff       	callq  402940 <_ZNSs4_Rep10_M_disposeERKSaIcE@plt>
  40b918:	ba 10 2b 40 00       	mov    $0x402b10,%edx
  40b91d:	be b0 27 61 00       	mov    $0x6127b0,%esi
  40b922:	48 89 df             	mov    %rbx,%rdi
  40b925:	e8 66 73 ff ff       	callq  402c90 <__cxa_throw@plt>
  40b92a:	bf 10 00 00 00       	mov    $0x10,%edi
  40b92f:	e8 9c 6f ff ff       	callq  4028d0 <__cxa_allocate_exception@plt>
  40b934:	48 8d 54 24 30       	lea    0x30(%rsp),%rdx
  40b939:	48 8d 7c 24 10       	lea    0x10(%rsp),%rdi
  40b93e:	be 08 f6 40 00       	mov    $0x40f608,%esi
  40b943:	48 89 c3             	mov    %rax,%rbx
  40b946:	e8 85 71 ff ff       	callq  402ad0 <_ZNSsC1EPKcRKSaIcE@plt>
  40b94b:	48 8d 74 24 10       	lea    0x10(%rsp),%rsi
  40b950:	48 89 df             	mov    %rbx,%rdi
  40b953:	e8 a8 70 ff ff       	callq  402a00 <_ZNSt11logic_errorC1ERKSs@plt>
  40b958:	48 8b 44 24 10       	mov    0x10(%rsp),%rax
  40b95d:	48 8d 74 24 40       	lea    0x40(%rsp),%rsi
  40b962:	48 8d 78 e8          	lea    -0x18(%rax),%rdi
  40b966:	e8 d5 6f ff ff       	callq  402940 <_ZNSs4_Rep10_M_disposeERKSaIcE@plt>
  40b96b:	ba 10 2b 40 00       	mov    $0x402b10,%edx
  40b970:	be b0 27 61 00       	mov    $0x6127b0,%esi
  40b975:	48 89 df             	mov    %rbx,%rdi
  40b978:	e8 13 73 ff ff       	callq  402c90 <__cxa_throw@plt>
  40b97d:	48 89 c5             	mov    %rax,%rbp
  40b980:	48 8b 44 24 20       	mov    0x20(%rsp),%rax
  40b985:	48 8d 74 24 40       	lea    0x40(%rsp),%rsi
  40b98a:	49 89 d4             	mov    %rdx,%r12
  40b98d:	48 8d 78 e8          	lea    -0x18(%rax),%rdi
  40b991:	e8 aa 6f ff ff       	callq  402940 <_ZNSs4_Rep10_M_disposeERKSaIcE@plt>
  40b996:	48 89 df             	mov    %rbx,%rdi
  40b999:	e8 f2 6f ff ff       	callq  402990 <__cxa_free_exception@plt>
  40b99e:	48 89 ef             	mov    %rbp,%rdi
  40b9a1:	4c 89 e2             	mov    %r12,%rdx
  40b9a4:	e9 cc fe ff ff       	jmpq   40b875 <_ZN10RelaxationIfLl1000EEC1Effllff+0x275>
  40b9a9:	48 89 c5             	mov    %rax,%rbp
  40b9ac:	49 89 d4             	mov    %rdx,%r12
  40b9af:	eb e5                	jmp    40b996 <_ZN10RelaxationIfLl1000EEC1Effllff+0x396>
  40b9b1:	48 89 c5             	mov    %rax,%rbp
  40b9b4:	48 8b 44 24 10       	mov    0x10(%rsp),%rax
  40b9b9:	48 8d 74 24 40       	lea    0x40(%rsp),%rsi
  40b9be:	49 89 d4             	mov    %rdx,%r12
  40b9c1:	48 8d 78 e8          	lea    -0x18(%rax),%rdi
  40b9c5:	e8 76 6f ff ff       	callq  402940 <_ZNSs4_Rep10_M_disposeERKSaIcE@plt>
  40b9ca:	eb ca                	jmp    40b996 <_ZN10RelaxationIfLl1000EEC1Effllff+0x396>
  40b9cc:	eb db                	jmp    40b9a9 <_ZN10RelaxationIfLl1000EEC1Effllff+0x3a9>
  40b9ce:	bf 10 00 00 00       	mov    $0x10,%edi
  40b9d3:	e8 f8 6e ff ff       	callq  4028d0 <__cxa_allocate_exception@plt>
  40b9d8:	48 8d 54 24 20       	lea    0x20(%rsp),%rdx
  40b9dd:	48 8d 7c 24 30       	lea    0x30(%rsp),%rdi
  40b9e2:	be 90 f6 40 00       	mov    $0x40f690,%esi
  40b9e7:	48 89 c3             	mov    %rax,%rbx
  40b9ea:	e8 e1 70 ff ff       	callq  402ad0 <_ZNSsC1EPKcRKSaIcE@plt>
  40b9ef:	48 8d 74 24 30       	lea    0x30(%rsp),%rsi
  40b9f4:	48 89 df             	mov    %rbx,%rdi
  40b9f7:	e8 04 70 ff ff       	callq  402a00 <_ZNSt11logic_errorC1ERKSs@plt>
  40b9fc:	48 8b 44 24 30       	mov    0x30(%rsp),%rax
  40ba01:	48 8d 74 24 40       	lea    0x40(%rsp),%rsi
  40ba06:	48 8d 78 e8          	lea    -0x18(%rax),%rdi
  40ba0a:	e8 31 6f ff ff       	callq  402940 <_ZNSs4_Rep10_M_disposeERKSaIcE@plt>
  40ba0f:	ba 10 2b 40 00       	mov    $0x402b10,%edx
  40ba14:	be b0 27 61 00       	mov    $0x6127b0,%esi
  40ba19:	48 89 df             	mov    %rbx,%rdi
  40ba1c:	e8 6f 72 ff ff       	callq  402c90 <__cxa_throw@plt>
  40ba21:	e8 2a 71 ff ff       	callq  402b50 <__cxa_call_unexpected@plt>
  40ba26:	48 89 c5             	mov    %rax,%rbp
  40ba29:	48 8b 44 24 30       	mov    0x30(%rsp),%rax
  40ba2e:	48 8d 74 24 40       	lea    0x40(%rsp),%rsi
  40ba33:	49 89 d4             	mov    %rdx,%r12
  40ba36:	48 8d 78 e8          	lea    -0x18(%rax),%rdi
  40ba3a:	e8 01 6f ff ff       	callq  402940 <_ZNSs4_Rep10_M_disposeERKSaIcE@plt>
  40ba3f:	e9 52 ff ff ff       	jmpq   40b996 <_ZN10RelaxationIfLl1000EEC1Effllff+0x396>
  40ba44:	e9 60 ff ff ff       	jmpq   40b9a9 <_ZN10RelaxationIfLl1000EEC1Effllff+0x3a9>
  40ba49:	48 89 c5             	mov    %rax,%rbp
  40ba4c:	48 8b 44 24 40       	mov    0x40(%rsp),%rax
  40ba51:	48 8d 74 24 30       	lea    0x30(%rsp),%rsi
  40ba56:	49 89 d4             	mov    %rdx,%r12
  40ba59:	48 8d 78 e8          	lea    -0x18(%rax),%rdi
  40ba5d:	e8 de 6e ff ff       	callq  402940 <_ZNSs4_Rep10_M_disposeERKSaIcE@plt>
  40ba62:	e9 2f ff ff ff       	jmpq   40b996 <_ZN10RelaxationIfLl1000EEC1Effllff+0x396>
  40ba67:	e9 3d ff ff ff       	jmpq   40b9a9 <_ZN10RelaxationIfLl1000EEC1Effllff+0x3a9>
  40ba6c:	90                   	nop
  40ba6d:	90                   	nop
  40ba6e:	90                   	nop
  40ba6f:	90                   	nop

000000000040ba70 <_Z9benchmarkIfLl1000EEmi>:
  40ba70:	41 57                	push   %r15
  40ba72:	41 56                	push   %r14
  40ba74:	41 55                	push   %r13
  40ba76:	41 54                	push   %r12
  40ba78:	55                   	push   %rbp
  40ba79:	53                   	push   %rbx
  40ba7a:	48 83 ec 48          	sub    $0x48,%rsp
  40ba7e:	e8 3d 70 ff ff       	callq  402ac0 <omp_set_num_threads@plt>
  40ba83:	e8 d8 71 ff ff       	callq  402c60 <omp_get_max_threads@plt>
  40ba88:	ba 12 00 00 00       	mov    $0x12,%edx
  40ba8d:	89 c3                	mov    %eax,%ebx
  40ba8f:	be 0c f5 40 00       	mov    $0x40f50c,%esi
  40ba94:	bf e0 24 61 00       	mov    $0x6124e0,%edi
  40ba99:	e8 42 70 ff ff       	callq  402ae0 <_ZSt16__ostream_insertIcSt11char_traitsIcEERSt13basic_ostreamIT_T0_ES6_PKS3_l@plt>
  40ba9e:	89 de                	mov    %ebx,%esi
  40baa0:	bf e0 24 61 00       	mov    $0x6124e0,%edi
  40baa5:	e8 f6 71 ff ff       	callq  402ca0 <_ZNSolsEi@plt>
  40baaa:	ba 09 00 00 00       	mov    $0x9,%edx
  40baaf:	48 89 c5             	mov    %rax,%rbp
  40bab2:	be 1f f5 40 00       	mov    $0x40f51f,%esi
  40bab7:	48 89 c7             	mov    %rax,%rdi
  40baba:	e8 21 70 ff ff       	callq  402ae0 <_ZSt16__ostream_insertIcSt11char_traitsIcEERSt13basic_ostreamIT_T0_ES6_PKS3_l@plt>
  40babf:	48 8b 45 00          	mov    0x0(%rbp),%rax
  40bac3:	48 8b 40 e8          	mov    -0x18(%rax),%rax
  40bac7:	48 8b 9c 05 f0 00 00 	mov    0xf0(%rbp,%rax,1),%rbx
  40bace:	00 
  40bacf:	48 85 db             	test   %rbx,%rbx
  40bad2:	0f 84 b0 03 00 00    	je     40be88 <_Z9benchmarkIfLl1000EEmi+0x418>
  40bad8:	80 7b 38 00          	cmpb   $0x0,0x38(%rbx)
  40badc:	0f 84 ab 03 00 00    	je     40be8d <_Z9benchmarkIfLl1000EEmi+0x41d>
  40bae2:	0f b6 43 43          	movzbl 0x43(%rbx),%eax
  40bae6:	0f be f0             	movsbl %al,%esi
  40bae9:	48 89 ef             	mov    %rbp,%rdi
  40baec:	e8 ef 6c ff ff       	callq  4027e0 <_ZNSo3putEc@plt>
  40baf1:	48 89 c7             	mov    %rax,%rdi
  40baf4:	e8 77 6e ff ff       	callq  402970 <_ZNSo5flushEv@plt>
  40baf9:	8b 2d 61 6e 20 00    	mov    0x206e61(%rip),%ebp        # 612960 <steps>
  40baff:	ba 0f 00 00 00       	mov    $0xf,%edx
  40bb04:	be 29 f5 40 00       	mov    $0x40f529,%esi
  40bb09:	bf e0 24 61 00       	mov    $0x6124e0,%edi
  40bb0e:	e8 cd 6f ff ff       	callq  402ae0 <_ZSt16__ostream_insertIcSt11char_traitsIcEERSt13basic_ostreamIT_T0_ES6_PKS3_l@plt>
  40bb13:	be e8 03 00 00       	mov    $0x3e8,%esi
  40bb18:	bf e0 24 61 00       	mov    $0x6124e0,%edi
  40bb1d:	e8 1e 6f ff ff       	callq  402a40 <_ZNSo9_M_insertIlEERSoT_@plt>
  40bb22:	ba 06 00 00 00       	mov    $0x6,%edx
  40bb27:	48 89 c3             	mov    %rax,%rbx
  40bb2a:	be 18 f5 40 00       	mov    $0x40f518,%esi
  40bb2f:	48 89 c7             	mov    %rax,%rdi
  40bb32:	e8 a9 6f ff ff       	callq  402ae0 <_ZSt16__ostream_insertIcSt11char_traitsIcEERSt13basic_ostreamIT_T0_ES6_PKS3_l@plt>
  40bb37:	89 ee                	mov    %ebp,%esi
  40bb39:	48 89 df             	mov    %rbx,%rdi
  40bb3c:	e8 5f 71 ff ff       	callq  402ca0 <_ZNSolsEi@plt>
  40bb41:	ba 0f 00 00 00       	mov    $0xf,%edx
  40bb46:	48 89 c3             	mov    %rax,%rbx
  40bb49:	be 39 f5 40 00       	mov    $0x40f539,%esi
  40bb4e:	48 89 c7             	mov    %rax,%rdi
  40bb51:	e8 8a 6f ff ff       	callq  402ae0 <_ZSt16__ostream_insertIcSt11char_traitsIcEERSt13basic_ostreamIT_T0_ES6_PKS3_l@plt>
  40bb56:	48 89 df             	mov    %rbx,%rdi
  40bb59:	be 0a 00 00 00       	mov    $0xa,%esi
  40bb5e:	e8 3d 71 ff ff       	callq  402ca0 <_ZNSolsEi@plt>
  40bb63:	ba 06 00 00 00       	mov    $0x6,%edx
  40bb68:	48 89 c5             	mov    %rax,%rbp
  40bb6b:	be 49 f5 40 00       	mov    $0x40f549,%esi
  40bb70:	48 89 c7             	mov    %rax,%rdi
  40bb73:	e8 68 6f ff ff       	callq  402ae0 <_ZSt16__ostream_insertIcSt11char_traitsIcEERSt13basic_ostreamIT_T0_ES6_PKS3_l@plt>
  40bb78:	48 8b 45 00          	mov    0x0(%rbp),%rax
  40bb7c:	48 8b 40 e8          	mov    -0x18(%rax),%rax
  40bb80:	48 8b 9c 05 f0 00 00 	mov    0xf0(%rbp,%rax,1),%rbx
  40bb87:	00 
  40bb88:	48 85 db             	test   %rbx,%rbx
  40bb8b:	0f 84 f7 02 00 00    	je     40be88 <_Z9benchmarkIfLl1000EEmi+0x418>
  40bb91:	80 7b 38 00          	cmpb   $0x0,0x38(%rbx)
  40bb95:	0f 84 d2 02 00 00    	je     40be6d <_Z9benchmarkIfLl1000EEmi+0x3fd>
  40bb9b:	0f b6 43 43          	movzbl 0x43(%rbx),%eax
  40bb9f:	48 89 ef             	mov    %rbp,%rdi
  40bba2:	0f be f0             	movsbl %al,%esi
  40bba5:	48 8d 6c 24 10       	lea    0x10(%rsp),%rbp
  40bbaa:	e8 31 6c ff ff       	callq  4027e0 <_ZNSo3putEc@plt>
  40bbaf:	41 bd 0a 00 00 00    	mov    $0xa,%r13d
  40bbb5:	48 89 c7             	mov    %rax,%rdi
  40bbb8:	45 31 e4             	xor    %r12d,%r12d
  40bbbb:	e8 b0 6d ff ff       	callq  402970 <_ZNSo5flushEv@plt>
  40bbc0:	0f 31                	rdtsc  
  40bbc2:	f2 0f 10 1d 7e 6d 20 	movsd  0x206d7e(%rip),%xmm3        # 612948 <heat>
  40bbc9:	00 
  40bbca:	49 89 d6             	mov    %rdx,%r14
  40bbcd:	89 c0                	mov    %eax,%eax
  40bbcf:	49 c1 e6 20          	shl    $0x20,%r14
  40bbd3:	ba f4 01 00 00       	mov    $0x1f4,%edx
  40bbd8:	be f4 01 00 00       	mov    $0x1f4,%esi
  40bbdd:	66 0f 5a db          	cvtpd2ps %xmm3,%xmm3
  40bbe1:	f3 0f 2a 15 67 6d 20 	cvtsi2ssl 0x206d67(%rip),%xmm2        # 612950 <radius>
  40bbe8:	00 
  40bbe9:	48 89 ef             	mov    %rbp,%rdi
  40bbec:	49 09 c6             	or     %rax,%r14
  40bbef:	f3 0f 10 0d 85 3f 00 	movss  0x3f85(%rip),%xmm1        # 40fb7c <_ZTVN6GetOpt13_DefValOptionIdNS_8_OptionTIdEEEE+0x3c>
  40bbf6:	00 
  40bbf7:	f3 0f 10 05 81 3f 00 	movss  0x3f81(%rip),%xmm0        # 40fb80 <_ZTVN6GetOpt13_DefValOptionIdNS_8_OptionTIdEEEE+0x40>
  40bbfe:	00 
  40bbff:	e8 fc f9 ff ff       	callq  40b600 <_ZN10RelaxationIfLl1000EEC1Effllff>
  40bc04:	ba 12 00 00 00       	mov    $0x12,%edx
  40bc09:	be 50 f5 40 00       	mov    $0x40f550,%esi
  40bc0e:	bf e0 24 61 00       	mov    $0x6124e0,%edi
  40bc13:	e8 c8 6e ff ff       	callq  402ae0 <_ZSt16__ostream_insertIcSt11char_traitsIcEERSt13basic_ostreamIT_T0_ES6_PKS3_l@plt>
  40bc18:	48 8b 05 c1 68 20 00 	mov    0x2068c1(%rip),%rax        # 6124e0 <_ZSt4cout@@GLIBCXX_3.4>
  40bc1f:	48 8b 40 e8          	mov    -0x18(%rax),%rax
  40bc23:	48 8b 98 d0 25 61 00 	mov    0x6125d0(%rax),%rbx
  40bc2a:	48 85 db             	test   %rbx,%rbx
  40bc2d:	0f 84 08 02 00 00    	je     40be3b <_Z9benchmarkIfLl1000EEmi+0x3cb>
  40bc33:	80 7b 38 00          	cmpb   $0x0,0x38(%rbx)
  40bc37:	0f 84 de 01 00 00    	je     40be1b <_Z9benchmarkIfLl1000EEmi+0x3ab>
  40bc3d:	0f b6 43 43          	movzbl 0x43(%rbx),%eax
  40bc41:	0f be f0             	movsbl %al,%esi
  40bc44:	bf e0 24 61 00       	mov    $0x6124e0,%edi
  40bc49:	e8 92 6b ff ff       	callq  4027e0 <_ZNSo3putEc@plt>
  40bc4e:	48 89 c7             	mov    %rax,%rdi
  40bc51:	e8 1a 6d ff ff       	callq  402970 <_ZNSo5flushEv@plt>
  40bc56:	8b 0d 04 6d 20 00    	mov    0x206d04(%rip),%ecx        # 612960 <steps>
  40bc5c:	bb 01 00 00 00       	mov    $0x1,%ebx
  40bc61:	48 8b 7c 24 38       	mov    0x38(%rsp),%rdi
  40bc66:	85 c9                	test   %ecx,%ecx
  40bc68:	0f 8e 08 01 00 00    	jle    40bd76 <_Z9benchmarkIfLl1000EEmi+0x306>
  40bc6e:	66 90                	xchg   %ax,%ax
  40bc70:	ba 09 00 00 00       	mov    $0x9,%edx
  40bc75:	be 63 f5 40 00       	mov    $0x40f563,%esi
  40bc7a:	bf e0 24 61 00       	mov    $0x6124e0,%edi
  40bc7f:	e8 5c 6e ff ff       	callq  402ae0 <_ZSt16__ostream_insertIcSt11char_traitsIcEERSt13basic_ostreamIT_T0_ES6_PKS3_l@plt>
  40bc84:	48 8b 05 55 68 20 00 	mov    0x206855(%rip),%rax        # 6124e0 <_ZSt4cout@@GLIBCXX_3.4>
  40bc8b:	48 8b 40 e8          	mov    -0x18(%rax),%rax
  40bc8f:	4c 8b b8 d0 25 61 00 	mov    0x6125d0(%rax),%r15
  40bc96:	4d 85 ff             	test   %r15,%r15
  40bc99:	0f 84 97 01 00 00    	je     40be36 <_Z9benchmarkIfLl1000EEmi+0x3c6>
  40bc9f:	41 80 7f 38 00       	cmpb   $0x0,0x38(%r15)
  40bca4:	0f 84 56 01 00 00    	je     40be00 <_Z9benchmarkIfLl1000EEmi+0x390>
  40bcaa:	41 0f b6 47 43       	movzbl 0x43(%r15),%eax
  40bcaf:	0f be f0             	movsbl %al,%esi
  40bcb2:	bf e0 24 61 00       	mov    $0x6124e0,%edi
  40bcb7:	e8 24 6b ff ff       	callq  4027e0 <_ZNSo3putEc@plt>
  40bcbc:	48 89 c7             	mov    %rax,%rdi
  40bcbf:	e8 ac 6c ff ff       	callq  402970 <_ZNSo5flushEv@plt>
  40bcc4:	bf 00 09 3d 00       	mov    $0x3d0900,%edi
  40bcc9:	e8 92 6d ff ff       	callq  402a60 <_Znwm@plt>
  40bcce:	48 8b 4c 24 38       	mov    0x38(%rsp),%rcx
  40bcd3:	48 8d 50 10          	lea    0x10(%rax),%rdx
  40bcd7:	48 8d b1 60 f9 3c 00 	lea    0x3cf960(%rcx),%rsi
  40bcde:	48 39 f2             	cmp    %rsi,%rdx
  40bce1:	0f 87 e1 00 00 00    	ja     40bdc8 <_Z9benchmarkIfLl1000EEmi+0x358>
  40bce7:	31 d2                	xor    %edx,%edx
  40bce9:	0f 1f 80 00 00 00 00 	nopl   0x0(%rax)
  40bcf0:	48 c7 84 11 60 f9 3c 	movq   $0x0,0x3cf960(%rcx,%rdx,1)
  40bcf7:	00 00 00 00 00 
  40bcfc:	48 c7 84 11 68 f9 3c 	movq   $0x0,0x3cf968(%rcx,%rdx,1)
  40bd03:	00 00 00 00 00 
  40bd08:	48 c7 04 10 00 00 00 	movq   $0x0,(%rax,%rdx,1)
  40bd0f:	00 
  40bd10:	48 c7 44 10 08 00 00 	movq   $0x0,0x8(%rax,%rdx,1)
  40bd17:	00 00 
  40bd19:	48 83 c2 10          	add    $0x10,%rdx
  40bd1d:	48 81 fa a0 0f 00 00 	cmp    $0xfa0,%rdx
  40bd24:	75 ca                	jne    40bcf0 <_Z9benchmarkIfLl1000EEmi+0x280>
  40bd26:	31 d2                	xor    %edx,%edx
  40bd28:	48 89 e6             	mov    %rsp,%rsi
  40bd2b:	bf 10 99 40 00       	mov    $0x409910,%edi
  40bd30:	48 89 44 24 08       	mov    %rax,0x8(%rsp)
  40bd35:	48 89 2c 24          	mov    %rbp,(%rsp)
  40bd39:	e8 c2 6b ff ff       	callq  402900 <GOMP_parallel_start@plt>
  40bd3e:	48 89 e7             	mov    %rsp,%rdi
  40bd41:	e8 ca db ff ff       	callq  409910 <_ZN10RelaxationIfLl1000EE7iterateEv._omp_fn.5>
  40bd46:	e8 a5 6a ff ff       	callq  4027f0 <GOMP_parallel_end@plt>
  40bd4b:	48 8b 7c 24 38       	mov    0x38(%rsp),%rdi
  40bd50:	4c 8b 7c 24 08       	mov    0x8(%rsp),%r15
  40bd55:	48 85 ff             	test   %rdi,%rdi
  40bd58:	74 05                	je     40bd5f <_Z9benchmarkIfLl1000EEmi+0x2ef>
  40bd5a:	e8 01 6e ff ff       	callq  402b60 <_ZdaPv@plt>
  40bd5f:	83 c3 01             	add    $0x1,%ebx
  40bd62:	39 1d f8 6b 20 00    	cmp    %ebx,0x206bf8(%rip)        # 612960 <steps>
  40bd68:	4c 89 7c 24 38       	mov    %r15,0x38(%rsp)
  40bd6d:	0f 8d fd fe ff ff    	jge    40bc70 <_Z9benchmarkIfLl1000EEmi+0x200>
  40bd73:	4c 89 ff             	mov    %r15,%rdi
  40bd76:	0f 31                	rdtsc  
  40bd78:	48 c1 e2 20          	shl    $0x20,%rdx
  40bd7c:	89 c0                	mov    %eax,%eax
  40bd7e:	48 09 c2             	or     %rax,%rdx
  40bd81:	4c 29 f2             	sub    %r14,%rdx
  40bd84:	49 01 d4             	add    %rdx,%r12
  40bd87:	48 85 ff             	test   %rdi,%rdi
  40bd8a:	74 05                	je     40bd91 <_Z9benchmarkIfLl1000EEmi+0x321>
  40bd8c:	e8 cf 6d ff ff       	callq  402b60 <_ZdaPv@plt>
  40bd91:	41 83 ed 01          	sub    $0x1,%r13d
  40bd95:	0f 85 25 fe ff ff    	jne    40bbc0 <_Z9benchmarkIfLl1000EEmi+0x150>
  40bd9b:	48 83 c4 48          	add    $0x48,%rsp
  40bd9f:	4c 89 e0             	mov    %r12,%rax
  40bda2:	48 ba cd cc cc cc cc 	movabs $0xcccccccccccccccd,%rdx
  40bda9:	cc cc cc 
  40bdac:	5b                   	pop    %rbx
  40bdad:	48 f7 e2             	mul    %rdx
  40bdb0:	5d                   	pop    %rbp
  40bdb1:	41 5c                	pop    %r12
  40bdb3:	41 5d                	pop    %r13
  40bdb5:	48 c1 ea 03          	shr    $0x3,%rdx
  40bdb9:	41 5e                	pop    %r14
  40bdbb:	48 89 d0             	mov    %rdx,%rax
  40bdbe:	41 5f                	pop    %r15
  40bdc0:	c3                   	retq   
  40bdc1:	0f 1f 80 00 00 00 00 	nopl   0x0(%rax)
  40bdc8:	48 8d 91 70 f9 3c 00 	lea    0x3cf970(%rcx),%rdx
  40bdcf:	48 39 d0             	cmp    %rdx,%rax
  40bdd2:	0f 83 0f ff ff ff    	jae    40bce7 <_Z9benchmarkIfLl1000EEmi+0x277>
  40bdd8:	31 d2                	xor    %edx,%edx
  40bdda:	66 0f 1f 44 00 00    	nopw   0x0(%rax,%rax,1)
  40bde0:	c7 04 96 00 00 00 00 	movl   $0x0,(%rsi,%rdx,4)
  40bde7:	c7 04 90 00 00 00 00 	movl   $0x0,(%rax,%rdx,4)
  40bdee:	48 83 c2 01          	add    $0x1,%rdx
  40bdf2:	48 81 fa e8 03 00 00 	cmp    $0x3e8,%rdx
  40bdf9:	75 e5                	jne    40bde0 <_Z9benchmarkIfLl1000EEmi+0x370>
  40bdfb:	e9 26 ff ff ff       	jmpq   40bd26 <_Z9benchmarkIfLl1000EEmi+0x2b6>
  40be00:	4c 89 ff             	mov    %r15,%rdi
  40be03:	e8 e8 6c ff ff       	callq  402af0 <_ZNKSt5ctypeIcE13_M_widen_initEv@plt>
  40be08:	49 8b 07             	mov    (%r15),%rax
  40be0b:	be 0a 00 00 00       	mov    $0xa,%esi
  40be10:	4c 89 ff             	mov    %r15,%rdi
  40be13:	ff 50 30             	callq  *0x30(%rax)
  40be16:	e9 94 fe ff ff       	jmpq   40bcaf <_Z9benchmarkIfLl1000EEmi+0x23f>
  40be1b:	48 89 df             	mov    %rbx,%rdi
  40be1e:	e8 cd 6c ff ff       	callq  402af0 <_ZNKSt5ctypeIcE13_M_widen_initEv@plt>
  40be23:	48 8b 03             	mov    (%rbx),%rax
  40be26:	be 0a 00 00 00       	mov    $0xa,%esi
  40be2b:	48 89 df             	mov    %rbx,%rdi
  40be2e:	ff 50 30             	callq  *0x30(%rax)
  40be31:	e9 0b fe ff ff       	jmpq   40bc41 <_Z9benchmarkIfLl1000EEmi+0x1d1>
  40be36:	e8 05 6d ff ff       	callq  402b40 <_ZSt16__throw_bad_castv@plt>
  40be3b:	0f 1f 44 00 00       	nopl   0x0(%rax,%rax,1)
  40be40:	e8 fb 6c ff ff       	callq  402b40 <_ZSt16__throw_bad_castv@plt>
  40be45:	48 8b 7c 24 38       	mov    0x38(%rsp),%rdi
  40be4a:	48 89 c3             	mov    %rax,%rbx
  40be4d:	48 85 ff             	test   %rdi,%rdi
  40be50:	74 05                	je     40be57 <_Z9benchmarkIfLl1000EEmi+0x3e7>
  40be52:	e8 09 6d ff ff       	callq  402b60 <_ZdaPv@plt>
  40be57:	48 89 df             	mov    %rbx,%rdi
  40be5a:	e8 51 6e ff ff       	callq  402cb0 <_Unwind_Resume@plt>
  40be5f:	48 83 fa ff          	cmp    $0xffffffffffffffff,%rdx
  40be63:	48 89 c7             	mov    %rax,%rdi
  40be66:	75 f2                	jne    40be5a <_Z9benchmarkIfLl1000EEmi+0x3ea>
  40be68:	e8 e3 6c ff ff       	callq  402b50 <__cxa_call_unexpected@plt>
  40be6d:	48 89 df             	mov    %rbx,%rdi
  40be70:	e8 7b 6c ff ff       	callq  402af0 <_ZNKSt5ctypeIcE13_M_widen_initEv@plt>
  40be75:	48 8b 03             	mov    (%rbx),%rax
  40be78:	be 0a 00 00 00       	mov    $0xa,%esi
  40be7d:	48 89 df             	mov    %rbx,%rdi
  40be80:	ff 50 30             	callq  *0x30(%rax)
  40be83:	e9 17 fd ff ff       	jmpq   40bb9f <_Z9benchmarkIfLl1000EEmi+0x12f>
  40be88:	e8 b3 6c ff ff       	callq  402b40 <_ZSt16__throw_bad_castv@plt>
  40be8d:	48 89 df             	mov    %rbx,%rdi
  40be90:	e8 5b 6c ff ff       	callq  402af0 <_ZNKSt5ctypeIcE13_M_widen_initEv@plt>
  40be95:	48 8b 03             	mov    (%rbx),%rax
  40be98:	be 0a 00 00 00       	mov    $0xa,%esi
  40be9d:	48 89 df             	mov    %rbx,%rdi
  40bea0:	ff 50 30             	callq  *0x30(%rax)
  40bea3:	e9 3e fc ff ff       	jmpq   40bae6 <_Z9benchmarkIfLl1000EEmi+0x76>
  40bea8:	90                   	nop
  40bea9:	90                   	nop
  40beaa:	90                   	nop
  40beab:	90                   	nop
  40beac:	90                   	nop
  40bead:	90                   	nop
  40beae:	90                   	nop
  40beaf:	90                   	nop

000000000040beb0 <_ZN10RelaxationIfLl10000EEC1Effllff>:
  40beb0:	f3 48 0f 2c c2       	cvttss2si %xmm2,%rax
  40beb5:	41 55                	push   %r13
  40beb7:	41 54                	push   %r12
  40beb9:	49 89 f4             	mov    %rsi,%r12
  40bebc:	55                   	push   %rbp
  40bebd:	48 89 d5             	mov    %rdx,%rbp
  40bec0:	53                   	push   %rbx
  40bec1:	48 89 fb             	mov    %rdi,%rbx
  40bec4:	48 83 ec 58          	sub    $0x58,%rsp
  40bec8:	f3 0f 11 03          	movss  %xmm0,(%rbx)
  40becc:	f3 0f 11 4f 04       	movss  %xmm1,0x4(%rdi)
  40bed1:	48 89 73 08          	mov    %rsi,0x8(%rbx)
  40bed5:	48 89 53 10          	mov    %rdx,0x10(%rbx)
  40bed9:	f3 0f 11 44 24 0c    	movss  %xmm0,0xc(%rsp)
  40bedf:	48 89 47 18          	mov    %rax,0x18(%rdi)
  40bee3:	f3 0f 11 54 24 04    	movss  %xmm2,0x4(%rsp)
  40bee9:	f3 48 0f 2c c3       	cvttss2si %xmm3,%rax
  40beee:	f3 0f 11 5c 24 08    	movss  %xmm3,0x8(%rsp)
  40bef4:	48 89 47 20          	mov    %rax,0x20(%rdi)
  40bef8:	bf 00 84 d7 17       	mov    $0x17d78400,%edi
  40befd:	e8 5e 6b ff ff       	callq  402a60 <_Znwm@plt>
  40bf02:	f3 0f 10 05 6a 3c 00 	movss  0x3c6a(%rip),%xmm0        # 40fb74 <_ZTVN6GetOpt13_DefValOptionIdNS_8_OptionTIdEEEE+0x34>
  40bf09:	00 
  40bf0a:	49 89 c5             	mov    %rax,%r13
  40bf0d:	0f 2e 44 24 04       	ucomiss 0x4(%rsp),%xmm0
  40bf12:	48 89 43 28          	mov    %rax,0x28(%rbx)
  40bf16:	0f 87 8d 01 00 00    	ja     40c0a9 <_ZN10RelaxationIfLl10000EEC1Effllff+0x1f9>
  40bf1c:	49 8d 44 24 ff       	lea    -0x1(%r12),%rax
  40bf21:	48 3d 0d 27 00 00    	cmp    $0x270d,%rax
  40bf27:	0f 87 29 01 00 00    	ja     40c056 <_ZN10RelaxationIfLl10000EEC1Effllff+0x1a6>
  40bf2d:	48 8d 45 ff          	lea    -0x1(%rbp),%rax
  40bf31:	48 3d 0d 27 00 00    	cmp    $0x270d,%rax
  40bf37:	0f 87 19 01 00 00    	ja     40c056 <_ZN10RelaxationIfLl10000EEC1Effllff+0x1a6>
  40bf3d:	f3 49 0f 2a c4       	cvtsi2ss %r12,%xmm0
  40bf42:	f3 0f 10 64 24 04    	movss  0x4(%rsp),%xmm4
  40bf48:	0f 57 c9             	xorps  %xmm1,%xmm1
  40bf4b:	0f 28 d0             	movaps %xmm0,%xmm2
  40bf4e:	f3 0f 5c d4          	subss  %xmm4,%xmm2
  40bf52:	0f 2e ca             	ucomiss %xmm2,%xmm1
  40bf55:	0f 87 f2 01 00 00    	ja     40c14d <_ZN10RelaxationIfLl10000EEC1Effllff+0x29d>
  40bf5b:	f3 0f 58 c4          	addss  %xmm4,%xmm0
  40bf5f:	0f 2e 05 26 3c 00 00 	ucomiss 0x3c26(%rip),%xmm0        # 40fb8c <_ZTVN6GetOpt13_DefValOptionIdNS_8_OptionTIdEEEE+0x4c>
  40bf66:	0f 87 e1 01 00 00    	ja     40c14d <_ZN10RelaxationIfLl10000EEC1Effllff+0x29d>
  40bf6c:	f3 48 0f 2a c5       	cvtsi2ss %rbp,%xmm0
  40bf71:	0f 28 d0             	movaps %xmm0,%xmm2
  40bf74:	f3 0f 5c d4          	subss  %xmm4,%xmm2
  40bf78:	0f 2e ca             	ucomiss %xmm2,%xmm1
  40bf7b:	0f 87 cc 01 00 00    	ja     40c14d <_ZN10RelaxationIfLl10000EEC1Effllff+0x29d>
  40bf81:	f3 0f 58 c4          	addss  %xmm4,%xmm0
  40bf85:	0f 2e 05 00 3c 00 00 	ucomiss 0x3c00(%rip),%xmm0        # 40fb8c <_ZTVN6GetOpt13_DefValOptionIdNS_8_OptionTIdEEEE+0x4c>
  40bf8c:	0f 87 bb 01 00 00    	ja     40c14d <_ZN10RelaxationIfLl10000EEC1Effllff+0x29d>
  40bf92:	f3 0f 10 74 24 08    	movss  0x8(%rsp),%xmm6
  40bf98:	0f 2e 74 24 0c       	ucomiss 0xc(%rsp),%xmm6
  40bf9d:	77 64                	ja     40c003 <_ZN10RelaxationIfLl10000EEC1Effllff+0x153>
  40bf9f:	49 8d bd c0 e7 d6 17 	lea    0x17d6e7c0(%r13),%rdi
  40bfa6:	ba 40 9c 00 00       	mov    $0x9c40,%edx
  40bfab:	31 f6                	xor    %esi,%esi
  40bfad:	e8 3e 69 ff ff       	callq  4028f0 <memset@plt>
  40bfb2:	4c 89 ef             	mov    %r13,%rdi
  40bfb5:	ba 40 9c 00 00       	mov    $0x9c40,%edx
  40bfba:	31 f6                	xor    %esi,%esi
  40bfbc:	e8 2f 69 ff ff       	callq  4028f0 <memset@plt>
  40bfc1:	48 8d 74 24 40       	lea    0x40(%rsp),%rsi
  40bfc6:	31 d2                	xor    %edx,%edx
  40bfc8:	bf e0 91 40 00       	mov    $0x4091e0,%edi
  40bfcd:	48 89 5c 24 40       	mov    %rbx,0x40(%rsp)
  40bfd2:	e8 29 69 ff ff       	callq  402900 <GOMP_parallel_start@plt>
  40bfd7:	48 8d 7c 24 40       	lea    0x40(%rsp),%rdi
  40bfdc:	e8 ff d1 ff ff       	callq  4091e0 <_ZN10RelaxationIfLl10000EEC2Effllff._omp_fn.6>
  40bfe1:	e8 0a 68 ff ff       	callq  4027f0 <GOMP_parallel_end@plt>
  40bfe6:	48 83 c4 58          	add    $0x58,%rsp
  40bfea:	5b                   	pop    %rbx
  40bfeb:	5d                   	pop    %rbp
  40bfec:	41 5c                	pop    %r12
  40bfee:	41 5d                	pop    %r13
  40bff0:	c3                   	retq   
  40bff1:	48 89 c7             	mov    %rax,%rdi
  40bff4:	48 83 fa ff          	cmp    $0xffffffffffffffff,%rdx
  40bff8:	0f 84 a2 01 00 00    	je     40c1a0 <_ZN10RelaxationIfLl10000EEC1Effllff+0x2f0>
  40bffe:	e8 ad 6c ff ff       	callq  402cb0 <_Unwind_Resume@plt>
  40c003:	bf 10 00 00 00       	mov    $0x10,%edi
  40c008:	e8 c3 68 ff ff       	callq  4028d0 <__cxa_allocate_exception@plt>
  40c00d:	48 8d 54 24 20       	lea    0x20(%rsp),%rdx
  40c012:	48 8d 7c 24 40       	lea    0x40(%rsp),%rdi
  40c017:	be f8 f6 40 00       	mov    $0x40f6f8,%esi
  40c01c:	48 89 c3             	mov    %rax,%rbx
  40c01f:	e8 ac 6a ff ff       	callq  402ad0 <_ZNSsC1EPKcRKSaIcE@plt>
  40c024:	48 8d 74 24 40       	lea    0x40(%rsp),%rsi
  40c029:	48 89 df             	mov    %rbx,%rdi
  40c02c:	e8 cf 69 ff ff       	callq  402a00 <_ZNSt11logic_errorC1ERKSs@plt>
  40c031:	48 8b 44 24 40       	mov    0x40(%rsp),%rax
  40c036:	48 8d 74 24 30       	lea    0x30(%rsp),%rsi
  40c03b:	48 8d 78 e8          	lea    -0x18(%rax),%rdi
  40c03f:	e8 fc 68 ff ff       	callq  402940 <_ZNSs4_Rep10_M_disposeERKSaIcE@plt>
  40c044:	ba 10 2b 40 00       	mov    $0x402b10,%edx
  40c049:	be b0 27 61 00       	mov    $0x6127b0,%esi
  40c04e:	48 89 df             	mov    %rbx,%rdi
  40c051:	e8 3a 6c ff ff       	callq  402c90 <__cxa_throw@plt>
  40c056:	bf 10 00 00 00       	mov    $0x10,%edi
  40c05b:	e8 70 68 ff ff       	callq  4028d0 <__cxa_allocate_exception@plt>
  40c060:	48 8d 54 24 30       	lea    0x30(%rsp),%rdx
  40c065:	48 8d 7c 24 20       	lea    0x20(%rsp),%rdi
  40c06a:	be 30 f6 40 00       	mov    $0x40f630,%esi
  40c06f:	48 89 c3             	mov    %rax,%rbx
  40c072:	e8 59 6a ff ff       	callq  402ad0 <_ZNSsC1EPKcRKSaIcE@plt>
  40c077:	48 8d 74 24 20       	lea    0x20(%rsp),%rsi
  40c07c:	48 89 df             	mov    %rbx,%rdi
  40c07f:	e8 7c 69 ff ff       	callq  402a00 <_ZNSt11logic_errorC1ERKSs@plt>
  40c084:	48 8b 44 24 20       	mov    0x20(%rsp),%rax
  40c089:	48 8d 74 24 40       	lea    0x40(%rsp),%rsi
  40c08e:	48 8d 78 e8          	lea    -0x18(%rax),%rdi
  40c092:	e8 a9 68 ff ff       	callq  402940 <_ZNSs4_Rep10_M_disposeERKSaIcE@plt>
  40c097:	ba 10 2b 40 00       	mov    $0x402b10,%edx
  40c09c:	be b0 27 61 00       	mov    $0x6127b0,%esi
  40c0a1:	48 89 df             	mov    %rbx,%rdi
  40c0a4:	e8 e7 6b ff ff       	callq  402c90 <__cxa_throw@plt>
  40c0a9:	bf 10 00 00 00       	mov    $0x10,%edi
  40c0ae:	e8 1d 68 ff ff       	callq  4028d0 <__cxa_allocate_exception@plt>
  40c0b3:	48 8d 54 24 30       	lea    0x30(%rsp),%rdx
  40c0b8:	48 8d 7c 24 10       	lea    0x10(%rsp),%rdi
  40c0bd:	be 08 f6 40 00       	mov    $0x40f608,%esi
  40c0c2:	48 89 c3             	mov    %rax,%rbx
  40c0c5:	e8 06 6a ff ff       	callq  402ad0 <_ZNSsC1EPKcRKSaIcE@plt>
  40c0ca:	48 8d 74 24 10       	lea    0x10(%rsp),%rsi
  40c0cf:	48 89 df             	mov    %rbx,%rdi
  40c0d2:	e8 29 69 ff ff       	callq  402a00 <_ZNSt11logic_errorC1ERKSs@plt>
  40c0d7:	48 8b 44 24 10       	mov    0x10(%rsp),%rax
  40c0dc:	48 8d 74 24 40       	lea    0x40(%rsp),%rsi
  40c0e1:	48 8d 78 e8          	lea    -0x18(%rax),%rdi
  40c0e5:	e8 56 68 ff ff       	callq  402940 <_ZNSs4_Rep10_M_disposeERKSaIcE@plt>
  40c0ea:	ba 10 2b 40 00       	mov    $0x402b10,%edx
  40c0ef:	be b0 27 61 00       	mov    $0x6127b0,%esi
  40c0f4:	48 89 df             	mov    %rbx,%rdi
  40c0f7:	e8 94 6b ff ff       	callq  402c90 <__cxa_throw@plt>
  40c0fc:	48 89 c5             	mov    %rax,%rbp
  40c0ff:	48 8b 44 24 20       	mov    0x20(%rsp),%rax
  40c104:	48 8d 74 24 40       	lea    0x40(%rsp),%rsi
  40c109:	49 89 d4             	mov    %rdx,%r12
  40c10c:	48 8d 78 e8          	lea    -0x18(%rax),%rdi
  40c110:	e8 2b 68 ff ff       	callq  402940 <_ZNSs4_Rep10_M_disposeERKSaIcE@plt>
  40c115:	48 89 df             	mov    %rbx,%rdi
  40c118:	e8 73 68 ff ff       	callq  402990 <__cxa_free_exception@plt>
  40c11d:	48 89 ef             	mov    %rbp,%rdi
  40c120:	4c 89 e2             	mov    %r12,%rdx
  40c123:	e9 cc fe ff ff       	jmpq   40bff4 <_ZN10RelaxationIfLl10000EEC1Effllff+0x144>
  40c128:	48 89 c5             	mov    %rax,%rbp
  40c12b:	49 89 d4             	mov    %rdx,%r12
  40c12e:	eb e5                	jmp    40c115 <_ZN10RelaxationIfLl10000EEC1Effllff+0x265>
  40c130:	48 89 c5             	mov    %rax,%rbp
  40c133:	48 8b 44 24 10       	mov    0x10(%rsp),%rax
  40c138:	48 8d 74 24 40       	lea    0x40(%rsp),%rsi
  40c13d:	49 89 d4             	mov    %rdx,%r12
  40c140:	48 8d 78 e8          	lea    -0x18(%rax),%rdi
  40c144:	e8 f7 67 ff ff       	callq  402940 <_ZNSs4_Rep10_M_disposeERKSaIcE@plt>
  40c149:	eb ca                	jmp    40c115 <_ZN10RelaxationIfLl10000EEC1Effllff+0x265>
  40c14b:	eb db                	jmp    40c128 <_ZN10RelaxationIfLl10000EEC1Effllff+0x278>
  40c14d:	bf 10 00 00 00       	mov    $0x10,%edi
  40c152:	e8 79 67 ff ff       	callq  4028d0 <__cxa_allocate_exception@plt>
  40c157:	48 8d 54 24 20       	lea    0x20(%rsp),%rdx
  40c15c:	48 8d 7c 24 30       	lea    0x30(%rsp),%rdi
  40c161:	be 90 f6 40 00       	mov    $0x40f690,%esi
  40c166:	48 89 c3             	mov    %rax,%rbx
  40c169:	e8 62 69 ff ff       	callq  402ad0 <_ZNSsC1EPKcRKSaIcE@plt>
  40c16e:	48 8d 74 24 30       	lea    0x30(%rsp),%rsi
  40c173:	48 89 df             	mov    %rbx,%rdi
  40c176:	e8 85 68 ff ff       	callq  402a00 <_ZNSt11logic_errorC1ERKSs@plt>
  40c17b:	48 8b 44 24 30       	mov    0x30(%rsp),%rax
  40c180:	48 8d 74 24 40       	lea    0x40(%rsp),%rsi
  40c185:	48 8d 78 e8          	lea    -0x18(%rax),%rdi
  40c189:	e8 b2 67 ff ff       	callq  402940 <_ZNSs4_Rep10_M_disposeERKSaIcE@plt>
  40c18e:	ba 10 2b 40 00       	mov    $0x402b10,%edx
  40c193:	be b0 27 61 00       	mov    $0x6127b0,%esi
  40c198:	48 89 df             	mov    %rbx,%rdi
  40c19b:	e8 f0 6a ff ff       	callq  402c90 <__cxa_throw@plt>
  40c1a0:	e8 ab 69 ff ff       	callq  402b50 <__cxa_call_unexpected@plt>
  40c1a5:	48 89 c5             	mov    %rax,%rbp
  40c1a8:	48 8b 44 24 30       	mov    0x30(%rsp),%rax
  40c1ad:	48 8d 74 24 40       	lea    0x40(%rsp),%rsi
  40c1b2:	49 89 d4             	mov    %rdx,%r12
  40c1b5:	48 8d 78 e8          	lea    -0x18(%rax),%rdi
  40c1b9:	e8 82 67 ff ff       	callq  402940 <_ZNSs4_Rep10_M_disposeERKSaIcE@plt>
  40c1be:	e9 52 ff ff ff       	jmpq   40c115 <_ZN10RelaxationIfLl10000EEC1Effllff+0x265>
  40c1c3:	e9 60 ff ff ff       	jmpq   40c128 <_ZN10RelaxationIfLl10000EEC1Effllff+0x278>
  40c1c8:	48 89 c5             	mov    %rax,%rbp
  40c1cb:	48 8b 44 24 40       	mov    0x40(%rsp),%rax
  40c1d0:	48 8d 74 24 30       	lea    0x30(%rsp),%rsi
  40c1d5:	49 89 d4             	mov    %rdx,%r12
  40c1d8:	48 8d 78 e8          	lea    -0x18(%rax),%rdi
  40c1dc:	e8 5f 67 ff ff       	callq  402940 <_ZNSs4_Rep10_M_disposeERKSaIcE@plt>
  40c1e1:	e9 2f ff ff ff       	jmpq   40c115 <_ZN10RelaxationIfLl10000EEC1Effllff+0x265>
  40c1e6:	e9 3d ff ff ff       	jmpq   40c128 <_ZN10RelaxationIfLl10000EEC1Effllff+0x278>
  40c1eb:	90                   	nop
  40c1ec:	90                   	nop
  40c1ed:	90                   	nop
  40c1ee:	90                   	nop
  40c1ef:	90                   	nop

000000000040c1f0 <_Z9benchmarkIfLl10000EEmi>:
  40c1f0:	41 57                	push   %r15
  40c1f2:	41 56                	push   %r14
  40c1f4:	41 55                	push   %r13
  40c1f6:	41 54                	push   %r12
  40c1f8:	55                   	push   %rbp
  40c1f9:	53                   	push   %rbx
  40c1fa:	48 83 ec 48          	sub    $0x48,%rsp
  40c1fe:	e8 bd 68 ff ff       	callq  402ac0 <omp_set_num_threads@plt>
  40c203:	e8 58 6a ff ff       	callq  402c60 <omp_get_max_threads@plt>
  40c208:	ba 12 00 00 00       	mov    $0x12,%edx
  40c20d:	89 c3                	mov    %eax,%ebx
  40c20f:	be 0c f5 40 00       	mov    $0x40f50c,%esi
  40c214:	bf e0 24 61 00       	mov    $0x6124e0,%edi
  40c219:	e8 c2 68 ff ff       	callq  402ae0 <_ZSt16__ostream_insertIcSt11char_traitsIcEERSt13basic_ostreamIT_T0_ES6_PKS3_l@plt>
  40c21e:	89 de                	mov    %ebx,%esi
  40c220:	bf e0 24 61 00       	mov    $0x6124e0,%edi
  40c225:	e8 76 6a ff ff       	callq  402ca0 <_ZNSolsEi@plt>
  40c22a:	ba 09 00 00 00       	mov    $0x9,%edx
  40c22f:	48 89 c5             	mov    %rax,%rbp
  40c232:	be 1f f5 40 00       	mov    $0x40f51f,%esi
  40c237:	48 89 c7             	mov    %rax,%rdi
  40c23a:	e8 a1 68 ff ff       	callq  402ae0 <_ZSt16__ostream_insertIcSt11char_traitsIcEERSt13basic_ostreamIT_T0_ES6_PKS3_l@plt>
  40c23f:	48 8b 45 00          	mov    0x0(%rbp),%rax
  40c243:	48 8b 40 e8          	mov    -0x18(%rax),%rax
  40c247:	48 8b 9c 05 f0 00 00 	mov    0xf0(%rbp,%rax,1),%rbx
  40c24e:	00 
  40c24f:	48 85 db             	test   %rbx,%rbx
  40c252:	0f 84 b0 03 00 00    	je     40c608 <_Z9benchmarkIfLl10000EEmi+0x418>
  40c258:	80 7b 38 00          	cmpb   $0x0,0x38(%rbx)
  40c25c:	0f 84 ab 03 00 00    	je     40c60d <_Z9benchmarkIfLl10000EEmi+0x41d>
  40c262:	0f b6 43 43          	movzbl 0x43(%rbx),%eax
  40c266:	0f be f0             	movsbl %al,%esi
  40c269:	48 89 ef             	mov    %rbp,%rdi
  40c26c:	e8 6f 65 ff ff       	callq  4027e0 <_ZNSo3putEc@plt>
  40c271:	48 89 c7             	mov    %rax,%rdi
  40c274:	e8 f7 66 ff ff       	callq  402970 <_ZNSo5flushEv@plt>
  40c279:	8b 2d e1 66 20 00    	mov    0x2066e1(%rip),%ebp        # 612960 <steps>
  40c27f:	ba 0f 00 00 00       	mov    $0xf,%edx
  40c284:	be 29 f5 40 00       	mov    $0x40f529,%esi
  40c289:	bf e0 24 61 00       	mov    $0x6124e0,%edi
  40c28e:	e8 4d 68 ff ff       	callq  402ae0 <_ZSt16__ostream_insertIcSt11char_traitsIcEERSt13basic_ostreamIT_T0_ES6_PKS3_l@plt>
  40c293:	be 10 27 00 00       	mov    $0x2710,%esi
  40c298:	bf e0 24 61 00       	mov    $0x6124e0,%edi
  40c29d:	e8 9e 67 ff ff       	callq  402a40 <_ZNSo9_M_insertIlEERSoT_@plt>
  40c2a2:	ba 06 00 00 00       	mov    $0x6,%edx
  40c2a7:	48 89 c3             	mov    %rax,%rbx
  40c2aa:	be 18 f5 40 00       	mov    $0x40f518,%esi
  40c2af:	48 89 c7             	mov    %rax,%rdi
  40c2b2:	e8 29 68 ff ff       	callq  402ae0 <_ZSt16__ostream_insertIcSt11char_traitsIcEERSt13basic_ostreamIT_T0_ES6_PKS3_l@plt>
  40c2b7:	89 ee                	mov    %ebp,%esi
  40c2b9:	48 89 df             	mov    %rbx,%rdi
  40c2bc:	e8 df 69 ff ff       	callq  402ca0 <_ZNSolsEi@plt>
  40c2c1:	ba 0f 00 00 00       	mov    $0xf,%edx
  40c2c6:	48 89 c3             	mov    %rax,%rbx
  40c2c9:	be 39 f5 40 00       	mov    $0x40f539,%esi
  40c2ce:	48 89 c7             	mov    %rax,%rdi
  40c2d1:	e8 0a 68 ff ff       	callq  402ae0 <_ZSt16__ostream_insertIcSt11char_traitsIcEERSt13basic_ostreamIT_T0_ES6_PKS3_l@plt>
  40c2d6:	48 89 df             	mov    %rbx,%rdi
  40c2d9:	be 0a 00 00 00       	mov    $0xa,%esi
  40c2de:	e8 bd 69 ff ff       	callq  402ca0 <_ZNSolsEi@plt>
  40c2e3:	ba 06 00 00 00       	mov    $0x6,%edx
  40c2e8:	48 89 c5             	mov    %rax,%rbp
  40c2eb:	be 49 f5 40 00       	mov    $0x40f549,%esi
  40c2f0:	48 89 c7             	mov    %rax,%rdi
  40c2f3:	e8 e8 67 ff ff       	callq  402ae0 <_ZSt16__ostream_insertIcSt11char_traitsIcEERSt13basic_ostreamIT_T0_ES6_PKS3_l@plt>
  40c2f8:	48 8b 45 00          	mov    0x0(%rbp),%rax
  40c2fc:	48 8b 40 e8          	mov    -0x18(%rax),%rax
  40c300:	48 8b 9c 05 f0 00 00 	mov    0xf0(%rbp,%rax,1),%rbx
  40c307:	00 
  40c308:	48 85 db             	test   %rbx,%rbx
  40c30b:	0f 84 f7 02 00 00    	je     40c608 <_Z9benchmarkIfLl10000EEmi+0x418>
  40c311:	80 7b 38 00          	cmpb   $0x0,0x38(%rbx)
  40c315:	0f 84 d2 02 00 00    	je     40c5ed <_Z9benchmarkIfLl10000EEmi+0x3fd>
  40c31b:	0f b6 43 43          	movzbl 0x43(%rbx),%eax
  40c31f:	48 89 ef             	mov    %rbp,%rdi
  40c322:	0f be f0             	movsbl %al,%esi
  40c325:	48 8d 6c 24 10       	lea    0x10(%rsp),%rbp
  40c32a:	e8 b1 64 ff ff       	callq  4027e0 <_ZNSo3putEc@plt>
  40c32f:	41 bd 0a 00 00 00    	mov    $0xa,%r13d
  40c335:	48 89 c7             	mov    %rax,%rdi
  40c338:	45 31 e4             	xor    %r12d,%r12d
  40c33b:	e8 30 66 ff ff       	callq  402970 <_ZNSo5flushEv@plt>
  40c340:	0f 31                	rdtsc  
  40c342:	f2 0f 10 1d fe 65 20 	movsd  0x2065fe(%rip),%xmm3        # 612948 <heat>
  40c349:	00 
  40c34a:	49 89 d6             	mov    %rdx,%r14
  40c34d:	89 c0                	mov    %eax,%eax
  40c34f:	49 c1 e6 20          	shl    $0x20,%r14
  40c353:	ba 88 13 00 00       	mov    $0x1388,%edx
  40c358:	be 88 13 00 00       	mov    $0x1388,%esi
  40c35d:	66 0f 5a db          	cvtpd2ps %xmm3,%xmm3
  40c361:	f3 0f 2a 15 e7 65 20 	cvtsi2ssl 0x2065e7(%rip),%xmm2        # 612950 <radius>
  40c368:	00 
  40c369:	48 89 ef             	mov    %rbp,%rdi
  40c36c:	49 09 c6             	or     %rax,%r14
  40c36f:	f3 0f 10 0d 05 38 00 	movss  0x3805(%rip),%xmm1        # 40fb7c <_ZTVN6GetOpt13_DefValOptionIdNS_8_OptionTIdEEEE+0x3c>
  40c376:	00 
  40c377:	f3 0f 10 05 01 38 00 	movss  0x3801(%rip),%xmm0        # 40fb80 <_ZTVN6GetOpt13_DefValOptionIdNS_8_OptionTIdEEEE+0x40>
  40c37e:	00 
  40c37f:	e8 2c fb ff ff       	callq  40beb0 <_ZN10RelaxationIfLl10000EEC1Effllff>
  40c384:	ba 12 00 00 00       	mov    $0x12,%edx
  40c389:	be 50 f5 40 00       	mov    $0x40f550,%esi
  40c38e:	bf e0 24 61 00       	mov    $0x6124e0,%edi
  40c393:	e8 48 67 ff ff       	callq  402ae0 <_ZSt16__ostream_insertIcSt11char_traitsIcEERSt13basic_ostreamIT_T0_ES6_PKS3_l@plt>
  40c398:	48 8b 05 41 61 20 00 	mov    0x206141(%rip),%rax        # 6124e0 <_ZSt4cout@@GLIBCXX_3.4>
  40c39f:	48 8b 40 e8          	mov    -0x18(%rax),%rax
  40c3a3:	48 8b 98 d0 25 61 00 	mov    0x6125d0(%rax),%rbx
  40c3aa:	48 85 db             	test   %rbx,%rbx
  40c3ad:	0f 84 08 02 00 00    	je     40c5bb <_Z9benchmarkIfLl10000EEmi+0x3cb>
  40c3b3:	80 7b 38 00          	cmpb   $0x0,0x38(%rbx)
  40c3b7:	0f 84 de 01 00 00    	je     40c59b <_Z9benchmarkIfLl10000EEmi+0x3ab>
  40c3bd:	0f b6 43 43          	movzbl 0x43(%rbx),%eax
  40c3c1:	0f be f0             	movsbl %al,%esi
  40c3c4:	bf e0 24 61 00       	mov    $0x6124e0,%edi
  40c3c9:	e8 12 64 ff ff       	callq  4027e0 <_ZNSo3putEc@plt>
  40c3ce:	48 89 c7             	mov    %rax,%rdi
  40c3d1:	e8 9a 65 ff ff       	callq  402970 <_ZNSo5flushEv@plt>
  40c3d6:	8b 35 84 65 20 00    	mov    0x206584(%rip),%esi        # 612960 <steps>
  40c3dc:	bb 01 00 00 00       	mov    $0x1,%ebx
  40c3e1:	48 8b 7c 24 38       	mov    0x38(%rsp),%rdi
  40c3e6:	85 f6                	test   %esi,%esi
  40c3e8:	0f 8e 08 01 00 00    	jle    40c4f6 <_Z9benchmarkIfLl10000EEmi+0x306>
  40c3ee:	66 90                	xchg   %ax,%ax
  40c3f0:	ba 09 00 00 00       	mov    $0x9,%edx
  40c3f5:	be 63 f5 40 00       	mov    $0x40f563,%esi
  40c3fa:	bf e0 24 61 00       	mov    $0x6124e0,%edi
  40c3ff:	e8 dc 66 ff ff       	callq  402ae0 <_ZSt16__ostream_insertIcSt11char_traitsIcEERSt13basic_ostreamIT_T0_ES6_PKS3_l@plt>
  40c404:	48 8b 05 d5 60 20 00 	mov    0x2060d5(%rip),%rax        # 6124e0 <_ZSt4cout@@GLIBCXX_3.4>
  40c40b:	48 8b 40 e8          	mov    -0x18(%rax),%rax
  40c40f:	4c 8b b8 d0 25 61 00 	mov    0x6125d0(%rax),%r15
  40c416:	4d 85 ff             	test   %r15,%r15
  40c419:	0f 84 97 01 00 00    	je     40c5b6 <_Z9benchmarkIfLl10000EEmi+0x3c6>
  40c41f:	41 80 7f 38 00       	cmpb   $0x0,0x38(%r15)
  40c424:	0f 84 56 01 00 00    	je     40c580 <_Z9benchmarkIfLl10000EEmi+0x390>
  40c42a:	41 0f b6 47 43       	movzbl 0x43(%r15),%eax
  40c42f:	0f be f0             	movsbl %al,%esi
  40c432:	bf e0 24 61 00       	mov    $0x6124e0,%edi
  40c437:	e8 a4 63 ff ff       	callq  4027e0 <_ZNSo3putEc@plt>
  40c43c:	48 89 c7             	mov    %rax,%rdi
  40c43f:	e8 2c 65 ff ff       	callq  402970 <_ZNSo5flushEv@plt>
  40c444:	bf 00 84 d7 17       	mov    $0x17d78400,%edi
  40c449:	e8 12 66 ff ff       	callq  402a60 <_Znwm@plt>
  40c44e:	48 8b 4c 24 38       	mov    0x38(%rsp),%rcx
  40c453:	48 8d 50 10          	lea    0x10(%rax),%rdx
  40c457:	48 8d b1 c0 e7 d6 17 	lea    0x17d6e7c0(%rcx),%rsi
  40c45e:	48 39 f2             	cmp    %rsi,%rdx
  40c461:	0f 87 e1 00 00 00    	ja     40c548 <_Z9benchmarkIfLl10000EEmi+0x358>
  40c467:	31 d2                	xor    %edx,%edx
  40c469:	0f 1f 80 00 00 00 00 	nopl   0x0(%rax)
  40c470:	48 c7 84 11 c0 e7 d6 	movq   $0x0,0x17d6e7c0(%rcx,%rdx,1)
  40c477:	17 00 00 00 00 
  40c47c:	48 c7 84 11 c8 e7 d6 	movq   $0x0,0x17d6e7c8(%rcx,%rdx,1)
  40c483:	17 00 00 00 00 
  40c488:	48 c7 04 10 00 00 00 	movq   $0x0,(%rax,%rdx,1)
  40c48f:	00 
  40c490:	48 c7 44 10 08 00 00 	movq   $0x0,0x8(%rax,%rdx,1)
  40c497:	00 00 
  40c499:	48 83 c2 10          	add    $0x10,%rdx
  40c49d:	48 81 fa 40 9c 00 00 	cmp    $0x9c40,%rdx
  40c4a4:	75 ca                	jne    40c470 <_Z9benchmarkIfLl10000EEmi+0x280>
  40c4a6:	31 d2                	xor    %edx,%edx
  40c4a8:	48 89 e6             	mov    %rsp,%rsi
  40c4ab:	bf 40 9a 40 00       	mov    $0x409a40,%edi
  40c4b0:	48 89 44 24 08       	mov    %rax,0x8(%rsp)
  40c4b5:	48 89 2c 24          	mov    %rbp,(%rsp)
  40c4b9:	e8 42 64 ff ff       	callq  402900 <GOMP_parallel_start@plt>
  40c4be:	48 89 e7             	mov    %rsp,%rdi
  40c4c1:	e8 7a d5 ff ff       	callq  409a40 <_ZN10RelaxationIfLl10000EE7iterateEv._omp_fn.7>
  40c4c6:	e8 25 63 ff ff       	callq  4027f0 <GOMP_parallel_end@plt>
  40c4cb:	48 8b 7c 24 38       	mov    0x38(%rsp),%rdi
  40c4d0:	4c 8b 7c 24 08       	mov    0x8(%rsp),%r15
  40c4d5:	48 85 ff             	test   %rdi,%rdi
  40c4d8:	74 05                	je     40c4df <_Z9benchmarkIfLl10000EEmi+0x2ef>
  40c4da:	e8 81 66 ff ff       	callq  402b60 <_ZdaPv@plt>
  40c4df:	83 c3 01             	add    $0x1,%ebx
  40c4e2:	39 1d 78 64 20 00    	cmp    %ebx,0x206478(%rip)        # 612960 <steps>
  40c4e8:	4c 89 7c 24 38       	mov    %r15,0x38(%rsp)
  40c4ed:	0f 8d fd fe ff ff    	jge    40c3f0 <_Z9benchmarkIfLl10000EEmi+0x200>
  40c4f3:	4c 89 ff             	mov    %r15,%rdi
  40c4f6:	0f 31                	rdtsc  
  40c4f8:	48 c1 e2 20          	shl    $0x20,%rdx
  40c4fc:	89 c0                	mov    %eax,%eax
  40c4fe:	48 09 c2             	or     %rax,%rdx
  40c501:	4c 29 f2             	sub    %r14,%rdx
  40c504:	49 01 d4             	add    %rdx,%r12
  40c507:	48 85 ff             	test   %rdi,%rdi
  40c50a:	74 05                	je     40c511 <_Z9benchmarkIfLl10000EEmi+0x321>
  40c50c:	e8 4f 66 ff ff       	callq  402b60 <_ZdaPv@plt>
  40c511:	41 83 ed 01          	sub    $0x1,%r13d
  40c515:	0f 85 25 fe ff ff    	jne    40c340 <_Z9benchmarkIfLl10000EEmi+0x150>
  40c51b:	48 83 c4 48          	add    $0x48,%rsp
  40c51f:	4c 89 e0             	mov    %r12,%rax
  40c522:	48 ba cd cc cc cc cc 	movabs $0xcccccccccccccccd,%rdx
  40c529:	cc cc cc 
  40c52c:	5b                   	pop    %rbx
  40c52d:	48 f7 e2             	mul    %rdx
  40c530:	5d                   	pop    %rbp
  40c531:	41 5c                	pop    %r12
  40c533:	41 5d                	pop    %r13
  40c535:	48 c1 ea 03          	shr    $0x3,%rdx
  40c539:	41 5e                	pop    %r14
  40c53b:	48 89 d0             	mov    %rdx,%rax
  40c53e:	41 5f                	pop    %r15
  40c540:	c3                   	retq   
  40c541:	0f 1f 80 00 00 00 00 	nopl   0x0(%rax)
  40c548:	48 8d 91 d0 e7 d6 17 	lea    0x17d6e7d0(%rcx),%rdx
  40c54f:	48 39 d0             	cmp    %rdx,%rax
  40c552:	0f 83 0f ff ff ff    	jae    40c467 <_Z9benchmarkIfLl10000EEmi+0x277>
  40c558:	31 d2                	xor    %edx,%edx
  40c55a:	66 0f 1f 44 00 00    	nopw   0x0(%rax,%rax,1)
  40c560:	c7 04 96 00 00 00 00 	movl   $0x0,(%rsi,%rdx,4)
  40c567:	c7 04 90 00 00 00 00 	movl   $0x0,(%rax,%rdx,4)
  40c56e:	48 83 c2 01          	add    $0x1,%rdx
  40c572:	48 81 fa 10 27 00 00 	cmp    $0x2710,%rdx
  40c579:	75 e5                	jne    40c560 <_Z9benchmarkIfLl10000EEmi+0x370>
  40c57b:	e9 26 ff ff ff       	jmpq   40c4a6 <_Z9benchmarkIfLl10000EEmi+0x2b6>
  40c580:	4c 89 ff             	mov    %r15,%rdi
  40c583:	e8 68 65 ff ff       	callq  402af0 <_ZNKSt5ctypeIcE13_M_widen_initEv@plt>
  40c588:	49 8b 07             	mov    (%r15),%rax
  40c58b:	be 0a 00 00 00       	mov    $0xa,%esi
  40c590:	4c 89 ff             	mov    %r15,%rdi
  40c593:	ff 50 30             	callq  *0x30(%rax)
  40c596:	e9 94 fe ff ff       	jmpq   40c42f <_Z9benchmarkIfLl10000EEmi+0x23f>
  40c59b:	48 89 df             	mov    %rbx,%rdi
  40c59e:	e8 4d 65 ff ff       	callq  402af0 <_ZNKSt5ctypeIcE13_M_widen_initEv@plt>
  40c5a3:	48 8b 03             	mov    (%rbx),%rax
  40c5a6:	be 0a 00 00 00       	mov    $0xa,%esi
  40c5ab:	48 89 df             	mov    %rbx,%rdi
  40c5ae:	ff 50 30             	callq  *0x30(%rax)
  40c5b1:	e9 0b fe ff ff       	jmpq   40c3c1 <_Z9benchmarkIfLl10000EEmi+0x1d1>
  40c5b6:	e8 85 65 ff ff       	callq  402b40 <_ZSt16__throw_bad_castv@plt>
  40c5bb:	0f 1f 44 00 00       	nopl   0x0(%rax,%rax,1)
  40c5c0:	e8 7b 65 ff ff       	callq  402b40 <_ZSt16__throw_bad_castv@plt>
  40c5c5:	48 8b 7c 24 38       	mov    0x38(%rsp),%rdi
  40c5ca:	48 89 c3             	mov    %rax,%rbx
  40c5cd:	48 85 ff             	test   %rdi,%rdi
  40c5d0:	74 05                	je     40c5d7 <_Z9benchmarkIfLl10000EEmi+0x3e7>
  40c5d2:	e8 89 65 ff ff       	callq  402b60 <_ZdaPv@plt>
  40c5d7:	48 89 df             	mov    %rbx,%rdi
  40c5da:	e8 d1 66 ff ff       	callq  402cb0 <_Unwind_Resume@plt>
  40c5df:	48 83 fa ff          	cmp    $0xffffffffffffffff,%rdx
  40c5e3:	48 89 c7             	mov    %rax,%rdi
  40c5e6:	75 f2                	jne    40c5da <_Z9benchmarkIfLl10000EEmi+0x3ea>
  40c5e8:	e8 63 65 ff ff       	callq  402b50 <__cxa_call_unexpected@plt>
  40c5ed:	48 89 df             	mov    %rbx,%rdi
  40c5f0:	e8 fb 64 ff ff       	callq  402af0 <_ZNKSt5ctypeIcE13_M_widen_initEv@plt>
  40c5f5:	48 8b 03             	mov    (%rbx),%rax
  40c5f8:	be 0a 00 00 00       	mov    $0xa,%esi
  40c5fd:	48 89 df             	mov    %rbx,%rdi
  40c600:	ff 50 30             	callq  *0x30(%rax)
  40c603:	e9 17 fd ff ff       	jmpq   40c31f <_Z9benchmarkIfLl10000EEmi+0x12f>
  40c608:	e8 33 65 ff ff       	callq  402b40 <_ZSt16__throw_bad_castv@plt>
  40c60d:	48 89 df             	mov    %rbx,%rdi
  40c610:	e8 db 64 ff ff       	callq  402af0 <_ZNKSt5ctypeIcE13_M_widen_initEv@plt>
  40c615:	48 8b 03             	mov    (%rbx),%rax
  40c618:	be 0a 00 00 00       	mov    $0xa,%esi
  40c61d:	48 89 df             	mov    %rbx,%rdi
  40c620:	ff 50 30             	callq  *0x30(%rax)
  40c623:	e9 3e fc ff ff       	jmpq   40c266 <_Z9benchmarkIfLl10000EEmi+0x76>
  40c628:	90                   	nop
  40c629:	90                   	nop
  40c62a:	90                   	nop
  40c62b:	90                   	nop
  40c62c:	90                   	nop
  40c62d:	90                   	nop
  40c62e:	90                   	nop
  40c62f:	90                   	nop

000000000040c630 <_ZN10RelaxationIdLl100EEC1Eddlldd>:
  40c630:	f2 48 0f 2c c2       	cvttsd2si %xmm2,%rax
  40c635:	41 54                	push   %r12
  40c637:	49 89 f4             	mov    %rsi,%r12
  40c63a:	55                   	push   %rbp
  40c63b:	48 89 d5             	mov    %rdx,%rbp
  40c63e:	53                   	push   %rbx
  40c63f:	48 89 fb             	mov    %rdi,%rbx
  40c642:	48 83 ec 60          	sub    $0x60,%rsp
  40c646:	f2 0f 11 03          	movsd  %xmm0,(%rbx)
  40c64a:	f2 0f 11 4f 08       	movsd  %xmm1,0x8(%rdi)
  40c64f:	48 89 73 10          	mov    %rsi,0x10(%rbx)
  40c653:	48 89 53 18          	mov    %rdx,0x18(%rbx)
  40c657:	f2 0f 11 44 24 18    	movsd  %xmm0,0x18(%rsp)
  40c65d:	f2 0f 11 54 24 08    	movsd  %xmm2,0x8(%rsp)
  40c663:	f2 0f 11 5c 24 10    	movsd  %xmm3,0x10(%rsp)
  40c669:	48 89 47 20          	mov    %rax,0x20(%rdi)
  40c66d:	f2 48 0f 2c c3       	cvttsd2si %xmm3,%rax
  40c672:	48 89 47 28          	mov    %rax,0x28(%rdi)
  40c676:	bf 80 38 01 00       	mov    $0x13880,%edi
  40c67b:	e8 e0 63 ff ff       	callq  402a60 <_Znwm@plt>
  40c680:	f2 0f 10 05 10 35 00 	movsd  0x3510(%rip),%xmm0        # 40fb98 <_ZTVN6GetOpt13_DefValOptionIdNS_8_OptionTIdEEEE+0x58>
  40c687:	00 
  40c688:	49 89 c0             	mov    %rax,%r8
  40c68b:	48 89 43 30          	mov    %rax,0x30(%rbx)
  40c68f:	66 0f 2e 44 24 08    	ucomisd 0x8(%rsp),%xmm0
  40c695:	0f 87 cf 02 00 00    	ja     40c96a <_ZN10RelaxationIdLl100EEC1Eddlldd+0x33a>
  40c69b:	49 8d 44 24 ff       	lea    -0x1(%r12),%rax
  40c6a0:	48 83 f8 61          	cmp    $0x61,%rax
  40c6a4:	0f 87 6d 02 00 00    	ja     40c917 <_ZN10RelaxationIdLl100EEC1Eddlldd+0x2e7>
  40c6aa:	48 8d 45 ff          	lea    -0x1(%rbp),%rax
  40c6ae:	48 83 f8 61          	cmp    $0x61,%rax
  40c6b2:	0f 87 5f 02 00 00    	ja     40c917 <_ZN10RelaxationIdLl100EEC1Eddlldd+0x2e7>
  40c6b8:	f2 49 0f 2a c4       	cvtsi2sd %r12,%xmm0
  40c6bd:	f2 0f 10 64 24 08    	movsd  0x8(%rsp),%xmm4
  40c6c3:	66 0f 57 d2          	xorpd  %xmm2,%xmm2
  40c6c7:	66 0f 28 c8          	movapd %xmm0,%xmm1
  40c6cb:	f2 0f 5c cc          	subsd  %xmm4,%xmm1
  40c6cf:	66 0f 2e d1          	ucomisd %xmm1,%xmm2
  40c6d3:	0f 87 35 03 00 00    	ja     40ca0e <_ZN10RelaxationIdLl100EEC1Eddlldd+0x3de>
  40c6d9:	f2 0f 58 c4          	addsd  %xmm4,%xmm0
  40c6dd:	66 0f 28 c8          	movapd %xmm0,%xmm1
  40c6e1:	f2 0f 10 05 b7 34 00 	movsd  0x34b7(%rip),%xmm0        # 40fba0 <_ZTVN6GetOpt13_DefValOptionIdNS_8_OptionTIdEEEE+0x60>
  40c6e8:	00 
  40c6e9:	66 0f 2e c8          	ucomisd %xmm0,%xmm1
  40c6ed:	0f 87 1b 03 00 00    	ja     40ca0e <_ZN10RelaxationIdLl100EEC1Eddlldd+0x3de>
  40c6f3:	f2 48 0f 2a cd       	cvtsi2sd %rbp,%xmm1
  40c6f8:	66 0f 28 d9          	movapd %xmm1,%xmm3
  40c6fc:	f2 0f 5c dc          	subsd  %xmm4,%xmm3
  40c700:	66 0f 2e d3          	ucomisd %xmm3,%xmm2
  40c704:	0f 87 04 03 00 00    	ja     40ca0e <_ZN10RelaxationIdLl100EEC1Eddlldd+0x3de>
  40c70a:	f2 0f 58 cc          	addsd  %xmm4,%xmm1
  40c70e:	66 0f 2e c8          	ucomisd %xmm0,%xmm1
  40c712:	0f 87 f6 02 00 00    	ja     40ca0e <_ZN10RelaxationIdLl100EEC1Eddlldd+0x3de>
  40c718:	f2 0f 10 74 24 10    	movsd  0x10(%rsp),%xmm6
  40c71e:	66 0f 2e 74 24 18    	ucomisd 0x18(%rsp),%xmm6
  40c724:	0f 87 9a 01 00 00    	ja     40c8c4 <_ZN10RelaxationIdLl100EEC1Eddlldd+0x294>
  40c72a:	49 8d b8 60 35 01 00 	lea    0x13560(%r8),%rdi
  40c731:	be 20 03 00 00       	mov    $0x320,%esi
  40c736:	40 f6 c7 01          	test   $0x1,%dil
  40c73a:	0f 85 d0 00 00 00    	jne    40c810 <_ZN10RelaxationIdLl100EEC1Eddlldd+0x1e0>
  40c740:	40 f6 c7 02          	test   $0x2,%dil
  40c744:	0f 85 e6 00 00 00    	jne    40c830 <_ZN10RelaxationIdLl100EEC1Eddlldd+0x200>
  40c74a:	40 f6 c7 04          	test   $0x4,%dil
  40c74e:	0f 85 fc 00 00 00    	jne    40c850 <_ZN10RelaxationIdLl100EEC1Eddlldd+0x220>
  40c754:	89 f1                	mov    %esi,%ecx
  40c756:	31 c0                	xor    %eax,%eax
  40c758:	c1 e9 03             	shr    $0x3,%ecx
  40c75b:	40 f6 c6 04          	test   $0x4,%sil
  40c75f:	f3 48 ab             	rep stos %rax,%es:(%rdi)
  40c762:	74 0a                	je     40c76e <_ZN10RelaxationIdLl100EEC1Eddlldd+0x13e>
  40c764:	c7 07 00 00 00 00    	movl   $0x0,(%rdi)
  40c76a:	48 83 c7 04          	add    $0x4,%rdi
  40c76e:	40 f6 c6 02          	test   $0x2,%sil
  40c772:	74 0c                	je     40c780 <_ZN10RelaxationIdLl100EEC1Eddlldd+0x150>
  40c774:	45 31 d2             	xor    %r10d,%r10d
  40c777:	48 83 c7 02          	add    $0x2,%rdi
  40c77b:	66 44 89 57 fe       	mov    %r10w,-0x2(%rdi)
  40c780:	83 e6 01             	and    $0x1,%esi
  40c783:	74 03                	je     40c788 <_ZN10RelaxationIdLl100EEC1Eddlldd+0x158>
  40c785:	c6 07 00             	movb   $0x0,(%rdi)
  40c788:	41 f6 c0 01          	test   $0x1,%r8b
  40c78c:	4c 89 c7             	mov    %r8,%rdi
  40c78f:	ba 20 03 00 00       	mov    $0x320,%edx
  40c794:	0f 85 ce 00 00 00    	jne    40c868 <_ZN10RelaxationIdLl100EEC1Eddlldd+0x238>
  40c79a:	40 f6 c7 02          	test   $0x2,%dil
  40c79e:	0f 85 dc 00 00 00    	jne    40c880 <_ZN10RelaxationIdLl100EEC1Eddlldd+0x250>
  40c7a4:	40 f6 c7 04          	test   $0x4,%dil
  40c7a8:	0f 85 f2 00 00 00    	jne    40c8a0 <_ZN10RelaxationIdLl100EEC1Eddlldd+0x270>
  40c7ae:	89 d1                	mov    %edx,%ecx
  40c7b0:	31 c0                	xor    %eax,%eax
  40c7b2:	c1 e9 03             	shr    $0x3,%ecx
  40c7b5:	f6 c2 04             	test   $0x4,%dl
  40c7b8:	f3 48 ab             	rep stos %rax,%es:(%rdi)
  40c7bb:	74 0a                	je     40c7c7 <_ZN10RelaxationIdLl100EEC1Eddlldd+0x197>
  40c7bd:	c7 07 00 00 00 00    	movl   $0x0,(%rdi)
  40c7c3:	48 83 c7 04          	add    $0x4,%rdi
  40c7c7:	f6 c2 02             	test   $0x2,%dl
  40c7ca:	74 0c                	je     40c7d8 <_ZN10RelaxationIdLl100EEC1Eddlldd+0x1a8>
  40c7cc:	45 31 c0             	xor    %r8d,%r8d
  40c7cf:	48 83 c7 02          	add    $0x2,%rdi
  40c7d3:	66 44 89 47 fe       	mov    %r8w,-0x2(%rdi)
  40c7d8:	83 e2 01             	and    $0x1,%edx
  40c7db:	74 03                	je     40c7e0 <_ZN10RelaxationIdLl100EEC1Eddlldd+0x1b0>
  40c7dd:	c6 07 00             	movb   $0x0,(%rdi)
  40c7e0:	48 8d 74 24 50       	lea    0x50(%rsp),%rsi
  40c7e5:	31 d2                	xor    %edx,%edx
  40c7e7:	bf 10 93 40 00       	mov    $0x409310,%edi
  40c7ec:	48 89 5c 24 50       	mov    %rbx,0x50(%rsp)
  40c7f1:	e8 0a 61 ff ff       	callq  402900 <GOMP_parallel_start@plt>
  40c7f6:	48 8d 7c 24 50       	lea    0x50(%rsp),%rdi
  40c7fb:	e8 10 cb ff ff       	callq  409310 <_ZN10RelaxationIdLl100EEC2Eddlldd._omp_fn.8>
  40c800:	e8 eb 5f ff ff       	callq  4027f0 <GOMP_parallel_end@plt>
  40c805:	48 83 c4 60          	add    $0x60,%rsp
  40c809:	5b                   	pop    %rbx
  40c80a:	5d                   	pop    %rbp
  40c80b:	41 5c                	pop    %r12
  40c80d:	c3                   	retq   
  40c80e:	66 90                	xchg   %ax,%ax
  40c810:	49 8d b8 61 35 01 00 	lea    0x13561(%r8),%rdi
  40c817:	41 c6 80 60 35 01 00 	movb   $0x0,0x13560(%r8)
  40c81e:	00 
  40c81f:	40 b6 1f             	mov    $0x1f,%sil
  40c822:	40 f6 c7 02          	test   $0x2,%dil
  40c826:	0f 84 1e ff ff ff    	je     40c74a <_ZN10RelaxationIdLl100EEC1Eddlldd+0x11a>
  40c82c:	0f 1f 40 00          	nopl   0x0(%rax)
  40c830:	45 31 db             	xor    %r11d,%r11d
  40c833:	48 83 c7 02          	add    $0x2,%rdi
  40c837:	83 ee 02             	sub    $0x2,%esi
  40c83a:	66 44 89 5f fe       	mov    %r11w,-0x2(%rdi)
  40c83f:	40 f6 c7 04          	test   $0x4,%dil
  40c843:	0f 84 0b ff ff ff    	je     40c754 <_ZN10RelaxationIdLl100EEC1Eddlldd+0x124>
  40c849:	0f 1f 80 00 00 00 00 	nopl   0x0(%rax)
  40c850:	c7 07 00 00 00 00    	movl   $0x0,(%rdi)
  40c856:	83 ee 04             	sub    $0x4,%esi
  40c859:	48 83 c7 04          	add    $0x4,%rdi
  40c85d:	e9 f2 fe ff ff       	jmpq   40c754 <_ZN10RelaxationIdLl100EEC1Eddlldd+0x124>
  40c862:	66 0f 1f 44 00 00    	nopw   0x0(%rax,%rax,1)
  40c868:	48 83 c7 01          	add    $0x1,%rdi
  40c86c:	41 c6 00 00          	movb   $0x0,(%r8)
  40c870:	b2 1f                	mov    $0x1f,%dl
  40c872:	40 f6 c7 02          	test   $0x2,%dil
  40c876:	0f 84 28 ff ff ff    	je     40c7a4 <_ZN10RelaxationIdLl100EEC1Eddlldd+0x174>
  40c87c:	0f 1f 40 00          	nopl   0x0(%rax)
  40c880:	45 31 c9             	xor    %r9d,%r9d
  40c883:	48 83 c7 02          	add    $0x2,%rdi
  40c887:	83 ea 02             	sub    $0x2,%edx
  40c88a:	66 44 89 4f fe       	mov    %r9w,-0x2(%rdi)
  40c88f:	40 f6 c7 04          	test   $0x4,%dil
  40c893:	0f 84 15 ff ff ff    	je     40c7ae <_ZN10RelaxationIdLl100EEC1Eddlldd+0x17e>
  40c899:	0f 1f 80 00 00 00 00 	nopl   0x0(%rax)
  40c8a0:	c7 07 00 00 00 00    	movl   $0x0,(%rdi)
  40c8a6:	83 ea 04             	sub    $0x4,%edx
  40c8a9:	48 83 c7 04          	add    $0x4,%rdi
  40c8ad:	e9 fc fe ff ff       	jmpq   40c7ae <_ZN10RelaxationIdLl100EEC1Eddlldd+0x17e>
  40c8b2:	48 89 c7             	mov    %rax,%rdi
  40c8b5:	48 83 fa ff          	cmp    $0xffffffffffffffff,%rdx
  40c8b9:	0f 84 a2 01 00 00    	je     40ca61 <_ZN10RelaxationIdLl100EEC1Eddlldd+0x431>
  40c8bf:	e8 ec 63 ff ff       	callq  402cb0 <_Unwind_Resume@plt>
  40c8c4:	bf 10 00 00 00       	mov    $0x10,%edi
  40c8c9:	e8 02 60 ff ff       	callq  4028d0 <__cxa_allocate_exception@plt>
  40c8ce:	48 8d 54 24 30       	lea    0x30(%rsp),%rdx
  40c8d3:	48 8d 7c 24 50       	lea    0x50(%rsp),%rdi
  40c8d8:	be f8 f6 40 00       	mov    $0x40f6f8,%esi
  40c8dd:	48 89 c3             	mov    %rax,%rbx
  40c8e0:	e8 eb 61 ff ff       	callq  402ad0 <_ZNSsC1EPKcRKSaIcE@plt>
  40c8e5:	48 8d 74 24 50       	lea    0x50(%rsp),%rsi
  40c8ea:	48 89 df             	mov    %rbx,%rdi
  40c8ed:	e8 0e 61 ff ff       	callq  402a00 <_ZNSt11logic_errorC1ERKSs@plt>
  40c8f2:	48 8b 44 24 50       	mov    0x50(%rsp),%rax
  40c8f7:	48 8d 74 24 40       	lea    0x40(%rsp),%rsi
  40c8fc:	48 8d 78 e8          	lea    -0x18(%rax),%rdi
  40c900:	e8 3b 60 ff ff       	callq  402940 <_ZNSs4_Rep10_M_disposeERKSaIcE@plt>
  40c905:	ba 10 2b 40 00       	mov    $0x402b10,%edx
  40c90a:	be b0 27 61 00       	mov    $0x6127b0,%esi
  40c90f:	48 89 df             	mov    %rbx,%rdi
  40c912:	e8 79 63 ff ff       	callq  402c90 <__cxa_throw@plt>
  40c917:	bf 10 00 00 00       	mov    $0x10,%edi
  40c91c:	e8 af 5f ff ff       	callq  4028d0 <__cxa_allocate_exception@plt>
  40c921:	48 8d 54 24 40       	lea    0x40(%rsp),%rdx
  40c926:	48 8d 7c 24 30       	lea    0x30(%rsp),%rdi
  40c92b:	be 30 f6 40 00       	mov    $0x40f630,%esi
  40c930:	48 89 c3             	mov    %rax,%rbx
  40c933:	e8 98 61 ff ff       	callq  402ad0 <_ZNSsC1EPKcRKSaIcE@plt>
  40c938:	48 8d 74 24 30       	lea    0x30(%rsp),%rsi
  40c93d:	48 89 df             	mov    %rbx,%rdi
  40c940:	e8 bb 60 ff ff       	callq  402a00 <_ZNSt11logic_errorC1ERKSs@plt>
  40c945:	48 8b 44 24 30       	mov    0x30(%rsp),%rax
  40c94a:	48 8d 74 24 50       	lea    0x50(%rsp),%rsi
  40c94f:	48 8d 78 e8          	lea    -0x18(%rax),%rdi
  40c953:	e8 e8 5f ff ff       	callq  402940 <_ZNSs4_Rep10_M_disposeERKSaIcE@plt>
  40c958:	ba 10 2b 40 00       	mov    $0x402b10,%edx
  40c95d:	be b0 27 61 00       	mov    $0x6127b0,%esi
  40c962:	48 89 df             	mov    %rbx,%rdi
  40c965:	e8 26 63 ff ff       	callq  402c90 <__cxa_throw@plt>
  40c96a:	bf 10 00 00 00       	mov    $0x10,%edi
  40c96f:	e8 5c 5f ff ff       	callq  4028d0 <__cxa_allocate_exception@plt>
  40c974:	48 8d 54 24 40       	lea    0x40(%rsp),%rdx
  40c979:	48 8d 7c 24 20       	lea    0x20(%rsp),%rdi
  40c97e:	be 08 f6 40 00       	mov    $0x40f608,%esi
  40c983:	48 89 c3             	mov    %rax,%rbx
  40c986:	e8 45 61 ff ff       	callq  402ad0 <_ZNSsC1EPKcRKSaIcE@plt>
  40c98b:	48 8d 74 24 20       	lea    0x20(%rsp),%rsi
  40c990:	48 89 df             	mov    %rbx,%rdi
  40c993:	e8 68 60 ff ff       	callq  402a00 <_ZNSt11logic_errorC1ERKSs@plt>
  40c998:	48 8b 44 24 20       	mov    0x20(%rsp),%rax
  40c99d:	48 8d 74 24 50       	lea    0x50(%rsp),%rsi
  40c9a2:	48 8d 78 e8          	lea    -0x18(%rax),%rdi
  40c9a6:	e8 95 5f ff ff       	callq  402940 <_ZNSs4_Rep10_M_disposeERKSaIcE@plt>
  40c9ab:	ba 10 2b 40 00       	mov    $0x402b10,%edx
  40c9b0:	be b0 27 61 00       	mov    $0x6127b0,%esi
  40c9b5:	48 89 df             	mov    %rbx,%rdi
  40c9b8:	e8 d3 62 ff ff       	callq  402c90 <__cxa_throw@plt>
  40c9bd:	48 89 c5             	mov    %rax,%rbp
  40c9c0:	48 8b 44 24 30       	mov    0x30(%rsp),%rax
  40c9c5:	48 8d 74 24 50       	lea    0x50(%rsp),%rsi
  40c9ca:	49 89 d4             	mov    %rdx,%r12
  40c9cd:	48 8d 78 e8          	lea    -0x18(%rax),%rdi
  40c9d1:	e8 6a 5f ff ff       	callq  402940 <_ZNSs4_Rep10_M_disposeERKSaIcE@plt>
  40c9d6:	48 89 df             	mov    %rbx,%rdi
  40c9d9:	e8 b2 5f ff ff       	callq  402990 <__cxa_free_exception@plt>
  40c9de:	48 89 ef             	mov    %rbp,%rdi
  40c9e1:	4c 89 e2             	mov    %r12,%rdx
  40c9e4:	e9 cc fe ff ff       	jmpq   40c8b5 <_ZN10RelaxationIdLl100EEC1Eddlldd+0x285>
  40c9e9:	48 89 c5             	mov    %rax,%rbp
  40c9ec:	49 89 d4             	mov    %rdx,%r12
  40c9ef:	eb e5                	jmp    40c9d6 <_ZN10RelaxationIdLl100EEC1Eddlldd+0x3a6>
  40c9f1:	48 89 c5             	mov    %rax,%rbp
  40c9f4:	48 8b 44 24 20       	mov    0x20(%rsp),%rax
  40c9f9:	48 8d 74 24 50       	lea    0x50(%rsp),%rsi
  40c9fe:	49 89 d4             	mov    %rdx,%r12
  40ca01:	48 8d 78 e8          	lea    -0x18(%rax),%rdi
  40ca05:	e8 36 5f ff ff       	callq  402940 <_ZNSs4_Rep10_M_disposeERKSaIcE@plt>
  40ca0a:	eb ca                	jmp    40c9d6 <_ZN10RelaxationIdLl100EEC1Eddlldd+0x3a6>
  40ca0c:	eb db                	jmp    40c9e9 <_ZN10RelaxationIdLl100EEC1Eddlldd+0x3b9>
  40ca0e:	bf 10 00 00 00       	mov    $0x10,%edi
  40ca13:	e8 b8 5e ff ff       	callq  4028d0 <__cxa_allocate_exception@plt>
  40ca18:	48 8d 54 24 30       	lea    0x30(%rsp),%rdx
  40ca1d:	48 8d 7c 24 40       	lea    0x40(%rsp),%rdi
  40ca22:	be 90 f6 40 00       	mov    $0x40f690,%esi
  40ca27:	48 89 c3             	mov    %rax,%rbx
  40ca2a:	e8 a1 60 ff ff       	callq  402ad0 <_ZNSsC1EPKcRKSaIcE@plt>
  40ca2f:	48 8d 74 24 40       	lea    0x40(%rsp),%rsi
  40ca34:	48 89 df             	mov    %rbx,%rdi
  40ca37:	e8 c4 5f ff ff       	callq  402a00 <_ZNSt11logic_errorC1ERKSs@plt>
  40ca3c:	48 8b 44 24 40       	mov    0x40(%rsp),%rax
  40ca41:	48 8d 74 24 50       	lea    0x50(%rsp),%rsi
  40ca46:	48 8d 78 e8          	lea    -0x18(%rax),%rdi
  40ca4a:	e8 f1 5e ff ff       	callq  402940 <_ZNSs4_Rep10_M_disposeERKSaIcE@plt>
  40ca4f:	ba 10 2b 40 00       	mov    $0x402b10,%edx
  40ca54:	be b0 27 61 00       	mov    $0x6127b0,%esi
  40ca59:	48 89 df             	mov    %rbx,%rdi
  40ca5c:	e8 2f 62 ff ff       	callq  402c90 <__cxa_throw@plt>
  40ca61:	e8 ea 60 ff ff       	callq  402b50 <__cxa_call_unexpected@plt>
  40ca66:	48 89 c5             	mov    %rax,%rbp
  40ca69:	48 8b 44 24 40       	mov    0x40(%rsp),%rax
  40ca6e:	48 8d 74 24 50       	lea    0x50(%rsp),%rsi
  40ca73:	49 89 d4             	mov    %rdx,%r12
  40ca76:	48 8d 78 e8          	lea    -0x18(%rax),%rdi
  40ca7a:	e8 c1 5e ff ff       	callq  402940 <_ZNSs4_Rep10_M_disposeERKSaIcE@plt>
  40ca7f:	e9 52 ff ff ff       	jmpq   40c9d6 <_ZN10RelaxationIdLl100EEC1Eddlldd+0x3a6>
  40ca84:	e9 60 ff ff ff       	jmpq   40c9e9 <_ZN10RelaxationIdLl100EEC1Eddlldd+0x3b9>
  40ca89:	48 89 c5             	mov    %rax,%rbp
  40ca8c:	48 8b 44 24 50       	mov    0x50(%rsp),%rax
  40ca91:	48 8d 74 24 40       	lea    0x40(%rsp),%rsi
  40ca96:	49 89 d4             	mov    %rdx,%r12
  40ca99:	48 8d 78 e8          	lea    -0x18(%rax),%rdi
  40ca9d:	e8 9e 5e ff ff       	callq  402940 <_ZNSs4_Rep10_M_disposeERKSaIcE@plt>
  40caa2:	e9 2f ff ff ff       	jmpq   40c9d6 <_ZN10RelaxationIdLl100EEC1Eddlldd+0x3a6>
  40caa7:	e9 3d ff ff ff       	jmpq   40c9e9 <_ZN10RelaxationIdLl100EEC1Eddlldd+0x3b9>
  40caac:	90                   	nop
  40caad:	90                   	nop
  40caae:	90                   	nop
  40caaf:	90                   	nop

000000000040cab0 <_Z9benchmarkIdLl100EEmi>:
  40cab0:	41 57                	push   %r15
  40cab2:	41 56                	push   %r14
  40cab4:	41 55                	push   %r13
  40cab6:	41 54                	push   %r12
  40cab8:	55                   	push   %rbp
  40cab9:	53                   	push   %rbx
  40caba:	48 83 ec 58          	sub    $0x58,%rsp
  40cabe:	e8 fd 5f ff ff       	callq  402ac0 <omp_set_num_threads@plt>
  40cac3:	e8 98 61 ff ff       	callq  402c60 <omp_get_max_threads@plt>
  40cac8:	ba 12 00 00 00       	mov    $0x12,%edx
  40cacd:	89 c3                	mov    %eax,%ebx
  40cacf:	be 0c f5 40 00       	mov    $0x40f50c,%esi
  40cad4:	bf e0 24 61 00       	mov    $0x6124e0,%edi
  40cad9:	e8 02 60 ff ff       	callq  402ae0 <_ZSt16__ostream_insertIcSt11char_traitsIcEERSt13basic_ostreamIT_T0_ES6_PKS3_l@plt>
  40cade:	89 de                	mov    %ebx,%esi
  40cae0:	bf e0 24 61 00       	mov    $0x6124e0,%edi
  40cae5:	e8 b6 61 ff ff       	callq  402ca0 <_ZNSolsEi@plt>
  40caea:	ba 09 00 00 00       	mov    $0x9,%edx
  40caef:	48 89 c5             	mov    %rax,%rbp
  40caf2:	be 1f f5 40 00       	mov    $0x40f51f,%esi
  40caf7:	48 89 c7             	mov    %rax,%rdi
  40cafa:	e8 e1 5f ff ff       	callq  402ae0 <_ZSt16__ostream_insertIcSt11char_traitsIcEERSt13basic_ostreamIT_T0_ES6_PKS3_l@plt>
  40caff:	48 8b 45 00          	mov    0x0(%rbp),%rax
  40cb03:	48 8b 40 e8          	mov    -0x18(%rax),%rax
  40cb07:	48 8b 9c 05 f0 00 00 	mov    0xf0(%rbp,%rax,1),%rbx
  40cb0e:	00 
  40cb0f:	48 85 db             	test   %rbx,%rbx
  40cb12:	0f 84 40 03 00 00    	je     40ce58 <_Z9benchmarkIdLl100EEmi+0x3a8>
  40cb18:	80 7b 38 00          	cmpb   $0x0,0x38(%rbx)
  40cb1c:	0f 84 1a 03 00 00    	je     40ce3c <_Z9benchmarkIdLl100EEmi+0x38c>
  40cb22:	0f b6 43 43          	movzbl 0x43(%rbx),%eax
  40cb26:	0f be f0             	movsbl %al,%esi
  40cb29:	48 89 ef             	mov    %rbp,%rdi
  40cb2c:	e8 af 5c ff ff       	callq  4027e0 <_ZNSo3putEc@plt>
  40cb31:	48 89 c7             	mov    %rax,%rdi
  40cb34:	e8 37 5e ff ff       	callq  402970 <_ZNSo5flushEv@plt>
  40cb39:	8b 2d 21 5e 20 00    	mov    0x205e21(%rip),%ebp        # 612960 <steps>
  40cb3f:	ba 0f 00 00 00       	mov    $0xf,%edx
  40cb44:	be 29 f5 40 00       	mov    $0x40f529,%esi
  40cb49:	bf e0 24 61 00       	mov    $0x6124e0,%edi
  40cb4e:	e8 8d 5f ff ff       	callq  402ae0 <_ZSt16__ostream_insertIcSt11char_traitsIcEERSt13basic_ostreamIT_T0_ES6_PKS3_l@plt>
  40cb53:	be 64 00 00 00       	mov    $0x64,%esi
  40cb58:	bf e0 24 61 00       	mov    $0x6124e0,%edi
  40cb5d:	e8 de 5e ff ff       	callq  402a40 <_ZNSo9_M_insertIlEERSoT_@plt>
  40cb62:	ba 06 00 00 00       	mov    $0x6,%edx
  40cb67:	48 89 c3             	mov    %rax,%rbx
  40cb6a:	be 18 f5 40 00       	mov    $0x40f518,%esi
  40cb6f:	48 89 c7             	mov    %rax,%rdi
  40cb72:	e8 69 5f ff ff       	callq  402ae0 <_ZSt16__ostream_insertIcSt11char_traitsIcEERSt13basic_ostreamIT_T0_ES6_PKS3_l@plt>
  40cb77:	89 ee                	mov    %ebp,%esi
  40cb79:	48 89 df             	mov    %rbx,%rdi
  40cb7c:	e8 1f 61 ff ff       	callq  402ca0 <_ZNSolsEi@plt>
  40cb81:	ba 0f 00 00 00       	mov    $0xf,%edx
  40cb86:	48 89 c3             	mov    %rax,%rbx
  40cb89:	be 39 f5 40 00       	mov    $0x40f539,%esi
  40cb8e:	48 89 c7             	mov    %rax,%rdi
  40cb91:	e8 4a 5f ff ff       	callq  402ae0 <_ZSt16__ostream_insertIcSt11char_traitsIcEERSt13basic_ostreamIT_T0_ES6_PKS3_l@plt>
  40cb96:	48 89 df             	mov    %rbx,%rdi
  40cb99:	be 0a 00 00 00       	mov    $0xa,%esi
  40cb9e:	e8 fd 60 ff ff       	callq  402ca0 <_ZNSolsEi@plt>
  40cba3:	ba 06 00 00 00       	mov    $0x6,%edx
  40cba8:	48 89 c5             	mov    %rax,%rbp
  40cbab:	be 49 f5 40 00       	mov    $0x40f549,%esi
  40cbb0:	48 89 c7             	mov    %rax,%rdi
  40cbb3:	e8 28 5f ff ff       	callq  402ae0 <_ZSt16__ostream_insertIcSt11char_traitsIcEERSt13basic_ostreamIT_T0_ES6_PKS3_l@plt>
  40cbb8:	48 8b 45 00          	mov    0x0(%rbp),%rax
  40cbbc:	48 8b 40 e8          	mov    -0x18(%rax),%rax
  40cbc0:	48 8b 9c 05 f0 00 00 	mov    0xf0(%rbp,%rax,1),%rbx
  40cbc7:	00 
  40cbc8:	48 85 db             	test   %rbx,%rbx
  40cbcb:	0f 84 87 02 00 00    	je     40ce58 <_Z9benchmarkIdLl100EEmi+0x3a8>
  40cbd1:	80 7b 38 00          	cmpb   $0x0,0x38(%rbx)
  40cbd5:	0f 84 41 02 00 00    	je     40ce1c <_Z9benchmarkIdLl100EEmi+0x36c>
  40cbdb:	0f b6 43 43          	movzbl 0x43(%rbx),%eax
  40cbdf:	48 89 ef             	mov    %rbp,%rdi
  40cbe2:	0f be f0             	movsbl %al,%esi
  40cbe5:	48 8d 6c 24 10       	lea    0x10(%rsp),%rbp
  40cbea:	e8 f1 5b ff ff       	callq  4027e0 <_ZNSo3putEc@plt>
  40cbef:	41 bd 0a 00 00 00    	mov    $0xa,%r13d
  40cbf5:	48 89 c7             	mov    %rax,%rdi
  40cbf8:	45 31 e4             	xor    %r12d,%r12d
  40cbfb:	e8 70 5d ff ff       	callq  402970 <_ZNSo5flushEv@plt>
  40cc00:	0f 31                	rdtsc  
  40cc02:	f2 0f 10 1d 3e 5d 20 	movsd  0x205d3e(%rip),%xmm3        # 612948 <heat>
  40cc09:	00 
  40cc0a:	49 89 d6             	mov    %rdx,%r14
  40cc0d:	f2 0f 2a 15 3b 5d 20 	cvtsi2sdl 0x205d3b(%rip),%xmm2        # 612950 <radius>
  40cc14:	00 
  40cc15:	f2 0f 10 0d 8b 2f 00 	movsd  0x2f8b(%rip),%xmm1        # 40fba8 <_ZTVN6GetOpt13_DefValOptionIdNS_8_OptionTIdEEEE+0x68>
  40cc1c:	00 
  40cc1d:	49 c1 e6 20          	shl    $0x20,%r14
  40cc21:	f2 0f 10 05 87 2f 00 	movsd  0x2f87(%rip),%xmm0        # 40fbb0 <_ZTVN6GetOpt13_DefValOptionIdNS_8_OptionTIdEEEE+0x70>
  40cc28:	00 
  40cc29:	89 c0                	mov    %eax,%eax
  40cc2b:	ba 32 00 00 00       	mov    $0x32,%edx
  40cc30:	be 32 00 00 00       	mov    $0x32,%esi
  40cc35:	48 89 ef             	mov    %rbp,%rdi
  40cc38:	49 09 c6             	or     %rax,%r14
  40cc3b:	e8 f0 f9 ff ff       	callq  40c630 <_ZN10RelaxationIdLl100EEC1Eddlldd>
  40cc40:	ba 12 00 00 00       	mov    $0x12,%edx
  40cc45:	be 50 f5 40 00       	mov    $0x40f550,%esi
  40cc4a:	bf e0 24 61 00       	mov    $0x6124e0,%edi
  40cc4f:	e8 8c 5e ff ff       	callq  402ae0 <_ZSt16__ostream_insertIcSt11char_traitsIcEERSt13basic_ostreamIT_T0_ES6_PKS3_l@plt>
  40cc54:	48 8b 05 85 58 20 00 	mov    0x205885(%rip),%rax        # 6124e0 <_ZSt4cout@@GLIBCXX_3.4>
  40cc5b:	48 8b 40 e8          	mov    -0x18(%rax),%rax
  40cc5f:	48 8b 98 d0 25 61 00 	mov    0x6125d0(%rax),%rbx
  40cc66:	48 85 db             	test   %rbx,%rbx
  40cc69:	0f 84 ee 01 00 00    	je     40ce5d <_Z9benchmarkIdLl100EEmi+0x3ad>
  40cc6f:	80 7b 38 00          	cmpb   $0x0,0x38(%rbx)
  40cc73:	0f 84 7a 01 00 00    	je     40cdf3 <_Z9benchmarkIdLl100EEmi+0x343>
  40cc79:	0f b6 43 43          	movzbl 0x43(%rbx),%eax
  40cc7d:	0f be f0             	movsbl %al,%esi
  40cc80:	bf e0 24 61 00       	mov    $0x6124e0,%edi
  40cc85:	e8 56 5b ff ff       	callq  4027e0 <_ZNSo3putEc@plt>
  40cc8a:	48 89 c7             	mov    %rax,%rdi
  40cc8d:	e8 de 5c ff ff       	callq  402970 <_ZNSo5flushEv@plt>
  40cc92:	44 8b 3d c7 5c 20 00 	mov    0x205cc7(%rip),%r15d        # 612960 <steps>
  40cc99:	bb 01 00 00 00       	mov    $0x1,%ebx
  40cc9e:	48 8b 7c 24 40       	mov    0x40(%rsp),%rdi
  40cca3:	45 85 ff             	test   %r15d,%r15d
  40cca6:	0f 8e de 00 00 00    	jle    40cd8a <_Z9benchmarkIdLl100EEmi+0x2da>
  40ccac:	0f 1f 40 00          	nopl   0x0(%rax)
  40ccb0:	ba 09 00 00 00       	mov    $0x9,%edx
  40ccb5:	be 63 f5 40 00       	mov    $0x40f563,%esi
  40ccba:	bf e0 24 61 00       	mov    $0x6124e0,%edi
  40ccbf:	e8 1c 5e ff ff       	callq  402ae0 <_ZSt16__ostream_insertIcSt11char_traitsIcEERSt13basic_ostreamIT_T0_ES6_PKS3_l@plt>
  40ccc4:	48 8b 05 15 58 20 00 	mov    0x205815(%rip),%rax        # 6124e0 <_ZSt4cout@@GLIBCXX_3.4>
  40cccb:	48 8b 40 e8          	mov    -0x18(%rax),%rax
  40cccf:	4c 8b b8 d0 25 61 00 	mov    0x6125d0(%rax),%r15
  40ccd6:	4d 85 ff             	test   %r15,%r15
  40ccd9:	0f 84 9d 01 00 00    	je     40ce7c <_Z9benchmarkIdLl100EEmi+0x3cc>
  40ccdf:	41 80 7f 38 00       	cmpb   $0x0,0x38(%r15)
  40cce4:	0f 84 ee 00 00 00    	je     40cdd8 <_Z9benchmarkIdLl100EEmi+0x328>
  40ccea:	41 0f b6 47 43       	movzbl 0x43(%r15),%eax
  40ccef:	0f be f0             	movsbl %al,%esi
  40ccf2:	bf e0 24 61 00       	mov    $0x6124e0,%edi
  40ccf7:	e8 e4 5a ff ff       	callq  4027e0 <_ZNSo3putEc@plt>
  40ccfc:	48 89 c7             	mov    %rax,%rdi
  40ccff:	e8 6c 5c ff ff       	callq  402970 <_ZNSo5flushEv@plt>
  40cd04:	bf 80 38 01 00       	mov    $0x13880,%edi
  40cd09:	e8 52 5d ff ff       	callq  402a60 <_Znwm@plt>
  40cd0e:	48 8b 4c 24 40       	mov    0x40(%rsp),%rcx
  40cd13:	31 d2                	xor    %edx,%edx
  40cd15:	48 81 c1 60 35 01 00 	add    $0x13560,%rcx
  40cd1c:	0f 1f 40 00          	nopl   0x0(%rax)
  40cd20:	48 c7 04 d1 00 00 00 	movq   $0x0,(%rcx,%rdx,8)
  40cd27:	00 
  40cd28:	48 c7 04 d0 00 00 00 	movq   $0x0,(%rax,%rdx,8)
  40cd2f:	00 
  40cd30:	48 83 c2 01          	add    $0x1,%rdx
  40cd34:	48 83 fa 64          	cmp    $0x64,%rdx
  40cd38:	75 e6                	jne    40cd20 <_Z9benchmarkIdLl100EEmi+0x270>
  40cd3a:	30 d2                	xor    %dl,%dl
  40cd3c:	48 89 e6             	mov    %rsp,%rsi
  40cd3f:	bf 60 89 40 00       	mov    $0x408960,%edi
  40cd44:	48 89 44 24 08       	mov    %rax,0x8(%rsp)
  40cd49:	48 89 2c 24          	mov    %rbp,(%rsp)
  40cd4d:	e8 ae 5b ff ff       	callq  402900 <GOMP_parallel_start@plt>
  40cd52:	48 89 e7             	mov    %rsp,%rdi
  40cd55:	e8 06 bc ff ff       	callq  408960 <_ZN10RelaxationIdLl100EE7iterateEv._omp_fn.9>
  40cd5a:	e8 91 5a ff ff       	callq  4027f0 <GOMP_parallel_end@plt>
  40cd5f:	48 8b 7c 24 40       	mov    0x40(%rsp),%rdi
  40cd64:	4c 8b 7c 24 08       	mov    0x8(%rsp),%r15
  40cd69:	48 85 ff             	test   %rdi,%rdi
  40cd6c:	74 05                	je     40cd73 <_Z9benchmarkIdLl100EEmi+0x2c3>
  40cd6e:	e8 ed 5d ff ff       	callq  402b60 <_ZdaPv@plt>
  40cd73:	83 c3 01             	add    $0x1,%ebx
  40cd76:	39 1d e4 5b 20 00    	cmp    %ebx,0x205be4(%rip)        # 612960 <steps>
  40cd7c:	4c 89 7c 24 40       	mov    %r15,0x40(%rsp)
  40cd81:	0f 8d 29 ff ff ff    	jge    40ccb0 <_Z9benchmarkIdLl100EEmi+0x200>
  40cd87:	4c 89 ff             	mov    %r15,%rdi
  40cd8a:	0f 31                	rdtsc  
  40cd8c:	48 c1 e2 20          	shl    $0x20,%rdx
  40cd90:	89 c0                	mov    %eax,%eax
  40cd92:	48 09 c2             	or     %rax,%rdx
  40cd95:	4c 29 f2             	sub    %r14,%rdx
  40cd98:	49 01 d4             	add    %rdx,%r12
  40cd9b:	48 85 ff             	test   %rdi,%rdi
  40cd9e:	74 05                	je     40cda5 <_Z9benchmarkIdLl100EEmi+0x2f5>
  40cda0:	e8 bb 5d ff ff       	callq  402b60 <_ZdaPv@plt>
  40cda5:	41 83 ed 01          	sub    $0x1,%r13d
  40cda9:	0f 85 51 fe ff ff    	jne    40cc00 <_Z9benchmarkIdLl100EEmi+0x150>
  40cdaf:	48 83 c4 58          	add    $0x58,%rsp
  40cdb3:	4c 89 e0             	mov    %r12,%rax
  40cdb6:	48 ba cd cc cc cc cc 	movabs $0xcccccccccccccccd,%rdx
  40cdbd:	cc cc cc 
  40cdc0:	5b                   	pop    %rbx
  40cdc1:	48 f7 e2             	mul    %rdx
  40cdc4:	5d                   	pop    %rbp
  40cdc5:	41 5c                	pop    %r12
  40cdc7:	41 5d                	pop    %r13
  40cdc9:	48 c1 ea 03          	shr    $0x3,%rdx
  40cdcd:	41 5e                	pop    %r14
  40cdcf:	48 89 d0             	mov    %rdx,%rax
  40cdd2:	41 5f                	pop    %r15
  40cdd4:	c3                   	retq   
  40cdd5:	0f 1f 00             	nopl   (%rax)
  40cdd8:	4c 89 ff             	mov    %r15,%rdi
  40cddb:	e8 10 5d ff ff       	callq  402af0 <_ZNKSt5ctypeIcE13_M_widen_initEv@plt>
  40cde0:	49 8b 07             	mov    (%r15),%rax
  40cde3:	be 0a 00 00 00       	mov    $0xa,%esi
  40cde8:	4c 89 ff             	mov    %r15,%rdi
  40cdeb:	ff 50 30             	callq  *0x30(%rax)
  40cdee:	e9 fc fe ff ff       	jmpq   40ccef <_Z9benchmarkIdLl100EEmi+0x23f>
  40cdf3:	48 89 df             	mov    %rbx,%rdi
  40cdf6:	e8 f5 5c ff ff       	callq  402af0 <_ZNKSt5ctypeIcE13_M_widen_initEv@plt>
  40cdfb:	48 8b 03             	mov    (%rbx),%rax
  40cdfe:	be 0a 00 00 00       	mov    $0xa,%esi
  40ce03:	48 89 df             	mov    %rbx,%rdi
  40ce06:	ff 50 30             	callq  *0x30(%rax)
  40ce09:	e9 6f fe ff ff       	jmpq   40cc7d <_Z9benchmarkIdLl100EEmi+0x1cd>
  40ce0e:	48 83 fa ff          	cmp    $0xffffffffffffffff,%rdx
  40ce12:	48 89 c7             	mov    %rax,%rdi
  40ce15:	74 20                	je     40ce37 <_Z9benchmarkIdLl100EEmi+0x387>
  40ce17:	e8 94 5e ff ff       	callq  402cb0 <_Unwind_Resume@plt>
  40ce1c:	48 89 df             	mov    %rbx,%rdi
  40ce1f:	e8 cc 5c ff ff       	callq  402af0 <_ZNKSt5ctypeIcE13_M_widen_initEv@plt>
  40ce24:	48 8b 03             	mov    (%rbx),%rax
  40ce27:	be 0a 00 00 00       	mov    $0xa,%esi
  40ce2c:	48 89 df             	mov    %rbx,%rdi
  40ce2f:	ff 50 30             	callq  *0x30(%rax)
  40ce32:	e9 a8 fd ff ff       	jmpq   40cbdf <_Z9benchmarkIdLl100EEmi+0x12f>
  40ce37:	e8 14 5d ff ff       	callq  402b50 <__cxa_call_unexpected@plt>
  40ce3c:	48 89 df             	mov    %rbx,%rdi
  40ce3f:	90                   	nop
  40ce40:	e8 ab 5c ff ff       	callq  402af0 <_ZNKSt5ctypeIcE13_M_widen_initEv@plt>
  40ce45:	48 8b 03             	mov    (%rbx),%rax
  40ce48:	be 0a 00 00 00       	mov    $0xa,%esi
  40ce4d:	48 89 df             	mov    %rbx,%rdi
  40ce50:	ff 50 30             	callq  *0x30(%rax)
  40ce53:	e9 ce fc ff ff       	jmpq   40cb26 <_Z9benchmarkIdLl100EEmi+0x76>
  40ce58:	e8 e3 5c ff ff       	callq  402b40 <_ZSt16__throw_bad_castv@plt>
  40ce5d:	0f 1f 00             	nopl   (%rax)
  40ce60:	e8 db 5c ff ff       	callq  402b40 <_ZSt16__throw_bad_castv@plt>
  40ce65:	48 8b 7c 24 40       	mov    0x40(%rsp),%rdi
  40ce6a:	48 89 c3             	mov    %rax,%rbx
  40ce6d:	48 85 ff             	test   %rdi,%rdi
  40ce70:	74 05                	je     40ce77 <_Z9benchmarkIdLl100EEmi+0x3c7>
  40ce72:	e8 e9 5c ff ff       	callq  402b60 <_ZdaPv@plt>
  40ce77:	48 89 df             	mov    %rbx,%rdi
  40ce7a:	eb 9b                	jmp    40ce17 <_Z9benchmarkIdLl100EEmi+0x367>
  40ce7c:	0f 1f 40 00          	nopl   0x0(%rax)
  40ce80:	e8 bb 5c ff ff       	callq  402b40 <_ZSt16__throw_bad_castv@plt>
  40ce85:	90                   	nop
  40ce86:	90                   	nop
  40ce87:	90                   	nop
  40ce88:	90                   	nop
  40ce89:	90                   	nop
  40ce8a:	90                   	nop
  40ce8b:	90                   	nop
  40ce8c:	90                   	nop
  40ce8d:	90                   	nop
  40ce8e:	90                   	nop
  40ce8f:	90                   	nop

000000000040ce90 <_ZN10RelaxationIdLl500EEC1Eddlldd>:
  40ce90:	f2 48 0f 2c c2       	cvttsd2si %xmm2,%rax
  40ce95:	41 54                	push   %r12
  40ce97:	49 89 f4             	mov    %rsi,%r12
  40ce9a:	55                   	push   %rbp
  40ce9b:	48 89 d5             	mov    %rdx,%rbp
  40ce9e:	53                   	push   %rbx
  40ce9f:	48 89 fb             	mov    %rdi,%rbx
  40cea2:	48 83 ec 60          	sub    $0x60,%rsp
  40cea6:	f2 0f 11 03          	movsd  %xmm0,(%rbx)
  40ceaa:	f2 0f 11 4f 08       	movsd  %xmm1,0x8(%rdi)
  40ceaf:	48 89 73 10          	mov    %rsi,0x10(%rbx)
  40ceb3:	48 89 53 18          	mov    %rdx,0x18(%rbx)
  40ceb7:	f2 0f 11 44 24 18    	movsd  %xmm0,0x18(%rsp)
  40cebd:	f2 0f 11 54 24 08    	movsd  %xmm2,0x8(%rsp)
  40cec3:	f2 0f 11 5c 24 10    	movsd  %xmm3,0x10(%rsp)
  40cec9:	48 89 47 20          	mov    %rax,0x20(%rdi)
  40cecd:	f2 48 0f 2c c3       	cvttsd2si %xmm3,%rax
  40ced2:	48 89 47 28          	mov    %rax,0x28(%rdi)
  40ced6:	bf 80 84 1e 00       	mov    $0x1e8480,%edi
  40cedb:	e8 80 5b ff ff       	callq  402a60 <_Znwm@plt>
  40cee0:	f2 0f 10 05 b0 2c 00 	movsd  0x2cb0(%rip),%xmm0        # 40fb98 <_ZTVN6GetOpt13_DefValOptionIdNS_8_OptionTIdEEEE+0x58>
  40cee7:	00 
  40cee8:	49 89 c0             	mov    %rax,%r8
  40ceeb:	48 89 43 30          	mov    %rax,0x30(%rbx)
  40ceef:	66 0f 2e 44 24 08    	ucomisd 0x8(%rsp),%xmm0
  40cef5:	0f 87 cf 02 00 00    	ja     40d1ca <_ZN10RelaxationIdLl500EEC1Eddlldd+0x33a>
  40cefb:	49 8d 44 24 ff       	lea    -0x1(%r12),%rax
  40cf00:	48 3d f1 01 00 00    	cmp    $0x1f1,%rax
  40cf06:	0f 87 6b 02 00 00    	ja     40d177 <_ZN10RelaxationIdLl500EEC1Eddlldd+0x2e7>
  40cf0c:	48 8d 45 ff          	lea    -0x1(%rbp),%rax
  40cf10:	48 3d f1 01 00 00    	cmp    $0x1f1,%rax
  40cf16:	0f 87 5b 02 00 00    	ja     40d177 <_ZN10RelaxationIdLl500EEC1Eddlldd+0x2e7>
  40cf1c:	f2 49 0f 2a c4       	cvtsi2sd %r12,%xmm0
  40cf21:	f2 0f 10 64 24 08    	movsd  0x8(%rsp),%xmm4
  40cf27:	66 0f 57 d2          	xorpd  %xmm2,%xmm2
  40cf2b:	66 0f 28 c8          	movapd %xmm0,%xmm1
  40cf2f:	f2 0f 5c cc          	subsd  %xmm4,%xmm1
  40cf33:	66 0f 2e d1          	ucomisd %xmm1,%xmm2
  40cf37:	0f 87 31 03 00 00    	ja     40d26e <_ZN10RelaxationIdLl500EEC1Eddlldd+0x3de>
  40cf3d:	f2 0f 58 c4          	addsd  %xmm4,%xmm0
  40cf41:	66 0f 28 c8          	movapd %xmm0,%xmm1
  40cf45:	f2 0f 10 05 6b 2c 00 	movsd  0x2c6b(%rip),%xmm0        # 40fbb8 <_ZTVN6GetOpt13_DefValOptionIdNS_8_OptionTIdEEEE+0x78>
  40cf4c:	00 
  40cf4d:	66 0f 2e c8          	ucomisd %xmm0,%xmm1
  40cf51:	0f 87 17 03 00 00    	ja     40d26e <_ZN10RelaxationIdLl500EEC1Eddlldd+0x3de>
  40cf57:	f2 48 0f 2a cd       	cvtsi2sd %rbp,%xmm1
  40cf5c:	66 0f 28 d9          	movapd %xmm1,%xmm3
  40cf60:	f2 0f 5c dc          	subsd  %xmm4,%xmm3
  40cf64:	66 0f 2e d3          	ucomisd %xmm3,%xmm2
  40cf68:	0f 87 00 03 00 00    	ja     40d26e <_ZN10RelaxationIdLl500EEC1Eddlldd+0x3de>
  40cf6e:	f2 0f 58 cc          	addsd  %xmm4,%xmm1
  40cf72:	66 0f 2e c8          	ucomisd %xmm0,%xmm1
  40cf76:	0f 87 f2 02 00 00    	ja     40d26e <_ZN10RelaxationIdLl500EEC1Eddlldd+0x3de>
  40cf7c:	f2 0f 10 74 24 10    	movsd  0x10(%rsp),%xmm6
  40cf82:	66 0f 2e 74 24 18    	ucomisd 0x18(%rsp),%xmm6
  40cf88:	0f 87 96 01 00 00    	ja     40d124 <_ZN10RelaxationIdLl500EEC1Eddlldd+0x294>
  40cf8e:	49 8d b8 e0 74 1e 00 	lea    0x1e74e0(%r8),%rdi
  40cf95:	be a0 0f 00 00       	mov    $0xfa0,%esi
  40cf9a:	40 f6 c7 01          	test   $0x1,%dil
  40cf9e:	0f 85 cc 00 00 00    	jne    40d070 <_ZN10RelaxationIdLl500EEC1Eddlldd+0x1e0>
  40cfa4:	40 f6 c7 02          	test   $0x2,%dil
  40cfa8:	0f 85 e2 00 00 00    	jne    40d090 <_ZN10RelaxationIdLl500EEC1Eddlldd+0x200>
  40cfae:	40 f6 c7 04          	test   $0x4,%dil
  40cfb2:	0f 85 f8 00 00 00    	jne    40d0b0 <_ZN10RelaxationIdLl500EEC1Eddlldd+0x220>
  40cfb8:	89 f1                	mov    %esi,%ecx
  40cfba:	31 c0                	xor    %eax,%eax
  40cfbc:	c1 e9 03             	shr    $0x3,%ecx
  40cfbf:	40 f6 c6 04          	test   $0x4,%sil
  40cfc3:	f3 48 ab             	rep stos %rax,%es:(%rdi)
  40cfc6:	74 0a                	je     40cfd2 <_ZN10RelaxationIdLl500EEC1Eddlldd+0x142>
  40cfc8:	c7 07 00 00 00 00    	movl   $0x0,(%rdi)
  40cfce:	48 83 c7 04          	add    $0x4,%rdi
  40cfd2:	40 f6 c6 02          	test   $0x2,%sil
  40cfd6:	74 0a                	je     40cfe2 <_ZN10RelaxationIdLl500EEC1Eddlldd+0x152>
  40cfd8:	31 c0                	xor    %eax,%eax
  40cfda:	48 83 c7 02          	add    $0x2,%rdi
  40cfde:	66 89 47 fe          	mov    %ax,-0x2(%rdi)
  40cfe2:	83 e6 01             	and    $0x1,%esi
  40cfe5:	74 03                	je     40cfea <_ZN10RelaxationIdLl500EEC1Eddlldd+0x15a>
  40cfe7:	c6 07 00             	movb   $0x0,(%rdi)
  40cfea:	41 f6 c0 01          	test   $0x1,%r8b
  40cfee:	4c 89 c7             	mov    %r8,%rdi
  40cff1:	ba a0 0f 00 00       	mov    $0xfa0,%edx
  40cff6:	0f 85 cc 00 00 00    	jne    40d0c8 <_ZN10RelaxationIdLl500EEC1Eddlldd+0x238>
  40cffc:	40 f6 c7 02          	test   $0x2,%dil
  40d000:	0f 85 da 00 00 00    	jne    40d0e0 <_ZN10RelaxationIdLl500EEC1Eddlldd+0x250>
  40d006:	40 f6 c7 04          	test   $0x4,%dil
  40d00a:	0f 85 f0 00 00 00    	jne    40d100 <_ZN10RelaxationIdLl500EEC1Eddlldd+0x270>
  40d010:	89 d1                	mov    %edx,%ecx
  40d012:	31 c0                	xor    %eax,%eax
  40d014:	c1 e9 03             	shr    $0x3,%ecx
  40d017:	f6 c2 04             	test   $0x4,%dl
  40d01a:	f3 48 ab             	rep stos %rax,%es:(%rdi)
  40d01d:	74 0a                	je     40d029 <_ZN10RelaxationIdLl500EEC1Eddlldd+0x199>
  40d01f:	c7 07 00 00 00 00    	movl   $0x0,(%rdi)
  40d025:	48 83 c7 04          	add    $0x4,%rdi
  40d029:	f6 c2 02             	test   $0x2,%dl
  40d02c:	74 0a                	je     40d038 <_ZN10RelaxationIdLl500EEC1Eddlldd+0x1a8>
  40d02e:	31 c0                	xor    %eax,%eax
  40d030:	48 83 c7 02          	add    $0x2,%rdi
  40d034:	66 89 47 fe          	mov    %ax,-0x2(%rdi)
  40d038:	83 e2 01             	and    $0x1,%edx
  40d03b:	74 03                	je     40d040 <_ZN10RelaxationIdLl500EEC1Eddlldd+0x1b0>
  40d03d:	c6 07 00             	movb   $0x0,(%rdi)
  40d040:	48 8d 74 24 50       	lea    0x50(%rsp),%rsi
  40d045:	31 d2                	xor    %edx,%edx
  40d047:	bf 50 94 40 00       	mov    $0x409450,%edi
  40d04c:	48 89 5c 24 50       	mov    %rbx,0x50(%rsp)
  40d051:	e8 aa 58 ff ff       	callq  402900 <GOMP_parallel_start@plt>
  40d056:	48 8d 7c 24 50       	lea    0x50(%rsp),%rdi
  40d05b:	e8 f0 c3 ff ff       	callq  409450 <_ZN10RelaxationIdLl500EEC2Eddlldd._omp_fn.10>
  40d060:	e8 8b 57 ff ff       	callq  4027f0 <GOMP_parallel_end@plt>
  40d065:	48 83 c4 60          	add    $0x60,%rsp
  40d069:	5b                   	pop    %rbx
  40d06a:	5d                   	pop    %rbp
  40d06b:	41 5c                	pop    %r12
  40d06d:	c3                   	retq   
  40d06e:	66 90                	xchg   %ax,%ax
  40d070:	49 8d b8 e1 74 1e 00 	lea    0x1e74e1(%r8),%rdi
  40d077:	41 c6 80 e0 74 1e 00 	movb   $0x0,0x1e74e0(%r8)
  40d07e:	00 
  40d07f:	40 b6 9f             	mov    $0x9f,%sil
  40d082:	40 f6 c7 02          	test   $0x2,%dil
  40d086:	0f 84 22 ff ff ff    	je     40cfae <_ZN10RelaxationIdLl500EEC1Eddlldd+0x11e>
  40d08c:	0f 1f 40 00          	nopl   0x0(%rax)
  40d090:	31 c0                	xor    %eax,%eax
  40d092:	48 83 c7 02          	add    $0x2,%rdi
  40d096:	83 ee 02             	sub    $0x2,%esi
  40d099:	66 89 47 fe          	mov    %ax,-0x2(%rdi)
  40d09d:	40 f6 c7 04          	test   $0x4,%dil
  40d0a1:	0f 84 11 ff ff ff    	je     40cfb8 <_ZN10RelaxationIdLl500EEC1Eddlldd+0x128>
  40d0a7:	66 0f 1f 84 00 00 00 	nopw   0x0(%rax,%rax,1)
  40d0ae:	00 00 
  40d0b0:	c7 07 00 00 00 00    	movl   $0x0,(%rdi)
  40d0b6:	83 ee 04             	sub    $0x4,%esi
  40d0b9:	48 83 c7 04          	add    $0x4,%rdi
  40d0bd:	e9 f6 fe ff ff       	jmpq   40cfb8 <_ZN10RelaxationIdLl500EEC1Eddlldd+0x128>
  40d0c2:	66 0f 1f 44 00 00    	nopw   0x0(%rax,%rax,1)
  40d0c8:	48 83 c7 01          	add    $0x1,%rdi
  40d0cc:	41 c6 00 00          	movb   $0x0,(%r8)
  40d0d0:	b2 9f                	mov    $0x9f,%dl
  40d0d2:	40 f6 c7 02          	test   $0x2,%dil
  40d0d6:	0f 84 2a ff ff ff    	je     40d006 <_ZN10RelaxationIdLl500EEC1Eddlldd+0x176>
  40d0dc:	0f 1f 40 00          	nopl   0x0(%rax)
  40d0e0:	31 c0                	xor    %eax,%eax
  40d0e2:	48 83 c7 02          	add    $0x2,%rdi
  40d0e6:	83 ea 02             	sub    $0x2,%edx
  40d0e9:	66 89 47 fe          	mov    %ax,-0x2(%rdi)
  40d0ed:	40 f6 c7 04          	test   $0x4,%dil
  40d0f1:	0f 84 19 ff ff ff    	je     40d010 <_ZN10RelaxationIdLl500EEC1Eddlldd+0x180>
  40d0f7:	66 0f 1f 84 00 00 00 	nopw   0x0(%rax,%rax,1)
  40d0fe:	00 00 
  40d100:	c7 07 00 00 00 00    	movl   $0x0,(%rdi)
  40d106:	83 ea 04             	sub    $0x4,%edx
  40d109:	48 83 c7 04          	add    $0x4,%rdi
  40d10d:	e9 fe fe ff ff       	jmpq   40d010 <_ZN10RelaxationIdLl500EEC1Eddlldd+0x180>
  40d112:	48 89 c7             	mov    %rax,%rdi
  40d115:	48 83 fa ff          	cmp    $0xffffffffffffffff,%rdx
  40d119:	0f 84 a2 01 00 00    	je     40d2c1 <_ZN10RelaxationIdLl500EEC1Eddlldd+0x431>
  40d11f:	e8 8c 5b ff ff       	callq  402cb0 <_Unwind_Resume@plt>
  40d124:	bf 10 00 00 00       	mov    $0x10,%edi
  40d129:	e8 a2 57 ff ff       	callq  4028d0 <__cxa_allocate_exception@plt>
  40d12e:	48 8d 54 24 30       	lea    0x30(%rsp),%rdx
  40d133:	48 8d 7c 24 50       	lea    0x50(%rsp),%rdi
  40d138:	be f8 f6 40 00       	mov    $0x40f6f8,%esi
  40d13d:	48 89 c3             	mov    %rax,%rbx
  40d140:	e8 8b 59 ff ff       	callq  402ad0 <_ZNSsC1EPKcRKSaIcE@plt>
  40d145:	48 8d 74 24 50       	lea    0x50(%rsp),%rsi
  40d14a:	48 89 df             	mov    %rbx,%rdi
  40d14d:	e8 ae 58 ff ff       	callq  402a00 <_ZNSt11logic_errorC1ERKSs@plt>
  40d152:	48 8b 44 24 50       	mov    0x50(%rsp),%rax
  40d157:	48 8d 74 24 40       	lea    0x40(%rsp),%rsi
  40d15c:	48 8d 78 e8          	lea    -0x18(%rax),%rdi
  40d160:	e8 db 57 ff ff       	callq  402940 <_ZNSs4_Rep10_M_disposeERKSaIcE@plt>
  40d165:	ba 10 2b 40 00       	mov    $0x402b10,%edx
  40d16a:	be b0 27 61 00       	mov    $0x6127b0,%esi
  40d16f:	48 89 df             	mov    %rbx,%rdi
  40d172:	e8 19 5b ff ff       	callq  402c90 <__cxa_throw@plt>
  40d177:	bf 10 00 00 00       	mov    $0x10,%edi
  40d17c:	e8 4f 57 ff ff       	callq  4028d0 <__cxa_allocate_exception@plt>
  40d181:	48 8d 54 24 40       	lea    0x40(%rsp),%rdx
  40d186:	48 8d 7c 24 30       	lea    0x30(%rsp),%rdi
  40d18b:	be 30 f6 40 00       	mov    $0x40f630,%esi
  40d190:	48 89 c3             	mov    %rax,%rbx
  40d193:	e8 38 59 ff ff       	callq  402ad0 <_ZNSsC1EPKcRKSaIcE@plt>
  40d198:	48 8d 74 24 30       	lea    0x30(%rsp),%rsi
  40d19d:	48 89 df             	mov    %rbx,%rdi
  40d1a0:	e8 5b 58 ff ff       	callq  402a00 <_ZNSt11logic_errorC1ERKSs@plt>
  40d1a5:	48 8b 44 24 30       	mov    0x30(%rsp),%rax
  40d1aa:	48 8d 74 24 50       	lea    0x50(%rsp),%rsi
  40d1af:	48 8d 78 e8          	lea    -0x18(%rax),%rdi
  40d1b3:	e8 88 57 ff ff       	callq  402940 <_ZNSs4_Rep10_M_disposeERKSaIcE@plt>
  40d1b8:	ba 10 2b 40 00       	mov    $0x402b10,%edx
  40d1bd:	be b0 27 61 00       	mov    $0x6127b0,%esi
  40d1c2:	48 89 df             	mov    %rbx,%rdi
  40d1c5:	e8 c6 5a ff ff       	callq  402c90 <__cxa_throw@plt>
  40d1ca:	bf 10 00 00 00       	mov    $0x10,%edi
  40d1cf:	e8 fc 56 ff ff       	callq  4028d0 <__cxa_allocate_exception@plt>
  40d1d4:	48 8d 54 24 40       	lea    0x40(%rsp),%rdx
  40d1d9:	48 8d 7c 24 20       	lea    0x20(%rsp),%rdi
  40d1de:	be 08 f6 40 00       	mov    $0x40f608,%esi
  40d1e3:	48 89 c3             	mov    %rax,%rbx
  40d1e6:	e8 e5 58 ff ff       	callq  402ad0 <_ZNSsC1EPKcRKSaIcE@plt>
  40d1eb:	48 8d 74 24 20       	lea    0x20(%rsp),%rsi
  40d1f0:	48 89 df             	mov    %rbx,%rdi
  40d1f3:	e8 08 58 ff ff       	callq  402a00 <_ZNSt11logic_errorC1ERKSs@plt>
  40d1f8:	48 8b 44 24 20       	mov    0x20(%rsp),%rax
  40d1fd:	48 8d 74 24 50       	lea    0x50(%rsp),%rsi
  40d202:	48 8d 78 e8          	lea    -0x18(%rax),%rdi
  40d206:	e8 35 57 ff ff       	callq  402940 <_ZNSs4_Rep10_M_disposeERKSaIcE@plt>
  40d20b:	ba 10 2b 40 00       	mov    $0x402b10,%edx
  40d210:	be b0 27 61 00       	mov    $0x6127b0,%esi
  40d215:	48 89 df             	mov    %rbx,%rdi
  40d218:	e8 73 5a ff ff       	callq  402c90 <__cxa_throw@plt>
  40d21d:	48 89 c5             	mov    %rax,%rbp
  40d220:	48 8b 44 24 30       	mov    0x30(%rsp),%rax
  40d225:	48 8d 74 24 50       	lea    0x50(%rsp),%rsi
  40d22a:	49 89 d4             	mov    %rdx,%r12
  40d22d:	48 8d 78 e8          	lea    -0x18(%rax),%rdi
  40d231:	e8 0a 57 ff ff       	callq  402940 <_ZNSs4_Rep10_M_disposeERKSaIcE@plt>
  40d236:	48 89 df             	mov    %rbx,%rdi
  40d239:	e8 52 57 ff ff       	callq  402990 <__cxa_free_exception@plt>
  40d23e:	48 89 ef             	mov    %rbp,%rdi
  40d241:	4c 89 e2             	mov    %r12,%rdx
  40d244:	e9 cc fe ff ff       	jmpq   40d115 <_ZN10RelaxationIdLl500EEC1Eddlldd+0x285>
  40d249:	48 89 c5             	mov    %rax,%rbp
  40d24c:	49 89 d4             	mov    %rdx,%r12
  40d24f:	eb e5                	jmp    40d236 <_ZN10RelaxationIdLl500EEC1Eddlldd+0x3a6>
  40d251:	48 89 c5             	mov    %rax,%rbp
  40d254:	48 8b 44 24 20       	mov    0x20(%rsp),%rax
  40d259:	48 8d 74 24 50       	lea    0x50(%rsp),%rsi
  40d25e:	49 89 d4             	mov    %rdx,%r12
  40d261:	48 8d 78 e8          	lea    -0x18(%rax),%rdi
  40d265:	e8 d6 56 ff ff       	callq  402940 <_ZNSs4_Rep10_M_disposeERKSaIcE@plt>
  40d26a:	eb ca                	jmp    40d236 <_ZN10RelaxationIdLl500EEC1Eddlldd+0x3a6>
  40d26c:	eb db                	jmp    40d249 <_ZN10RelaxationIdLl500EEC1Eddlldd+0x3b9>
  40d26e:	bf 10 00 00 00       	mov    $0x10,%edi
  40d273:	e8 58 56 ff ff       	callq  4028d0 <__cxa_allocate_exception@plt>
  40d278:	48 8d 54 24 30       	lea    0x30(%rsp),%rdx
  40d27d:	48 8d 7c 24 40       	lea    0x40(%rsp),%rdi
  40d282:	be 90 f6 40 00       	mov    $0x40f690,%esi
  40d287:	48 89 c3             	mov    %rax,%rbx
  40d28a:	e8 41 58 ff ff       	callq  402ad0 <_ZNSsC1EPKcRKSaIcE@plt>
  40d28f:	48 8d 74 24 40       	lea    0x40(%rsp),%rsi
  40d294:	48 89 df             	mov    %rbx,%rdi
  40d297:	e8 64 57 ff ff       	callq  402a00 <_ZNSt11logic_errorC1ERKSs@plt>
  40d29c:	48 8b 44 24 40       	mov    0x40(%rsp),%rax
  40d2a1:	48 8d 74 24 50       	lea    0x50(%rsp),%rsi
  40d2a6:	48 8d 78 e8          	lea    -0x18(%rax),%rdi
  40d2aa:	e8 91 56 ff ff       	callq  402940 <_ZNSs4_Rep10_M_disposeERKSaIcE@plt>
  40d2af:	ba 10 2b 40 00       	mov    $0x402b10,%edx
  40d2b4:	be b0 27 61 00       	mov    $0x6127b0,%esi
  40d2b9:	48 89 df             	mov    %rbx,%rdi
  40d2bc:	e8 cf 59 ff ff       	callq  402c90 <__cxa_throw@plt>
  40d2c1:	e8 8a 58 ff ff       	callq  402b50 <__cxa_call_unexpected@plt>
  40d2c6:	48 89 c5             	mov    %rax,%rbp
  40d2c9:	48 8b 44 24 40       	mov    0x40(%rsp),%rax
  40d2ce:	48 8d 74 24 50       	lea    0x50(%rsp),%rsi
  40d2d3:	49 89 d4             	mov    %rdx,%r12
  40d2d6:	48 8d 78 e8          	lea    -0x18(%rax),%rdi
  40d2da:	e8 61 56 ff ff       	callq  402940 <_ZNSs4_Rep10_M_disposeERKSaIcE@plt>
  40d2df:	e9 52 ff ff ff       	jmpq   40d236 <_ZN10RelaxationIdLl500EEC1Eddlldd+0x3a6>
  40d2e4:	e9 60 ff ff ff       	jmpq   40d249 <_ZN10RelaxationIdLl500EEC1Eddlldd+0x3b9>
  40d2e9:	48 89 c5             	mov    %rax,%rbp
  40d2ec:	48 8b 44 24 50       	mov    0x50(%rsp),%rax
  40d2f1:	48 8d 74 24 40       	lea    0x40(%rsp),%rsi
  40d2f6:	49 89 d4             	mov    %rdx,%r12
  40d2f9:	48 8d 78 e8          	lea    -0x18(%rax),%rdi
  40d2fd:	e8 3e 56 ff ff       	callq  402940 <_ZNSs4_Rep10_M_disposeERKSaIcE@plt>
  40d302:	e9 2f ff ff ff       	jmpq   40d236 <_ZN10RelaxationIdLl500EEC1Eddlldd+0x3a6>
  40d307:	e9 3d ff ff ff       	jmpq   40d249 <_ZN10RelaxationIdLl500EEC1Eddlldd+0x3b9>
  40d30c:	90                   	nop
  40d30d:	90                   	nop
  40d30e:	90                   	nop
  40d30f:	90                   	nop

000000000040d310 <_Z9benchmarkIdLl500EEmi>:
  40d310:	41 57                	push   %r15
  40d312:	41 56                	push   %r14
  40d314:	41 55                	push   %r13
  40d316:	41 54                	push   %r12
  40d318:	55                   	push   %rbp
  40d319:	53                   	push   %rbx
  40d31a:	48 83 ec 58          	sub    $0x58,%rsp
  40d31e:	e8 9d 57 ff ff       	callq  402ac0 <omp_set_num_threads@plt>
  40d323:	e8 38 59 ff ff       	callq  402c60 <omp_get_max_threads@plt>
  40d328:	ba 12 00 00 00       	mov    $0x12,%edx
  40d32d:	89 c3                	mov    %eax,%ebx
  40d32f:	be 0c f5 40 00       	mov    $0x40f50c,%esi
  40d334:	bf e0 24 61 00       	mov    $0x6124e0,%edi
  40d339:	e8 a2 57 ff ff       	callq  402ae0 <_ZSt16__ostream_insertIcSt11char_traitsIcEERSt13basic_ostreamIT_T0_ES6_PKS3_l@plt>
  40d33e:	89 de                	mov    %ebx,%esi
  40d340:	bf e0 24 61 00       	mov    $0x6124e0,%edi
  40d345:	e8 56 59 ff ff       	callq  402ca0 <_ZNSolsEi@plt>
  40d34a:	ba 09 00 00 00       	mov    $0x9,%edx
  40d34f:	48 89 c5             	mov    %rax,%rbp
  40d352:	be 1f f5 40 00       	mov    $0x40f51f,%esi
  40d357:	48 89 c7             	mov    %rax,%rdi
  40d35a:	e8 81 57 ff ff       	callq  402ae0 <_ZSt16__ostream_insertIcSt11char_traitsIcEERSt13basic_ostreamIT_T0_ES6_PKS3_l@plt>
  40d35f:	48 8b 45 00          	mov    0x0(%rbp),%rax
  40d363:	48 8b 40 e8          	mov    -0x18(%rax),%rax
  40d367:	48 8b 9c 05 f0 00 00 	mov    0xf0(%rbp,%rax,1),%rbx
  40d36e:	00 
  40d36f:	48 85 db             	test   %rbx,%rbx
  40d372:	0f 84 47 03 00 00    	je     40d6bf <_Z9benchmarkIdLl500EEmi+0x3af>
  40d378:	80 7b 38 00          	cmpb   $0x0,0x38(%rbx)
  40d37c:	0f 84 22 03 00 00    	je     40d6a4 <_Z9benchmarkIdLl500EEmi+0x394>
  40d382:	0f b6 43 43          	movzbl 0x43(%rbx),%eax
  40d386:	0f be f0             	movsbl %al,%esi
  40d389:	48 89 ef             	mov    %rbp,%rdi
  40d38c:	e8 4f 54 ff ff       	callq  4027e0 <_ZNSo3putEc@plt>
  40d391:	48 89 c7             	mov    %rax,%rdi
  40d394:	e8 d7 55 ff ff       	callq  402970 <_ZNSo5flushEv@plt>
  40d399:	8b 2d c1 55 20 00    	mov    0x2055c1(%rip),%ebp        # 612960 <steps>
  40d39f:	ba 0f 00 00 00       	mov    $0xf,%edx
  40d3a4:	be 29 f5 40 00       	mov    $0x40f529,%esi
  40d3a9:	bf e0 24 61 00       	mov    $0x6124e0,%edi
  40d3ae:	e8 2d 57 ff ff       	callq  402ae0 <_ZSt16__ostream_insertIcSt11char_traitsIcEERSt13basic_ostreamIT_T0_ES6_PKS3_l@plt>
  40d3b3:	be f4 01 00 00       	mov    $0x1f4,%esi
  40d3b8:	bf e0 24 61 00       	mov    $0x6124e0,%edi
  40d3bd:	e8 7e 56 ff ff       	callq  402a40 <_ZNSo9_M_insertIlEERSoT_@plt>
  40d3c2:	ba 06 00 00 00       	mov    $0x6,%edx
  40d3c7:	48 89 c3             	mov    %rax,%rbx
  40d3ca:	be 18 f5 40 00       	mov    $0x40f518,%esi
  40d3cf:	48 89 c7             	mov    %rax,%rdi
  40d3d2:	e8 09 57 ff ff       	callq  402ae0 <_ZSt16__ostream_insertIcSt11char_traitsIcEERSt13basic_ostreamIT_T0_ES6_PKS3_l@plt>
  40d3d7:	89 ee                	mov    %ebp,%esi
  40d3d9:	48 89 df             	mov    %rbx,%rdi
  40d3dc:	e8 bf 58 ff ff       	callq  402ca0 <_ZNSolsEi@plt>
  40d3e1:	ba 0f 00 00 00       	mov    $0xf,%edx
  40d3e6:	48 89 c3             	mov    %rax,%rbx
  40d3e9:	be 39 f5 40 00       	mov    $0x40f539,%esi
  40d3ee:	48 89 c7             	mov    %rax,%rdi
  40d3f1:	e8 ea 56 ff ff       	callq  402ae0 <_ZSt16__ostream_insertIcSt11char_traitsIcEERSt13basic_ostreamIT_T0_ES6_PKS3_l@plt>
  40d3f6:	48 89 df             	mov    %rbx,%rdi
  40d3f9:	be 0a 00 00 00       	mov    $0xa,%esi
  40d3fe:	e8 9d 58 ff ff       	callq  402ca0 <_ZNSolsEi@plt>
  40d403:	ba 06 00 00 00       	mov    $0x6,%edx
  40d408:	48 89 c5             	mov    %rax,%rbp
  40d40b:	be 49 f5 40 00       	mov    $0x40f549,%esi
  40d410:	48 89 c7             	mov    %rax,%rdi
  40d413:	e8 c8 56 ff ff       	callq  402ae0 <_ZSt16__ostream_insertIcSt11char_traitsIcEERSt13basic_ostreamIT_T0_ES6_PKS3_l@plt>
  40d418:	48 8b 45 00          	mov    0x0(%rbp),%rax
  40d41c:	48 8b 40 e8          	mov    -0x18(%rax),%rax
  40d420:	48 8b 9c 05 f0 00 00 	mov    0xf0(%rbp,%rax,1),%rbx
  40d427:	00 
  40d428:	48 85 db             	test   %rbx,%rbx
  40d42b:	0f 84 8e 02 00 00    	je     40d6bf <_Z9benchmarkIdLl500EEmi+0x3af>
  40d431:	80 7b 38 00          	cmpb   $0x0,0x38(%rbx)
  40d435:	0f 84 49 02 00 00    	je     40d684 <_Z9benchmarkIdLl500EEmi+0x374>
  40d43b:	0f b6 43 43          	movzbl 0x43(%rbx),%eax
  40d43f:	48 89 ef             	mov    %rbp,%rdi
  40d442:	0f be f0             	movsbl %al,%esi
  40d445:	48 8d 6c 24 10       	lea    0x10(%rsp),%rbp
  40d44a:	e8 91 53 ff ff       	callq  4027e0 <_ZNSo3putEc@plt>
  40d44f:	41 bd 0a 00 00 00    	mov    $0xa,%r13d
  40d455:	48 89 c7             	mov    %rax,%rdi
  40d458:	45 31 e4             	xor    %r12d,%r12d
  40d45b:	e8 10 55 ff ff       	callq  402970 <_ZNSo5flushEv@plt>
  40d460:	0f 31                	rdtsc  
  40d462:	f2 0f 10 1d de 54 20 	movsd  0x2054de(%rip),%xmm3        # 612948 <heat>
  40d469:	00 
  40d46a:	49 89 d6             	mov    %rdx,%r14
  40d46d:	f2 0f 2a 15 db 54 20 	cvtsi2sdl 0x2054db(%rip),%xmm2        # 612950 <radius>
  40d474:	00 
  40d475:	f2 0f 10 0d 2b 27 00 	movsd  0x272b(%rip),%xmm1        # 40fba8 <_ZTVN6GetOpt13_DefValOptionIdNS_8_OptionTIdEEEE+0x68>
  40d47c:	00 
  40d47d:	49 c1 e6 20          	shl    $0x20,%r14
  40d481:	f2 0f 10 05 27 27 00 	movsd  0x2727(%rip),%xmm0        # 40fbb0 <_ZTVN6GetOpt13_DefValOptionIdNS_8_OptionTIdEEEE+0x70>
  40d488:	00 
  40d489:	89 c0                	mov    %eax,%eax
  40d48b:	ba fa 00 00 00       	mov    $0xfa,%edx
  40d490:	be fa 00 00 00       	mov    $0xfa,%esi
  40d495:	48 89 ef             	mov    %rbp,%rdi
  40d498:	49 09 c6             	or     %rax,%r14
  40d49b:	e8 f0 f9 ff ff       	callq  40ce90 <_ZN10RelaxationIdLl500EEC1Eddlldd>
  40d4a0:	ba 12 00 00 00       	mov    $0x12,%edx
  40d4a5:	be 50 f5 40 00       	mov    $0x40f550,%esi
  40d4aa:	bf e0 24 61 00       	mov    $0x6124e0,%edi
  40d4af:	e8 2c 56 ff ff       	callq  402ae0 <_ZSt16__ostream_insertIcSt11char_traitsIcEERSt13basic_ostreamIT_T0_ES6_PKS3_l@plt>
  40d4b4:	48 8b 05 25 50 20 00 	mov    0x205025(%rip),%rax        # 6124e0 <_ZSt4cout@@GLIBCXX_3.4>
  40d4bb:	48 8b 40 e8          	mov    -0x18(%rax),%rax
  40d4bf:	48 8b 98 d0 25 61 00 	mov    0x6125d0(%rax),%rbx
  40d4c6:	48 85 db             	test   %rbx,%rbx
  40d4c9:	0f 84 f5 01 00 00    	je     40d6c4 <_Z9benchmarkIdLl500EEmi+0x3b4>
  40d4cf:	80 7b 38 00          	cmpb   $0x0,0x38(%rbx)
  40d4d3:	0f 84 82 01 00 00    	je     40d65b <_Z9benchmarkIdLl500EEmi+0x34b>
  40d4d9:	0f b6 43 43          	movzbl 0x43(%rbx),%eax
  40d4dd:	0f be f0             	movsbl %al,%esi
  40d4e0:	bf e0 24 61 00       	mov    $0x6124e0,%edi
  40d4e5:	e8 f6 52 ff ff       	callq  4027e0 <_ZNSo3putEc@plt>
  40d4ea:	48 89 c7             	mov    %rax,%rdi
  40d4ed:	e8 7e 54 ff ff       	callq  402970 <_ZNSo5flushEv@plt>
  40d4f2:	8b 05 68 54 20 00    	mov    0x205468(%rip),%eax        # 612960 <steps>
  40d4f8:	bb 01 00 00 00       	mov    $0x1,%ebx
  40d4fd:	48 8b 7c 24 40       	mov    0x40(%rsp),%rdi
  40d502:	85 c0                	test   %eax,%eax
  40d504:	0f 8e e4 00 00 00    	jle    40d5ee <_Z9benchmarkIdLl500EEmi+0x2de>
  40d50a:	66 0f 1f 44 00 00    	nopw   0x0(%rax,%rax,1)
  40d510:	ba 09 00 00 00       	mov    $0x9,%edx
  40d515:	be 63 f5 40 00       	mov    $0x40f563,%esi
  40d51a:	bf e0 24 61 00       	mov    $0x6124e0,%edi
  40d51f:	e8 bc 55 ff ff       	callq  402ae0 <_ZSt16__ostream_insertIcSt11char_traitsIcEERSt13basic_ostreamIT_T0_ES6_PKS3_l@plt>
  40d524:	48 8b 05 b5 4f 20 00 	mov    0x204fb5(%rip),%rax        # 6124e0 <_ZSt4cout@@GLIBCXX_3.4>
  40d52b:	48 8b 40 e8          	mov    -0x18(%rax),%rax
  40d52f:	4c 8b b8 d0 25 61 00 	mov    0x6125d0(%rax),%r15
  40d536:	4d 85 ff             	test   %r15,%r15
  40d539:	0f 84 a1 01 00 00    	je     40d6e0 <_Z9benchmarkIdLl500EEmi+0x3d0>
  40d53f:	41 80 7f 38 00       	cmpb   $0x0,0x38(%r15)
  40d544:	0f 84 f6 00 00 00    	je     40d640 <_Z9benchmarkIdLl500EEmi+0x330>
  40d54a:	41 0f b6 47 43       	movzbl 0x43(%r15),%eax
  40d54f:	0f be f0             	movsbl %al,%esi
  40d552:	bf e0 24 61 00       	mov    $0x6124e0,%edi
  40d557:	e8 84 52 ff ff       	callq  4027e0 <_ZNSo3putEc@plt>
  40d55c:	48 89 c7             	mov    %rax,%rdi
  40d55f:	e8 0c 54 ff ff       	callq  402970 <_ZNSo5flushEv@plt>
  40d564:	bf 80 84 1e 00       	mov    $0x1e8480,%edi
  40d569:	e8 f2 54 ff ff       	callq  402a60 <_Znwm@plt>
  40d56e:	48 8b 4c 24 40       	mov    0x40(%rsp),%rcx
  40d573:	31 d2                	xor    %edx,%edx
  40d575:	48 81 c1 e0 74 1e 00 	add    $0x1e74e0,%rcx
  40d57c:	0f 1f 40 00          	nopl   0x0(%rax)
  40d580:	48 c7 04 d1 00 00 00 	movq   $0x0,(%rcx,%rdx,8)
  40d587:	00 
  40d588:	48 c7 04 d0 00 00 00 	movq   $0x0,(%rax,%rdx,8)
  40d58f:	00 
  40d590:	48 83 c2 01          	add    $0x1,%rdx
  40d594:	48 81 fa f4 01 00 00 	cmp    $0x1f4,%rdx
  40d59b:	75 e3                	jne    40d580 <_Z9benchmarkIdLl500EEmi+0x270>
  40d59d:	66 31 d2             	xor    %dx,%dx
  40d5a0:	48 89 e6             	mov    %rsp,%rsi
  40d5a3:	bf a0 8a 40 00       	mov    $0x408aa0,%edi
  40d5a8:	48 89 44 24 08       	mov    %rax,0x8(%rsp)
  40d5ad:	48 89 2c 24          	mov    %rbp,(%rsp)
  40d5b1:	e8 4a 53 ff ff       	callq  402900 <GOMP_parallel_start@plt>
  40d5b6:	48 89 e7             	mov    %rsp,%rdi
  40d5b9:	e8 e2 b4 ff ff       	callq  408aa0 <_ZN10RelaxationIdLl500EE7iterateEv._omp_fn.11>
  40d5be:	e8 2d 52 ff ff       	callq  4027f0 <GOMP_parallel_end@plt>
  40d5c3:	48 8b 7c 24 40       	mov    0x40(%rsp),%rdi
  40d5c8:	4c 8b 7c 24 08       	mov    0x8(%rsp),%r15
  40d5cd:	48 85 ff             	test   %rdi,%rdi
  40d5d0:	74 05                	je     40d5d7 <_Z9benchmarkIdLl500EEmi+0x2c7>
  40d5d2:	e8 89 55 ff ff       	callq  402b60 <_ZdaPv@plt>
  40d5d7:	83 c3 01             	add    $0x1,%ebx
  40d5da:	39 1d 80 53 20 00    	cmp    %ebx,0x205380(%rip)        # 612960 <steps>
  40d5e0:	4c 89 7c 24 40       	mov    %r15,0x40(%rsp)
  40d5e5:	0f 8d 25 ff ff ff    	jge    40d510 <_Z9benchmarkIdLl500EEmi+0x200>
  40d5eb:	4c 89 ff             	mov    %r15,%rdi
  40d5ee:	0f 31                	rdtsc  
  40d5f0:	48 c1 e2 20          	shl    $0x20,%rdx
  40d5f4:	89 c0                	mov    %eax,%eax
  40d5f6:	48 09 c2             	or     %rax,%rdx
  40d5f9:	4c 29 f2             	sub    %r14,%rdx
  40d5fc:	49 01 d4             	add    %rdx,%r12
  40d5ff:	48 85 ff             	test   %rdi,%rdi
  40d602:	74 05                	je     40d609 <_Z9benchmarkIdLl500EEmi+0x2f9>
  40d604:	e8 57 55 ff ff       	callq  402b60 <_ZdaPv@plt>
  40d609:	41 83 ed 01          	sub    $0x1,%r13d
  40d60d:	0f 85 4d fe ff ff    	jne    40d460 <_Z9benchmarkIdLl500EEmi+0x150>
  40d613:	48 83 c4 58          	add    $0x58,%rsp
  40d617:	4c 89 e0             	mov    %r12,%rax
  40d61a:	48 ba cd cc cc cc cc 	movabs $0xcccccccccccccccd,%rdx
  40d621:	cc cc cc 
  40d624:	5b                   	pop    %rbx
  40d625:	48 f7 e2             	mul    %rdx
  40d628:	5d                   	pop    %rbp
  40d629:	41 5c                	pop    %r12
  40d62b:	41 5d                	pop    %r13
  40d62d:	48 c1 ea 03          	shr    $0x3,%rdx
  40d631:	41 5e                	pop    %r14
  40d633:	48 89 d0             	mov    %rdx,%rax
  40d636:	41 5f                	pop    %r15
  40d638:	c3                   	retq   
  40d639:	0f 1f 80 00 00 00 00 	nopl   0x0(%rax)
  40d640:	4c 89 ff             	mov    %r15,%rdi
  40d643:	e8 a8 54 ff ff       	callq  402af0 <_ZNKSt5ctypeIcE13_M_widen_initEv@plt>
  40d648:	49 8b 07             	mov    (%r15),%rax
  40d64b:	be 0a 00 00 00       	mov    $0xa,%esi
  40d650:	4c 89 ff             	mov    %r15,%rdi
  40d653:	ff 50 30             	callq  *0x30(%rax)
  40d656:	e9 f4 fe ff ff       	jmpq   40d54f <_Z9benchmarkIdLl500EEmi+0x23f>
  40d65b:	48 89 df             	mov    %rbx,%rdi
  40d65e:	e8 8d 54 ff ff       	callq  402af0 <_ZNKSt5ctypeIcE13_M_widen_initEv@plt>
  40d663:	48 8b 03             	mov    (%rbx),%rax
  40d666:	be 0a 00 00 00       	mov    $0xa,%esi
  40d66b:	48 89 df             	mov    %rbx,%rdi
  40d66e:	ff 50 30             	callq  *0x30(%rax)
  40d671:	e9 67 fe ff ff       	jmpq   40d4dd <_Z9benchmarkIdLl500EEmi+0x1cd>
  40d676:	48 83 fa ff          	cmp    $0xffffffffffffffff,%rdx
  40d67a:	48 89 c7             	mov    %rax,%rdi
  40d67d:	74 20                	je     40d69f <_Z9benchmarkIdLl500EEmi+0x38f>
  40d67f:	e8 2c 56 ff ff       	callq  402cb0 <_Unwind_Resume@plt>
  40d684:	48 89 df             	mov    %rbx,%rdi
  40d687:	e8 64 54 ff ff       	callq  402af0 <_ZNKSt5ctypeIcE13_M_widen_initEv@plt>
  40d68c:	48 8b 03             	mov    (%rbx),%rax
  40d68f:	be 0a 00 00 00       	mov    $0xa,%esi
  40d694:	48 89 df             	mov    %rbx,%rdi
  40d697:	ff 50 30             	callq  *0x30(%rax)
  40d69a:	e9 a0 fd ff ff       	jmpq   40d43f <_Z9benchmarkIdLl500EEmi+0x12f>
  40d69f:	e8 ac 54 ff ff       	callq  402b50 <__cxa_call_unexpected@plt>
  40d6a4:	48 89 df             	mov    %rbx,%rdi
  40d6a7:	e8 44 54 ff ff       	callq  402af0 <_ZNKSt5ctypeIcE13_M_widen_initEv@plt>
  40d6ac:	48 8b 03             	mov    (%rbx),%rax
  40d6af:	be 0a 00 00 00       	mov    $0xa,%esi
  40d6b4:	48 89 df             	mov    %rbx,%rdi
  40d6b7:	ff 50 30             	callq  *0x30(%rax)
  40d6ba:	e9 c7 fc ff ff       	jmpq   40d386 <_Z9benchmarkIdLl500EEmi+0x76>
  40d6bf:	e8 7c 54 ff ff       	callq  402b40 <_ZSt16__throw_bad_castv@plt>
  40d6c4:	e8 77 54 ff ff       	callq  402b40 <_ZSt16__throw_bad_castv@plt>
  40d6c9:	48 8b 7c 24 40       	mov    0x40(%rsp),%rdi
  40d6ce:	48 89 c3             	mov    %rax,%rbx
  40d6d1:	48 85 ff             	test   %rdi,%rdi
  40d6d4:	74 05                	je     40d6db <_Z9benchmarkIdLl500EEmi+0x3cb>
  40d6d6:	e8 85 54 ff ff       	callq  402b60 <_ZdaPv@plt>
  40d6db:	48 89 df             	mov    %rbx,%rdi
  40d6de:	eb 9f                	jmp    40d67f <_Z9benchmarkIdLl500EEmi+0x36f>
  40d6e0:	e8 5b 54 ff ff       	callq  402b40 <_ZSt16__throw_bad_castv@plt>
  40d6e5:	90                   	nop
  40d6e6:	90                   	nop
  40d6e7:	90                   	nop
  40d6e8:	90                   	nop
  40d6e9:	90                   	nop
  40d6ea:	90                   	nop
  40d6eb:	90                   	nop
  40d6ec:	90                   	nop
  40d6ed:	90                   	nop
  40d6ee:	90                   	nop
  40d6ef:	90                   	nop

000000000040d6f0 <_ZN10RelaxationIdLl1000EEC1Eddlldd>:
  40d6f0:	f2 48 0f 2c c2       	cvttsd2si %xmm2,%rax
  40d6f5:	41 54                	push   %r12
  40d6f7:	49 89 f4             	mov    %rsi,%r12
  40d6fa:	55                   	push   %rbp
  40d6fb:	48 89 d5             	mov    %rdx,%rbp
  40d6fe:	53                   	push   %rbx
  40d6ff:	48 89 fb             	mov    %rdi,%rbx
  40d702:	48 83 ec 60          	sub    $0x60,%rsp
  40d706:	f2 0f 11 03          	movsd  %xmm0,(%rbx)
  40d70a:	f2 0f 11 4f 08       	movsd  %xmm1,0x8(%rdi)
  40d70f:	48 89 73 10          	mov    %rsi,0x10(%rbx)
  40d713:	48 89 53 18          	mov    %rdx,0x18(%rbx)
  40d717:	f2 0f 11 44 24 18    	movsd  %xmm0,0x18(%rsp)
  40d71d:	f2 0f 11 54 24 08    	movsd  %xmm2,0x8(%rsp)
  40d723:	f2 0f 11 5c 24 10    	movsd  %xmm3,0x10(%rsp)
  40d729:	48 89 47 20          	mov    %rax,0x20(%rdi)
  40d72d:	f2 48 0f 2c c3       	cvttsd2si %xmm3,%rax
  40d732:	48 89 47 28          	mov    %rax,0x28(%rdi)
  40d736:	bf 00 12 7a 00       	mov    $0x7a1200,%edi
  40d73b:	e8 20 53 ff ff       	callq  402a60 <_Znwm@plt>
  40d740:	f2 0f 10 05 50 24 00 	movsd  0x2450(%rip),%xmm0        # 40fb98 <_ZTVN6GetOpt13_DefValOptionIdNS_8_OptionTIdEEEE+0x58>
  40d747:	00 
  40d748:	49 89 c0             	mov    %rax,%r8
  40d74b:	48 89 43 30          	mov    %rax,0x30(%rbx)
  40d74f:	66 0f 2e 44 24 08    	ucomisd 0x8(%rsp),%xmm0
  40d755:	0f 87 cf 02 00 00    	ja     40da2a <_ZN10RelaxationIdLl1000EEC1Eddlldd+0x33a>
  40d75b:	49 8d 44 24 ff       	lea    -0x1(%r12),%rax
  40d760:	48 3d e5 03 00 00    	cmp    $0x3e5,%rax
  40d766:	0f 87 6b 02 00 00    	ja     40d9d7 <_ZN10RelaxationIdLl1000EEC1Eddlldd+0x2e7>
  40d76c:	48 8d 45 ff          	lea    -0x1(%rbp),%rax
  40d770:	48 3d e5 03 00 00    	cmp    $0x3e5,%rax
  40d776:	0f 87 5b 02 00 00    	ja     40d9d7 <_ZN10RelaxationIdLl1000EEC1Eddlldd+0x2e7>
  40d77c:	f2 49 0f 2a c4       	cvtsi2sd %r12,%xmm0
  40d781:	f2 0f 10 64 24 08    	movsd  0x8(%rsp),%xmm4
  40d787:	66 0f 57 d2          	xorpd  %xmm2,%xmm2
  40d78b:	66 0f 28 c8          	movapd %xmm0,%xmm1
  40d78f:	f2 0f 5c cc          	subsd  %xmm4,%xmm1
  40d793:	66 0f 2e d1          	ucomisd %xmm1,%xmm2
  40d797:	0f 87 31 03 00 00    	ja     40dace <_ZN10RelaxationIdLl1000EEC1Eddlldd+0x3de>
  40d79d:	f2 0f 58 c4          	addsd  %xmm4,%xmm0
  40d7a1:	66 0f 28 c8          	movapd %xmm0,%xmm1
  40d7a5:	f2 0f 10 05 13 24 00 	movsd  0x2413(%rip),%xmm0        # 40fbc0 <_ZTVN6GetOpt13_DefValOptionIdNS_8_OptionTIdEEEE+0x80>
  40d7ac:	00 
  40d7ad:	66 0f 2e c8          	ucomisd %xmm0,%xmm1
  40d7b1:	0f 87 17 03 00 00    	ja     40dace <_ZN10RelaxationIdLl1000EEC1Eddlldd+0x3de>
  40d7b7:	f2 48 0f 2a cd       	cvtsi2sd %rbp,%xmm1
  40d7bc:	66 0f 28 d9          	movapd %xmm1,%xmm3
  40d7c0:	f2 0f 5c dc          	subsd  %xmm4,%xmm3
  40d7c4:	66 0f 2e d3          	ucomisd %xmm3,%xmm2
  40d7c8:	0f 87 00 03 00 00    	ja     40dace <_ZN10RelaxationIdLl1000EEC1Eddlldd+0x3de>
  40d7ce:	f2 0f 58 cc          	addsd  %xmm4,%xmm1
  40d7d2:	66 0f 2e c8          	ucomisd %xmm0,%xmm1
  40d7d6:	0f 87 f2 02 00 00    	ja     40dace <_ZN10RelaxationIdLl1000EEC1Eddlldd+0x3de>
  40d7dc:	f2 0f 10 74 24 10    	movsd  0x10(%rsp),%xmm6
  40d7e2:	66 0f 2e 74 24 18    	ucomisd 0x18(%rsp),%xmm6
  40d7e8:	0f 87 96 01 00 00    	ja     40d984 <_ZN10RelaxationIdLl1000EEC1Eddlldd+0x294>
  40d7ee:	49 8d b8 c0 f2 79 00 	lea    0x79f2c0(%r8),%rdi
  40d7f5:	be 40 1f 00 00       	mov    $0x1f40,%esi
  40d7fa:	40 f6 c7 01          	test   $0x1,%dil
  40d7fe:	0f 85 cc 00 00 00    	jne    40d8d0 <_ZN10RelaxationIdLl1000EEC1Eddlldd+0x1e0>
  40d804:	40 f6 c7 02          	test   $0x2,%dil
  40d808:	0f 85 e2 00 00 00    	jne    40d8f0 <_ZN10RelaxationIdLl1000EEC1Eddlldd+0x200>
  40d80e:	40 f6 c7 04          	test   $0x4,%dil
  40d812:	0f 85 f8 00 00 00    	jne    40d910 <_ZN10RelaxationIdLl1000EEC1Eddlldd+0x220>
  40d818:	89 f1                	mov    %esi,%ecx
  40d81a:	31 c0                	xor    %eax,%eax
  40d81c:	c1 e9 03             	shr    $0x3,%ecx
  40d81f:	40 f6 c6 04          	test   $0x4,%sil
  40d823:	f3 48 ab             	rep stos %rax,%es:(%rdi)
  40d826:	74 0a                	je     40d832 <_ZN10RelaxationIdLl1000EEC1Eddlldd+0x142>
  40d828:	c7 07 00 00 00 00    	movl   $0x0,(%rdi)
  40d82e:	48 83 c7 04          	add    $0x4,%rdi
  40d832:	40 f6 c6 02          	test   $0x2,%sil
  40d836:	74 0c                	je     40d844 <_ZN10RelaxationIdLl1000EEC1Eddlldd+0x154>
  40d838:	45 31 c9             	xor    %r9d,%r9d
  40d83b:	48 83 c7 02          	add    $0x2,%rdi
  40d83f:	66 44 89 4f fe       	mov    %r9w,-0x2(%rdi)
  40d844:	83 e6 01             	and    $0x1,%esi
  40d847:	74 03                	je     40d84c <_ZN10RelaxationIdLl1000EEC1Eddlldd+0x15c>
  40d849:	c6 07 00             	movb   $0x0,(%rdi)
  40d84c:	41 f6 c0 01          	test   $0x1,%r8b
  40d850:	4c 89 c7             	mov    %r8,%rdi
  40d853:	ba 40 1f 00 00       	mov    $0x1f40,%edx
  40d858:	0f 85 ca 00 00 00    	jne    40d928 <_ZN10RelaxationIdLl1000EEC1Eddlldd+0x238>
  40d85e:	40 f6 c7 02          	test   $0x2,%dil
  40d862:	0f 85 d8 00 00 00    	jne    40d940 <_ZN10RelaxationIdLl1000EEC1Eddlldd+0x250>
  40d868:	40 f6 c7 04          	test   $0x4,%dil
  40d86c:	0f 85 ee 00 00 00    	jne    40d960 <_ZN10RelaxationIdLl1000EEC1Eddlldd+0x270>
  40d872:	89 d1                	mov    %edx,%ecx
  40d874:	31 c0                	xor    %eax,%eax
  40d876:	c1 e9 03             	shr    $0x3,%ecx
  40d879:	f6 c2 04             	test   $0x4,%dl
  40d87c:	f3 48 ab             	rep stos %rax,%es:(%rdi)
  40d87f:	74 0a                	je     40d88b <_ZN10RelaxationIdLl1000EEC1Eddlldd+0x19b>
  40d881:	c7 07 00 00 00 00    	movl   $0x0,(%rdi)
  40d887:	48 83 c7 04          	add    $0x4,%rdi
  40d88b:	f6 c2 02             	test   $0x2,%dl
  40d88e:	74 0a                	je     40d89a <_ZN10RelaxationIdLl1000EEC1Eddlldd+0x1aa>
  40d890:	31 c0                	xor    %eax,%eax
  40d892:	48 83 c7 02          	add    $0x2,%rdi
  40d896:	66 89 47 fe          	mov    %ax,-0x2(%rdi)
  40d89a:	83 e2 01             	and    $0x1,%edx
  40d89d:	74 03                	je     40d8a2 <_ZN10RelaxationIdLl1000EEC1Eddlldd+0x1b2>
  40d89f:	c6 07 00             	movb   $0x0,(%rdi)
  40d8a2:	48 8d 74 24 50       	lea    0x50(%rsp),%rsi
  40d8a7:	31 d2                	xor    %edx,%edx
  40d8a9:	bf 80 95 40 00       	mov    $0x409580,%edi
  40d8ae:	48 89 5c 24 50       	mov    %rbx,0x50(%rsp)
  40d8b3:	e8 48 50 ff ff       	callq  402900 <GOMP_parallel_start@plt>
  40d8b8:	48 8d 7c 24 50       	lea    0x50(%rsp),%rdi
  40d8bd:	e8 be bc ff ff       	callq  409580 <_ZN10RelaxationIdLl1000EEC2Eddlldd._omp_fn.12>
  40d8c2:	e8 29 4f ff ff       	callq  4027f0 <GOMP_parallel_end@plt>
  40d8c7:	48 83 c4 60          	add    $0x60,%rsp
  40d8cb:	5b                   	pop    %rbx
  40d8cc:	5d                   	pop    %rbp
  40d8cd:	41 5c                	pop    %r12
  40d8cf:	c3                   	retq   
  40d8d0:	49 8d b8 c1 f2 79 00 	lea    0x79f2c1(%r8),%rdi
  40d8d7:	41 c6 80 c0 f2 79 00 	movb   $0x0,0x79f2c0(%r8)
  40d8de:	00 
  40d8df:	40 b6 3f             	mov    $0x3f,%sil
  40d8e2:	40 f6 c7 02          	test   $0x2,%dil
  40d8e6:	0f 84 22 ff ff ff    	je     40d80e <_ZN10RelaxationIdLl1000EEC1Eddlldd+0x11e>
  40d8ec:	0f 1f 40 00          	nopl   0x0(%rax)
  40d8f0:	45 31 d2             	xor    %r10d,%r10d
  40d8f3:	48 83 c7 02          	add    $0x2,%rdi
  40d8f7:	83 ee 02             	sub    $0x2,%esi
  40d8fa:	66 44 89 57 fe       	mov    %r10w,-0x2(%rdi)
  40d8ff:	40 f6 c7 04          	test   $0x4,%dil
  40d903:	0f 84 0f ff ff ff    	je     40d818 <_ZN10RelaxationIdLl1000EEC1Eddlldd+0x128>
  40d909:	0f 1f 80 00 00 00 00 	nopl   0x0(%rax)
  40d910:	c7 07 00 00 00 00    	movl   $0x0,(%rdi)
  40d916:	83 ee 04             	sub    $0x4,%esi
  40d919:	48 83 c7 04          	add    $0x4,%rdi
  40d91d:	e9 f6 fe ff ff       	jmpq   40d818 <_ZN10RelaxationIdLl1000EEC1Eddlldd+0x128>
  40d922:	66 0f 1f 44 00 00    	nopw   0x0(%rax,%rax,1)
  40d928:	48 83 c7 01          	add    $0x1,%rdi
  40d92c:	41 c6 00 00          	movb   $0x0,(%r8)
  40d930:	b2 3f                	mov    $0x3f,%dl
  40d932:	40 f6 c7 02          	test   $0x2,%dil
  40d936:	0f 84 2c ff ff ff    	je     40d868 <_ZN10RelaxationIdLl1000EEC1Eddlldd+0x178>
  40d93c:	0f 1f 40 00          	nopl   0x0(%rax)
  40d940:	31 c9                	xor    %ecx,%ecx
  40d942:	48 83 c7 02          	add    $0x2,%rdi
  40d946:	83 ea 02             	sub    $0x2,%edx
  40d949:	66 89 4f fe          	mov    %cx,-0x2(%rdi)
  40d94d:	40 f6 c7 04          	test   $0x4,%dil
  40d951:	0f 84 1b ff ff ff    	je     40d872 <_ZN10RelaxationIdLl1000EEC1Eddlldd+0x182>
  40d957:	66 0f 1f 84 00 00 00 	nopw   0x0(%rax,%rax,1)
  40d95e:	00 00 
  40d960:	c7 07 00 00 00 00    	movl   $0x0,(%rdi)
  40d966:	83 ea 04             	sub    $0x4,%edx
  40d969:	48 83 c7 04          	add    $0x4,%rdi
  40d96d:	e9 00 ff ff ff       	jmpq   40d872 <_ZN10RelaxationIdLl1000EEC1Eddlldd+0x182>
  40d972:	48 89 c7             	mov    %rax,%rdi
  40d975:	48 83 fa ff          	cmp    $0xffffffffffffffff,%rdx
  40d979:	0f 84 a2 01 00 00    	je     40db21 <_ZN10RelaxationIdLl1000EEC1Eddlldd+0x431>
  40d97f:	e8 2c 53 ff ff       	callq  402cb0 <_Unwind_Resume@plt>
  40d984:	bf 10 00 00 00       	mov    $0x10,%edi
  40d989:	e8 42 4f ff ff       	callq  4028d0 <__cxa_allocate_exception@plt>
  40d98e:	48 8d 54 24 30       	lea    0x30(%rsp),%rdx
  40d993:	48 8d 7c 24 50       	lea    0x50(%rsp),%rdi
  40d998:	be f8 f6 40 00       	mov    $0x40f6f8,%esi
  40d99d:	48 89 c3             	mov    %rax,%rbx
  40d9a0:	e8 2b 51 ff ff       	callq  402ad0 <_ZNSsC1EPKcRKSaIcE@plt>
  40d9a5:	48 8d 74 24 50       	lea    0x50(%rsp),%rsi
  40d9aa:	48 89 df             	mov    %rbx,%rdi
  40d9ad:	e8 4e 50 ff ff       	callq  402a00 <_ZNSt11logic_errorC1ERKSs@plt>
  40d9b2:	48 8b 44 24 50       	mov    0x50(%rsp),%rax
  40d9b7:	48 8d 74 24 40       	lea    0x40(%rsp),%rsi
  40d9bc:	48 8d 78 e8          	lea    -0x18(%rax),%rdi
  40d9c0:	e8 7b 4f ff ff       	callq  402940 <_ZNSs4_Rep10_M_disposeERKSaIcE@plt>
  40d9c5:	ba 10 2b 40 00       	mov    $0x402b10,%edx
  40d9ca:	be b0 27 61 00       	mov    $0x6127b0,%esi
  40d9cf:	48 89 df             	mov    %rbx,%rdi
  40d9d2:	e8 b9 52 ff ff       	callq  402c90 <__cxa_throw@plt>
  40d9d7:	bf 10 00 00 00       	mov    $0x10,%edi
  40d9dc:	e8 ef 4e ff ff       	callq  4028d0 <__cxa_allocate_exception@plt>
  40d9e1:	48 8d 54 24 40       	lea    0x40(%rsp),%rdx
  40d9e6:	48 8d 7c 24 30       	lea    0x30(%rsp),%rdi
  40d9eb:	be 30 f6 40 00       	mov    $0x40f630,%esi
  40d9f0:	48 89 c3             	mov    %rax,%rbx
  40d9f3:	e8 d8 50 ff ff       	callq  402ad0 <_ZNSsC1EPKcRKSaIcE@plt>
  40d9f8:	48 8d 74 24 30       	lea    0x30(%rsp),%rsi
  40d9fd:	48 89 df             	mov    %rbx,%rdi
  40da00:	e8 fb 4f ff ff       	callq  402a00 <_ZNSt11logic_errorC1ERKSs@plt>
  40da05:	48 8b 44 24 30       	mov    0x30(%rsp),%rax
  40da0a:	48 8d 74 24 50       	lea    0x50(%rsp),%rsi
  40da0f:	48 8d 78 e8          	lea    -0x18(%rax),%rdi
  40da13:	e8 28 4f ff ff       	callq  402940 <_ZNSs4_Rep10_M_disposeERKSaIcE@plt>
  40da18:	ba 10 2b 40 00       	mov    $0x402b10,%edx
  40da1d:	be b0 27 61 00       	mov    $0x6127b0,%esi
  40da22:	48 89 df             	mov    %rbx,%rdi
  40da25:	e8 66 52 ff ff       	callq  402c90 <__cxa_throw@plt>
  40da2a:	bf 10 00 00 00       	mov    $0x10,%edi
  40da2f:	e8 9c 4e ff ff       	callq  4028d0 <__cxa_allocate_exception@plt>
  40da34:	48 8d 54 24 40       	lea    0x40(%rsp),%rdx
  40da39:	48 8d 7c 24 20       	lea    0x20(%rsp),%rdi
  40da3e:	be 08 f6 40 00       	mov    $0x40f608,%esi
  40da43:	48 89 c3             	mov    %rax,%rbx
  40da46:	e8 85 50 ff ff       	callq  402ad0 <_ZNSsC1EPKcRKSaIcE@plt>
  40da4b:	48 8d 74 24 20       	lea    0x20(%rsp),%rsi
  40da50:	48 89 df             	mov    %rbx,%rdi
  40da53:	e8 a8 4f ff ff       	callq  402a00 <_ZNSt11logic_errorC1ERKSs@plt>
  40da58:	48 8b 44 24 20       	mov    0x20(%rsp),%rax
  40da5d:	48 8d 74 24 50       	lea    0x50(%rsp),%rsi
  40da62:	48 8d 78 e8          	lea    -0x18(%rax),%rdi
  40da66:	e8 d5 4e ff ff       	callq  402940 <_ZNSs4_Rep10_M_disposeERKSaIcE@plt>
  40da6b:	ba 10 2b 40 00       	mov    $0x402b10,%edx
  40da70:	be b0 27 61 00       	mov    $0x6127b0,%esi
  40da75:	48 89 df             	mov    %rbx,%rdi
  40da78:	e8 13 52 ff ff       	callq  402c90 <__cxa_throw@plt>
  40da7d:	48 89 c5             	mov    %rax,%rbp
  40da80:	48 8b 44 24 30       	mov    0x30(%rsp),%rax
  40da85:	48 8d 74 24 50       	lea    0x50(%rsp),%rsi
  40da8a:	49 89 d4             	mov    %rdx,%r12
  40da8d:	48 8d 78 e8          	lea    -0x18(%rax),%rdi
  40da91:	e8 aa 4e ff ff       	callq  402940 <_ZNSs4_Rep10_M_disposeERKSaIcE@plt>
  40da96:	48 89 df             	mov    %rbx,%rdi
  40da99:	e8 f2 4e ff ff       	callq  402990 <__cxa_free_exception@plt>
  40da9e:	48 89 ef             	mov    %rbp,%rdi
  40daa1:	4c 89 e2             	mov    %r12,%rdx
  40daa4:	e9 cc fe ff ff       	jmpq   40d975 <_ZN10RelaxationIdLl1000EEC1Eddlldd+0x285>
  40daa9:	48 89 c5             	mov    %rax,%rbp
  40daac:	49 89 d4             	mov    %rdx,%r12
  40daaf:	eb e5                	jmp    40da96 <_ZN10RelaxationIdLl1000EEC1Eddlldd+0x3a6>
  40dab1:	48 89 c5             	mov    %rax,%rbp
  40dab4:	48 8b 44 24 20       	mov    0x20(%rsp),%rax
  40dab9:	48 8d 74 24 50       	lea    0x50(%rsp),%rsi
  40dabe:	49 89 d4             	mov    %rdx,%r12
  40dac1:	48 8d 78 e8          	lea    -0x18(%rax),%rdi
  40dac5:	e8 76 4e ff ff       	callq  402940 <_ZNSs4_Rep10_M_disposeERKSaIcE@plt>
  40daca:	eb ca                	jmp    40da96 <_ZN10RelaxationIdLl1000EEC1Eddlldd+0x3a6>
  40dacc:	eb db                	jmp    40daa9 <_ZN10RelaxationIdLl1000EEC1Eddlldd+0x3b9>
  40dace:	bf 10 00 00 00       	mov    $0x10,%edi
  40dad3:	e8 f8 4d ff ff       	callq  4028d0 <__cxa_allocate_exception@plt>
  40dad8:	48 8d 54 24 30       	lea    0x30(%rsp),%rdx
  40dadd:	48 8d 7c 24 40       	lea    0x40(%rsp),%rdi
  40dae2:	be 90 f6 40 00       	mov    $0x40f690,%esi
  40dae7:	48 89 c3             	mov    %rax,%rbx
  40daea:	e8 e1 4f ff ff       	callq  402ad0 <_ZNSsC1EPKcRKSaIcE@plt>
  40daef:	48 8d 74 24 40       	lea    0x40(%rsp),%rsi
  40daf4:	48 89 df             	mov    %rbx,%rdi
  40daf7:	e8 04 4f ff ff       	callq  402a00 <_ZNSt11logic_errorC1ERKSs@plt>
  40dafc:	48 8b 44 24 40       	mov    0x40(%rsp),%rax
  40db01:	48 8d 74 24 50       	lea    0x50(%rsp),%rsi
  40db06:	48 8d 78 e8          	lea    -0x18(%rax),%rdi
  40db0a:	e8 31 4e ff ff       	callq  402940 <_ZNSs4_Rep10_M_disposeERKSaIcE@plt>
  40db0f:	ba 10 2b 40 00       	mov    $0x402b10,%edx
  40db14:	be b0 27 61 00       	mov    $0x6127b0,%esi
  40db19:	48 89 df             	mov    %rbx,%rdi
  40db1c:	e8 6f 51 ff ff       	callq  402c90 <__cxa_throw@plt>
  40db21:	e8 2a 50 ff ff       	callq  402b50 <__cxa_call_unexpected@plt>
  40db26:	48 89 c5             	mov    %rax,%rbp
  40db29:	48 8b 44 24 40       	mov    0x40(%rsp),%rax
  40db2e:	48 8d 74 24 50       	lea    0x50(%rsp),%rsi
  40db33:	49 89 d4             	mov    %rdx,%r12
  40db36:	48 8d 78 e8          	lea    -0x18(%rax),%rdi
  40db3a:	e8 01 4e ff ff       	callq  402940 <_ZNSs4_Rep10_M_disposeERKSaIcE@plt>
  40db3f:	e9 52 ff ff ff       	jmpq   40da96 <_ZN10RelaxationIdLl1000EEC1Eddlldd+0x3a6>
  40db44:	e9 60 ff ff ff       	jmpq   40daa9 <_ZN10RelaxationIdLl1000EEC1Eddlldd+0x3b9>
  40db49:	48 89 c5             	mov    %rax,%rbp
  40db4c:	48 8b 44 24 50       	mov    0x50(%rsp),%rax
  40db51:	48 8d 74 24 40       	lea    0x40(%rsp),%rsi
  40db56:	49 89 d4             	mov    %rdx,%r12
  40db59:	48 8d 78 e8          	lea    -0x18(%rax),%rdi
  40db5d:	e8 de 4d ff ff       	callq  402940 <_ZNSs4_Rep10_M_disposeERKSaIcE@plt>
  40db62:	e9 2f ff ff ff       	jmpq   40da96 <_ZN10RelaxationIdLl1000EEC1Eddlldd+0x3a6>
  40db67:	e9 3d ff ff ff       	jmpq   40daa9 <_ZN10RelaxationIdLl1000EEC1Eddlldd+0x3b9>
  40db6c:	90                   	nop
  40db6d:	90                   	nop
  40db6e:	90                   	nop
  40db6f:	90                   	nop

000000000040db70 <_Z9benchmarkIdLl1000EEmi>:
  40db70:	41 57                	push   %r15
  40db72:	41 56                	push   %r14
  40db74:	41 55                	push   %r13
  40db76:	41 54                	push   %r12
  40db78:	55                   	push   %rbp
  40db79:	53                   	push   %rbx
  40db7a:	48 83 ec 58          	sub    $0x58,%rsp
  40db7e:	e8 3d 4f ff ff       	callq  402ac0 <omp_set_num_threads@plt>
  40db83:	e8 d8 50 ff ff       	callq  402c60 <omp_get_max_threads@plt>
  40db88:	ba 12 00 00 00       	mov    $0x12,%edx
  40db8d:	89 c3                	mov    %eax,%ebx
  40db8f:	be 0c f5 40 00       	mov    $0x40f50c,%esi
  40db94:	bf e0 24 61 00       	mov    $0x6124e0,%edi
  40db99:	e8 42 4f ff ff       	callq  402ae0 <_ZSt16__ostream_insertIcSt11char_traitsIcEERSt13basic_ostreamIT_T0_ES6_PKS3_l@plt>
  40db9e:	89 de                	mov    %ebx,%esi
  40dba0:	bf e0 24 61 00       	mov    $0x6124e0,%edi
  40dba5:	e8 f6 50 ff ff       	callq  402ca0 <_ZNSolsEi@plt>
  40dbaa:	ba 09 00 00 00       	mov    $0x9,%edx
  40dbaf:	48 89 c5             	mov    %rax,%rbp
  40dbb2:	be 1f f5 40 00       	mov    $0x40f51f,%esi
  40dbb7:	48 89 c7             	mov    %rax,%rdi
  40dbba:	e8 21 4f ff ff       	callq  402ae0 <_ZSt16__ostream_insertIcSt11char_traitsIcEERSt13basic_ostreamIT_T0_ES6_PKS3_l@plt>
  40dbbf:	48 8b 45 00          	mov    0x0(%rbp),%rax
  40dbc3:	48 8b 40 e8          	mov    -0x18(%rax),%rax
  40dbc7:	48 8b 9c 05 f0 00 00 	mov    0xf0(%rbp,%rax,1),%rbx
  40dbce:	00 
  40dbcf:	48 85 db             	test   %rbx,%rbx
  40dbd2:	0f 84 47 03 00 00    	je     40df1f <_Z9benchmarkIdLl1000EEmi+0x3af>
  40dbd8:	80 7b 38 00          	cmpb   $0x0,0x38(%rbx)
  40dbdc:	0f 84 22 03 00 00    	je     40df04 <_Z9benchmarkIdLl1000EEmi+0x394>
  40dbe2:	0f b6 43 43          	movzbl 0x43(%rbx),%eax
  40dbe6:	0f be f0             	movsbl %al,%esi
  40dbe9:	48 89 ef             	mov    %rbp,%rdi
  40dbec:	e8 ef 4b ff ff       	callq  4027e0 <_ZNSo3putEc@plt>
  40dbf1:	48 89 c7             	mov    %rax,%rdi
  40dbf4:	e8 77 4d ff ff       	callq  402970 <_ZNSo5flushEv@plt>
  40dbf9:	8b 2d 61 4d 20 00    	mov    0x204d61(%rip),%ebp        # 612960 <steps>
  40dbff:	ba 0f 00 00 00       	mov    $0xf,%edx
  40dc04:	be 29 f5 40 00       	mov    $0x40f529,%esi
  40dc09:	bf e0 24 61 00       	mov    $0x6124e0,%edi
  40dc0e:	e8 cd 4e ff ff       	callq  402ae0 <_ZSt16__ostream_insertIcSt11char_traitsIcEERSt13basic_ostreamIT_T0_ES6_PKS3_l@plt>
  40dc13:	be e8 03 00 00       	mov    $0x3e8,%esi
  40dc18:	bf e0 24 61 00       	mov    $0x6124e0,%edi
  40dc1d:	e8 1e 4e ff ff       	callq  402a40 <_ZNSo9_M_insertIlEERSoT_@plt>
  40dc22:	ba 06 00 00 00       	mov    $0x6,%edx
  40dc27:	48 89 c3             	mov    %rax,%rbx
  40dc2a:	be 18 f5 40 00       	mov    $0x40f518,%esi
  40dc2f:	48 89 c7             	mov    %rax,%rdi
  40dc32:	e8 a9 4e ff ff       	callq  402ae0 <_ZSt16__ostream_insertIcSt11char_traitsIcEERSt13basic_ostreamIT_T0_ES6_PKS3_l@plt>
  40dc37:	89 ee                	mov    %ebp,%esi
  40dc39:	48 89 df             	mov    %rbx,%rdi
  40dc3c:	e8 5f 50 ff ff       	callq  402ca0 <_ZNSolsEi@plt>
  40dc41:	ba 0f 00 00 00       	mov    $0xf,%edx
  40dc46:	48 89 c3             	mov    %rax,%rbx
  40dc49:	be 39 f5 40 00       	mov    $0x40f539,%esi
  40dc4e:	48 89 c7             	mov    %rax,%rdi
  40dc51:	e8 8a 4e ff ff       	callq  402ae0 <_ZSt16__ostream_insertIcSt11char_traitsIcEERSt13basic_ostreamIT_T0_ES6_PKS3_l@plt>
  40dc56:	48 89 df             	mov    %rbx,%rdi
  40dc59:	be 0a 00 00 00       	mov    $0xa,%esi
  40dc5e:	e8 3d 50 ff ff       	callq  402ca0 <_ZNSolsEi@plt>
  40dc63:	ba 06 00 00 00       	mov    $0x6,%edx
  40dc68:	48 89 c5             	mov    %rax,%rbp
  40dc6b:	be 49 f5 40 00       	mov    $0x40f549,%esi
  40dc70:	48 89 c7             	mov    %rax,%rdi
  40dc73:	e8 68 4e ff ff       	callq  402ae0 <_ZSt16__ostream_insertIcSt11char_traitsIcEERSt13basic_ostreamIT_T0_ES6_PKS3_l@plt>
  40dc78:	48 8b 45 00          	mov    0x0(%rbp),%rax
  40dc7c:	48 8b 40 e8          	mov    -0x18(%rax),%rax
  40dc80:	48 8b 9c 05 f0 00 00 	mov    0xf0(%rbp,%rax,1),%rbx
  40dc87:	00 
  40dc88:	48 85 db             	test   %rbx,%rbx
  40dc8b:	0f 84 8e 02 00 00    	je     40df1f <_Z9benchmarkIdLl1000EEmi+0x3af>
  40dc91:	80 7b 38 00          	cmpb   $0x0,0x38(%rbx)
  40dc95:	0f 84 49 02 00 00    	je     40dee4 <_Z9benchmarkIdLl1000EEmi+0x374>
  40dc9b:	0f b6 43 43          	movzbl 0x43(%rbx),%eax
  40dc9f:	48 89 ef             	mov    %rbp,%rdi
  40dca2:	0f be f0             	movsbl %al,%esi
  40dca5:	48 8d 6c 24 10       	lea    0x10(%rsp),%rbp
  40dcaa:	e8 31 4b ff ff       	callq  4027e0 <_ZNSo3putEc@plt>
  40dcaf:	41 bd 0a 00 00 00    	mov    $0xa,%r13d
  40dcb5:	48 89 c7             	mov    %rax,%rdi
  40dcb8:	45 31 e4             	xor    %r12d,%r12d
  40dcbb:	e8 b0 4c ff ff       	callq  402970 <_ZNSo5flushEv@plt>
  40dcc0:	0f 31                	rdtsc  
  40dcc2:	f2 0f 10 1d 7e 4c 20 	movsd  0x204c7e(%rip),%xmm3        # 612948 <heat>
  40dcc9:	00 
  40dcca:	49 89 d6             	mov    %rdx,%r14
  40dccd:	f2 0f 2a 15 7b 4c 20 	cvtsi2sdl 0x204c7b(%rip),%xmm2        # 612950 <radius>
  40dcd4:	00 
  40dcd5:	f2 0f 10 0d cb 1e 00 	movsd  0x1ecb(%rip),%xmm1        # 40fba8 <_ZTVN6GetOpt13_DefValOptionIdNS_8_OptionTIdEEEE+0x68>
  40dcdc:	00 
  40dcdd:	49 c1 e6 20          	shl    $0x20,%r14
  40dce1:	f2 0f 10 05 c7 1e 00 	movsd  0x1ec7(%rip),%xmm0        # 40fbb0 <_ZTVN6GetOpt13_DefValOptionIdNS_8_OptionTIdEEEE+0x70>
  40dce8:	00 
  40dce9:	89 c0                	mov    %eax,%eax
  40dceb:	ba f4 01 00 00       	mov    $0x1f4,%edx
  40dcf0:	be f4 01 00 00       	mov    $0x1f4,%esi
  40dcf5:	48 89 ef             	mov    %rbp,%rdi
  40dcf8:	49 09 c6             	or     %rax,%r14
  40dcfb:	e8 f0 f9 ff ff       	callq  40d6f0 <_ZN10RelaxationIdLl1000EEC1Eddlldd>
  40dd00:	ba 12 00 00 00       	mov    $0x12,%edx
  40dd05:	be 50 f5 40 00       	mov    $0x40f550,%esi
  40dd0a:	bf e0 24 61 00       	mov    $0x6124e0,%edi
  40dd0f:	e8 cc 4d ff ff       	callq  402ae0 <_ZSt16__ostream_insertIcSt11char_traitsIcEERSt13basic_ostreamIT_T0_ES6_PKS3_l@plt>
  40dd14:	48 8b 05 c5 47 20 00 	mov    0x2047c5(%rip),%rax        # 6124e0 <_ZSt4cout@@GLIBCXX_3.4>
  40dd1b:	48 8b 40 e8          	mov    -0x18(%rax),%rax
  40dd1f:	48 8b 98 d0 25 61 00 	mov    0x6125d0(%rax),%rbx
  40dd26:	48 85 db             	test   %rbx,%rbx
  40dd29:	0f 84 f5 01 00 00    	je     40df24 <_Z9benchmarkIdLl1000EEmi+0x3b4>
  40dd2f:	80 7b 38 00          	cmpb   $0x0,0x38(%rbx)
  40dd33:	0f 84 82 01 00 00    	je     40debb <_Z9benchmarkIdLl1000EEmi+0x34b>
  40dd39:	0f b6 43 43          	movzbl 0x43(%rbx),%eax
  40dd3d:	0f be f0             	movsbl %al,%esi
  40dd40:	bf e0 24 61 00       	mov    $0x6124e0,%edi
  40dd45:	e8 96 4a ff ff       	callq  4027e0 <_ZNSo3putEc@plt>
  40dd4a:	48 89 c7             	mov    %rax,%rdi
  40dd4d:	e8 1e 4c ff ff       	callq  402970 <_ZNSo5flushEv@plt>
  40dd52:	44 8b 1d 07 4c 20 00 	mov    0x204c07(%rip),%r11d        # 612960 <steps>
  40dd59:	bb 01 00 00 00       	mov    $0x1,%ebx
  40dd5e:	48 8b 7c 24 40       	mov    0x40(%rsp),%rdi
  40dd63:	45 85 db             	test   %r11d,%r11d
  40dd66:	0f 8e e2 00 00 00    	jle    40de4e <_Z9benchmarkIdLl1000EEmi+0x2de>
  40dd6c:	0f 1f 40 00          	nopl   0x0(%rax)
  40dd70:	ba 09 00 00 00       	mov    $0x9,%edx
  40dd75:	be 63 f5 40 00       	mov    $0x40f563,%esi
  40dd7a:	bf e0 24 61 00       	mov    $0x6124e0,%edi
  40dd7f:	e8 5c 4d ff ff       	callq  402ae0 <_ZSt16__ostream_insertIcSt11char_traitsIcEERSt13basic_ostreamIT_T0_ES6_PKS3_l@plt>
  40dd84:	48 8b 05 55 47 20 00 	mov    0x204755(%rip),%rax        # 6124e0 <_ZSt4cout@@GLIBCXX_3.4>
  40dd8b:	48 8b 40 e8          	mov    -0x18(%rax),%rax
  40dd8f:	4c 8b b8 d0 25 61 00 	mov    0x6125d0(%rax),%r15
  40dd96:	4d 85 ff             	test   %r15,%r15
  40dd99:	0f 84 a1 01 00 00    	je     40df40 <_Z9benchmarkIdLl1000EEmi+0x3d0>
  40dd9f:	41 80 7f 38 00       	cmpb   $0x0,0x38(%r15)
  40dda4:	0f 84 f6 00 00 00    	je     40dea0 <_Z9benchmarkIdLl1000EEmi+0x330>
  40ddaa:	41 0f b6 47 43       	movzbl 0x43(%r15),%eax
  40ddaf:	0f be f0             	movsbl %al,%esi
  40ddb2:	bf e0 24 61 00       	mov    $0x6124e0,%edi
  40ddb7:	e8 24 4a ff ff       	callq  4027e0 <_ZNSo3putEc@plt>
  40ddbc:	48 89 c7             	mov    %rax,%rdi
  40ddbf:	e8 ac 4b ff ff       	callq  402970 <_ZNSo5flushEv@plt>
  40ddc4:	bf 00 12 7a 00       	mov    $0x7a1200,%edi
  40ddc9:	e8 92 4c ff ff       	callq  402a60 <_Znwm@plt>
  40ddce:	48 8b 4c 24 40       	mov    0x40(%rsp),%rcx
  40ddd3:	31 d2                	xor    %edx,%edx
  40ddd5:	48 81 c1 c0 f2 79 00 	add    $0x79f2c0,%rcx
  40dddc:	0f 1f 40 00          	nopl   0x0(%rax)
  40dde0:	48 c7 04 d1 00 00 00 	movq   $0x0,(%rcx,%rdx,8)
  40dde7:	00 
  40dde8:	48 c7 04 d0 00 00 00 	movq   $0x0,(%rax,%rdx,8)
  40ddef:	00 
  40ddf0:	48 83 c2 01          	add    $0x1,%rdx
  40ddf4:	48 81 fa e8 03 00 00 	cmp    $0x3e8,%rdx
  40ddfb:	75 e3                	jne    40dde0 <_Z9benchmarkIdLl1000EEmi+0x270>
  40ddfd:	66 31 d2             	xor    %dx,%dx
  40de00:	48 89 e6             	mov    %rsp,%rsi
  40de03:	bf d0 8b 40 00       	mov    $0x408bd0,%edi
  40de08:	48 89 44 24 08       	mov    %rax,0x8(%rsp)
  40de0d:	48 89 2c 24          	mov    %rbp,(%rsp)
  40de11:	e8 ea 4a ff ff       	callq  402900 <GOMP_parallel_start@plt>
  40de16:	48 89 e7             	mov    %rsp,%rdi
  40de19:	e8 b2 ad ff ff       	callq  408bd0 <_ZN10RelaxationIdLl1000EE7iterateEv._omp_fn.13>
  40de1e:	e8 cd 49 ff ff       	callq  4027f0 <GOMP_parallel_end@plt>
  40de23:	48 8b 7c 24 40       	mov    0x40(%rsp),%rdi
  40de28:	4c 8b 7c 24 08       	mov    0x8(%rsp),%r15
  40de2d:	48 85 ff             	test   %rdi,%rdi
  40de30:	74 05                	je     40de37 <_Z9benchmarkIdLl1000EEmi+0x2c7>
  40de32:	e8 29 4d ff ff       	callq  402b60 <_ZdaPv@plt>
  40de37:	83 c3 01             	add    $0x1,%ebx
  40de3a:	39 1d 20 4b 20 00    	cmp    %ebx,0x204b20(%rip)        # 612960 <steps>
  40de40:	4c 89 7c 24 40       	mov    %r15,0x40(%rsp)
  40de45:	0f 8d 25 ff ff ff    	jge    40dd70 <_Z9benchmarkIdLl1000EEmi+0x200>
  40de4b:	4c 89 ff             	mov    %r15,%rdi
  40de4e:	0f 31                	rdtsc  
  40de50:	48 c1 e2 20          	shl    $0x20,%rdx
  40de54:	89 c0                	mov    %eax,%eax
  40de56:	48 09 c2             	or     %rax,%rdx
  40de59:	4c 29 f2             	sub    %r14,%rdx
  40de5c:	49 01 d4             	add    %rdx,%r12
  40de5f:	48 85 ff             	test   %rdi,%rdi
  40de62:	74 05                	je     40de69 <_Z9benchmarkIdLl1000EEmi+0x2f9>
  40de64:	e8 f7 4c ff ff       	callq  402b60 <_ZdaPv@plt>
  40de69:	41 83 ed 01          	sub    $0x1,%r13d
  40de6d:	0f 85 4d fe ff ff    	jne    40dcc0 <_Z9benchmarkIdLl1000EEmi+0x150>
  40de73:	48 83 c4 58          	add    $0x58,%rsp
  40de77:	4c 89 e0             	mov    %r12,%rax
  40de7a:	48 ba cd cc cc cc cc 	movabs $0xcccccccccccccccd,%rdx
  40de81:	cc cc cc 
  40de84:	5b                   	pop    %rbx
  40de85:	48 f7 e2             	mul    %rdx
  40de88:	5d                   	pop    %rbp
  40de89:	41 5c                	pop    %r12
  40de8b:	41 5d                	pop    %r13
  40de8d:	48 c1 ea 03          	shr    $0x3,%rdx
  40de91:	41 5e                	pop    %r14
  40de93:	48 89 d0             	mov    %rdx,%rax
  40de96:	41 5f                	pop    %r15
  40de98:	c3                   	retq   
  40de99:	0f 1f 80 00 00 00 00 	nopl   0x0(%rax)
  40dea0:	4c 89 ff             	mov    %r15,%rdi
  40dea3:	e8 48 4c ff ff       	callq  402af0 <_ZNKSt5ctypeIcE13_M_widen_initEv@plt>
  40dea8:	49 8b 07             	mov    (%r15),%rax
  40deab:	be 0a 00 00 00       	mov    $0xa,%esi
  40deb0:	4c 89 ff             	mov    %r15,%rdi
  40deb3:	ff 50 30             	callq  *0x30(%rax)
  40deb6:	e9 f4 fe ff ff       	jmpq   40ddaf <_Z9benchmarkIdLl1000EEmi+0x23f>
  40debb:	48 89 df             	mov    %rbx,%rdi
  40debe:	e8 2d 4c ff ff       	callq  402af0 <_ZNKSt5ctypeIcE13_M_widen_initEv@plt>
  40dec3:	48 8b 03             	mov    (%rbx),%rax
  40dec6:	be 0a 00 00 00       	mov    $0xa,%esi
  40decb:	48 89 df             	mov    %rbx,%rdi
  40dece:	ff 50 30             	callq  *0x30(%rax)
  40ded1:	e9 67 fe ff ff       	jmpq   40dd3d <_Z9benchmarkIdLl1000EEmi+0x1cd>
  40ded6:	48 83 fa ff          	cmp    $0xffffffffffffffff,%rdx
  40deda:	48 89 c7             	mov    %rax,%rdi
  40dedd:	74 20                	je     40deff <_Z9benchmarkIdLl1000EEmi+0x38f>
  40dedf:	e8 cc 4d ff ff       	callq  402cb0 <_Unwind_Resume@plt>
  40dee4:	48 89 df             	mov    %rbx,%rdi
  40dee7:	e8 04 4c ff ff       	callq  402af0 <_ZNKSt5ctypeIcE13_M_widen_initEv@plt>
  40deec:	48 8b 03             	mov    (%rbx),%rax
  40deef:	be 0a 00 00 00       	mov    $0xa,%esi
  40def4:	48 89 df             	mov    %rbx,%rdi
  40def7:	ff 50 30             	callq  *0x30(%rax)
  40defa:	e9 a0 fd ff ff       	jmpq   40dc9f <_Z9benchmarkIdLl1000EEmi+0x12f>
  40deff:	e8 4c 4c ff ff       	callq  402b50 <__cxa_call_unexpected@plt>
  40df04:	48 89 df             	mov    %rbx,%rdi
  40df07:	e8 e4 4b ff ff       	callq  402af0 <_ZNKSt5ctypeIcE13_M_widen_initEv@plt>
  40df0c:	48 8b 03             	mov    (%rbx),%rax
  40df0f:	be 0a 00 00 00       	mov    $0xa,%esi
  40df14:	48 89 df             	mov    %rbx,%rdi
  40df17:	ff 50 30             	callq  *0x30(%rax)
  40df1a:	e9 c7 fc ff ff       	jmpq   40dbe6 <_Z9benchmarkIdLl1000EEmi+0x76>
  40df1f:	e8 1c 4c ff ff       	callq  402b40 <_ZSt16__throw_bad_castv@plt>
  40df24:	e8 17 4c ff ff       	callq  402b40 <_ZSt16__throw_bad_castv@plt>
  40df29:	48 8b 7c 24 40       	mov    0x40(%rsp),%rdi
  40df2e:	48 89 c3             	mov    %rax,%rbx
  40df31:	48 85 ff             	test   %rdi,%rdi
  40df34:	74 05                	je     40df3b <_Z9benchmarkIdLl1000EEmi+0x3cb>
  40df36:	e8 25 4c ff ff       	callq  402b60 <_ZdaPv@plt>
  40df3b:	48 89 df             	mov    %rbx,%rdi
  40df3e:	eb 9f                	jmp    40dedf <_Z9benchmarkIdLl1000EEmi+0x36f>
  40df40:	e8 fb 4b ff ff       	callq  402b40 <_ZSt16__throw_bad_castv@plt>
  40df45:	90                   	nop
  40df46:	90                   	nop
  40df47:	90                   	nop
  40df48:	90                   	nop
  40df49:	90                   	nop
  40df4a:	90                   	nop
  40df4b:	90                   	nop
  40df4c:	90                   	nop
  40df4d:	90                   	nop
  40df4e:	90                   	nop
  40df4f:	90                   	nop

000000000040df50 <_ZN10RelaxationIdLl10000EEC1Eddlldd>:
  40df50:	f2 48 0f 2c c2       	cvttsd2si %xmm2,%rax
  40df55:	41 55                	push   %r13
  40df57:	41 54                	push   %r12
  40df59:	49 89 f4             	mov    %rsi,%r12
  40df5c:	55                   	push   %rbp
  40df5d:	48 89 d5             	mov    %rdx,%rbp
  40df60:	53                   	push   %rbx
  40df61:	48 89 fb             	mov    %rdi,%rbx
  40df64:	48 83 ec 68          	sub    $0x68,%rsp
  40df68:	f2 0f 11 03          	movsd  %xmm0,(%rbx)
  40df6c:	f2 0f 11 4f 08       	movsd  %xmm1,0x8(%rdi)
  40df71:	48 89 73 10          	mov    %rsi,0x10(%rbx)
  40df75:	48 89 53 18          	mov    %rdx,0x18(%rbx)
  40df79:	f2 0f 11 44 24 18    	movsd  %xmm0,0x18(%rsp)
  40df7f:	48 89 47 20          	mov    %rax,0x20(%rdi)
  40df83:	f2 0f 11 54 24 08    	movsd  %xmm2,0x8(%rsp)
  40df89:	f2 48 0f 2c c3       	cvttsd2si %xmm3,%rax
  40df8e:	f2 0f 11 5c 24 10    	movsd  %xmm3,0x10(%rsp)
  40df94:	48 89 47 28          	mov    %rax,0x28(%rdi)
  40df98:	bf 00 08 af 2f       	mov    $0x2faf0800,%edi
  40df9d:	e8 be 4a ff ff       	callq  402a60 <_Znwm@plt>
  40dfa2:	f2 0f 10 05 ee 1b 00 	movsd  0x1bee(%rip),%xmm0        # 40fb98 <_ZTVN6GetOpt13_DefValOptionIdNS_8_OptionTIdEEEE+0x58>
  40dfa9:	00 
  40dfaa:	49 89 c5             	mov    %rax,%r13
  40dfad:	48 89 43 30          	mov    %rax,0x30(%rbx)
  40dfb1:	66 0f 2e 44 24 08    	ucomisd 0x8(%rsp),%xmm0
  40dfb7:	0f 87 99 01 00 00    	ja     40e156 <_ZN10RelaxationIdLl10000EEC1Eddlldd+0x206>
  40dfbd:	49 8d 44 24 ff       	lea    -0x1(%r12),%rax
  40dfc2:	48 3d 0d 27 00 00    	cmp    $0x270d,%rax
  40dfc8:	0f 87 35 01 00 00    	ja     40e103 <_ZN10RelaxationIdLl10000EEC1Eddlldd+0x1b3>
  40dfce:	48 8d 45 ff          	lea    -0x1(%rbp),%rax
  40dfd2:	48 3d 0d 27 00 00    	cmp    $0x270d,%rax
  40dfd8:	0f 87 25 01 00 00    	ja     40e103 <_ZN10RelaxationIdLl10000EEC1Eddlldd+0x1b3>
  40dfde:	f2 49 0f 2a c4       	cvtsi2sd %r12,%xmm0
  40dfe3:	f2 0f 10 64 24 08    	movsd  0x8(%rsp),%xmm4
  40dfe9:	66 0f 57 d2          	xorpd  %xmm2,%xmm2
  40dfed:	66 0f 28 c8          	movapd %xmm0,%xmm1
  40dff1:	f2 0f 5c cc          	subsd  %xmm4,%xmm1
  40dff5:	66 0f 2e d1          	ucomisd %xmm1,%xmm2
  40dff9:	0f 87 fb 01 00 00    	ja     40e1fa <_ZN10RelaxationIdLl10000EEC1Eddlldd+0x2aa>
  40dfff:	f2 0f 58 c4          	addsd  %xmm4,%xmm0
  40e003:	66 0f 28 c8          	movapd %xmm0,%xmm1
  40e007:	f2 0f 10 05 b9 1b 00 	movsd  0x1bb9(%rip),%xmm0        # 40fbc8 <_ZTVN6GetOpt13_DefValOptionIdNS_8_OptionTIdEEEE+0x88>
  40e00e:	00 
  40e00f:	66 0f 2e c8          	ucomisd %xmm0,%xmm1
  40e013:	0f 87 e1 01 00 00    	ja     40e1fa <_ZN10RelaxationIdLl10000EEC1Eddlldd+0x2aa>
  40e019:	f2 48 0f 2a cd       	cvtsi2sd %rbp,%xmm1
  40e01e:	66 0f 28 d9          	movapd %xmm1,%xmm3
  40e022:	f2 0f 5c dc          	subsd  %xmm4,%xmm3
  40e026:	66 0f 2e d3          	ucomisd %xmm3,%xmm2
  40e02a:	0f 87 ca 01 00 00    	ja     40e1fa <_ZN10RelaxationIdLl10000EEC1Eddlldd+0x2aa>
  40e030:	f2 0f 58 cc          	addsd  %xmm4,%xmm1
  40e034:	66 0f 2e c8          	ucomisd %xmm0,%xmm1
  40e038:	0f 87 bc 01 00 00    	ja     40e1fa <_ZN10RelaxationIdLl10000EEC1Eddlldd+0x2aa>
  40e03e:	f2 0f 10 74 24 10    	movsd  0x10(%rsp),%xmm6
  40e044:	66 0f 2e 74 24 18    	ucomisd 0x18(%rsp),%xmm6
  40e04a:	77 64                	ja     40e0b0 <_ZN10RelaxationIdLl10000EEC1Eddlldd+0x160>
  40e04c:	49 8d bd 80 cf ad 2f 	lea    0x2fadcf80(%r13),%rdi
  40e053:	ba 80 38 01 00       	mov    $0x13880,%edx
  40e058:	31 f6                	xor    %esi,%esi
  40e05a:	e8 91 48 ff ff       	callq  4028f0 <memset@plt>
  40e05f:	4c 89 ef             	mov    %r13,%rdi
  40e062:	ba 80 38 01 00       	mov    $0x13880,%edx
  40e067:	31 f6                	xor    %esi,%esi
  40e069:	e8 82 48 ff ff       	callq  4028f0 <memset@plt>
  40e06e:	48 8d 74 24 50       	lea    0x50(%rsp),%rsi
  40e073:	31 d2                	xor    %edx,%edx
  40e075:	bf b0 96 40 00       	mov    $0x4096b0,%edi
  40e07a:	48 89 5c 24 50       	mov    %rbx,0x50(%rsp)
  40e07f:	e8 7c 48 ff ff       	callq  402900 <GOMP_parallel_start@plt>
  40e084:	48 8d 7c 24 50       	lea    0x50(%rsp),%rdi
  40e089:	e8 22 b6 ff ff       	callq  4096b0 <_ZN10RelaxationIdLl10000EEC2Eddlldd._omp_fn.14>
  40e08e:	e8 5d 47 ff ff       	callq  4027f0 <GOMP_parallel_end@plt>
  40e093:	48 83 c4 68          	add    $0x68,%rsp
  40e097:	5b                   	pop    %rbx
  40e098:	5d                   	pop    %rbp
  40e099:	41 5c                	pop    %r12
  40e09b:	41 5d                	pop    %r13
  40e09d:	c3                   	retq   
  40e09e:	48 89 c7             	mov    %rax,%rdi
  40e0a1:	48 83 fa ff          	cmp    $0xffffffffffffffff,%rdx
  40e0a5:	0f 84 a3 01 00 00    	je     40e24e <_ZN10RelaxationIdLl10000EEC1Eddlldd+0x2fe>
  40e0ab:	e8 00 4c ff ff       	callq  402cb0 <_Unwind_Resume@plt>
  40e0b0:	bf 10 00 00 00       	mov    $0x10,%edi
  40e0b5:	e8 16 48 ff ff       	callq  4028d0 <__cxa_allocate_exception@plt>
  40e0ba:	48 8d 54 24 30       	lea    0x30(%rsp),%rdx
  40e0bf:	48 8d 7c 24 50       	lea    0x50(%rsp),%rdi
  40e0c4:	be f8 f6 40 00       	mov    $0x40f6f8,%esi
  40e0c9:	48 89 c3             	mov    %rax,%rbx
  40e0cc:	e8 ff 49 ff ff       	callq  402ad0 <_ZNSsC1EPKcRKSaIcE@plt>
  40e0d1:	48 8d 74 24 50       	lea    0x50(%rsp),%rsi
  40e0d6:	48 89 df             	mov    %rbx,%rdi
  40e0d9:	e8 22 49 ff ff       	callq  402a00 <_ZNSt11logic_errorC1ERKSs@plt>
  40e0de:	48 8b 44 24 50       	mov    0x50(%rsp),%rax
  40e0e3:	48 8d 74 24 40       	lea    0x40(%rsp),%rsi
  40e0e8:	48 8d 78 e8          	lea    -0x18(%rax),%rdi
  40e0ec:	e8 4f 48 ff ff       	callq  402940 <_ZNSs4_Rep10_M_disposeERKSaIcE@plt>
  40e0f1:	ba 10 2b 40 00       	mov    $0x402b10,%edx
  40e0f6:	be b0 27 61 00       	mov    $0x6127b0,%esi
  40e0fb:	48 89 df             	mov    %rbx,%rdi
  40e0fe:	e8 8d 4b ff ff       	callq  402c90 <__cxa_throw@plt>
  40e103:	bf 10 00 00 00       	mov    $0x10,%edi
  40e108:	e8 c3 47 ff ff       	callq  4028d0 <__cxa_allocate_exception@plt>
  40e10d:	48 8d 54 24 40       	lea    0x40(%rsp),%rdx
  40e112:	48 8d 7c 24 30       	lea    0x30(%rsp),%rdi
  40e117:	be 30 f6 40 00       	mov    $0x40f630,%esi
  40e11c:	48 89 c3             	mov    %rax,%rbx
  40e11f:	e8 ac 49 ff ff       	callq  402ad0 <_ZNSsC1EPKcRKSaIcE@plt>
  40e124:	48 8d 74 24 30       	lea    0x30(%rsp),%rsi
  40e129:	48 89 df             	mov    %rbx,%rdi
  40e12c:	e8 cf 48 ff ff       	callq  402a00 <_ZNSt11logic_errorC1ERKSs@plt>
  40e131:	48 8b 44 24 30       	mov    0x30(%rsp),%rax
  40e136:	48 8d 74 24 50       	lea    0x50(%rsp),%rsi
  40e13b:	48 8d 78 e8          	lea    -0x18(%rax),%rdi
  40e13f:	e8 fc 47 ff ff       	callq  402940 <_ZNSs4_Rep10_M_disposeERKSaIcE@plt>
  40e144:	ba 10 2b 40 00       	mov    $0x402b10,%edx
  40e149:	be b0 27 61 00       	mov    $0x6127b0,%esi
  40e14e:	48 89 df             	mov    %rbx,%rdi
  40e151:	e8 3a 4b ff ff       	callq  402c90 <__cxa_throw@plt>
  40e156:	bf 10 00 00 00       	mov    $0x10,%edi
  40e15b:	e8 70 47 ff ff       	callq  4028d0 <__cxa_allocate_exception@plt>
  40e160:	48 8d 54 24 40       	lea    0x40(%rsp),%rdx
  40e165:	48 8d 7c 24 20       	lea    0x20(%rsp),%rdi
  40e16a:	be 08 f6 40 00       	mov    $0x40f608,%esi
  40e16f:	48 89 c3             	mov    %rax,%rbx
  40e172:	e8 59 49 ff ff       	callq  402ad0 <_ZNSsC1EPKcRKSaIcE@plt>
  40e177:	48 8d 74 24 20       	lea    0x20(%rsp),%rsi
  40e17c:	48 89 df             	mov    %rbx,%rdi
  40e17f:	e8 7c 48 ff ff       	callq  402a00 <_ZNSt11logic_errorC1ERKSs@plt>
  40e184:	48 8b 44 24 20       	mov    0x20(%rsp),%rax
  40e189:	48 8d 74 24 50       	lea    0x50(%rsp),%rsi
  40e18e:	48 8d 78 e8          	lea    -0x18(%rax),%rdi
  40e192:	e8 a9 47 ff ff       	callq  402940 <_ZNSs4_Rep10_M_disposeERKSaIcE@plt>
  40e197:	ba 10 2b 40 00       	mov    $0x402b10,%edx
  40e19c:	be b0 27 61 00       	mov    $0x6127b0,%esi
  40e1a1:	48 89 df             	mov    %rbx,%rdi
  40e1a4:	e8 e7 4a ff ff       	callq  402c90 <__cxa_throw@plt>
  40e1a9:	48 89 c5             	mov    %rax,%rbp
  40e1ac:	48 8b 44 24 30       	mov    0x30(%rsp),%rax
  40e1b1:	48 8d 74 24 50       	lea    0x50(%rsp),%rsi
  40e1b6:	49 89 d4             	mov    %rdx,%r12
  40e1b9:	48 8d 78 e8          	lea    -0x18(%rax),%rdi
  40e1bd:	e8 7e 47 ff ff       	callq  402940 <_ZNSs4_Rep10_M_disposeERKSaIcE@plt>
  40e1c2:	48 89 df             	mov    %rbx,%rdi
  40e1c5:	e8 c6 47 ff ff       	callq  402990 <__cxa_free_exception@plt>
  40e1ca:	48 89 ef             	mov    %rbp,%rdi
  40e1cd:	4c 89 e2             	mov    %r12,%rdx
  40e1d0:	e9 cc fe ff ff       	jmpq   40e0a1 <_ZN10RelaxationIdLl10000EEC1Eddlldd+0x151>
  40e1d5:	48 89 c5             	mov    %rax,%rbp
  40e1d8:	49 89 d4             	mov    %rdx,%r12
  40e1db:	eb e5                	jmp    40e1c2 <_ZN10RelaxationIdLl10000EEC1Eddlldd+0x272>
  40e1dd:	48 89 c5             	mov    %rax,%rbp
  40e1e0:	48 8b 44 24 20       	mov    0x20(%rsp),%rax
  40e1e5:	48 8d 74 24 50       	lea    0x50(%rsp),%rsi
  40e1ea:	49 89 d4             	mov    %rdx,%r12
  40e1ed:	48 8d 78 e8          	lea    -0x18(%rax),%rdi
  40e1f1:	e8 4a 47 ff ff       	callq  402940 <_ZNSs4_Rep10_M_disposeERKSaIcE@plt>
  40e1f6:	eb ca                	jmp    40e1c2 <_ZN10RelaxationIdLl10000EEC1Eddlldd+0x272>
  40e1f8:	eb db                	jmp    40e1d5 <_ZN10RelaxationIdLl10000EEC1Eddlldd+0x285>
  40e1fa:	bf 10 00 00 00       	mov    $0x10,%edi
  40e1ff:	90                   	nop
  40e200:	e8 cb 46 ff ff       	callq  4028d0 <__cxa_allocate_exception@plt>
  40e205:	48 8d 54 24 30       	lea    0x30(%rsp),%rdx
  40e20a:	48 8d 7c 24 40       	lea    0x40(%rsp),%rdi
  40e20f:	be 90 f6 40 00       	mov    $0x40f690,%esi
  40e214:	48 89 c3             	mov    %rax,%rbx
  40e217:	e8 b4 48 ff ff       	callq  402ad0 <_ZNSsC1EPKcRKSaIcE@plt>
  40e21c:	48 8d 74 24 40       	lea    0x40(%rsp),%rsi
  40e221:	48 89 df             	mov    %rbx,%rdi
  40e224:	e8 d7 47 ff ff       	callq  402a00 <_ZNSt11logic_errorC1ERKSs@plt>
  40e229:	48 8b 44 24 40       	mov    0x40(%rsp),%rax
  40e22e:	48 8d 74 24 50       	lea    0x50(%rsp),%rsi
  40e233:	48 8d 78 e8          	lea    -0x18(%rax),%rdi
  40e237:	e8 04 47 ff ff       	callq  402940 <_ZNSs4_Rep10_M_disposeERKSaIcE@plt>
  40e23c:	ba 10 2b 40 00       	mov    $0x402b10,%edx
  40e241:	be b0 27 61 00       	mov    $0x6127b0,%esi
  40e246:	48 89 df             	mov    %rbx,%rdi
  40e249:	e8 42 4a ff ff       	callq  402c90 <__cxa_throw@plt>
  40e24e:	e8 fd 48 ff ff       	callq  402b50 <__cxa_call_unexpected@plt>
  40e253:	48 89 c5             	mov    %rax,%rbp
  40e256:	48 8b 44 24 40       	mov    0x40(%rsp),%rax
  40e25b:	48 8d 74 24 50       	lea    0x50(%rsp),%rsi
  40e260:	49 89 d4             	mov    %rdx,%r12
  40e263:	48 8d 78 e8          	lea    -0x18(%rax),%rdi
  40e267:	e8 d4 46 ff ff       	callq  402940 <_ZNSs4_Rep10_M_disposeERKSaIcE@plt>
  40e26c:	e9 51 ff ff ff       	jmpq   40e1c2 <_ZN10RelaxationIdLl10000EEC1Eddlldd+0x272>
  40e271:	e9 5f ff ff ff       	jmpq   40e1d5 <_ZN10RelaxationIdLl10000EEC1Eddlldd+0x285>
  40e276:	48 89 c5             	mov    %rax,%rbp
  40e279:	48 8b 44 24 50       	mov    0x50(%rsp),%rax
  40e27e:	48 8d 74 24 40       	lea    0x40(%rsp),%rsi
  40e283:	49 89 d4             	mov    %rdx,%r12
  40e286:	48 8d 78 e8          	lea    -0x18(%rax),%rdi
  40e28a:	e8 b1 46 ff ff       	callq  402940 <_ZNSs4_Rep10_M_disposeERKSaIcE@plt>
  40e28f:	e9 2e ff ff ff       	jmpq   40e1c2 <_ZN10RelaxationIdLl10000EEC1Eddlldd+0x272>
  40e294:	e9 3c ff ff ff       	jmpq   40e1d5 <_ZN10RelaxationIdLl10000EEC1Eddlldd+0x285>
  40e299:	90                   	nop
  40e29a:	90                   	nop
  40e29b:	90                   	nop
  40e29c:	90                   	nop
  40e29d:	90                   	nop
  40e29e:	90                   	nop
  40e29f:	90                   	nop

000000000040e2a0 <_Z9benchmarkIdLl10000EEmi>:
  40e2a0:	41 57                	push   %r15
  40e2a2:	41 56                	push   %r14
  40e2a4:	41 55                	push   %r13
  40e2a6:	41 54                	push   %r12
  40e2a8:	55                   	push   %rbp
  40e2a9:	53                   	push   %rbx
  40e2aa:	48 83 ec 58          	sub    $0x58,%rsp
  40e2ae:	e8 0d 48 ff ff       	callq  402ac0 <omp_set_num_threads@plt>
  40e2b3:	e8 a8 49 ff ff       	callq  402c60 <omp_get_max_threads@plt>
  40e2b8:	ba 12 00 00 00       	mov    $0x12,%edx
  40e2bd:	89 c3                	mov    %eax,%ebx
  40e2bf:	be 0c f5 40 00       	mov    $0x40f50c,%esi
  40e2c4:	bf e0 24 61 00       	mov    $0x6124e0,%edi
  40e2c9:	e8 12 48 ff ff       	callq  402ae0 <_ZSt16__ostream_insertIcSt11char_traitsIcEERSt13basic_ostreamIT_T0_ES6_PKS3_l@plt>
  40e2ce:	89 de                	mov    %ebx,%esi
  40e2d0:	bf e0 24 61 00       	mov    $0x6124e0,%edi
  40e2d5:	e8 c6 49 ff ff       	callq  402ca0 <_ZNSolsEi@plt>
  40e2da:	ba 09 00 00 00       	mov    $0x9,%edx
  40e2df:	48 89 c5             	mov    %rax,%rbp
  40e2e2:	be 1f f5 40 00       	mov    $0x40f51f,%esi
  40e2e7:	48 89 c7             	mov    %rax,%rdi
  40e2ea:	e8 f1 47 ff ff       	callq  402ae0 <_ZSt16__ostream_insertIcSt11char_traitsIcEERSt13basic_ostreamIT_T0_ES6_PKS3_l@plt>
  40e2ef:	48 8b 45 00          	mov    0x0(%rbp),%rax
  40e2f3:	48 8b 40 e8          	mov    -0x18(%rax),%rax
  40e2f7:	48 8b 9c 05 f0 00 00 	mov    0xf0(%rbp,%rax,1),%rbx
  40e2fe:	00 
  40e2ff:	48 85 db             	test   %rbx,%rbx
  40e302:	0f 84 47 03 00 00    	je     40e64f <_Z9benchmarkIdLl10000EEmi+0x3af>
  40e308:	80 7b 38 00          	cmpb   $0x0,0x38(%rbx)
  40e30c:	0f 84 22 03 00 00    	je     40e634 <_Z9benchmarkIdLl10000EEmi+0x394>
  40e312:	0f b6 43 43          	movzbl 0x43(%rbx),%eax
  40e316:	0f be f0             	movsbl %al,%esi
  40e319:	48 89 ef             	mov    %rbp,%rdi
  40e31c:	e8 bf 44 ff ff       	callq  4027e0 <_ZNSo3putEc@plt>
  40e321:	48 89 c7             	mov    %rax,%rdi
  40e324:	e8 47 46 ff ff       	callq  402970 <_ZNSo5flushEv@plt>
  40e329:	8b 2d 31 46 20 00    	mov    0x204631(%rip),%ebp        # 612960 <steps>
  40e32f:	ba 0f 00 00 00       	mov    $0xf,%edx
  40e334:	be 29 f5 40 00       	mov    $0x40f529,%esi
  40e339:	bf e0 24 61 00       	mov    $0x6124e0,%edi
  40e33e:	e8 9d 47 ff ff       	callq  402ae0 <_ZSt16__ostream_insertIcSt11char_traitsIcEERSt13basic_ostreamIT_T0_ES6_PKS3_l@plt>
  40e343:	be 10 27 00 00       	mov    $0x2710,%esi
  40e348:	bf e0 24 61 00       	mov    $0x6124e0,%edi
  40e34d:	e8 ee 46 ff ff       	callq  402a40 <_ZNSo9_M_insertIlEERSoT_@plt>
  40e352:	ba 06 00 00 00       	mov    $0x6,%edx
  40e357:	48 89 c3             	mov    %rax,%rbx
  40e35a:	be 18 f5 40 00       	mov    $0x40f518,%esi
  40e35f:	48 89 c7             	mov    %rax,%rdi
  40e362:	e8 79 47 ff ff       	callq  402ae0 <_ZSt16__ostream_insertIcSt11char_traitsIcEERSt13basic_ostreamIT_T0_ES6_PKS3_l@plt>
  40e367:	89 ee                	mov    %ebp,%esi
  40e369:	48 89 df             	mov    %rbx,%rdi
  40e36c:	e8 2f 49 ff ff       	callq  402ca0 <_ZNSolsEi@plt>
  40e371:	ba 0f 00 00 00       	mov    $0xf,%edx
  40e376:	48 89 c3             	mov    %rax,%rbx
  40e379:	be 39 f5 40 00       	mov    $0x40f539,%esi
  40e37e:	48 89 c7             	mov    %rax,%rdi
  40e381:	e8 5a 47 ff ff       	callq  402ae0 <_ZSt16__ostream_insertIcSt11char_traitsIcEERSt13basic_ostreamIT_T0_ES6_PKS3_l@plt>
  40e386:	48 89 df             	mov    %rbx,%rdi
  40e389:	be 0a 00 00 00       	mov    $0xa,%esi
  40e38e:	e8 0d 49 ff ff       	callq  402ca0 <_ZNSolsEi@plt>
  40e393:	ba 06 00 00 00       	mov    $0x6,%edx
  40e398:	48 89 c5             	mov    %rax,%rbp
  40e39b:	be 49 f5 40 00       	mov    $0x40f549,%esi
  40e3a0:	48 89 c7             	mov    %rax,%rdi
  40e3a3:	e8 38 47 ff ff       	callq  402ae0 <_ZSt16__ostream_insertIcSt11char_traitsIcEERSt13basic_ostreamIT_T0_ES6_PKS3_l@plt>
  40e3a8:	48 8b 45 00          	mov    0x0(%rbp),%rax
  40e3ac:	48 8b 40 e8          	mov    -0x18(%rax),%rax
  40e3b0:	48 8b 9c 05 f0 00 00 	mov    0xf0(%rbp,%rax,1),%rbx
  40e3b7:	00 
  40e3b8:	48 85 db             	test   %rbx,%rbx
  40e3bb:	0f 84 8e 02 00 00    	je     40e64f <_Z9benchmarkIdLl10000EEmi+0x3af>
  40e3c1:	80 7b 38 00          	cmpb   $0x0,0x38(%rbx)
  40e3c5:	0f 84 49 02 00 00    	je     40e614 <_Z9benchmarkIdLl10000EEmi+0x374>
  40e3cb:	0f b6 43 43          	movzbl 0x43(%rbx),%eax
  40e3cf:	48 89 ef             	mov    %rbp,%rdi
  40e3d2:	0f be f0             	movsbl %al,%esi
  40e3d5:	48 8d 6c 24 10       	lea    0x10(%rsp),%rbp
  40e3da:	e8 01 44 ff ff       	callq  4027e0 <_ZNSo3putEc@plt>
  40e3df:	41 bd 0a 00 00 00    	mov    $0xa,%r13d
  40e3e5:	48 89 c7             	mov    %rax,%rdi
  40e3e8:	45 31 e4             	xor    %r12d,%r12d
  40e3eb:	e8 80 45 ff ff       	callq  402970 <_ZNSo5flushEv@plt>
  40e3f0:	0f 31                	rdtsc  
  40e3f2:	f2 0f 10 1d 4e 45 20 	movsd  0x20454e(%rip),%xmm3        # 612948 <heat>
  40e3f9:	00 
  40e3fa:	49 89 d6             	mov    %rdx,%r14
  40e3fd:	f2 0f 2a 15 4b 45 20 	cvtsi2sdl 0x20454b(%rip),%xmm2        # 612950 <radius>
  40e404:	00 
  40e405:	f2 0f 10 0d 9b 17 00 	movsd  0x179b(%rip),%xmm1        # 40fba8 <_ZTVN6GetOpt13_DefValOptionIdNS_8_OptionTIdEEEE+0x68>
  40e40c:	00 
  40e40d:	49 c1 e6 20          	shl    $0x20,%r14
  40e411:	f2 0f 10 05 97 17 00 	movsd  0x1797(%rip),%xmm0        # 40fbb0 <_ZTVN6GetOpt13_DefValOptionIdNS_8_OptionTIdEEEE+0x70>
  40e418:	00 
  40e419:	89 c0                	mov    %eax,%eax
  40e41b:	ba 88 13 00 00       	mov    $0x1388,%edx
  40e420:	be 88 13 00 00       	mov    $0x1388,%esi
  40e425:	48 89 ef             	mov    %rbp,%rdi
  40e428:	49 09 c6             	or     %rax,%r14
  40e42b:	e8 20 fb ff ff       	callq  40df50 <_ZN10RelaxationIdLl10000EEC1Eddlldd>
  40e430:	ba 12 00 00 00       	mov    $0x12,%edx
  40e435:	be 50 f5 40 00       	mov    $0x40f550,%esi
  40e43a:	bf e0 24 61 00       	mov    $0x6124e0,%edi
  40e43f:	e8 9c 46 ff ff       	callq  402ae0 <_ZSt16__ostream_insertIcSt11char_traitsIcEERSt13basic_ostreamIT_T0_ES6_PKS3_l@plt>
  40e444:	48 8b 05 95 40 20 00 	mov    0x204095(%rip),%rax        # 6124e0 <_ZSt4cout@@GLIBCXX_3.4>
  40e44b:	48 8b 40 e8          	mov    -0x18(%rax),%rax
  40e44f:	48 8b 98 d0 25 61 00 	mov    0x6125d0(%rax),%rbx
  40e456:	48 85 db             	test   %rbx,%rbx
  40e459:	0f 84 f5 01 00 00    	je     40e654 <_Z9benchmarkIdLl10000EEmi+0x3b4>
  40e45f:	80 7b 38 00          	cmpb   $0x0,0x38(%rbx)
  40e463:	0f 84 82 01 00 00    	je     40e5eb <_Z9benchmarkIdLl10000EEmi+0x34b>
  40e469:	0f b6 43 43          	movzbl 0x43(%rbx),%eax
  40e46d:	0f be f0             	movsbl %al,%esi
  40e470:	bf e0 24 61 00       	mov    $0x6124e0,%edi
  40e475:	e8 66 43 ff ff       	callq  4027e0 <_ZNSo3putEc@plt>
  40e47a:	48 89 c7             	mov    %rax,%rdi
  40e47d:	e8 ee 44 ff ff       	callq  402970 <_ZNSo5flushEv@plt>
  40e482:	44 8b 3d d7 44 20 00 	mov    0x2044d7(%rip),%r15d        # 612960 <steps>
  40e489:	bb 01 00 00 00       	mov    $0x1,%ebx
  40e48e:	48 8b 7c 24 40       	mov    0x40(%rsp),%rdi
  40e493:	45 85 ff             	test   %r15d,%r15d
  40e496:	0f 8e e2 00 00 00    	jle    40e57e <_Z9benchmarkIdLl10000EEmi+0x2de>
  40e49c:	0f 1f 40 00          	nopl   0x0(%rax)
  40e4a0:	ba 09 00 00 00       	mov    $0x9,%edx
  40e4a5:	be 63 f5 40 00       	mov    $0x40f563,%esi
  40e4aa:	bf e0 24 61 00       	mov    $0x6124e0,%edi
  40e4af:	e8 2c 46 ff ff       	callq  402ae0 <_ZSt16__ostream_insertIcSt11char_traitsIcEERSt13basic_ostreamIT_T0_ES6_PKS3_l@plt>
  40e4b4:	48 8b 05 25 40 20 00 	mov    0x204025(%rip),%rax        # 6124e0 <_ZSt4cout@@GLIBCXX_3.4>
  40e4bb:	48 8b 40 e8          	mov    -0x18(%rax),%rax
  40e4bf:	4c 8b b8 d0 25 61 00 	mov    0x6125d0(%rax),%r15
  40e4c6:	4d 85 ff             	test   %r15,%r15
  40e4c9:	0f 84 a1 01 00 00    	je     40e670 <_Z9benchmarkIdLl10000EEmi+0x3d0>
  40e4cf:	41 80 7f 38 00       	cmpb   $0x0,0x38(%r15)
  40e4d4:	0f 84 f6 00 00 00    	je     40e5d0 <_Z9benchmarkIdLl10000EEmi+0x330>
  40e4da:	41 0f b6 47 43       	movzbl 0x43(%r15),%eax
  40e4df:	0f be f0             	movsbl %al,%esi
  40e4e2:	bf e0 24 61 00       	mov    $0x6124e0,%edi
  40e4e7:	e8 f4 42 ff ff       	callq  4027e0 <_ZNSo3putEc@plt>
  40e4ec:	48 89 c7             	mov    %rax,%rdi
  40e4ef:	e8 7c 44 ff ff       	callq  402970 <_ZNSo5flushEv@plt>
  40e4f4:	bf 00 08 af 2f       	mov    $0x2faf0800,%edi
  40e4f9:	e8 62 45 ff ff       	callq  402a60 <_Znwm@plt>
  40e4fe:	48 8b 4c 24 40       	mov    0x40(%rsp),%rcx
  40e503:	31 d2                	xor    %edx,%edx
  40e505:	48 81 c1 80 cf ad 2f 	add    $0x2fadcf80,%rcx
  40e50c:	0f 1f 40 00          	nopl   0x0(%rax)
  40e510:	48 c7 04 d1 00 00 00 	movq   $0x0,(%rcx,%rdx,8)
  40e517:	00 
  40e518:	48 c7 04 d0 00 00 00 	movq   $0x0,(%rax,%rdx,8)
  40e51f:	00 
  40e520:	48 83 c2 01          	add    $0x1,%rdx
  40e524:	48 81 fa 10 27 00 00 	cmp    $0x2710,%rdx
  40e52b:	75 e3                	jne    40e510 <_Z9benchmarkIdLl10000EEmi+0x270>
  40e52d:	66 31 d2             	xor    %dx,%dx
  40e530:	48 89 e6             	mov    %rsp,%rsi
  40e533:	bf 00 8d 40 00       	mov    $0x408d00,%edi
  40e538:	48 89 44 24 08       	mov    %rax,0x8(%rsp)
  40e53d:	48 89 2c 24          	mov    %rbp,(%rsp)
  40e541:	e8 ba 43 ff ff       	callq  402900 <GOMP_parallel_start@plt>
  40e546:	48 89 e7             	mov    %rsp,%rdi
  40e549:	e8 b2 a7 ff ff       	callq  408d00 <_ZN10RelaxationIdLl10000EE7iterateEv._omp_fn.15>
  40e54e:	e8 9d 42 ff ff       	callq  4027f0 <GOMP_parallel_end@plt>
  40e553:	48 8b 7c 24 40       	mov    0x40(%rsp),%rdi
  40e558:	4c 8b 7c 24 08       	mov    0x8(%rsp),%r15
  40e55d:	48 85 ff             	test   %rdi,%rdi
  40e560:	74 05                	je     40e567 <_Z9benchmarkIdLl10000EEmi+0x2c7>
  40e562:	e8 f9 45 ff ff       	callq  402b60 <_ZdaPv@plt>
  40e567:	83 c3 01             	add    $0x1,%ebx
  40e56a:	39 1d f0 43 20 00    	cmp    %ebx,0x2043f0(%rip)        # 612960 <steps>
  40e570:	4c 89 7c 24 40       	mov    %r15,0x40(%rsp)
  40e575:	0f 8d 25 ff ff ff    	jge    40e4a0 <_Z9benchmarkIdLl10000EEmi+0x200>
  40e57b:	4c 89 ff             	mov    %r15,%rdi
  40e57e:	0f 31                	rdtsc  
  40e580:	48 c1 e2 20          	shl    $0x20,%rdx
  40e584:	89 c0                	mov    %eax,%eax
  40e586:	48 09 c2             	or     %rax,%rdx
  40e589:	4c 29 f2             	sub    %r14,%rdx
  40e58c:	49 01 d4             	add    %rdx,%r12
  40e58f:	48 85 ff             	test   %rdi,%rdi
  40e592:	74 05                	je     40e599 <_Z9benchmarkIdLl10000EEmi+0x2f9>
  40e594:	e8 c7 45 ff ff       	callq  402b60 <_ZdaPv@plt>
  40e599:	41 83 ed 01          	sub    $0x1,%r13d
  40e59d:	0f 85 4d fe ff ff    	jne    40e3f0 <_Z9benchmarkIdLl10000EEmi+0x150>
  40e5a3:	48 83 c4 58          	add    $0x58,%rsp
  40e5a7:	4c 89 e0             	mov    %r12,%rax
  40e5aa:	48 ba cd cc cc cc cc 	movabs $0xcccccccccccccccd,%rdx
  40e5b1:	cc cc cc 
  40e5b4:	5b                   	pop    %rbx
  40e5b5:	48 f7 e2             	mul    %rdx
  40e5b8:	5d                   	pop    %rbp
  40e5b9:	41 5c                	pop    %r12
  40e5bb:	41 5d                	pop    %r13
  40e5bd:	48 c1 ea 03          	shr    $0x3,%rdx
  40e5c1:	41 5e                	pop    %r14
  40e5c3:	48 89 d0             	mov    %rdx,%rax
  40e5c6:	41 5f                	pop    %r15
  40e5c8:	c3                   	retq   
  40e5c9:	0f 1f 80 00 00 00 00 	nopl   0x0(%rax)
  40e5d0:	4c 89 ff             	mov    %r15,%rdi
  40e5d3:	e8 18 45 ff ff       	callq  402af0 <_ZNKSt5ctypeIcE13_M_widen_initEv@plt>
  40e5d8:	49 8b 07             	mov    (%r15),%rax
  40e5db:	be 0a 00 00 00       	mov    $0xa,%esi
  40e5e0:	4c 89 ff             	mov    %r15,%rdi
  40e5e3:	ff 50 30             	callq  *0x30(%rax)
  40e5e6:	e9 f4 fe ff ff       	jmpq   40e4df <_Z9benchmarkIdLl10000EEmi+0x23f>
  40e5eb:	48 89 df             	mov    %rbx,%rdi
  40e5ee:	e8 fd 44 ff ff       	callq  402af0 <_ZNKSt5ctypeIcE13_M_widen_initEv@plt>
  40e5f3:	48 8b 03             	mov    (%rbx),%rax
  40e5f6:	be 0a 00 00 00       	mov    $0xa,%esi
  40e5fb:	48 89 df             	mov    %rbx,%rdi
  40e5fe:	ff 50 30             	callq  *0x30(%rax)
  40e601:	e9 67 fe ff ff       	jmpq   40e46d <_Z9benchmarkIdLl10000EEmi+0x1cd>
  40e606:	48 83 fa ff          	cmp    $0xffffffffffffffff,%rdx
  40e60a:	48 89 c7             	mov    %rax,%rdi
  40e60d:	74 20                	je     40e62f <_Z9benchmarkIdLl10000EEmi+0x38f>
  40e60f:	e8 9c 46 ff ff       	callq  402cb0 <_Unwind_Resume@plt>
  40e614:	48 89 df             	mov    %rbx,%rdi
  40e617:	e8 d4 44 ff ff       	callq  402af0 <_ZNKSt5ctypeIcE13_M_widen_initEv@plt>
  40e61c:	48 8b 03             	mov    (%rbx),%rax
  40e61f:	be 0a 00 00 00       	mov    $0xa,%esi
  40e624:	48 89 df             	mov    %rbx,%rdi
  40e627:	ff 50 30             	callq  *0x30(%rax)
  40e62a:	e9 a0 fd ff ff       	jmpq   40e3cf <_Z9benchmarkIdLl10000EEmi+0x12f>
  40e62f:	e8 1c 45 ff ff       	callq  402b50 <__cxa_call_unexpected@plt>
  40e634:	48 89 df             	mov    %rbx,%rdi
  40e637:	e8 b4 44 ff ff       	callq  402af0 <_ZNKSt5ctypeIcE13_M_widen_initEv@plt>
  40e63c:	48 8b 03             	mov    (%rbx),%rax
  40e63f:	be 0a 00 00 00       	mov    $0xa,%esi
  40e644:	48 89 df             	mov    %rbx,%rdi
  40e647:	ff 50 30             	callq  *0x30(%rax)
  40e64a:	e9 c7 fc ff ff       	jmpq   40e316 <_Z9benchmarkIdLl10000EEmi+0x76>
  40e64f:	e8 ec 44 ff ff       	callq  402b40 <_ZSt16__throw_bad_castv@plt>
  40e654:	e8 e7 44 ff ff       	callq  402b40 <_ZSt16__throw_bad_castv@plt>
  40e659:	48 8b 7c 24 40       	mov    0x40(%rsp),%rdi
  40e65e:	48 89 c3             	mov    %rax,%rbx
  40e661:	48 85 ff             	test   %rdi,%rdi
  40e664:	74 05                	je     40e66b <_Z9benchmarkIdLl10000EEmi+0x3cb>
  40e666:	e8 f5 44 ff ff       	callq  402b60 <_ZdaPv@plt>
  40e66b:	48 89 df             	mov    %rbx,%rdi
  40e66e:	eb 9f                	jmp    40e60f <_Z9benchmarkIdLl10000EEmi+0x36f>
  40e670:	e8 cb 44 ff ff       	callq  402b40 <_ZSt16__throw_bad_castv@plt>
  40e675:	90                   	nop
  40e676:	90                   	nop
  40e677:	90                   	nop
  40e678:	90                   	nop
  40e679:	90                   	nop
  40e67a:	90                   	nop
  40e67b:	90                   	nop
  40e67c:	90                   	nop
  40e67d:	90                   	nop
  40e67e:	90                   	nop
  40e67f:	90                   	nop

000000000040e680 <_ZN6GetOpt7convertIdEENS_7_Option6ResultERKSsRT_St13_Ios_Fmtflags>:
  40e680:	41 57                	push   %r15
  40e682:	41 89 d7             	mov    %edx,%r15d
  40e685:	41 56                	push   %r14
  40e687:	49 89 fe             	mov    %rdi,%r14
  40e68a:	41 55                	push   %r13
  40e68c:	49 89 f5             	mov    %rsi,%r13
  40e68f:	41 54                	push   %r12
  40e691:	55                   	push   %rbp
  40e692:	53                   	push   %rbx
  40e693:	48 81 ec 88 01 00 00 	sub    $0x188,%rsp
  40e69a:	48 8d 7c 24 78       	lea    0x78(%rsp),%rdi
  40e69f:	e8 bc 41 ff ff       	callq  402860 <_ZNSt8ios_baseC2Ev@plt>
  40e6a4:	48 8b 1d c5 40 20 00 	mov    0x2040c5(%rip),%rbx        # 612770 <_ZTTSt18basic_stringstreamIcSt11char_traitsIcESaIcEE@@GLIBCXX_3.4+0x10>
  40e6ab:	c6 84 24 58 01 00 00 	movb   $0x0,0x158(%rsp)
  40e6b2:	00 
  40e6b3:	48 8d 7c 24 10       	lea    0x10(%rsp),%rdi
  40e6b8:	48 8b 0d b9 40 20 00 	mov    0x2040b9(%rip),%rcx        # 612778 <_ZTTSt18basic_stringstreamIcSt11char_traitsIcESaIcEE@@GLIBCXX_3.4+0x18>
  40e6bf:	48 c7 44 24 78 f0 22 	movq   $0x6122f0,0x78(%rsp)
  40e6c6:	61 00 
  40e6c8:	31 f6                	xor    %esi,%esi
  40e6ca:	48 c7 84 24 50 01 00 	movq   $0x0,0x150(%rsp)
  40e6d1:	00 00 00 00 00 
  40e6d6:	c6 84 24 59 01 00 00 	movb   $0x0,0x159(%rsp)
  40e6dd:	00 
  40e6de:	48 8b 43 e8          	mov    -0x18(%rbx),%rax
  40e6e2:	48 c7 84 24 60 01 00 	movq   $0x0,0x160(%rsp)
  40e6e9:	00 00 00 00 00 
  40e6ee:	48 c7 84 24 68 01 00 	movq   $0x0,0x168(%rsp)
  40e6f5:	00 00 00 00 00 
  40e6fa:	48 c7 84 24 70 01 00 	movq   $0x0,0x170(%rsp)
  40e701:	00 00 00 00 00 
  40e706:	48 c7 84 24 78 01 00 	movq   $0x0,0x178(%rsp)
  40e70d:	00 00 00 00 00 
  40e712:	48 89 5c 24 10       	mov    %rbx,0x10(%rsp)
  40e717:	48 89 4c 04 10       	mov    %rcx,0x10(%rsp,%rax,1)
  40e71c:	48 c7 44 24 18 00 00 	movq   $0x0,0x18(%rsp)
  40e723:	00 00 
  40e725:	48 03 7b e8          	add    -0x18(%rbx),%rdi
  40e729:	e8 52 44 ff ff       	callq  402b80 <_ZNSt9basic_iosIcSt11char_traitsIcEE4initEPSt15basic_streambufIcS1_E@plt>
  40e72e:	48 8b 2d 4b 40 20 00 	mov    0x20404b(%rip),%rbp        # 612780 <_ZTTSt18basic_stringstreamIcSt11char_traitsIcESaIcEE@@GLIBCXX_3.4+0x20>
  40e735:	31 f6                	xor    %esi,%esi
  40e737:	48 8b 45 e8          	mov    -0x18(%rbp),%rax
  40e73b:	48 89 6c 24 20       	mov    %rbp,0x20(%rsp)
  40e740:	48 8d 7c 04 20       	lea    0x20(%rsp,%rax,1),%rdi
  40e745:	48 8b 05 3c 40 20 00 	mov    0x20403c(%rip),%rax        # 612788 <_ZTTSt18basic_stringstreamIcSt11char_traitsIcESaIcEE@@GLIBCXX_3.4+0x28>
  40e74c:	48 89 07             	mov    %rax,(%rdi)
  40e74f:	e8 2c 44 ff ff       	callq  402b80 <_ZNSt9basic_iosIcSt11char_traitsIcEE4initEPSt15basic_streambufIcS1_E@plt>
  40e754:	4c 8b 25 0d 40 20 00 	mov    0x20400d(%rip),%r12        # 612768 <_ZTTSt18basic_stringstreamIcSt11char_traitsIcESaIcEE@@GLIBCXX_3.4+0x8>
  40e75b:	48 8b 0d 2e 40 20 00 	mov    0x20402e(%rip),%rcx        # 612790 <_ZTTSt18basic_stringstreamIcSt11char_traitsIcESaIcEE@@GLIBCXX_3.4+0x30>
  40e762:	48 8d 7c 24 60       	lea    0x60(%rsp),%rdi
  40e767:	49 8b 44 24 e8       	mov    -0x18(%r12),%rax
  40e76c:	48 89 4c 04 10       	mov    %rcx,0x10(%rsp,%rax,1)
  40e771:	48 c7 44 24 10 38 23 	movq   $0x612338,0x10(%rsp)
  40e778:	61 00 
  40e77a:	48 c7 44 24 78 88 23 	movq   $0x612388,0x78(%rsp)
  40e781:	61 00 
  40e783:	48 c7 44 24 20 60 23 	movq   $0x612360,0x20(%rsp)
  40e78a:	61 00 
  40e78c:	48 c7 44 24 28 b0 23 	movq   $0x6123b0,0x28(%rsp)
  40e793:	61 00 
  40e795:	48 c7 44 24 30 00 00 	movq   $0x0,0x30(%rsp)
  40e79c:	00 00 
  40e79e:	48 c7 44 24 38 00 00 	movq   $0x0,0x38(%rsp)
  40e7a5:	00 00 
  40e7a7:	48 c7 44 24 40 00 00 	movq   $0x0,0x40(%rsp)
  40e7ae:	00 00 
  40e7b0:	48 c7 44 24 48 00 00 	movq   $0x0,0x48(%rsp)
  40e7b7:	00 00 
  40e7b9:	48 c7 44 24 50 00 00 	movq   $0x0,0x50(%rsp)
  40e7c0:	00 00 
  40e7c2:	48 c7 44 24 58 00 00 	movq   $0x0,0x58(%rsp)
  40e7c9:	00 00 
  40e7cb:	e8 70 45 ff ff       	callq  402d40 <_ZNSt6localeC1Ev@plt>
  40e7d0:	48 8d 44 24 10       	lea    0x10(%rsp),%rax
  40e7d5:	48 c7 44 24 28 70 26 	movq   $0x612670,0x28(%rsp)
  40e7dc:	61 00 
  40e7de:	c7 44 24 68 18 00 00 	movl   $0x18,0x68(%rsp)
  40e7e5:	00 
  40e7e6:	48 c7 44 24 70 18 23 	movq   $0x612318,0x70(%rsp)
  40e7ed:	61 00 
  40e7ef:	48 8d 70 18          	lea    0x18(%rax),%rsi
  40e7f3:	48 8d 78 68          	lea    0x68(%rax),%rdi
  40e7f7:	e8 84 43 ff ff       	callq  402b80 <_ZNSt9basic_iosIcSt11char_traitsIcEE4initEPSt15basic_streambufIcS1_E@plt>
  40e7fc:	48 8d 44 24 10       	lea    0x10(%rsp),%rax
  40e801:	31 f6                	xor    %esi,%esi
  40e803:	48 8d 78 68          	lea    0x68(%rax),%rdi
  40e807:	e8 64 44 ff ff       	callq  402c70 <_ZNSt9basic_iosIcSt11char_traitsIcEE5clearESt12_Ios_Iostate@plt>
  40e80c:	49 8b 36             	mov    (%r14),%rsi
  40e80f:	48 8d 44 24 10       	lea    0x10(%rsp),%rax
  40e814:	44 89 bc 24 90 00 00 	mov    %r15d,0x90(%rsp)
  40e81b:	00 
  40e81c:	48 8d 78 10          	lea    0x10(%rax),%rdi
  40e820:	48 8b 56 e8          	mov    -0x18(%rsi),%rdx
  40e824:	e8 b7 42 ff ff       	callq  402ae0 <_ZSt16__ostream_insertIcSt11char_traitsIcEERSt13basic_ostreamIT_T0_ES6_PKS3_l@plt>
  40e829:	48 8d 7c 24 10       	lea    0x10(%rsp),%rdi
  40e82e:	4c 89 ee             	mov    %r13,%rsi
  40e831:	e8 2a 41 ff ff       	callq  402960 <_ZNSi10_M_extractIdEERSiRT_@plt>
  40e836:	8b 84 24 98 00 00 00 	mov    0x98(%rsp),%eax
  40e83d:	41 bd 03 00 00 00    	mov    $0x3,%r13d
  40e843:	a8 05                	test   $0x5,%al
  40e845:	75 0d                	jne    40e854 <_ZN6GetOpt7convertIdEENS_7_Option6ResultERKSsRT_St13_Ios_Fmtflags+0x1d4>
  40e847:	83 e0 02             	and    $0x2,%eax
  40e84a:	83 f8 01             	cmp    $0x1,%eax
  40e84d:	45 19 ed             	sbb    %r13d,%r13d
  40e850:	41 83 e5 03          	and    $0x3,%r13d
  40e854:	48 8b 44 24 70       	mov    0x70(%rsp),%rax
  40e859:	48 c7 44 24 10 38 23 	movq   $0x612338,0x10(%rsp)
  40e860:	61 00 
  40e862:	48 c7 44 24 78 88 23 	movq   $0x612388,0x78(%rsp)
  40e869:	61 00 
  40e86b:	48 c7 44 24 20 60 23 	movq   $0x612360,0x20(%rsp)
  40e872:	61 00 
  40e874:	48 c7 44 24 28 70 26 	movq   $0x612670,0x28(%rsp)
  40e87b:	61 00 
  40e87d:	48 8d 78 e8          	lea    -0x18(%rax),%rdi
  40e881:	48 81 ff 00 23 61 00 	cmp    $0x612300,%rdi
  40e888:	75 7f                	jne    40e909 <_ZN6GetOpt7convertIdEENS_7_Option6ResultERKSsRT_St13_Ios_Fmtflags+0x289>
  40e88a:	48 8d 7c 24 60       	lea    0x60(%rsp),%rdi
  40e88f:	48 c7 44 24 28 b0 23 	movq   $0x6123b0,0x28(%rsp)
  40e896:	61 00 
  40e898:	e8 f3 42 ff ff       	callq  402b90 <_ZNSt6localeD1Ev@plt>
  40e89d:	49 8b 44 24 e8       	mov    -0x18(%r12),%rax
  40e8a2:	48 8b 0d e7 3e 20 00 	mov    0x203ee7(%rip),%rcx        # 612790 <_ZTTSt18basic_stringstreamIcSt11char_traitsIcESaIcEE@@GLIBCXX_3.4+0x30>
  40e8a9:	48 8d 7c 24 78       	lea    0x78(%rsp),%rdi
  40e8ae:	48 8b 15 d3 3e 20 00 	mov    0x203ed3(%rip),%rdx        # 612788 <_ZTTSt18basic_stringstreamIcSt11char_traitsIcESaIcEE@@GLIBCXX_3.4+0x28>
  40e8b5:	48 89 4c 04 10       	mov    %rcx,0x10(%rsp,%rax,1)
  40e8ba:	48 8b 45 e8          	mov    -0x18(%rbp),%rax
  40e8be:	48 89 6c 24 20       	mov    %rbp,0x20(%rsp)
  40e8c3:	48 8b 0d ae 3e 20 00 	mov    0x203eae(%rip),%rcx        # 612778 <_ZTTSt18basic_stringstreamIcSt11char_traitsIcESaIcEE@@GLIBCXX_3.4+0x18>
  40e8ca:	48 89 54 04 20       	mov    %rdx,0x20(%rsp,%rax,1)
  40e8cf:	48 8b 43 e8          	mov    -0x18(%rbx),%rax
  40e8d3:	48 89 5c 24 10       	mov    %rbx,0x10(%rsp)
  40e8d8:	48 89 4c 04 10       	mov    %rcx,0x10(%rsp,%rax,1)
  40e8dd:	48 c7 44 24 18 00 00 	movq   $0x0,0x18(%rsp)
  40e8e4:	00 00 
  40e8e6:	48 c7 44 24 78 f0 22 	movq   $0x6122f0,0x78(%rsp)
  40e8ed:	61 00 
  40e8ef:	e8 7c 3f ff ff       	callq  402870 <_ZNSt8ios_baseD2Ev@plt>
  40e8f4:	48 81 c4 88 01 00 00 	add    $0x188,%rsp
  40e8fb:	44 89 e8             	mov    %r13d,%eax
  40e8fe:	5b                   	pop    %rbx
  40e8ff:	5d                   	pop    %rbp
  40e900:	41 5c                	pop    %r12
  40e902:	41 5d                	pop    %r13
  40e904:	41 5e                	pop    %r14
  40e906:	41 5f                	pop    %r15
  40e908:	c3                   	retq   
  40e909:	b9 50 2c 40 00       	mov    $0x402c50,%ecx
  40e90e:	48 8d 57 10          	lea    0x10(%rdi),%rdx
  40e912:	48 85 c9             	test   %rcx,%rcx
  40e915:	0f 84 92 00 00 00    	je     40e9ad <_ZN6GetOpt7convertIdEENS_7_Option6ResultERKSsRT_St13_Ios_Fmtflags+0x32d>
  40e91b:	83 c8 ff             	or     $0xffffffff,%eax
  40e91e:	f0 0f c1 02          	lock xadd %eax,(%rdx)
  40e922:	85 c0                	test   %eax,%eax
  40e924:	0f 8f 60 ff ff ff    	jg     40e88a <_ZN6GetOpt7convertIdEENS_7_Option6ResultERKSsRT_St13_Ios_Fmtflags+0x20a>
  40e92a:	48 8d 74 24 0f       	lea    0xf(%rsp),%rsi
  40e92f:	e8 8c 40 ff ff       	callq  4029c0 <_ZNSs4_Rep10_M_destroyERKSaIcE@plt>
  40e934:	e9 51 ff ff ff       	jmpq   40e88a <_ZN6GetOpt7convertIdEENS_7_Option6ResultERKSsRT_St13_Ios_Fmtflags+0x20a>
  40e939:	48 8d 7c 24 10       	lea    0x10(%rsp),%rdi
  40e93e:	48 89 c3             	mov    %rax,%rbx
  40e941:	e8 9a 42 ff ff       	callq  402be0 <_ZNSt18basic_stringstreamIcSt11char_traitsIcESaIcEED1Ev@plt>
  40e946:	48 89 df             	mov    %rbx,%rdi
  40e949:	e8 62 43 ff ff       	callq  402cb0 <_Unwind_Resume@plt>
  40e94e:	48 8b 53 e8          	mov    -0x18(%rbx),%rdx
  40e952:	48 89 5c 24 10       	mov    %rbx,0x10(%rsp)
  40e957:	48 8b 1d 1a 3e 20 00 	mov    0x203e1a(%rip),%rbx        # 612778 <_ZTTSt18basic_stringstreamIcSt11char_traitsIcESaIcEE@@GLIBCXX_3.4+0x18>
  40e95e:	48 89 5c 14 10       	mov    %rbx,0x10(%rsp,%rdx,1)
  40e963:	48 c7 44 24 18 00 00 	movq   $0x0,0x18(%rsp)
  40e96a:	00 00 
  40e96c:	48 89 c3             	mov    %rax,%rbx
  40e96f:	48 8d 7c 24 78       	lea    0x78(%rsp),%rdi
  40e974:	48 c7 44 24 78 f0 22 	movq   $0x6122f0,0x78(%rsp)
  40e97b:	61 00 
  40e97d:	e8 ee 3e ff ff       	callq  402870 <_ZNSt8ios_baseD2Ev@plt>
  40e982:	48 89 df             	mov    %rbx,%rdi
  40e985:	e8 26 43 ff ff       	callq  402cb0 <_Unwind_Resume@plt>
  40e98a:	48 89 c3             	mov    %rax,%rbx
  40e98d:	eb e0                	jmp    40e96f <_ZN6GetOpt7convertIdEENS_7_Option6ResultERKSsRT_St13_Ios_Fmtflags+0x2ef>
  40e98f:	48 8d 7c 24 28       	lea    0x28(%rsp),%rdi
  40e994:	48 89 c3             	mov    %rax,%rbx
  40e997:	e8 04 63 ff ff       	callq  404ca0 <_ZNSt15basic_stringbufIcSt11char_traitsIcESaIcEED1Ev>
  40e99c:	48 8d 7c 24 10       	lea    0x10(%rsp),%rdi
  40e9a1:	be 68 27 61 00       	mov    $0x612768,%esi
  40e9a6:	e8 75 3e ff ff       	callq  402820 <_ZNSdD2Ev@plt>
  40e9ab:	eb c2                	jmp    40e96f <_ZN6GetOpt7convertIdEENS_7_Option6ResultERKSsRT_St13_Ios_Fmtflags+0x2ef>
  40e9ad:	8b 50 f8             	mov    -0x8(%rax),%edx
  40e9b0:	8d 4a ff             	lea    -0x1(%rdx),%ecx
  40e9b3:	89 48 f8             	mov    %ecx,-0x8(%rax)
  40e9b6:	89 d0                	mov    %edx,%eax
  40e9b8:	e9 65 ff ff ff       	jmpq   40e922 <_ZN6GetOpt7convertIdEENS_7_Option6ResultERKSsRT_St13_Ios_Fmtflags+0x2a2>
  40e9bd:	90                   	nop
  40e9be:	90                   	nop
  40e9bf:	90                   	nop

000000000040e9c0 <_ZNK6GetOpt8_OptionTIdE7_assignEPNS_5TokenESt13_Ios_FmtflagsRSt3mapIcNS_10OptionDataESt4lessIcESaISt4pairIKcS6_EEE>:
  40e9c0:	41 57                	push   %r15
  40e9c2:	41 56                	push   %r14
  40e9c4:	41 55                	push   %r13
  40e9c6:	41 54                	push   %r12
  40e9c8:	55                   	push   %rbp
  40e9c9:	53                   	push   %rbx
  40e9ca:	48 83 ec 28          	sub    $0x28,%rsp
  40e9ce:	4c 8b 7e 10          	mov    0x10(%rsi),%r15
  40e9d2:	48 89 7c 24 08       	mov    %rdi,0x8(%rsp)
  40e9d7:	89 54 24 14          	mov    %edx,0x14(%rsp)
  40e9db:	4d 85 ff             	test   %r15,%r15
  40e9de:	74 55                	je     40ea35 <_ZNK6GetOpt8_OptionTIdE7_assignEPNS_5TokenESt13_Ios_FmtflagsRSt3mapIcNS_10OptionDataESt4lessIcESaISt4pairIKcS6_EEE+0x75>
  40e9e0:	41 8b 07             	mov    (%r15),%eax
  40e9e3:	48 89 cd             	mov    %rcx,%rbp
  40e9e6:	89 c2                	mov    %eax,%edx
  40e9e8:	83 e2 fd             	and    $0xfffffffd,%edx
  40e9eb:	83 fa 04             	cmp    $0x4,%edx
  40e9ee:	75 40                	jne    40ea30 <_ZNK6GetOpt8_OptionTIdE7_assignEPNS_5TokenESt13_Ios_FmtflagsRSt3mapIcNS_10OptionDataESt4lessIcESaISt4pairIKcS6_EEE+0x70>
  40e9f0:	83 f8 05             	cmp    $0x5,%eax
  40e9f3:	74 5b                	je     40ea50 <_ZNK6GetOpt8_OptionTIdE7_assignEPNS_5TokenESt13_Ios_FmtflagsRSt3mapIcNS_10OptionDataESt4lessIcESaISt4pairIKcS6_EEE+0x90>
  40e9f5:	49 8d 47 08          	lea    0x8(%r15),%rax
  40e9f9:	48 89 44 24 18       	mov    %rax,0x18(%rsp)
  40e9fe:	48 8b 44 24 08       	mov    0x8(%rsp),%rax
  40ea03:	41 c7 07 04 00 00 00 	movl   $0x4,(%r15)
  40ea0a:	8b 54 24 14          	mov    0x14(%rsp),%edx
  40ea0e:	48 8b 7c 24 18       	mov    0x18(%rsp),%rdi
  40ea13:	48 8b 70 18          	mov    0x18(%rax),%rsi
  40ea17:	48 83 c4 28          	add    $0x28,%rsp
  40ea1b:	5b                   	pop    %rbx
  40ea1c:	5d                   	pop    %rbp
  40ea1d:	41 5c                	pop    %r12
  40ea1f:	41 5d                	pop    %r13
  40ea21:	41 5e                	pop    %r14
  40ea23:	41 5f                	pop    %r15
  40ea25:	e9 56 fc ff ff       	jmpq   40e680 <_ZN6GetOpt7convertIdEENS_7_Option6ResultERKSsRT_St13_Ios_Fmtflags>
  40ea2a:	66 0f 1f 44 00 00    	nopw   0x0(%rax,%rax,1)
  40ea30:	83 f8 05             	cmp    $0x5,%eax
  40ea33:	74 1b                	je     40ea50 <_ZNK6GetOpt8_OptionTIdE7_assignEPNS_5TokenESt13_Ios_FmtflagsRSt3mapIcNS_10OptionDataESt4lessIcESaISt4pairIKcS6_EEE+0x90>
  40ea35:	48 83 c4 28          	add    $0x28,%rsp
  40ea39:	b8 04 00 00 00       	mov    $0x4,%eax
  40ea3e:	5b                   	pop    %rbx
  40ea3f:	5d                   	pop    %rbp
  40ea40:	41 5c                	pop    %r12
  40ea42:	41 5d                	pop    %r13
  40ea44:	41 5e                	pop    %r14
  40ea46:	41 5f                	pop    %r15
  40ea48:	c3                   	retq   
  40ea49:	0f 1f 80 00 00 00 00 	nopl   0x0(%rax)
  40ea50:	49 8d 47 08          	lea    0x8(%r15),%rax
  40ea54:	48 89 c7             	mov    %rax,%rdi
  40ea57:	48 89 44 24 18       	mov    %rax,0x18(%rsp)
  40ea5c:	49 8b 47 08          	mov    0x8(%r15),%rax
  40ea60:	8b 50 f8             	mov    -0x8(%rax),%edx
  40ea63:	85 d2                	test   %edx,%edx
  40ea65:	78 09                	js     40ea70 <_ZNK6GetOpt8_OptionTIdE7_assignEPNS_5TokenESt13_Ios_FmtflagsRSt3mapIcNS_10OptionDataESt4lessIcESaISt4pairIKcS6_EEE+0xb0>
  40ea67:	e8 c4 3d ff ff       	callq  402830 <_ZNSs12_M_leak_hardEv@plt>
  40ea6c:	49 8b 47 08          	mov    0x8(%r15),%rax
  40ea70:	48 8b 75 10          	mov    0x10(%rbp),%rsi
  40ea74:	4c 8d 65 08          	lea    0x8(%rbp),%r12
  40ea78:	48 85 f6             	test   %rsi,%rsi
  40ea7b:	0f 84 e5 00 00 00    	je     40eb66 <_ZNK6GetOpt8_OptionTIdE7_assignEPNS_5TokenESt13_Ios_FmtflagsRSt3mapIcNS_10OptionDataESt4lessIcESaISt4pairIKcS6_EEE+0x1a6>
  40ea81:	0f b6 40 01          	movzbl 0x1(%rax),%eax
  40ea85:	4d 89 e6             	mov    %r12,%r14
  40ea88:	48 89 f3             	mov    %rsi,%rbx
  40ea8b:	eb 0c                	jmp    40ea99 <_ZNK6GetOpt8_OptionTIdE7_assignEPNS_5TokenESt13_Ios_FmtflagsRSt3mapIcNS_10OptionDataESt4lessIcESaISt4pairIKcS6_EEE+0xd9>
  40ea8d:	0f 1f 00             	nopl   (%rax)
  40ea90:	48 8b 5b 18          	mov    0x18(%rbx),%rbx
  40ea94:	48 85 db             	test   %rbx,%rbx
  40ea97:	74 13                	je     40eaac <_ZNK6GetOpt8_OptionTIdE7_assignEPNS_5TokenESt13_Ios_FmtflagsRSt3mapIcNS_10OptionDataESt4lessIcESaISt4pairIKcS6_EEE+0xec>
  40ea99:	38 43 20             	cmp    %al,0x20(%rbx)
  40ea9c:	7c f2                	jl     40ea90 <_ZNK6GetOpt8_OptionTIdE7_assignEPNS_5TokenESt13_Ios_FmtflagsRSt3mapIcNS_10OptionDataESt4lessIcESaISt4pairIKcS6_EEE+0xd0>
  40ea9e:	7e 60                	jle    40eb00 <_ZNK6GetOpt8_OptionTIdE7_assignEPNS_5TokenESt13_Ios_FmtflagsRSt3mapIcNS_10OptionDataESt4lessIcESaISt4pairIKcS6_EEE+0x140>
  40eaa0:	49 89 de             	mov    %rbx,%r14
  40eaa3:	48 8b 5b 10          	mov    0x10(%rbx),%rbx
  40eaa7:	48 85 db             	test   %rbx,%rbx
  40eaaa:	75 ed                	jne    40ea99 <_ZNK6GetOpt8_OptionTIdE7_assignEPNS_5TokenESt13_Ios_FmtflagsRSt3mapIcNS_10OptionDataESt4lessIcESaISt4pairIKcS6_EEE+0xd9>
  40eaac:	4c 89 f3             	mov    %r14,%rbx
  40eaaf:	48 39 5d 18          	cmp    %rbx,0x18(%rbp)
  40eab3:	0f 84 b7 00 00 00    	je     40eb70 <_ZNK6GetOpt8_OptionTIdE7_assignEPNS_5TokenESt13_Ios_FmtflagsRSt3mapIcNS_10OptionDataESt4lessIcESaISt4pairIKcS6_EEE+0x1b0>
  40eab9:	49 39 de             	cmp    %rbx,%r14
  40eabc:	75 0d                	jne    40eacb <_ZNK6GetOpt8_OptionTIdE7_assignEPNS_5TokenESt13_Ios_FmtflagsRSt3mapIcNS_10OptionDataESt4lessIcESaISt4pairIKcS6_EEE+0x10b>
  40eabe:	e9 3b ff ff ff       	jmpq   40e9fe <_ZNK6GetOpt8_OptionTIdE7_assignEPNS_5TokenESt13_Ios_FmtflagsRSt3mapIcNS_10OptionDataESt4lessIcESaISt4pairIKcS6_EEE+0x3e>
  40eac3:	0f 1f 44 00 00       	nopl   0x0(%rax,%rax,1)
  40eac8:	4c 89 eb             	mov    %r13,%rbx
  40eacb:	48 89 df             	mov    %rbx,%rdi
  40eace:	e8 2d 40 ff ff       	callq  402b00 <_ZSt18_Rb_tree_incrementPKSt18_Rb_tree_node_base@plt>
  40ead3:	4c 89 e6             	mov    %r12,%rsi
  40ead6:	48 89 df             	mov    %rbx,%rdi
  40ead9:	49 89 c5             	mov    %rax,%r13
  40eadc:	e8 3f 3e ff ff       	callq  402920 <_ZSt28_Rb_tree_rebalance_for_erasePSt18_Rb_tree_node_baseRS_@plt>
  40eae1:	48 89 c7             	mov    %rax,%rdi
  40eae4:	e8 47 3f ff ff       	callq  402a30 <_ZdlPv@plt>
  40eae9:	48 83 6d 28 01       	subq   $0x1,0x28(%rbp)
  40eaee:	4d 39 f5             	cmp    %r14,%r13
  40eaf1:	75 d5                	jne    40eac8 <_ZNK6GetOpt8_OptionTIdE7_assignEPNS_5TokenESt13_Ios_FmtflagsRSt3mapIcNS_10OptionDataESt4lessIcESaISt4pairIKcS6_EEE+0x108>
  40eaf3:	e9 06 ff ff ff       	jmpq   40e9fe <_ZNK6GetOpt8_OptionTIdE7_assignEPNS_5TokenESt13_Ios_FmtflagsRSt3mapIcNS_10OptionDataESt4lessIcESaISt4pairIKcS6_EEE+0x3e>
  40eaf8:	0f 1f 84 00 00 00 00 	nopl   0x0(%rax,%rax,1)
  40eaff:	00 
  40eb00:	48 8b 53 10          	mov    0x10(%rbx),%rdx
  40eb04:	48 8b 7b 18          	mov    0x18(%rbx),%rdi
  40eb08:	0f 1f 84 00 00 00 00 	nopl   0x0(%rax,%rax,1)
  40eb0f:	00 
  40eb10:	48 85 ff             	test   %rdi,%rdi
  40eb13:	74 1b                	je     40eb30 <_ZNK6GetOpt8_OptionTIdE7_assignEPNS_5TokenESt13_Ios_FmtflagsRSt3mapIcNS_10OptionDataESt4lessIcESaISt4pairIKcS6_EEE+0x170>
  40eb15:	38 47 20             	cmp    %al,0x20(%rdi)
  40eb18:	7e 46                	jle    40eb60 <_ZNK6GetOpt8_OptionTIdE7_assignEPNS_5TokenESt13_Ios_FmtflagsRSt3mapIcNS_10OptionDataESt4lessIcESaISt4pairIKcS6_EEE+0x1a0>
  40eb1a:	49 89 fe             	mov    %rdi,%r14
  40eb1d:	48 8b 7f 10          	mov    0x10(%rdi),%rdi
  40eb21:	48 85 ff             	test   %rdi,%rdi
  40eb24:	75 ef                	jne    40eb15 <_ZNK6GetOpt8_OptionTIdE7_assignEPNS_5TokenESt13_Ios_FmtflagsRSt3mapIcNS_10OptionDataESt4lessIcESaISt4pairIKcS6_EEE+0x155>
  40eb26:	66 2e 0f 1f 84 00 00 	nopw   %cs:0x0(%rax,%rax,1)
  40eb2d:	00 00 00 
  40eb30:	48 85 d2             	test   %rdx,%rdx
  40eb33:	0f 84 76 ff ff ff    	je     40eaaf <_ZNK6GetOpt8_OptionTIdE7_assignEPNS_5TokenESt13_Ios_FmtflagsRSt3mapIcNS_10OptionDataESt4lessIcESaISt4pairIKcS6_EEE+0xef>
  40eb39:	38 42 20             	cmp    %al,0x20(%rdx)
  40eb3c:	7c 15                	jl     40eb53 <_ZNK6GetOpt8_OptionTIdE7_assignEPNS_5TokenESt13_Ios_FmtflagsRSt3mapIcNS_10OptionDataESt4lessIcESaISt4pairIKcS6_EEE+0x193>
  40eb3e:	48 89 d3             	mov    %rdx,%rbx
  40eb41:	48 8b 52 10          	mov    0x10(%rdx),%rdx
  40eb45:	48 85 d2             	test   %rdx,%rdx
  40eb48:	0f 84 61 ff ff ff    	je     40eaaf <_ZNK6GetOpt8_OptionTIdE7_assignEPNS_5TokenESt13_Ios_FmtflagsRSt3mapIcNS_10OptionDataESt4lessIcESaISt4pairIKcS6_EEE+0xef>
  40eb4e:	38 42 20             	cmp    %al,0x20(%rdx)
  40eb51:	7d eb                	jge    40eb3e <_ZNK6GetOpt8_OptionTIdE7_assignEPNS_5TokenESt13_Ios_FmtflagsRSt3mapIcNS_10OptionDataESt4lessIcESaISt4pairIKcS6_EEE+0x17e>
  40eb53:	48 8b 52 18          	mov    0x18(%rdx),%rdx
  40eb57:	eb d7                	jmp    40eb30 <_ZNK6GetOpt8_OptionTIdE7_assignEPNS_5TokenESt13_Ios_FmtflagsRSt3mapIcNS_10OptionDataESt4lessIcESaISt4pairIKcS6_EEE+0x170>
  40eb59:	0f 1f 80 00 00 00 00 	nopl   0x0(%rax)
  40eb60:	48 8b 7f 18          	mov    0x18(%rdi),%rdi
  40eb64:	eb aa                	jmp    40eb10 <_ZNK6GetOpt8_OptionTIdE7_assignEPNS_5TokenESt13_Ios_FmtflagsRSt3mapIcNS_10OptionDataESt4lessIcESaISt4pairIKcS6_EEE+0x150>
  40eb66:	4d 89 e6             	mov    %r12,%r14
  40eb69:	e9 3e ff ff ff       	jmpq   40eaac <_ZNK6GetOpt8_OptionTIdE7_assignEPNS_5TokenESt13_Ios_FmtflagsRSt3mapIcNS_10OptionDataESt4lessIcESaISt4pairIKcS6_EEE+0xec>
  40eb6e:	66 90                	xchg   %ax,%ax
  40eb70:	4d 39 f4             	cmp    %r14,%r12
  40eb73:	0f 85 40 ff ff ff    	jne    40eab9 <_ZNK6GetOpt8_OptionTIdE7_assignEPNS_5TokenESt13_Ios_FmtflagsRSt3mapIcNS_10OptionDataESt4lessIcESaISt4pairIKcS6_EEE+0xf9>
  40eb79:	48 89 ef             	mov    %rbp,%rdi
  40eb7c:	e8 4f 6b ff ff       	callq  4056d0 <_ZNSt8_Rb_treeIcSt4pairIKcN6GetOpt10OptionDataEESt10_Select1stIS4_ESt4lessIcESaIS4_EE8_M_eraseEPSt13_Rb_tree_nodeIS4_E>
  40eb81:	4c 89 65 18          	mov    %r12,0x18(%rbp)
  40eb85:	48 c7 45 10 00 00 00 	movq   $0x0,0x10(%rbp)
  40eb8c:	00 
  40eb8d:	4c 89 65 20          	mov    %r12,0x20(%rbp)
  40eb91:	48 c7 45 28 00 00 00 	movq   $0x0,0x28(%rbp)
  40eb98:	00 
  40eb99:	e9 60 fe ff ff       	jmpq   40e9fe <_ZNK6GetOpt8_OptionTIdE7_assignEPNS_5TokenESt13_Ios_FmtflagsRSt3mapIcNS_10OptionDataESt4lessIcESaISt4pairIKcS6_EEE+0x3e>
  40eb9e:	90                   	nop
  40eb9f:	90                   	nop

000000000040eba0 <_ZN6GetOpt7convertIiEENS_7_Option6ResultERKSsRT_St13_Ios_Fmtflags>:
  40eba0:	41 57                	push   %r15
  40eba2:	41 89 d7             	mov    %edx,%r15d
  40eba5:	41 56                	push   %r14
  40eba7:	49 89 fe             	mov    %rdi,%r14
  40ebaa:	41 55                	push   %r13
  40ebac:	49 89 f5             	mov    %rsi,%r13
  40ebaf:	41 54                	push   %r12
  40ebb1:	55                   	push   %rbp
  40ebb2:	53                   	push   %rbx
  40ebb3:	48 81 ec 88 01 00 00 	sub    $0x188,%rsp
  40ebba:	48 8d 7c 24 78       	lea    0x78(%rsp),%rdi
  40ebbf:	e8 9c 3c ff ff       	callq  402860 <_ZNSt8ios_baseC2Ev@plt>
  40ebc4:	48 8b 1d a5 3b 20 00 	mov    0x203ba5(%rip),%rbx        # 612770 <_ZTTSt18basic_stringstreamIcSt11char_traitsIcESaIcEE@@GLIBCXX_3.4+0x10>
  40ebcb:	c6 84 24 58 01 00 00 	movb   $0x0,0x158(%rsp)
  40ebd2:	00 
  40ebd3:	48 8d 7c 24 10       	lea    0x10(%rsp),%rdi
  40ebd8:	48 8b 0d 99 3b 20 00 	mov    0x203b99(%rip),%rcx        # 612778 <_ZTTSt18basic_stringstreamIcSt11char_traitsIcESaIcEE@@GLIBCXX_3.4+0x18>
  40ebdf:	48 c7 44 24 78 f0 22 	movq   $0x6122f0,0x78(%rsp)
  40ebe6:	61 00 
  40ebe8:	31 f6                	xor    %esi,%esi
  40ebea:	48 c7 84 24 50 01 00 	movq   $0x0,0x150(%rsp)
  40ebf1:	00 00 00 00 00 
  40ebf6:	c6 84 24 59 01 00 00 	movb   $0x0,0x159(%rsp)
  40ebfd:	00 
  40ebfe:	48 8b 43 e8          	mov    -0x18(%rbx),%rax
  40ec02:	48 c7 84 24 60 01 00 	movq   $0x0,0x160(%rsp)
  40ec09:	00 00 00 00 00 
  40ec0e:	48 c7 84 24 68 01 00 	movq   $0x0,0x168(%rsp)
  40ec15:	00 00 00 00 00 
  40ec1a:	48 c7 84 24 70 01 00 	movq   $0x0,0x170(%rsp)
  40ec21:	00 00 00 00 00 
  40ec26:	48 c7 84 24 78 01 00 	movq   $0x0,0x178(%rsp)
  40ec2d:	00 00 00 00 00 
  40ec32:	48 89 5c 24 10       	mov    %rbx,0x10(%rsp)
  40ec37:	48 89 4c 04 10       	mov    %rcx,0x10(%rsp,%rax,1)
  40ec3c:	48 c7 44 24 18 00 00 	movq   $0x0,0x18(%rsp)
  40ec43:	00 00 
  40ec45:	48 03 7b e8          	add    -0x18(%rbx),%rdi
  40ec49:	e8 32 3f ff ff       	callq  402b80 <_ZNSt9basic_iosIcSt11char_traitsIcEE4initEPSt15basic_streambufIcS1_E@plt>
  40ec4e:	48 8b 2d 2b 3b 20 00 	mov    0x203b2b(%rip),%rbp        # 612780 <_ZTTSt18basic_stringstreamIcSt11char_traitsIcESaIcEE@@GLIBCXX_3.4+0x20>
  40ec55:	31 f6                	xor    %esi,%esi
  40ec57:	48 8b 45 e8          	mov    -0x18(%rbp),%rax
  40ec5b:	48 89 6c 24 20       	mov    %rbp,0x20(%rsp)
  40ec60:	48 8d 7c 04 20       	lea    0x20(%rsp,%rax,1),%rdi
  40ec65:	48 8b 05 1c 3b 20 00 	mov    0x203b1c(%rip),%rax        # 612788 <_ZTTSt18basic_stringstreamIcSt11char_traitsIcESaIcEE@@GLIBCXX_3.4+0x28>
  40ec6c:	48 89 07             	mov    %rax,(%rdi)
  40ec6f:	e8 0c 3f ff ff       	callq  402b80 <_ZNSt9basic_iosIcSt11char_traitsIcEE4initEPSt15basic_streambufIcS1_E@plt>
  40ec74:	4c 8b 25 ed 3a 20 00 	mov    0x203aed(%rip),%r12        # 612768 <_ZTTSt18basic_stringstreamIcSt11char_traitsIcESaIcEE@@GLIBCXX_3.4+0x8>
  40ec7b:	48 8b 0d 0e 3b 20 00 	mov    0x203b0e(%rip),%rcx        # 612790 <_ZTTSt18basic_stringstreamIcSt11char_traitsIcESaIcEE@@GLIBCXX_3.4+0x30>
  40ec82:	48 8d 7c 24 60       	lea    0x60(%rsp),%rdi
  40ec87:	49 8b 44 24 e8       	mov    -0x18(%r12),%rax
  40ec8c:	48 89 4c 04 10       	mov    %rcx,0x10(%rsp,%rax,1)
  40ec91:	48 c7 44 24 10 38 23 	movq   $0x612338,0x10(%rsp)
  40ec98:	61 00 
  40ec9a:	48 c7 44 24 78 88 23 	movq   $0x612388,0x78(%rsp)
  40eca1:	61 00 
  40eca3:	48 c7 44 24 20 60 23 	movq   $0x612360,0x20(%rsp)
  40ecaa:	61 00 
  40ecac:	48 c7 44 24 28 b0 23 	movq   $0x6123b0,0x28(%rsp)
  40ecb3:	61 00 
  40ecb5:	48 c7 44 24 30 00 00 	movq   $0x0,0x30(%rsp)
  40ecbc:	00 00 
  40ecbe:	48 c7 44 24 38 00 00 	movq   $0x0,0x38(%rsp)
  40ecc5:	00 00 
  40ecc7:	48 c7 44 24 40 00 00 	movq   $0x0,0x40(%rsp)
  40ecce:	00 00 
  40ecd0:	48 c7 44 24 48 00 00 	movq   $0x0,0x48(%rsp)
  40ecd7:	00 00 
  40ecd9:	48 c7 44 24 50 00 00 	movq   $0x0,0x50(%rsp)
  40ece0:	00 00 
  40ece2:	48 c7 44 24 58 00 00 	movq   $0x0,0x58(%rsp)
  40ece9:	00 00 
  40eceb:	e8 50 40 ff ff       	callq  402d40 <_ZNSt6localeC1Ev@plt>
  40ecf0:	48 8d 44 24 10       	lea    0x10(%rsp),%rax
  40ecf5:	48 c7 44 24 28 70 26 	movq   $0x612670,0x28(%rsp)
  40ecfc:	61 00 
  40ecfe:	c7 44 24 68 18 00 00 	movl   $0x18,0x68(%rsp)
  40ed05:	00 
  40ed06:	48 c7 44 24 70 18 23 	movq   $0x612318,0x70(%rsp)
  40ed0d:	61 00 
  40ed0f:	48 8d 70 18          	lea    0x18(%rax),%rsi
  40ed13:	48 8d 78 68          	lea    0x68(%rax),%rdi
  40ed17:	e8 64 3e ff ff       	callq  402b80 <_ZNSt9basic_iosIcSt11char_traitsIcEE4initEPSt15basic_streambufIcS1_E@plt>
  40ed1c:	48 8d 44 24 10       	lea    0x10(%rsp),%rax
  40ed21:	31 f6                	xor    %esi,%esi
  40ed23:	48 8d 78 68          	lea    0x68(%rax),%rdi
  40ed27:	e8 44 3f ff ff       	callq  402c70 <_ZNSt9basic_iosIcSt11char_traitsIcEE5clearESt12_Ios_Iostate@plt>
  40ed2c:	49 8b 36             	mov    (%r14),%rsi
  40ed2f:	48 8d 44 24 10       	lea    0x10(%rsp),%rax
  40ed34:	44 89 bc 24 90 00 00 	mov    %r15d,0x90(%rsp)
  40ed3b:	00 
  40ed3c:	48 8d 78 10          	lea    0x10(%rax),%rdi
  40ed40:	48 8b 56 e8          	mov    -0x18(%rsi),%rdx
  40ed44:	e8 97 3d ff ff       	callq  402ae0 <_ZSt16__ostream_insertIcSt11char_traitsIcEERSt13basic_ostreamIT_T0_ES6_PKS3_l@plt>
  40ed49:	48 8d 7c 24 10       	lea    0x10(%rsp),%rdi
  40ed4e:	4c 89 ee             	mov    %r13,%rsi
  40ed51:	e8 da 3b ff ff       	callq  402930 <_ZNSirsERi@plt>
  40ed56:	8b 84 24 98 00 00 00 	mov    0x98(%rsp),%eax
  40ed5d:	41 bd 03 00 00 00    	mov    $0x3,%r13d
  40ed63:	a8 05                	test   $0x5,%al
  40ed65:	75 0d                	jne    40ed74 <_ZN6GetOpt7convertIiEENS_7_Option6ResultERKSsRT_St13_Ios_Fmtflags+0x1d4>
  40ed67:	83 e0 02             	and    $0x2,%eax
  40ed6a:	83 f8 01             	cmp    $0x1,%eax
  40ed6d:	45 19 ed             	sbb    %r13d,%r13d
  40ed70:	41 83 e5 03          	and    $0x3,%r13d
  40ed74:	48 8b 44 24 70       	mov    0x70(%rsp),%rax
  40ed79:	48 c7 44 24 10 38 23 	movq   $0x612338,0x10(%rsp)
  40ed80:	61 00 
  40ed82:	48 c7 44 24 78 88 23 	movq   $0x612388,0x78(%rsp)
  40ed89:	61 00 
  40ed8b:	48 c7 44 24 20 60 23 	movq   $0x612360,0x20(%rsp)
  40ed92:	61 00 
  40ed94:	48 c7 44 24 28 70 26 	movq   $0x612670,0x28(%rsp)
  40ed9b:	61 00 
  40ed9d:	48 8d 78 e8          	lea    -0x18(%rax),%rdi
  40eda1:	48 81 ff 00 23 61 00 	cmp    $0x612300,%rdi
  40eda8:	75 7f                	jne    40ee29 <_ZN6GetOpt7convertIiEENS_7_Option6ResultERKSsRT_St13_Ios_Fmtflags+0x289>
  40edaa:	48 8d 7c 24 60       	lea    0x60(%rsp),%rdi
  40edaf:	48 c7 44 24 28 b0 23 	movq   $0x6123b0,0x28(%rsp)
  40edb6:	61 00 
  40edb8:	e8 d3 3d ff ff       	callq  402b90 <_ZNSt6localeD1Ev@plt>
  40edbd:	49 8b 44 24 e8       	mov    -0x18(%r12),%rax
  40edc2:	48 8b 0d c7 39 20 00 	mov    0x2039c7(%rip),%rcx        # 612790 <_ZTTSt18basic_stringstreamIcSt11char_traitsIcESaIcEE@@GLIBCXX_3.4+0x30>
  40edc9:	48 8d 7c 24 78       	lea    0x78(%rsp),%rdi
  40edce:	48 8b 15 b3 39 20 00 	mov    0x2039b3(%rip),%rdx        # 612788 <_ZTTSt18basic_stringstreamIcSt11char_traitsIcESaIcEE@@GLIBCXX_3.4+0x28>
  40edd5:	48 89 4c 04 10       	mov    %rcx,0x10(%rsp,%rax,1)
  40edda:	48 8b 45 e8          	mov    -0x18(%rbp),%rax
  40edde:	48 89 6c 24 20       	mov    %rbp,0x20(%rsp)
  40ede3:	48 8b 0d 8e 39 20 00 	mov    0x20398e(%rip),%rcx        # 612778 <_ZTTSt18basic_stringstreamIcSt11char_traitsIcESaIcEE@@GLIBCXX_3.4+0x18>
  40edea:	48 89 54 04 20       	mov    %rdx,0x20(%rsp,%rax,1)
  40edef:	48 8b 43 e8          	mov    -0x18(%rbx),%rax
  40edf3:	48 89 5c 24 10       	mov    %rbx,0x10(%rsp)
  40edf8:	48 89 4c 04 10       	mov    %rcx,0x10(%rsp,%rax,1)
  40edfd:	48 c7 44 24 18 00 00 	movq   $0x0,0x18(%rsp)
  40ee04:	00 00 
  40ee06:	48 c7 44 24 78 f0 22 	movq   $0x6122f0,0x78(%rsp)
  40ee0d:	61 00 
  40ee0f:	e8 5c 3a ff ff       	callq  402870 <_ZNSt8ios_baseD2Ev@plt>
  40ee14:	48 81 c4 88 01 00 00 	add    $0x188,%rsp
  40ee1b:	44 89 e8             	mov    %r13d,%eax
  40ee1e:	5b                   	pop    %rbx
  40ee1f:	5d                   	pop    %rbp
  40ee20:	41 5c                	pop    %r12
  40ee22:	41 5d                	pop    %r13
  40ee24:	41 5e                	pop    %r14
  40ee26:	41 5f                	pop    %r15
  40ee28:	c3                   	retq   
  40ee29:	b9 50 2c 40 00       	mov    $0x402c50,%ecx
  40ee2e:	48 8d 57 10          	lea    0x10(%rdi),%rdx
  40ee32:	48 85 c9             	test   %rcx,%rcx
  40ee35:	0f 84 92 00 00 00    	je     40eecd <_ZN6GetOpt7convertIiEENS_7_Option6ResultERKSsRT_St13_Ios_Fmtflags+0x32d>
  40ee3b:	83 c8 ff             	or     $0xffffffff,%eax
  40ee3e:	f0 0f c1 02          	lock xadd %eax,(%rdx)
  40ee42:	85 c0                	test   %eax,%eax
  40ee44:	0f 8f 60 ff ff ff    	jg     40edaa <_ZN6GetOpt7convertIiEENS_7_Option6ResultERKSsRT_St13_Ios_Fmtflags+0x20a>
  40ee4a:	48 8d 74 24 0f       	lea    0xf(%rsp),%rsi
  40ee4f:	e8 6c 3b ff ff       	callq  4029c0 <_ZNSs4_Rep10_M_destroyERKSaIcE@plt>
  40ee54:	e9 51 ff ff ff       	jmpq   40edaa <_ZN6GetOpt7convertIiEENS_7_Option6ResultERKSsRT_St13_Ios_Fmtflags+0x20a>
  40ee59:	48 8d 7c 24 10       	lea    0x10(%rsp),%rdi
  40ee5e:	48 89 c3             	mov    %rax,%rbx
  40ee61:	e8 7a 3d ff ff       	callq  402be0 <_ZNSt18basic_stringstreamIcSt11char_traitsIcESaIcEED1Ev@plt>
  40ee66:	48 89 df             	mov    %rbx,%rdi
  40ee69:	e8 42 3e ff ff       	callq  402cb0 <_Unwind_Resume@plt>
  40ee6e:	48 8b 53 e8          	mov    -0x18(%rbx),%rdx
  40ee72:	48 89 5c 24 10       	mov    %rbx,0x10(%rsp)
  40ee77:	48 8b 1d fa 38 20 00 	mov    0x2038fa(%rip),%rbx        # 612778 <_ZTTSt18basic_stringstreamIcSt11char_traitsIcESaIcEE@@GLIBCXX_3.4+0x18>
  40ee7e:	48 89 5c 14 10       	mov    %rbx,0x10(%rsp,%rdx,1)
  40ee83:	48 c7 44 24 18 00 00 	movq   $0x0,0x18(%rsp)
  40ee8a:	00 00 
  40ee8c:	48 89 c3             	mov    %rax,%rbx
  40ee8f:	48 8d 7c 24 78       	lea    0x78(%rsp),%rdi
  40ee94:	48 c7 44 24 78 f0 22 	movq   $0x6122f0,0x78(%rsp)
  40ee9b:	61 00 
  40ee9d:	e8 ce 39 ff ff       	callq  402870 <_ZNSt8ios_baseD2Ev@plt>
  40eea2:	48 89 df             	mov    %rbx,%rdi
  40eea5:	e8 06 3e ff ff       	callq  402cb0 <_Unwind_Resume@plt>
  40eeaa:	48 89 c3             	mov    %rax,%rbx
  40eead:	eb e0                	jmp    40ee8f <_ZN6GetOpt7convertIiEENS_7_Option6ResultERKSsRT_St13_Ios_Fmtflags+0x2ef>
  40eeaf:	48 8d 7c 24 28       	lea    0x28(%rsp),%rdi
  40eeb4:	48 89 c3             	mov    %rax,%rbx
  40eeb7:	e8 e4 5d ff ff       	callq  404ca0 <_ZNSt15basic_stringbufIcSt11char_traitsIcESaIcEED1Ev>
  40eebc:	48 8d 7c 24 10       	lea    0x10(%rsp),%rdi
  40eec1:	be 68 27 61 00       	mov    $0x612768,%esi
  40eec6:	e8 55 39 ff ff       	callq  402820 <_ZNSdD2Ev@plt>
  40eecb:	eb c2                	jmp    40ee8f <_ZN6GetOpt7convertIiEENS_7_Option6ResultERKSsRT_St13_Ios_Fmtflags+0x2ef>
  40eecd:	8b 50 f8             	mov    -0x8(%rax),%edx
  40eed0:	8d 4a ff             	lea    -0x1(%rdx),%ecx
  40eed3:	89 48 f8             	mov    %ecx,-0x8(%rax)
  40eed6:	89 d0                	mov    %edx,%eax
  40eed8:	e9 65 ff ff ff       	jmpq   40ee42 <_ZN6GetOpt7convertIiEENS_7_Option6ResultERKSsRT_St13_Ios_Fmtflags+0x2a2>
  40eedd:	90                   	nop
  40eede:	90                   	nop
  40eedf:	90                   	nop

000000000040eee0 <_ZNK6GetOpt8_OptionTIiE7_assignEPNS_5TokenESt13_Ios_FmtflagsRSt3mapIcNS_10OptionDataESt4lessIcESaISt4pairIKcS6_EEE>:
  40eee0:	41 57                	push   %r15
  40eee2:	41 56                	push   %r14
  40eee4:	41 55                	push   %r13
  40eee6:	41 54                	push   %r12
  40eee8:	55                   	push   %rbp
  40eee9:	53                   	push   %rbx
  40eeea:	48 83 ec 28          	sub    $0x28,%rsp
  40eeee:	4c 8b 7e 10          	mov    0x10(%rsi),%r15
  40eef2:	48 89 7c 24 08       	mov    %rdi,0x8(%rsp)
  40eef7:	89 54 24 14          	mov    %edx,0x14(%rsp)
  40eefb:	4d 85 ff             	test   %r15,%r15
  40eefe:	74 55                	je     40ef55 <_ZNK6GetOpt8_OptionTIiE7_assignEPNS_5TokenESt13_Ios_FmtflagsRSt3mapIcNS_10OptionDataESt4lessIcESaISt4pairIKcS6_EEE+0x75>
  40ef00:	41 8b 07             	mov    (%r15),%eax
  40ef03:	48 89 cd             	mov    %rcx,%rbp
  40ef06:	89 c2                	mov    %eax,%edx
  40ef08:	83 e2 fd             	and    $0xfffffffd,%edx
  40ef0b:	83 fa 04             	cmp    $0x4,%edx
  40ef0e:	75 40                	jne    40ef50 <_ZNK6GetOpt8_OptionTIiE7_assignEPNS_5TokenESt13_Ios_FmtflagsRSt3mapIcNS_10OptionDataESt4lessIcESaISt4pairIKcS6_EEE+0x70>
  40ef10:	83 f8 05             	cmp    $0x5,%eax
  40ef13:	74 5b                	je     40ef70 <_ZNK6GetOpt8_OptionTIiE7_assignEPNS_5TokenESt13_Ios_FmtflagsRSt3mapIcNS_10OptionDataESt4lessIcESaISt4pairIKcS6_EEE+0x90>
  40ef15:	49 8d 47 08          	lea    0x8(%r15),%rax
  40ef19:	48 89 44 24 18       	mov    %rax,0x18(%rsp)
  40ef1e:	48 8b 44 24 08       	mov    0x8(%rsp),%rax
  40ef23:	41 c7 07 04 00 00 00 	movl   $0x4,(%r15)
  40ef2a:	8b 54 24 14          	mov    0x14(%rsp),%edx
  40ef2e:	48 8b 7c 24 18       	mov    0x18(%rsp),%rdi
  40ef33:	48 8b 70 18          	mov    0x18(%rax),%rsi
  40ef37:	48 83 c4 28          	add    $0x28,%rsp
  40ef3b:	5b                   	pop    %rbx
  40ef3c:	5d                   	pop    %rbp
  40ef3d:	41 5c                	pop    %r12
  40ef3f:	41 5d                	pop    %r13
  40ef41:	41 5e                	pop    %r14
  40ef43:	41 5f                	pop    %r15
  40ef45:	e9 56 fc ff ff       	jmpq   40eba0 <_ZN6GetOpt7convertIiEENS_7_Option6ResultERKSsRT_St13_Ios_Fmtflags>
  40ef4a:	66 0f 1f 44 00 00    	nopw   0x0(%rax,%rax,1)
  40ef50:	83 f8 05             	cmp    $0x5,%eax
  40ef53:	74 1b                	je     40ef70 <_ZNK6GetOpt8_OptionTIiE7_assignEPNS_5TokenESt13_Ios_FmtflagsRSt3mapIcNS_10OptionDataESt4lessIcESaISt4pairIKcS6_EEE+0x90>
  40ef55:	48 83 c4 28          	add    $0x28,%rsp
  40ef59:	b8 04 00 00 00       	mov    $0x4,%eax
  40ef5e:	5b                   	pop    %rbx
  40ef5f:	5d                   	pop    %rbp
  40ef60:	41 5c                	pop    %r12
  40ef62:	41 5d                	pop    %r13
  40ef64:	41 5e                	pop    %r14
  40ef66:	41 5f                	pop    %r15
  40ef68:	c3                   	retq   
  40ef69:	0f 1f 80 00 00 00 00 	nopl   0x0(%rax)
  40ef70:	49 8d 47 08          	lea    0x8(%r15),%rax
  40ef74:	48 89 c7             	mov    %rax,%rdi
  40ef77:	48 89 44 24 18       	mov    %rax,0x18(%rsp)
  40ef7c:	49 8b 47 08          	mov    0x8(%r15),%rax
  40ef80:	8b 48 f8             	mov    -0x8(%rax),%ecx
  40ef83:	85 c9                	test   %ecx,%ecx
  40ef85:	78 09                	js     40ef90 <_ZNK6GetOpt8_OptionTIiE7_assignEPNS_5TokenESt13_Ios_FmtflagsRSt3mapIcNS_10OptionDataESt4lessIcESaISt4pairIKcS6_EEE+0xb0>
  40ef87:	e8 a4 38 ff ff       	callq  402830 <_ZNSs12_M_leak_hardEv@plt>
  40ef8c:	49 8b 47 08          	mov    0x8(%r15),%rax
  40ef90:	48 8b 75 10          	mov    0x10(%rbp),%rsi
  40ef94:	4c 8d 65 08          	lea    0x8(%rbp),%r12
  40ef98:	48 85 f6             	test   %rsi,%rsi
  40ef9b:	0f 84 e5 00 00 00    	je     40f086 <_ZNK6GetOpt8_OptionTIiE7_assignEPNS_5TokenESt13_Ios_FmtflagsRSt3mapIcNS_10OptionDataESt4lessIcESaISt4pairIKcS6_EEE+0x1a6>
  40efa1:	0f b6 40 01          	movzbl 0x1(%rax),%eax
  40efa5:	4d 89 e6             	mov    %r12,%r14
  40efa8:	48 89 f3             	mov    %rsi,%rbx
  40efab:	eb 0c                	jmp    40efb9 <_ZNK6GetOpt8_OptionTIiE7_assignEPNS_5TokenESt13_Ios_FmtflagsRSt3mapIcNS_10OptionDataESt4lessIcESaISt4pairIKcS6_EEE+0xd9>
  40efad:	0f 1f 00             	nopl   (%rax)
  40efb0:	48 8b 5b 18          	mov    0x18(%rbx),%rbx
  40efb4:	48 85 db             	test   %rbx,%rbx
  40efb7:	74 13                	je     40efcc <_ZNK6GetOpt8_OptionTIiE7_assignEPNS_5TokenESt13_Ios_FmtflagsRSt3mapIcNS_10OptionDataESt4lessIcESaISt4pairIKcS6_EEE+0xec>
  40efb9:	38 43 20             	cmp    %al,0x20(%rbx)
  40efbc:	7c f2                	jl     40efb0 <_ZNK6GetOpt8_OptionTIiE7_assignEPNS_5TokenESt13_Ios_FmtflagsRSt3mapIcNS_10OptionDataESt4lessIcESaISt4pairIKcS6_EEE+0xd0>
  40efbe:	7e 60                	jle    40f020 <_ZNK6GetOpt8_OptionTIiE7_assignEPNS_5TokenESt13_Ios_FmtflagsRSt3mapIcNS_10OptionDataESt4lessIcESaISt4pairIKcS6_EEE+0x140>
  40efc0:	49 89 de             	mov    %rbx,%r14
  40efc3:	48 8b 5b 10          	mov    0x10(%rbx),%rbx
  40efc7:	48 85 db             	test   %rbx,%rbx
  40efca:	75 ed                	jne    40efb9 <_ZNK6GetOpt8_OptionTIiE7_assignEPNS_5TokenESt13_Ios_FmtflagsRSt3mapIcNS_10OptionDataESt4lessIcESaISt4pairIKcS6_EEE+0xd9>
  40efcc:	4c 89 f3             	mov    %r14,%rbx
  40efcf:	48 39 5d 18          	cmp    %rbx,0x18(%rbp)
  40efd3:	0f 84 b7 00 00 00    	je     40f090 <_ZNK6GetOpt8_OptionTIiE7_assignEPNS_5TokenESt13_Ios_FmtflagsRSt3mapIcNS_10OptionDataESt4lessIcESaISt4pairIKcS6_EEE+0x1b0>
  40efd9:	49 39 de             	cmp    %rbx,%r14
  40efdc:	75 0d                	jne    40efeb <_ZNK6GetOpt8_OptionTIiE7_assignEPNS_5TokenESt13_Ios_FmtflagsRSt3mapIcNS_10OptionDataESt4lessIcESaISt4pairIKcS6_EEE+0x10b>
  40efde:	e9 3b ff ff ff       	jmpq   40ef1e <_ZNK6GetOpt8_OptionTIiE7_assignEPNS_5TokenESt13_Ios_FmtflagsRSt3mapIcNS_10OptionDataESt4lessIcESaISt4pairIKcS6_EEE+0x3e>
  40efe3:	0f 1f 44 00 00       	nopl   0x0(%rax,%rax,1)
  40efe8:	4c 89 eb             	mov    %r13,%rbx
  40efeb:	48 89 df             	mov    %rbx,%rdi
  40efee:	e8 0d 3b ff ff       	callq  402b00 <_ZSt18_Rb_tree_incrementPKSt18_Rb_tree_node_base@plt>
  40eff3:	4c 89 e6             	mov    %r12,%rsi
  40eff6:	48 89 df             	mov    %rbx,%rdi
  40eff9:	49 89 c5             	mov    %rax,%r13
  40effc:	e8 1f 39 ff ff       	callq  402920 <_ZSt28_Rb_tree_rebalance_for_erasePSt18_Rb_tree_node_baseRS_@plt>
  40f001:	48 89 c7             	mov    %rax,%rdi
  40f004:	e8 27 3a ff ff       	callq  402a30 <_ZdlPv@plt>
  40f009:	48 83 6d 28 01       	subq   $0x1,0x28(%rbp)
  40f00e:	4d 39 f5             	cmp    %r14,%r13
  40f011:	75 d5                	jne    40efe8 <_ZNK6GetOpt8_OptionTIiE7_assignEPNS_5TokenESt13_Ios_FmtflagsRSt3mapIcNS_10OptionDataESt4lessIcESaISt4pairIKcS6_EEE+0x108>
  40f013:	e9 06 ff ff ff       	jmpq   40ef1e <_ZNK6GetOpt8_OptionTIiE7_assignEPNS_5TokenESt13_Ios_FmtflagsRSt3mapIcNS_10OptionDataESt4lessIcESaISt4pairIKcS6_EEE+0x3e>
  40f018:	0f 1f 84 00 00 00 00 	nopl   0x0(%rax,%rax,1)
  40f01f:	00 
  40f020:	48 8b 53 10          	mov    0x10(%rbx),%rdx
  40f024:	48 8b 7b 18          	mov    0x18(%rbx),%rdi
  40f028:	0f 1f 84 00 00 00 00 	nopl   0x0(%rax,%rax,1)
  40f02f:	00 
  40f030:	48 85 ff             	test   %rdi,%rdi
  40f033:	74 1b                	je     40f050 <_ZNK6GetOpt8_OptionTIiE7_assignEPNS_5TokenESt13_Ios_FmtflagsRSt3mapIcNS_10OptionDataESt4lessIcESaISt4pairIKcS6_EEE+0x170>
  40f035:	38 47 20             	cmp    %al,0x20(%rdi)
  40f038:	7e 46                	jle    40f080 <_ZNK6GetOpt8_OptionTIiE7_assignEPNS_5TokenESt13_Ios_FmtflagsRSt3mapIcNS_10OptionDataESt4lessIcESaISt4pairIKcS6_EEE+0x1a0>
  40f03a:	49 89 fe             	mov    %rdi,%r14
  40f03d:	48 8b 7f 10          	mov    0x10(%rdi),%rdi
  40f041:	48 85 ff             	test   %rdi,%rdi
  40f044:	75 ef                	jne    40f035 <_ZNK6GetOpt8_OptionTIiE7_assignEPNS_5TokenESt13_Ios_FmtflagsRSt3mapIcNS_10OptionDataESt4lessIcESaISt4pairIKcS6_EEE+0x155>
  40f046:	66 2e 0f 1f 84 00 00 	nopw   %cs:0x0(%rax,%rax,1)
  40f04d:	00 00 00 
  40f050:	48 85 d2             	test   %rdx,%rdx
  40f053:	0f 84 76 ff ff ff    	je     40efcf <_ZNK6GetOpt8_OptionTIiE7_assignEPNS_5TokenESt13_Ios_FmtflagsRSt3mapIcNS_10OptionDataESt4lessIcESaISt4pairIKcS6_EEE+0xef>
  40f059:	38 42 20             	cmp    %al,0x20(%rdx)
  40f05c:	7c 15                	jl     40f073 <_ZNK6GetOpt8_OptionTIiE7_assignEPNS_5TokenESt13_Ios_FmtflagsRSt3mapIcNS_10OptionDataESt4lessIcESaISt4pairIKcS6_EEE+0x193>
  40f05e:	48 89 d3             	mov    %rdx,%rbx
  40f061:	48 8b 52 10          	mov    0x10(%rdx),%rdx
  40f065:	48 85 d2             	test   %rdx,%rdx
  40f068:	0f 84 61 ff ff ff    	je     40efcf <_ZNK6GetOpt8_OptionTIiE7_assignEPNS_5TokenESt13_Ios_FmtflagsRSt3mapIcNS_10OptionDataESt4lessIcESaISt4pairIKcS6_EEE+0xef>
  40f06e:	38 42 20             	cmp    %al,0x20(%rdx)
  40f071:	7d eb                	jge    40f05e <_ZNK6GetOpt8_OptionTIiE7_assignEPNS_5TokenESt13_Ios_FmtflagsRSt3mapIcNS_10OptionDataESt4lessIcESaISt4pairIKcS6_EEE+0x17e>
  40f073:	48 8b 52 18          	mov    0x18(%rdx),%rdx
  40f077:	eb d7                	jmp    40f050 <_ZNK6GetOpt8_OptionTIiE7_assignEPNS_5TokenESt13_Ios_FmtflagsRSt3mapIcNS_10OptionDataESt4lessIcESaISt4pairIKcS6_EEE+0x170>
  40f079:	0f 1f 80 00 00 00 00 	nopl   0x0(%rax)
  40f080:	48 8b 7f 18          	mov    0x18(%rdi),%rdi
  40f084:	eb aa                	jmp    40f030 <_ZNK6GetOpt8_OptionTIiE7_assignEPNS_5TokenESt13_Ios_FmtflagsRSt3mapIcNS_10OptionDataESt4lessIcESaISt4pairIKcS6_EEE+0x150>
  40f086:	4d 89 e6             	mov    %r12,%r14
  40f089:	e9 3e ff ff ff       	jmpq   40efcc <_ZNK6GetOpt8_OptionTIiE7_assignEPNS_5TokenESt13_Ios_FmtflagsRSt3mapIcNS_10OptionDataESt4lessIcESaISt4pairIKcS6_EEE+0xec>
  40f08e:	66 90                	xchg   %ax,%ax
  40f090:	4d 39 f4             	cmp    %r14,%r12
  40f093:	0f 85 40 ff ff ff    	jne    40efd9 <_ZNK6GetOpt8_OptionTIiE7_assignEPNS_5TokenESt13_Ios_FmtflagsRSt3mapIcNS_10OptionDataESt4lessIcESaISt4pairIKcS6_EEE+0xf9>
  40f099:	48 89 ef             	mov    %rbp,%rdi
  40f09c:	e8 2f 66 ff ff       	callq  4056d0 <_ZNSt8_Rb_treeIcSt4pairIKcN6GetOpt10OptionDataEESt10_Select1stIS4_ESt4lessIcESaIS4_EE8_M_eraseEPSt13_Rb_tree_nodeIS4_E>
  40f0a1:	4c 89 65 18          	mov    %r12,0x18(%rbp)
  40f0a5:	48 c7 45 10 00 00 00 	movq   $0x0,0x10(%rbp)
  40f0ac:	00 
  40f0ad:	4c 89 65 20          	mov    %r12,0x20(%rbp)
  40f0b1:	48 c7 45 28 00 00 00 	movq   $0x0,0x28(%rbp)
  40f0b8:	00 
  40f0b9:	e9 60 fe ff ff       	jmpq   40ef1e <_ZNK6GetOpt8_OptionTIiE7_assignEPNS_5TokenESt13_Ios_FmtflagsRSt3mapIcNS_10OptionDataESt4lessIcESaISt4pairIKcS6_EEE+0x3e>
  40f0be:	90                   	nop
  40f0bf:	90                   	nop

000000000040f0c0 <__libc_csu_init>:
  40f0c0:	48 89 6c 24 d8       	mov    %rbp,-0x28(%rsp)
  40f0c5:	4c 89 64 24 e0       	mov    %r12,-0x20(%rsp)
  40f0ca:	48 8d 2d df 2c 20 00 	lea    0x202cdf(%rip),%rbp        # 611db0 <__init_array_end>
  40f0d1:	4c 8d 25 c8 2c 20 00 	lea    0x202cc8(%rip),%r12        # 611da0 <__frame_dummy_init_array_entry>
  40f0d8:	4c 89 6c 24 e8       	mov    %r13,-0x18(%rsp)
  40f0dd:	4c 89 74 24 f0       	mov    %r14,-0x10(%rsp)
  40f0e2:	4c 89 7c 24 f8       	mov    %r15,-0x8(%rsp)
  40f0e7:	48 89 5c 24 d0       	mov    %rbx,-0x30(%rsp)
  40f0ec:	48 83 ec 38          	sub    $0x38,%rsp
  40f0f0:	4c 29 e5             	sub    %r12,%rbp
  40f0f3:	41 89 fd             	mov    %edi,%r13d
  40f0f6:	49 89 f6             	mov    %rsi,%r14
  40f0f9:	48 c1 fd 03          	sar    $0x3,%rbp
  40f0fd:	49 89 d7             	mov    %rdx,%r15
  40f100:	e8 b3 36 ff ff       	callq  4027b8 <_init>
  40f105:	48 85 ed             	test   %rbp,%rbp
  40f108:	74 1c                	je     40f126 <__libc_csu_init+0x66>
  40f10a:	31 db                	xor    %ebx,%ebx
  40f10c:	0f 1f 40 00          	nopl   0x0(%rax)
  40f110:	4c 89 fa             	mov    %r15,%rdx
  40f113:	4c 89 f6             	mov    %r14,%rsi
  40f116:	44 89 ef             	mov    %r13d,%edi
  40f119:	41 ff 14 dc          	callq  *(%r12,%rbx,8)
  40f11d:	48 83 c3 01          	add    $0x1,%rbx
  40f121:	48 39 eb             	cmp    %rbp,%rbx
  40f124:	75 ea                	jne    40f110 <__libc_csu_init+0x50>
  40f126:	48 8b 5c 24 08       	mov    0x8(%rsp),%rbx
  40f12b:	48 8b 6c 24 10       	mov    0x10(%rsp),%rbp
  40f130:	4c 8b 64 24 18       	mov    0x18(%rsp),%r12
  40f135:	4c 8b 6c 24 20       	mov    0x20(%rsp),%r13
  40f13a:	4c 8b 74 24 28       	mov    0x28(%rsp),%r14
  40f13f:	4c 8b 7c 24 30       	mov    0x30(%rsp),%r15
  40f144:	48 83 c4 38          	add    $0x38,%rsp
  40f148:	c3                   	retq   
  40f149:	0f 1f 80 00 00 00 00 	nopl   0x0(%rax)

000000000040f150 <__libc_csu_fini>:
  40f150:	f3 c3                	repz retq 

Disassembly of section .fini:

000000000040f154 <_fini>:
  40f154:	48 83 ec 08          	sub    $0x8,%rsp
  40f158:	48 83 c4 08          	add    $0x8,%rsp
  40f15c:	c3                   	retq   
