
relaxation.elf:     file format elf64-x86-64


Disassembly of section .init:

0000000000002f28 <_init>:
    2f28:	48 83 ec 08          	sub    $0x8,%rsp
    2f2c:	48 8b 05 b5 10 21 00 	mov    0x2110b5(%rip),%rax        # 213fe8 <_DYNAMIC+0x250>
    2f33:	48 85 c0             	test   %rax,%rax
    2f36:	74 05                	je     2f3d <_init+0x15>
    2f38:	e8 c3 04 00 00       	callq  3400 <__gmon_start__@plt>
    2f3d:	48 83 c4 08          	add    $0x8,%rsp
    2f41:	c3                   	retq   

Disassembly of section .plt:

0000000000002f50 <_ZNSo3putEc@plt-0x10>:
    2f50:	ff 35 b2 10 21 00    	pushq  0x2110b2(%rip)        # 214008 <_GLOBAL_OFFSET_TABLE_+0x8>
    2f56:	ff 25 b4 10 21 00    	jmpq   *0x2110b4(%rip)        # 214010 <_GLOBAL_OFFSET_TABLE_+0x10>
    2f5c:	0f 1f 40 00          	nopl   0x0(%rax)

0000000000002f60 <_ZNSo3putEc@plt>:
    2f60:	ff 25 b2 10 21 00    	jmpq   *0x2110b2(%rip)        # 214018 <_GLOBAL_OFFSET_TABLE_+0x18>
    2f66:	68 00 00 00 00       	pushq  $0x0
    2f6b:	e9 e0 ff ff ff       	jmpq   2f50 <_init+0x28>

0000000000002f70 <_ZSt29_Rb_tree_insert_and_rebalancebPSt18_Rb_tree_node_baseS0_RS_@plt>:
    2f70:	ff 25 aa 10 21 00    	jmpq   *0x2110aa(%rip)        # 214020 <_GLOBAL_OFFSET_TABLE_+0x20>
    2f76:	68 01 00 00 00       	pushq  $0x1
    2f7b:	e9 d0 ff ff ff       	jmpq   2f50 <_init+0x28>

0000000000002f80 <_ZNSs6appendEPKcm@plt>:
    2f80:	ff 25 a2 10 21 00    	jmpq   *0x2110a2(%rip)        # 214028 <_GLOBAL_OFFSET_TABLE_+0x28>
    2f86:	68 02 00 00 00       	pushq  $0x2
    2f8b:	e9 c0 ff ff ff       	jmpq   2f50 <_init+0x28>

0000000000002f90 <_ZNSs12_M_leak_hardEv@plt>:
    2f90:	ff 25 9a 10 21 00    	jmpq   *0x21109a(%rip)        # 214030 <_GLOBAL_OFFSET_TABLE_+0x30>
    2f96:	68 03 00 00 00       	pushq  $0x3
    2f9b:	e9 b0 ff ff ff       	jmpq   2f50 <_init+0x28>

0000000000002fa0 <_ZNSt13basic_filebufIcSt11char_traitsIcEE5closeEv@plt>:
    2fa0:	ff 25 92 10 21 00    	jmpq   *0x211092(%rip)        # 214038 <_GLOBAL_OFFSET_TABLE_+0x38>
    2fa6:	68 04 00 00 00       	pushq  $0x4
    2fab:	e9 a0 ff ff ff       	jmpq   2f50 <_init+0x28>

0000000000002fb0 <_ZNSt14basic_ifstreamIcSt11char_traitsIcEED1Ev@plt>:
    2fb0:	ff 25 8a 10 21 00    	jmpq   *0x21108a(%rip)        # 214040 <_GLOBAL_OFFSET_TABLE_+0x40>
    2fb6:	68 05 00 00 00       	pushq  $0x5
    2fbb:	e9 90 ff ff ff       	jmpq   2f50 <_init+0x28>

0000000000002fc0 <_ZNSt8ios_baseC2Ev@plt>:
    2fc0:	ff 25 82 10 21 00    	jmpq   *0x211082(%rip)        # 214048 <_GLOBAL_OFFSET_TABLE_+0x48>
    2fc6:	68 06 00 00 00       	pushq  $0x6
    2fcb:	e9 80 ff ff ff       	jmpq   2f50 <_init+0x28>

0000000000002fd0 <_ZNSt8ios_baseD2Ev@plt>:
    2fd0:	ff 25 7a 10 21 00    	jmpq   *0x21107a(%rip)        # 214050 <_GLOBAL_OFFSET_TABLE_+0x50>
    2fd6:	68 07 00 00 00       	pushq  $0x7
    2fdb:	e9 70 ff ff ff       	jmpq   2f50 <_init+0x28>

0000000000002fe0 <__cxa_begin_catch@plt>:
    2fe0:	ff 25 72 10 21 00    	jmpq   *0x211072(%rip)        # 214058 <_GLOBAL_OFFSET_TABLE_+0x58>
    2fe6:	68 08 00 00 00       	pushq  $0x8
    2feb:	e9 60 ff ff ff       	jmpq   2f50 <_init+0x28>

0000000000002ff0 <__cxa_finalize@plt>:
    2ff0:	ff 25 6a 10 21 00    	jmpq   *0x21106a(%rip)        # 214060 <_GLOBAL_OFFSET_TABLE_+0x60>
    2ff6:	68 09 00 00 00       	pushq  $0x9
    2ffb:	e9 50 ff ff ff       	jmpq   2f50 <_init+0x28>

0000000000003000 <strlen@plt>:
    3000:	ff 25 62 10 21 00    	jmpq   *0x211062(%rip)        # 214068 <_GLOBAL_OFFSET_TABLE_+0x68>
    3006:	68 0a 00 00 00       	pushq  $0xa
    300b:	e9 40 ff ff ff       	jmpq   2f50 <_init+0x28>

0000000000003010 <memcmp@plt>:
    3010:	ff 25 5a 10 21 00    	jmpq   *0x21105a(%rip)        # 214070 <_GLOBAL_OFFSET_TABLE_+0x70>
    3016:	68 0b 00 00 00       	pushq  $0xb
    301b:	e9 30 ff ff ff       	jmpq   2f50 <_init+0x28>

0000000000003020 <_ZStrsIcSt11char_traitsIcESaIcEERSt13basic_istreamIT_T0_ES7_RSbIS4_S5_T1_E@plt>:
    3020:	ff 25 52 10 21 00    	jmpq   *0x211052(%rip)        # 214078 <_GLOBAL_OFFSET_TABLE_+0x78>
    3026:	68 0c 00 00 00       	pushq  $0xc
    302b:	e9 20 ff ff ff       	jmpq   2f50 <_init+0x28>

0000000000003030 <_ZSt4endlIcSt11char_traitsIcEERSt13basic_ostreamIT_T0_ES6_@plt>:
    3030:	ff 25 4a 10 21 00    	jmpq   *0x21104a(%rip)        # 214080 <_GLOBAL_OFFSET_TABLE_+0x80>
    3036:	68 0d 00 00 00       	pushq  $0xd
    303b:	e9 10 ff ff ff       	jmpq   2f50 <_init+0x28>

0000000000003040 <__cxa_allocate_exception@plt>:
    3040:	ff 25 42 10 21 00    	jmpq   *0x211042(%rip)        # 214088 <_GLOBAL_OFFSET_TABLE_+0x88>
    3046:	68 0e 00 00 00       	pushq  $0xe
    304b:	e9 00 ff ff ff       	jmpq   2f50 <_init+0x28>

0000000000003050 <_ZNSsC1ERKSs@plt>:
    3050:	ff 25 3a 10 21 00    	jmpq   *0x21103a(%rip)        # 214090 <_GLOBAL_OFFSET_TABLE_+0x90>
    3056:	68 0f 00 00 00       	pushq  $0xf
    305b:	e9 f0 fe ff ff       	jmpq   2f50 <_init+0x28>

0000000000003060 <_ZSt28_Rb_tree_rebalance_for_erasePSt18_Rb_tree_node_baseRS_@plt>:
    3060:	ff 25 32 10 21 00    	jmpq   *0x211032(%rip)        # 214098 <_GLOBAL_OFFSET_TABLE_+0x98>
    3066:	68 10 00 00 00       	pushq  $0x10
    306b:	e9 e0 fe ff ff       	jmpq   2f50 <_init+0x28>

0000000000003070 <_ZNSirsERi@plt>:
    3070:	ff 25 2a 10 21 00    	jmpq   *0x21102a(%rip)        # 2140a0 <_GLOBAL_OFFSET_TABLE_+0xa0>
    3076:	68 11 00 00 00       	pushq  $0x11
    307b:	e9 d0 fe ff ff       	jmpq   2f50 <_init+0x28>

0000000000003080 <_ZNSi10_M_extractIdEERSiRT_@plt>:
    3080:	ff 25 22 10 21 00    	jmpq   *0x211022(%rip)        # 2140a8 <_GLOBAL_OFFSET_TABLE_+0xa8>
    3086:	68 12 00 00 00       	pushq  $0x12
    308b:	e9 c0 fe ff ff       	jmpq   2f50 <_init+0x28>

0000000000003090 <_ZNSo5flushEv@plt>:
    3090:	ff 25 1a 10 21 00    	jmpq   *0x21101a(%rip)        # 2140b0 <_GLOBAL_OFFSET_TABLE_+0xb0>
    3096:	68 13 00 00 00       	pushq  $0x13
    309b:	e9 b0 fe ff ff       	jmpq   2f50 <_init+0x28>

00000000000030a0 <_ZSt18_Rb_tree_incrementPSt18_Rb_tree_node_base@plt>:
    30a0:	ff 25 12 10 21 00    	jmpq   *0x211012(%rip)        # 2140b8 <_GLOBAL_OFFSET_TABLE_+0xb8>
    30a6:	68 14 00 00 00       	pushq  $0x14
    30ab:	e9 a0 fe ff ff       	jmpq   2f50 <_init+0x28>

00000000000030b0 <__cxa_free_exception@plt>:
    30b0:	ff 25 0a 10 21 00    	jmpq   *0x21100a(%rip)        # 2140c0 <_GLOBAL_OFFSET_TABLE_+0xc0>
    30b6:	68 15 00 00 00       	pushq  $0x15
    30bb:	e9 90 fe ff ff       	jmpq   2f50 <_init+0x28>

00000000000030c0 <sqrt@plt>:
    30c0:	ff 25 02 10 21 00    	jmpq   *0x211002(%rip)        # 2140c8 <_GLOBAL_OFFSET_TABLE_+0xc8>
    30c6:	68 16 00 00 00       	pushq  $0x16
    30cb:	e9 80 fe ff ff       	jmpq   2f50 <_init+0x28>

00000000000030d0 <_ZNSs7reserveEm@plt>:
    30d0:	ff 25 fa 0f 21 00    	jmpq   *0x210ffa(%rip)        # 2140d0 <_GLOBAL_OFFSET_TABLE_+0xd0>
    30d6:	68 17 00 00 00       	pushq  $0x17
    30db:	e9 70 fe ff ff       	jmpq   2f50 <_init+0x28>

00000000000030e0 <_ZNSs4_Rep10_M_destroyERKSaIcE@plt>:
    30e0:	ff 25 f2 0f 21 00    	jmpq   *0x210ff2(%rip)        # 2140d8 <_GLOBAL_OFFSET_TABLE_+0xd8>
    30e6:	68 18 00 00 00       	pushq  $0x18
    30eb:	e9 60 fe ff ff       	jmpq   2f50 <_init+0x28>

00000000000030f0 <__vsnprintf_chk@plt>:
    30f0:	ff 25 ea 0f 21 00    	jmpq   *0x210fea(%rip)        # 2140e0 <_GLOBAL_OFFSET_TABLE_+0xe0>
    30f6:	68 19 00 00 00       	pushq  $0x19
    30fb:	e9 50 fe ff ff       	jmpq   2f50 <_init+0x28>

0000000000003100 <memcpy@plt>:
    3100:	ff 25 e2 0f 21 00    	jmpq   *0x210fe2(%rip)        # 2140e8 <_GLOBAL_OFFSET_TABLE_+0xe8>
    3106:	68 1a 00 00 00       	pushq  $0x1a
    310b:	e9 40 fe ff ff       	jmpq   2f50 <_init+0x28>

0000000000003110 <system@plt>:
    3110:	ff 25 da 0f 21 00    	jmpq   *0x210fda(%rip)        # 2140f0 <_GLOBAL_OFFSET_TABLE_+0xf0>
    3116:	68 1b 00 00 00       	pushq  $0x1b
    311b:	e9 30 fe ff ff       	jmpq   2f50 <_init+0x28>

0000000000003120 <__cxa_atexit@plt>:
    3120:	ff 25 d2 0f 21 00    	jmpq   *0x210fd2(%rip)        # 2140f8 <_GLOBAL_OFFSET_TABLE_+0xf8>
    3126:	68 1c 00 00 00       	pushq  $0x1c
    312b:	e9 20 fe ff ff       	jmpq   2f50 <_init+0x28>

0000000000003130 <_ZNSt13basic_filebufIcSt11char_traitsIcEE4openEPKcSt13_Ios_Openmode@plt>:
    3130:	ff 25 ca 0f 21 00    	jmpq   *0x210fca(%rip)        # 214100 <_GLOBAL_OFFSET_TABLE_+0x100>
    3136:	68 1d 00 00 00       	pushq  $0x1d
    313b:	e9 10 fe ff ff       	jmpq   2f50 <_init+0x28>

0000000000003140 <_ZdlPv@plt>:
    3140:	ff 25 c2 0f 21 00    	jmpq   *0x210fc2(%rip)        # 214108 <_GLOBAL_OFFSET_TABLE_+0x108>
    3146:	68 1e 00 00 00       	pushq  $0x1e
    314b:	e9 00 fe ff ff       	jmpq   2f50 <_init+0x28>

0000000000003150 <_ZNSo9_M_insertIlEERSoT_@plt>:
    3150:	ff 25 ba 0f 21 00    	jmpq   *0x210fba(%rip)        # 214110 <_GLOBAL_OFFSET_TABLE_+0x110>
    3156:	68 1f 00 00 00       	pushq  $0x1f
    315b:	e9 f0 fd ff ff       	jmpq   2f50 <_init+0x28>

0000000000003160 <_ZStlsISt11char_traitsIcEERSt13basic_ostreamIcT_ES5_PKc@plt>:
    3160:	ff 25 b2 0f 21 00    	jmpq   *0x210fb2(%rip)        # 214118 <_GLOBAL_OFFSET_TABLE_+0x118>
    3166:	68 20 00 00 00       	pushq  $0x20
    316b:	e9 e0 fd ff ff       	jmpq   2f50 <_init+0x28>

0000000000003170 <_Znwm@plt>:
    3170:	ff 25 aa 0f 21 00    	jmpq   *0x210faa(%rip)        # 214120 <_GLOBAL_OFFSET_TABLE_+0x120>
    3176:	68 21 00 00 00       	pushq  $0x21
    317b:	e9 d0 fd ff ff       	jmpq   2f50 <_init+0x28>

0000000000003180 <__xstat@plt>:
    3180:	ff 25 a2 0f 21 00    	jmpq   *0x210fa2(%rip)        # 214128 <_GLOBAL_OFFSET_TABLE_+0x128>
    3186:	68 22 00 00 00       	pushq  $0x22
    318b:	e9 c0 fd ff ff       	jmpq   2f50 <_init+0x28>

0000000000003190 <_ZNSt13basic_filebufIcSt11char_traitsIcEEC1Ev@plt>:
    3190:	ff 25 9a 0f 21 00    	jmpq   *0x210f9a(%rip)        # 214130 <_GLOBAL_OFFSET_TABLE_+0x130>
    3196:	68 23 00 00 00       	pushq  $0x23
    319b:	e9 b0 fd ff ff       	jmpq   2f50 <_init+0x28>

00000000000031a0 <_ZSt18_Rb_tree_decrementPSt18_Rb_tree_node_base@plt>:
    31a0:	ff 25 92 0f 21 00    	jmpq   *0x210f92(%rip)        # 214138 <_GLOBAL_OFFSET_TABLE_+0x138>
    31a6:	68 24 00 00 00       	pushq  $0x24
    31ab:	e9 a0 fd ff ff       	jmpq   2f50 <_init+0x28>

00000000000031b0 <_ZNSs6appendERKSs@plt>:
    31b0:	ff 25 8a 0f 21 00    	jmpq   *0x210f8a(%rip)        # 214140 <_GLOBAL_OFFSET_TABLE_+0x140>
    31b6:	68 25 00 00 00       	pushq  $0x25
    31bb:	e9 90 fd ff ff       	jmpq   2f50 <_init+0x28>

00000000000031c0 <__stack_chk_fail@plt>:
    31c0:	ff 25 82 0f 21 00    	jmpq   *0x210f82(%rip)        # 214148 <_GLOBAL_OFFSET_TABLE_+0x148>
    31c6:	68 26 00 00 00       	pushq  $0x26
    31cb:	e9 80 fd ff ff       	jmpq   2f50 <_init+0x28>

00000000000031d0 <omp_set_num_threads@plt>:
    31d0:	ff 25 7a 0f 21 00    	jmpq   *0x210f7a(%rip)        # 214150 <_GLOBAL_OFFSET_TABLE_+0x150>
    31d6:	68 27 00 00 00       	pushq  $0x27
    31db:	e9 70 fd ff ff       	jmpq   2f50 <_init+0x28>

00000000000031e0 <_ZNSsC1EPKcRKSaIcE@plt>:
    31e0:	ff 25 72 0f 21 00    	jmpq   *0x210f72(%rip)        # 214158 <_GLOBAL_OFFSET_TABLE_+0x158>
    31e6:	68 28 00 00 00       	pushq  $0x28
    31eb:	e9 60 fd ff ff       	jmpq   2f50 <_init+0x28>

00000000000031f0 <_ZSt16__ostream_insertIcSt11char_traitsIcEERSt13basic_ostreamIT_T0_ES6_PKS3_l@plt>:
    31f0:	ff 25 6a 0f 21 00    	jmpq   *0x210f6a(%rip)        # 214160 <_GLOBAL_OFFSET_TABLE_+0x160>
    31f6:	68 29 00 00 00       	pushq  $0x29
    31fb:	e9 50 fd ff ff       	jmpq   2f50 <_init+0x28>

0000000000003200 <_ZNKSt5ctypeIcE13_M_widen_initEv@plt>:
    3200:	ff 25 62 0f 21 00    	jmpq   *0x210f62(%rip)        # 214168 <_GLOBAL_OFFSET_TABLE_+0x168>
    3206:	68 2a 00 00 00       	pushq  $0x2a
    320b:	e9 40 fd ff ff       	jmpq   2f50 <_init+0x28>

0000000000003210 <_ZSt18_Rb_tree_incrementPKSt18_Rb_tree_node_base@plt>:
    3210:	ff 25 5a 0f 21 00    	jmpq   *0x210f5a(%rip)        # 214170 <_GLOBAL_OFFSET_TABLE_+0x170>
    3216:	68 2b 00 00 00       	pushq  $0x2b
    321b:	e9 30 fd ff ff       	jmpq   2f50 <_init+0x28>

0000000000003220 <_ZNSt14basic_ofstreamIcSt11char_traitsIcEE4openERKSsSt13_Ios_Openmode@plt>:
    3220:	ff 25 52 0f 21 00    	jmpq   *0x210f52(%rip)        # 214178 <_GLOBAL_OFFSET_TABLE_+0x178>
    3226:	68 2c 00 00 00       	pushq  $0x2c
    322b:	e9 20 fd ff ff       	jmpq   2f50 <_init+0x28>

0000000000003230 <_ZSt16__throw_bad_castv@plt>:
    3230:	ff 25 4a 0f 21 00    	jmpq   *0x210f4a(%rip)        # 214180 <_GLOBAL_OFFSET_TABLE_+0x180>
    3236:	68 2d 00 00 00       	pushq  $0x2d
    323b:	e9 10 fd ff ff       	jmpq   2f50 <_init+0x28>

0000000000003240 <__cxa_call_unexpected@plt>:
    3240:	ff 25 42 0f 21 00    	jmpq   *0x210f42(%rip)        # 214188 <_GLOBAL_OFFSET_TABLE_+0x188>
    3246:	68 2e 00 00 00       	pushq  $0x2e
    324b:	e9 00 fd ff ff       	jmpq   2f50 <_init+0x28>

0000000000003250 <_ZdaPv@plt>:
    3250:	ff 25 3a 0f 21 00    	jmpq   *0x210f3a(%rip)        # 214190 <_GLOBAL_OFFSET_TABLE_+0x190>
    3256:	68 2f 00 00 00       	pushq  $0x2f
    325b:	e9 f0 fc ff ff       	jmpq   2f50 <_init+0x28>

0000000000003260 <_ZNSs6assignERKSs@plt>:
    3260:	ff 25 32 0f 21 00    	jmpq   *0x210f32(%rip)        # 214198 <_GLOBAL_OFFSET_TABLE_+0x198>
    3266:	68 30 00 00 00       	pushq  $0x30
    326b:	e9 e0 fc ff ff       	jmpq   2f50 <_init+0x28>

0000000000003270 <_ZNSt9basic_iosIcSt11char_traitsIcEE4initEPSt15basic_streambufIcS1_E@plt>:
    3270:	ff 25 2a 0f 21 00    	jmpq   *0x210f2a(%rip)        # 2141a0 <_GLOBAL_OFFSET_TABLE_+0x1a0>
    3276:	68 31 00 00 00       	pushq  $0x31
    327b:	e9 d0 fc ff ff       	jmpq   2f50 <_init+0x28>

0000000000003280 <_ZNSt6localeD1Ev@plt>:
    3280:	ff 25 22 0f 21 00    	jmpq   *0x210f22(%rip)        # 2141a8 <_GLOBAL_OFFSET_TABLE_+0x1a8>
    3286:	68 32 00 00 00       	pushq  $0x32
    328b:	e9 c0 fc ff ff       	jmpq   2f50 <_init+0x28>

0000000000003290 <_ZNSt14basic_ofstreamIcSt11char_traitsIcEE5closeEv@plt>:
    3290:	ff 25 1a 0f 21 00    	jmpq   *0x210f1a(%rip)        # 2141b0 <_GLOBAL_OFFSET_TABLE_+0x1b0>
    3296:	68 33 00 00 00       	pushq  $0x33
    329b:	e9 b0 fc ff ff       	jmpq   2f50 <_init+0x28>

00000000000032a0 <_ZNSt11logic_errorC1EPKc@plt>:
    32a0:	ff 25 12 0f 21 00    	jmpq   *0x210f12(%rip)        # 2141b8 <_GLOBAL_OFFSET_TABLE_+0x1b8>
    32a6:	68 34 00 00 00       	pushq  $0x34
    32ab:	e9 a0 fc ff ff       	jmpq   2f50 <_init+0x28>

00000000000032b0 <__cxa_rethrow@plt>:
    32b0:	ff 25 0a 0f 21 00    	jmpq   *0x210f0a(%rip)        # 2141c0 <_GLOBAL_OFFSET_TABLE_+0x1c0>
    32b6:	68 35 00 00 00       	pushq  $0x35
    32bb:	e9 90 fc ff ff       	jmpq   2f50 <_init+0x28>

00000000000032c0 <_ZNSt14basic_ofstreamIcSt11char_traitsIcEED1Ev@plt>:
    32c0:	ff 25 02 0f 21 00    	jmpq   *0x210f02(%rip)        # 2141c8 <_GLOBAL_OFFSET_TABLE_+0x1c8>
    32c6:	68 36 00 00 00       	pushq  $0x36
    32cb:	e9 80 fc ff ff       	jmpq   2f50 <_init+0x28>

00000000000032d0 <GOMP_parallel@plt>:
    32d0:	ff 25 fa 0e 21 00    	jmpq   *0x210efa(%rip)        # 2141d0 <_GLOBAL_OFFSET_TABLE_+0x1d0>
    32d6:	68 37 00 00 00       	pushq  $0x37
    32db:	e9 70 fc ff ff       	jmpq   2f50 <_init+0x28>

00000000000032e0 <_ZSt24__throw_out_of_range_fmtPKcz@plt>:
    32e0:	ff 25 f2 0e 21 00    	jmpq   *0x210ef2(%rip)        # 2141d8 <_GLOBAL_OFFSET_TABLE_+0x1d8>
    32e6:	68 38 00 00 00       	pushq  $0x38
    32eb:	e9 60 fc ff ff       	jmpq   2f50 <_init+0x28>

00000000000032f0 <_ZNSt18basic_stringstreamIcSt11char_traitsIcESaIcEED1Ev@plt>:
    32f0:	ff 25 ea 0e 21 00    	jmpq   *0x210eea(%rip)        # 2141e0 <_GLOBAL_OFFSET_TABLE_+0x1e0>
    32f6:	68 39 00 00 00       	pushq  $0x39
    32fb:	e9 50 fc ff ff       	jmpq   2f50 <_init+0x28>

0000000000003300 <_ZNSt8ios_base4InitC1Ev@plt>:
    3300:	ff 25 e2 0e 21 00    	jmpq   *0x210ee2(%rip)        # 2141e8 <_GLOBAL_OFFSET_TABLE_+0x1e8>
    3306:	68 3a 00 00 00       	pushq  $0x3a
    330b:	e9 40 fc ff ff       	jmpq   2f50 <_init+0x28>

0000000000003310 <_ZNSsC1ERKSsmm@plt>:
    3310:	ff 25 da 0e 21 00    	jmpq   *0x210eda(%rip)        # 2141f0 <_GLOBAL_OFFSET_TABLE_+0x1f0>
    3316:	68 3b 00 00 00       	pushq  $0x3b
    331b:	e9 30 fc ff ff       	jmpq   2f50 <_init+0x28>

0000000000003320 <_ZNSt13basic_filebufIcSt11char_traitsIcEED1Ev@plt>:
    3320:	ff 25 d2 0e 21 00    	jmpq   *0x210ed2(%rip)        # 2141f8 <_GLOBAL_OFFSET_TABLE_+0x1f8>
    3326:	68 3c 00 00 00       	pushq  $0x3c
    332b:	e9 20 fc ff ff       	jmpq   2f50 <_init+0x28>

0000000000003330 <omp_get_thread_num@plt>:
    3330:	ff 25 ca 0e 21 00    	jmpq   *0x210eca(%rip)        # 214200 <_GLOBAL_OFFSET_TABLE_+0x200>
    3336:	68 3d 00 00 00       	pushq  $0x3d
    333b:	e9 10 fc ff ff       	jmpq   2f50 <_init+0x28>

0000000000003340 <__cxa_end_catch@plt>:
    3340:	ff 25 c2 0e 21 00    	jmpq   *0x210ec2(%rip)        # 214208 <_GLOBAL_OFFSET_TABLE_+0x208>
    3346:	68 3e 00 00 00       	pushq  $0x3e
    334b:	e9 00 fc ff ff       	jmpq   2f50 <_init+0x28>

0000000000003350 <__gxx_personality_v0@plt>:
    3350:	ff 25 ba 0e 21 00    	jmpq   *0x210eba(%rip)        # 214210 <_GLOBAL_OFFSET_TABLE_+0x210>
    3356:	68 3f 00 00 00       	pushq  $0x3f
    335b:	e9 f0 fb ff ff       	jmpq   2f50 <_init+0x28>

0000000000003360 <omp_get_max_threads@plt>:
    3360:	ff 25 b2 0e 21 00    	jmpq   *0x210eb2(%rip)        # 214218 <_GLOBAL_OFFSET_TABLE_+0x218>
    3366:	68 40 00 00 00       	pushq  $0x40
    336b:	e9 e0 fb ff ff       	jmpq   2f50 <_init+0x28>

0000000000003370 <_ZNSt9basic_iosIcSt11char_traitsIcEE5clearESt12_Ios_Iostate@plt>:
    3370:	ff 25 aa 0e 21 00    	jmpq   *0x210eaa(%rip)        # 214220 <_GLOBAL_OFFSET_TABLE_+0x220>
    3376:	68 41 00 00 00       	pushq  $0x41
    337b:	e9 d0 fb ff ff       	jmpq   2f50 <_init+0x28>

0000000000003380 <_ZNSt14basic_ofstreamIcSt11char_traitsIcEEC1Ev@plt>:
    3380:	ff 25 a2 0e 21 00    	jmpq   *0x210ea2(%rip)        # 214228 <_GLOBAL_OFFSET_TABLE_+0x228>
    3386:	68 42 00 00 00       	pushq  $0x42
    338b:	e9 c0 fb ff ff       	jmpq   2f50 <_init+0x28>

0000000000003390 <__cxa_throw@plt>:
    3390:	ff 25 9a 0e 21 00    	jmpq   *0x210e9a(%rip)        # 214230 <_GLOBAL_OFFSET_TABLE_+0x230>
    3396:	68 43 00 00 00       	pushq  $0x43
    339b:	e9 b0 fb ff ff       	jmpq   2f50 <_init+0x28>

00000000000033a0 <_ZNSolsEi@plt>:
    33a0:	ff 25 92 0e 21 00    	jmpq   *0x210e92(%rip)        # 214238 <_GLOBAL_OFFSET_TABLE_+0x238>
    33a6:	68 44 00 00 00       	pushq  $0x44
    33ab:	e9 a0 fb ff ff       	jmpq   2f50 <_init+0x28>

00000000000033b0 <_Unwind_Resume@plt>:
    33b0:	ff 25 8a 0e 21 00    	jmpq   *0x210e8a(%rip)        # 214240 <_GLOBAL_OFFSET_TABLE_+0x240>
    33b6:	68 45 00 00 00       	pushq  $0x45
    33bb:	e9 90 fb ff ff       	jmpq   2f50 <_init+0x28>

00000000000033c0 <_ZNSt9exceptionD2Ev@plt>:
    33c0:	ff 25 82 0e 21 00    	jmpq   *0x210e82(%rip)        # 214248 <_GLOBAL_OFFSET_TABLE_+0x248>
    33c6:	68 46 00 00 00       	pushq  $0x46
    33cb:	e9 80 fb ff ff       	jmpq   2f50 <_init+0x28>

00000000000033d0 <_ZNSt12__basic_fileIcED1Ev@plt>:
    33d0:	ff 25 7a 0e 21 00    	jmpq   *0x210e7a(%rip)        # 214250 <_GLOBAL_OFFSET_TABLE_+0x250>
    33d6:	68 47 00 00 00       	pushq  $0x47
    33db:	e9 70 fb ff ff       	jmpq   2f50 <_init+0x28>

00000000000033e0 <__libc_start_main@plt>:
    33e0:	ff 25 72 0e 21 00    	jmpq   *0x210e72(%rip)        # 214258 <_GLOBAL_OFFSET_TABLE_+0x258>
    33e6:	68 48 00 00 00       	pushq  $0x48
    33eb:	e9 60 fb ff ff       	jmpq   2f50 <_init+0x28>

00000000000033f0 <omp_get_num_threads@plt>:
    33f0:	ff 25 6a 0e 21 00    	jmpq   *0x210e6a(%rip)        # 214260 <_GLOBAL_OFFSET_TABLE_+0x260>
    33f6:	68 49 00 00 00       	pushq  $0x49
    33fb:	e9 50 fb ff ff       	jmpq   2f50 <_init+0x28>

0000000000003400 <__gmon_start__@plt>:
    3400:	ff 25 62 0e 21 00    	jmpq   *0x210e62(%rip)        # 214268 <_GLOBAL_OFFSET_TABLE_+0x268>
    3406:	68 4a 00 00 00       	pushq  $0x4a
    340b:	e9 40 fb ff ff       	jmpq   2f50 <_init+0x28>

0000000000003410 <__cxa_pure_virtual@plt>:
    3410:	ff 25 5a 0e 21 00    	jmpq   *0x210e5a(%rip)        # 214270 <_GLOBAL_OFFSET_TABLE_+0x270>
    3416:	68 4b 00 00 00       	pushq  $0x4b
    341b:	e9 30 fb ff ff       	jmpq   2f50 <_init+0x28>

0000000000003420 <_ZNSs4_Rep9_S_createEmmRKSaIcE@plt>:
    3420:	ff 25 52 0e 21 00    	jmpq   *0x210e52(%rip)        # 214278 <_GLOBAL_OFFSET_TABLE_+0x278>
    3426:	68 4c 00 00 00       	pushq  $0x4c
    342b:	e9 20 fb ff ff       	jmpq   2f50 <_init+0x28>

0000000000003430 <_ZNKSt9exception4whatEv@plt>:
    3430:	ff 25 4a 0e 21 00    	jmpq   *0x210e4a(%rip)        # 214280 <_GLOBAL_OFFSET_TABLE_+0x280>
    3436:	68 4d 00 00 00       	pushq  $0x4d
    343b:	e9 10 fb ff ff       	jmpq   2f50 <_init+0x28>

0000000000003440 <_ZNSi10_M_extractIfEERSiRT_@plt>:
    3440:	ff 25 42 0e 21 00    	jmpq   *0x210e42(%rip)        # 214288 <_GLOBAL_OFFSET_TABLE_+0x288>
    3446:	68 4e 00 00 00       	pushq  $0x4e
    344b:	e9 00 fb ff ff       	jmpq   2f50 <_init+0x28>

0000000000003450 <_ZNSt6localeC1Ev@plt>:
    3450:	ff 25 3a 0e 21 00    	jmpq   *0x210e3a(%rip)        # 214290 <_GLOBAL_OFFSET_TABLE_+0x290>
    3456:	68 4f 00 00 00       	pushq  $0x4f
    345b:	e9 f0 fa ff ff       	jmpq   2f50 <_init+0x28>

Disassembly of section .text:

0000000000003460 <_ZNSs4_Rep10_M_disposeERKSaIcE.part.2>:
    3460:	48 83 3d 70 0b 21 00 	cmpq   $0x0,0x210b70(%rip)        # 213fd8 <_DYNAMIC+0x240>
    3467:	00 
    3468:	55                   	push   %rbp
    3469:	48 89 e5             	mov    %rsp,%rbp
    346c:	74 0a                	je     3478 <_ZNSs4_Rep10_M_disposeERKSaIcE.part.2+0x18>
    346e:	83 c8 ff             	or     $0xffffffff,%eax
    3471:	f0 0f c1 47 10       	lock xadd %eax,0x10(%rdi)
    3476:	eb 09                	jmp    3481 <_ZNSs4_Rep10_M_disposeERKSaIcE.part.2+0x21>
    3478:	8b 47 10             	mov    0x10(%rdi),%eax
    347b:	8d 50 ff             	lea    -0x1(%rax),%edx
    347e:	89 57 10             	mov    %edx,0x10(%rdi)
    3481:	85 c0                	test   %eax,%eax
    3483:	7f 06                	jg     348b <_ZNSs4_Rep10_M_disposeERKSaIcE.part.2+0x2b>
    3485:	5d                   	pop    %rbp
    3486:	e9 55 fc ff ff       	jmpq   30e0 <_ZNSs4_Rep10_M_destroyERKSaIcE@plt>
    348b:	5d                   	pop    %rbp
    348c:	c3                   	retq   
    348d:	90                   	nop
    348e:	66 90                	xchg   %ax,%ax

0000000000003490 <main>:
    3490:	55                   	push   %rbp
    3491:	48 89 e5             	mov    %rsp,%rbp
    3494:	41 57                	push   %r15
    3496:	41 56                	push   %r14
    3498:	41 55                	push   %r13
    349a:	41 54                	push   %r12
    349c:	53                   	push   %rbx
    349d:	48 81 ec 78 15 00 00 	sub    $0x1578,%rsp
    34a4:	48 83 0c 24 00       	orq    $0x0,(%rsp)
    34a9:	48 81 c4 20 10 00 00 	add    $0x1020,%rsp
    34b0:	64 48 8b 04 25 28 00 	mov    %fs:0x28,%rax
    34b7:	00 00 
    34b9:	48 89 45 c8          	mov    %rax,-0x38(%rbp)
    34bd:	31 c0                	xor    %eax,%eax
    34bf:	48 8d 85 a0 fc ff ff 	lea    -0x360(%rbp),%rax
    34c6:	48 89 f2             	mov    %rsi,%rdx
    34c9:	49 89 f4             	mov    %rsi,%r12
    34cc:	89 fe                	mov    %edi,%esi
    34ce:	48 8d 9d c0 fa ff ff 	lea    -0x540(%rbp),%rbx
    34d5:	48 89 c7             	mov    %rax,%rdi
    34d8:	49 89 c6             	mov    %rax,%r14
    34db:	48 89 85 98 fa ff ff 	mov    %rax,-0x568(%rbp)
    34e2:	e8 d9 d9 00 00       	callq  10ec0 <_ZN6GetOpt9GetOpt_ppC1EiPKPKc>
    34e7:	48 8d 85 40 fc ff ff 	lea    -0x3c0(%rbp),%rax
    34ee:	48 8d 35 b2 dc 00 00 	lea    0xdcb2(%rip),%rsi        # 111a7 <_fini+0x53>
    34f5:	48 89 df             	mov    %rbx,%rdi
    34f8:	c7 85 00 fd ff ff 06 	movl   $0x6,-0x300(%rbp)
    34ff:	00 00 00 
    3502:	48 89 c2             	mov    %rax,%rdx
    3505:	48 89 85 b0 fa ff ff 	mov    %rax,-0x550(%rbp)
    350c:	e8 cf fc ff ff       	callq  31e0 <_ZNSsC1EPKcRKSaIcE@plt>
    3511:	4c 8d ad 10 fc ff ff 	lea    -0x3f0(%rbp),%r13
    3518:	48 8d 05 a9 06 21 00 	lea    0x2106a9(%rip),%rax        # 213bc8 <_ZTVN6GetOpt12_OptionTBaseIiEE+0x10>
    351f:	48 89 de             	mov    %rbx,%rsi
    3522:	c6 85 18 fc ff ff 73 	movb   $0x73,-0x3e8(%rbp)
    3529:	49 8d 7d 10          	lea    0x10(%r13),%rdi
    352d:	48 89 85 10 fc ff ff 	mov    %rax,-0x3f0(%rbp)
    3534:	e8 17 fb ff ff       	callq  3050 <_ZNSsC1ERKSs@plt>
    3539:	48 8d 05 14 13 21 00 	lea    0x211314(%rip),%rax        # 214854 <steps>
    3540:	4c 89 ee             	mov    %r13,%rsi
    3543:	4c 89 f7             	mov    %r14,%rdi
    3546:	c7 85 30 fc ff ff 64 	movl   $0x64,-0x3d0(%rbp)
    354d:	00 00 00 
    3550:	48 89 85 28 fc ff ff 	mov    %rax,-0x3d8(%rbp)
    3557:	48 8d 05 02 05 21 00 	lea    0x210502(%rip),%rax        # 213a60 <_ZTVN6GetOpt13_DefValOptionIiNS_8_OptionTIiEEEE+0x10>
    355e:	48 89 85 10 fc ff ff 	mov    %rax,-0x3f0(%rbp)
    3565:	e8 06 a2 00 00       	callq  d770 <_ZN6GetOpt9GetOpt_pprsERKNS_7_OptionE>
    356a:	48 8d 05 57 06 21 00 	lea    0x210657(%rip),%rax        # 213bc8 <_ZTVN6GetOpt12_OptionTBaseIiEE+0x10>
    3571:	48 89 85 10 fc ff ff 	mov    %rax,-0x3f0(%rbp)
    3578:	48 8b 85 20 fc ff ff 	mov    -0x3e0(%rbp),%rax
    357f:	48 8d 78 e8          	lea    -0x18(%rax),%rdi
    3583:	48 8d 05 56 0d 21 00 	lea    0x210d56(%rip),%rax        # 2142e0 <_ZNSs4_Rep20_S_empty_rep_storageE@@GLIBCXX_3.4>
    358a:	48 39 c7             	cmp    %rax,%rdi
    358d:	48 89 85 b8 fa ff ff 	mov    %rax,-0x548(%rbp)
    3594:	0f 85 17 17 00 00    	jne    4cb1 <main+0x1821>
    359a:	48 8b 85 c0 fa ff ff 	mov    -0x540(%rbp),%rax
    35a1:	48 8d 78 e8          	lea    -0x18(%rax),%rdi
    35a5:	48 3b bd b8 fa ff ff 	cmp    -0x548(%rbp),%rdi
    35ac:	0f 85 dd 16 00 00    	jne    4c8f <main+0x17ff>
    35b2:	48 8d 9d d0 fa ff ff 	lea    -0x530(%rbp),%rbx
    35b9:	48 8d 35 ed db 00 00 	lea    0xdbed(%rip),%rsi        # 111ad <_fini+0x59>
    35c0:	4c 89 ea             	mov    %r13,%rdx
    35c3:	48 89 df             	mov    %rbx,%rdi
    35c6:	e8 15 fc ff ff       	callq  31e0 <_ZNSsC1EPKcRKSaIcE@plt>
    35cb:	4c 8b b5 b0 fa ff ff 	mov    -0x550(%rbp),%r14
    35d2:	48 8d 05 ef 05 21 00 	lea    0x2105ef(%rip),%rax        # 213bc8 <_ZTVN6GetOpt12_OptionTBaseIiEE+0x10>
    35d9:	48 89 de             	mov    %rbx,%rsi
    35dc:	c6 85 48 fc ff ff 72 	movb   $0x72,-0x3b8(%rbp)
    35e3:	48 89 85 40 fc ff ff 	mov    %rax,-0x3c0(%rbp)
    35ea:	49 8d 7e 10          	lea    0x10(%r14),%rdi
    35ee:	e8 5d fa ff ff       	callq  3050 <_ZNSsC1ERKSs@plt>
    35f3:	48 8d 05 56 12 21 00 	lea    0x211256(%rip),%rax        # 214850 <radius>
    35fa:	48 8b bd 98 fa ff ff 	mov    -0x568(%rbp),%rdi
    3601:	4c 89 f6             	mov    %r14,%rsi
    3604:	c7 85 60 fc ff ff 03 	movl   $0x3,-0x3a0(%rbp)
    360b:	00 00 00 
    360e:	48 89 85 58 fc ff ff 	mov    %rax,-0x3a8(%rbp)
    3615:	48 8d 05 44 04 21 00 	lea    0x210444(%rip),%rax        # 213a60 <_ZTVN6GetOpt13_DefValOptionIiNS_8_OptionTIiEEEE+0x10>
    361c:	48 89 85 40 fc ff ff 	mov    %rax,-0x3c0(%rbp)
    3623:	e8 48 a1 00 00       	callq  d770 <_ZN6GetOpt9GetOpt_pprsERKNS_7_OptionE>
    3628:	48 8d 05 99 05 21 00 	lea    0x210599(%rip),%rax        # 213bc8 <_ZTVN6GetOpt12_OptionTBaseIiEE+0x10>
    362f:	48 89 85 40 fc ff ff 	mov    %rax,-0x3c0(%rbp)
    3636:	48 8b 85 50 fc ff ff 	mov    -0x3b0(%rbp),%rax
    363d:	48 8d 78 e8          	lea    -0x18(%rax),%rdi
    3641:	48 3b bd b8 fa ff ff 	cmp    -0x548(%rbp),%rdi
    3648:	0f 85 85 16 00 00    	jne    4cd3 <main+0x1843>
    364e:	48 8b 85 d0 fa ff ff 	mov    -0x530(%rbp),%rax
    3655:	48 8d 78 e8          	lea    -0x18(%rax),%rdi
    3659:	48 3b bd b8 fa ff ff 	cmp    -0x548(%rbp),%rdi
    3660:	0f 85 7e 16 00 00    	jne    4ce4 <main+0x1854>
    3666:	48 8d 9d e0 fa ff ff 	lea    -0x520(%rbp),%rbx
    366d:	48 8d 35 40 db 00 00 	lea    0xdb40(%rip),%rsi        # 111b4 <_fini+0x60>
    3674:	4c 89 ea             	mov    %r13,%rdx
    3677:	48 89 df             	mov    %rbx,%rdi
    367a:	e8 61 fb ff ff       	callq  31e0 <_ZNSsC1EPKcRKSaIcE@plt>
    367f:	48 8d 05 72 05 21 00 	lea    0x210572(%rip),%rax        # 213bf8 <_ZTVN6GetOpt12_OptionTBaseIdEE+0x10>
    3686:	48 89 de             	mov    %rbx,%rsi
    3689:	c6 85 78 fc ff ff 68 	movb   $0x68,-0x388(%rbp)
    3690:	48 89 85 70 fc ff ff 	mov    %rax,-0x390(%rbp)
    3697:	48 8d 85 70 fc ff ff 	lea    -0x390(%rbp),%rax
    369e:	48 8d 78 10          	lea    0x10(%rax),%rdi
    36a2:	49 89 c6             	mov    %rax,%r14
    36a5:	48 89 85 a0 fa ff ff 	mov    %rax,-0x560(%rbp)
    36ac:	e8 9f f9 ff ff       	callq  3050 <_ZNSsC1ERKSs@plt>
    36b1:	48 8d 05 90 11 21 00 	lea    0x211190(%rip),%rax        # 214848 <heat>
    36b8:	48 8b bd 98 fa ff ff 	mov    -0x568(%rbp),%rdi
    36bf:	4c 89 f6             	mov    %r14,%rsi
    36c2:	f2 0f 10 05 46 df 00 	movsd  0xdf46(%rip),%xmm0        # 11610 <_ZTSN6GetOpt13_DefValOptionIdNS_8_OptionTIdEEEE+0x70>
    36c9:	00 
    36ca:	48 89 85 88 fc ff ff 	mov    %rax,-0x378(%rbp)
    36d1:	48 8d 05 b8 03 21 00 	lea    0x2103b8(%rip),%rax        # 213a90 <_ZTVN6GetOpt13_DefValOptionIdNS_8_OptionTIdEEEE+0x10>
    36d8:	f2 0f 11 85 90 fc ff 	movsd  %xmm0,-0x370(%rbp)
    36df:	ff 
    36e0:	48 89 85 70 fc ff ff 	mov    %rax,-0x390(%rbp)
    36e7:	e8 84 a0 00 00       	callq  d770 <_ZN6GetOpt9GetOpt_pprsERKNS_7_OptionE>
    36ec:	48 8d 05 05 05 21 00 	lea    0x210505(%rip),%rax        # 213bf8 <_ZTVN6GetOpt12_OptionTBaseIdEE+0x10>
    36f3:	48 89 85 70 fc ff ff 	mov    %rax,-0x390(%rbp)
    36fa:	48 8b 85 80 fc ff ff 	mov    -0x380(%rbp),%rax
    3701:	48 8d 78 e8          	lea    -0x18(%rax),%rdi
    3705:	48 3b bd b8 fa ff ff 	cmp    -0x548(%rbp),%rdi
    370c:	0f 85 e3 15 00 00    	jne    4cf5 <main+0x1865>
    3712:	48 8b 85 e0 fa ff ff 	mov    -0x520(%rbp),%rax
    3719:	48 8d 78 e8          	lea    -0x18(%rax),%rdi
    371d:	48 3b bd b8 fa ff ff 	cmp    -0x548(%rbp),%rdi
    3724:	0f 85 76 15 00 00    	jne    4ca0 <main+0x1810>
    372a:	48 8d 85 f0 fa ff ff 	lea    -0x510(%rbp),%rax
    3731:	48 8b 95 a0 fa ff ff 	mov    -0x560(%rbp),%rdx
    3738:	48 8d 35 7a da 00 00 	lea    0xda7a(%rip),%rsi        # 111b9 <_fini+0x65>
    373f:	48 89 c7             	mov    %rax,%rdi
    3742:	49 89 c6             	mov    %rax,%r14
    3745:	48 89 85 90 fa ff ff 	mov    %rax,-0x570(%rbp)
    374c:	e8 8f fa ff ff       	callq  31e0 <_ZNSsC1EPKcRKSaIcE@plt>
    3751:	4c 8d bd c0 fd ff ff 	lea    -0x240(%rbp),%r15
    3758:	48 8b b5 f0 fa ff ff 	mov    -0x510(%rbp),%rsi
    375f:	bf 01 00 00 00       	mov    $0x1,%edi
    3764:	4c 89 fa             	mov    %r15,%rdx
    3767:	e8 14 fa ff ff       	callq  3180 <__xstat@plt>
    376c:	85 c0                	test   %eax,%eax
    376e:	74 6f                	je     37df <main+0x34f>
    3770:	48 8d 05 81 0b 21 00 	lea    0x210b81(%rip),%rax        # 2142f8 <_ZNSs4_Rep20_S_empty_rep_storageE@@GLIBCXX_3.4+0x18>
    3777:	48 8d 9d 00 fb ff ff 	lea    -0x500(%rbp),%rbx
    377e:	48 89 85 00 fb ff ff 	mov    %rax,-0x500(%rbp)
    3785:	48 8b 85 f0 fa ff ff 	mov    -0x510(%rbp),%rax
    378c:	48 89 df             	mov    %rbx,%rdi
    378f:	48 8b 70 e8          	mov    -0x18(%rax),%rsi
    3793:	48 83 c6 06          	add    $0x6,%rsi
    3797:	e8 34 f9 ff ff       	callq  30d0 <_ZNSs7reserveEm@plt>
    379c:	48 8d 35 26 da 00 00 	lea    0xda26(%rip),%rsi        # 111c9 <_fini+0x75>
    37a3:	ba 06 00 00 00       	mov    $0x6,%edx
    37a8:	48 89 df             	mov    %rbx,%rdi
    37ab:	e8 d0 f7 ff ff       	callq  2f80 <_ZNSs6appendEPKcm@plt>
    37b0:	4c 89 f6             	mov    %r14,%rsi
    37b3:	48 89 df             	mov    %rbx,%rdi
    37b6:	e8 f5 f9 ff ff       	callq  31b0 <_ZNSs6appendERKSs@plt>
    37bb:	48 8b bd 00 fb ff ff 	mov    -0x500(%rbp),%rdi
    37c2:	e8 49 f9 ff ff       	callq  3110 <system@plt>
    37c7:	48 8b 85 00 fb ff ff 	mov    -0x500(%rbp),%rax
    37ce:	48 8d 78 e8          	lea    -0x18(%rax),%rdi
    37d2:	48 3b bd b8 fa ff ff 	cmp    -0x548(%rbp),%rdi
    37d9:	0f 85 27 14 00 00    	jne    4c06 <main+0x1776>
    37df:	4c 89 ff             	mov    %r15,%rdi
    37e2:	e8 99 fb ff ff       	callq  3380 <_ZNSt14basic_ofstreamIcSt11char_traitsIcEEC1Ev@plt>
    37e7:	4c 8b b5 a0 fa ff ff 	mov    -0x560(%rbp),%r14
    37ee:	48 8b b5 90 fa ff ff 	mov    -0x570(%rbp),%rsi
    37f5:	48 8d 15 d4 d9 00 00 	lea    0xd9d4(%rip),%rdx        # 111d0 <_fini+0x7c>
    37fc:	4c 89 f7             	mov    %r14,%rdi
    37ff:	e8 cc 3c 00 00       	callq  74d0 <_ZStplIcSt11char_traitsIcESaIcEESbIT_T0_T1_ERKS6_PKS3_>
    3804:	48 8d 85 30 fd ff ff 	lea    -0x2d0(%rbp),%rax
    380b:	48 8b b5 70 fc ff ff 	mov    -0x390(%rbp),%rsi
    3812:	bf 01 00 00 00       	mov    $0x1,%edi
    3817:	48 89 c2             	mov    %rax,%rdx
    381a:	48 89 85 88 fa ff ff 	mov    %rax,-0x578(%rbp)
    3821:	e8 5a f9 ff ff       	callq  3180 <__xstat@plt>
    3826:	ba 01 00 00 00       	mov    $0x1,%edx
    382b:	4c 89 f6             	mov    %r14,%rsi
    382e:	4c 89 ff             	mov    %r15,%rdi
    3831:	89 c3                	mov    %eax,%ebx
    3833:	e8 e8 f9 ff ff       	callq  3220 <_ZNSt14basic_ofstreamIcSt11char_traitsIcEE4openERKSsSt13_Ios_Openmode@plt>
    3838:	85 db                	test   %ebx,%ebx
    383a:	74 1c                	je     3858 <main+0x3c8>
    383c:	48 8d 35 45 db 00 00 	lea    0xdb45(%rip),%rsi        # 11388 <_fini+0x234>
    3843:	ba 5a 00 00 00       	mov    $0x5a,%edx
    3848:	4c 89 ff             	mov    %r15,%rdi
    384b:	e8 a0 f9 ff ff       	callq  31f0 <_ZSt16__ostream_insertIcSt11char_traitsIcEERSt13basic_ostreamIT_T0_ES6_PKS3_l@plt>
    3850:	4c 89 ff             	mov    %r15,%rdi
    3853:	e8 d8 f7 ff ff       	callq  3030 <_ZSt4endlIcSt11char_traitsIcEERSt13basic_ostreamIT_T0_ES6_@plt>
    3858:	48 8b 35 61 07 21 00 	mov    0x210761(%rip),%rsi        # 213fc0 <_DYNAMIC+0x228>
    385f:	48 8d bd 10 fb ff ff 	lea    -0x4f0(%rbp),%rdi
    3866:	48 8d 0d f3 d8 00 00 	lea    0xd8f3(%rip),%rcx        # 11160 <_fini+0xc>
    386d:	41 b8 64 00 00 00    	mov    $0x64,%r8d
    3873:	ba 10 00 00 00       	mov    $0x10,%edx
    3878:	31 c0                	xor    %eax,%eax
    387a:	e8 11 38 00 00       	callq  7090 <_ZN9__gnu_cxx12__to_xstringISscEET_PFiPT0_mPKS2_P13__va_list_tagEmS5_z.constprop.76>
    387f:	be 20 00 00 00       	mov    $0x20,%esi
    3884:	4c 89 ff             	mov    %r15,%rdi
    3887:	e8 64 37 00 00       	callq  6ff0 <_ZStlsIcSt11char_traitsIcEERSt13basic_ostreamIT_T0_ES6_St8_SetfillIS3_E.constprop.77>
    388c:	48 8b 10             	mov    (%rax),%rdx
    388f:	48 8b b5 10 fb ff ff 	mov    -0x4f0(%rbp),%rsi
    3896:	48 89 c7             	mov    %rax,%rdi
    3899:	48 8b 52 e8          	mov    -0x18(%rdx),%rdx
    389d:	48 c7 44 10 10 06 00 	movq   $0x6,0x10(%rax,%rdx,1)
    38a4:	00 00 
    38a6:	48 8b 56 e8          	mov    -0x18(%rsi),%rdx
    38aa:	e8 41 f9 ff ff       	callq  31f0 <_ZSt16__ostream_insertIcSt11char_traitsIcEERSt13basic_ostreamIT_T0_ES6_PKS3_l@plt>
    38af:	48 8b 85 10 fb ff ff 	mov    -0x4f0(%rbp),%rax
    38b6:	48 8d 78 e8          	lea    -0x18(%rax),%rdi
    38ba:	48 3b bd b8 fa ff ff 	cmp    -0x548(%rbp),%rdi
    38c1:	0f 85 fb 13 00 00    	jne    4cc2 <main+0x1832>
    38c7:	48 8d 85 20 fb ff ff 	lea    -0x4e0(%rbp),%rax
    38ce:	41 be 06 00 00 00    	mov    $0x6,%r14d
    38d4:	41 bd 01 00 00 00    	mov    $0x1,%r13d
    38da:	48 89 85 a8 fa ff ff 	mov    %rax,-0x558(%rbp)
    38e1:	e9 b6 00 00 00       	jmpq   399c <main+0x50c>
    38e6:	66 2e 0f 1f 84 00 00 	nopw   %cs:0x0(%rax,%rax,1)
    38ed:	00 00 00 
    38f0:	41 0f be 74 24 43    	movsbl 0x43(%r12),%esi
    38f6:	48 89 df             	mov    %rbx,%rdi
    38f9:	e8 62 f6 ff ff       	callq  2f60 <_ZNSo3putEc@plt>
    38fe:	48 89 c7             	mov    %rax,%rdi
    3901:	e8 8a f7 ff ff       	callq  3090 <_ZNSo5flushEv@plt>
    3906:	44 89 ef             	mov    %r13d,%edi
    3909:	e8 b2 4b 00 00       	callq  84c0 <_Z9benchmarkIfLl100EEmi>
    390e:	48 8b 35 ab 06 21 00 	mov    0x2106ab(%rip),%rsi        # 213fc0 <_DYNAMIC+0x228>
    3915:	48 8b bd a8 fa ff ff 	mov    -0x558(%rbp),%rdi
    391c:	48 8d 0d 3d d8 00 00 	lea    0xd83d(%rip),%rcx        # 11160 <_fini+0xc>
    3923:	41 89 c0             	mov    %eax,%r8d
    3926:	ba 10 00 00 00       	mov    $0x10,%edx
    392b:	31 c0                	xor    %eax,%eax
    392d:	e8 5e 37 00 00       	callq  7090 <_ZN9__gnu_cxx12__to_xstringISscEET_PFiPT0_mPKS2_P13__va_list_tagEmS5_z.constprop.76>
    3932:	48 8b 85 c0 fd ff ff 	mov    -0x240(%rbp),%rax
    3939:	4c 89 fb             	mov    %r15,%rbx
    393c:	48 03 58 e8          	add    -0x18(%rax),%rbx
    3940:	80 bb e1 00 00 00 00 	cmpb   $0x0,0xe1(%rbx)
    3947:	0f 84 e3 00 00 00    	je     3a30 <main+0x5a0>
    394d:	c6 83 e0 00 00 00 20 	movb   $0x20,0xe0(%rbx)
    3954:	48 8b b5 20 fb ff ff 	mov    -0x4e0(%rbp),%rsi
    395b:	4c 89 ff             	mov    %r15,%rdi
    395e:	48 8b 40 e8          	mov    -0x18(%rax),%rax
    3962:	48 c7 84 05 d0 fd ff 	movq   $0x14,-0x230(%rbp,%rax,1)
    3969:	ff 14 00 00 00 
    396e:	48 8b 56 e8          	mov    -0x18(%rsi),%rdx
    3972:	e8 79 f8 ff ff       	callq  31f0 <_ZSt16__ostream_insertIcSt11char_traitsIcEERSt13basic_ostreamIT_T0_ES6_PKS3_l@plt>
    3977:	48 8b 85 20 fb ff ff 	mov    -0x4e0(%rbp),%rax
    397e:	48 8d 78 e8          	lea    -0x18(%rax),%rdi
    3982:	48 3b bd b8 fa ff ff 	cmp    -0x548(%rbp),%rdi
    3989:	0f 85 bd 11 00 00    	jne    4b4c <main+0x16bc>
    398f:	45 01 ed             	add    %r13d,%r13d
    3992:	41 83 ee 01          	sub    $0x1,%r14d
    3996:	0f 84 c4 00 00 00    	je     3a60 <main+0x5d0>
    399c:	48 8d 35 49 d8 00 00 	lea    0xd849(%rip),%rsi        # 111ec <_fini+0x98>
    39a3:	48 8d 3d b6 0a 21 00 	lea    0x210ab6(%rip),%rdi        # 214460 <_ZSt4cout@@GLIBCXX_3.4>
    39aa:	ba 09 00 00 00       	mov    $0x9,%edx
    39af:	e8 3c f8 ff ff       	callq  31f0 <_ZSt16__ostream_insertIcSt11char_traitsIcEERSt13basic_ostreamIT_T0_ES6_PKS3_l@plt>
    39b4:	48 8d 3d a5 0a 21 00 	lea    0x210aa5(%rip),%rdi        # 214460 <_ZSt4cout@@GLIBCXX_3.4>
    39bb:	44 89 ee             	mov    %r13d,%esi
    39be:	e8 dd f9 ff ff       	callq  33a0 <_ZNSolsEi@plt>
    39c3:	48 8d 35 ac d7 00 00 	lea    0xd7ac(%rip),%rsi        # 11176 <_fini+0x22>
    39ca:	ba 09 00 00 00       	mov    $0x9,%edx
    39cf:	48 89 c7             	mov    %rax,%rdi
    39d2:	48 89 c3             	mov    %rax,%rbx
    39d5:	e8 16 f8 ff ff       	callq  31f0 <_ZSt16__ostream_insertIcSt11char_traitsIcEERSt13basic_ostreamIT_T0_ES6_PKS3_l@plt>
    39da:	48 8b 03             	mov    (%rbx),%rax
    39dd:	48 8b 40 e8          	mov    -0x18(%rax),%rax
    39e1:	4c 8b a4 03 f0 00 00 	mov    0xf0(%rbx,%rax,1),%r12
    39e8:	00 
    39e9:	4d 85 e4             	test   %r12,%r12
    39ec:	0f 84 2c 14 00 00    	je     4e1e <main+0x198e>
    39f2:	41 80 7c 24 38 00    	cmpb   $0x0,0x38(%r12)
    39f8:	0f 85 f2 fe ff ff    	jne    38f0 <main+0x460>
    39fe:	4c 89 e7             	mov    %r12,%rdi
    3a01:	e8 fa f7 ff ff       	callq  3200 <_ZNKSt5ctypeIcE13_M_widen_initEv@plt>
    3a06:	49 8b 04 24          	mov    (%r12),%rax
    3a0a:	48 8d 0d ef 1a 00 00 	lea    0x1aef(%rip),%rcx        # 5500 <_ZNKSt5ctypeIcE8do_widenEc>
    3a11:	be 0a 00 00 00       	mov    $0xa,%esi
    3a16:	48 8b 40 30          	mov    0x30(%rax),%rax
    3a1a:	48 39 c8             	cmp    %rcx,%rax
    3a1d:	0f 84 d3 fe ff ff    	je     38f6 <main+0x466>
    3a23:	4c 89 e7             	mov    %r12,%rdi
    3a26:	ff d0                	callq  *%rax
    3a28:	0f be f0             	movsbl %al,%esi
    3a2b:	e9 c6 fe ff ff       	jmpq   38f6 <main+0x466>
    3a30:	4c 8b a3 f0 00 00 00 	mov    0xf0(%rbx),%r12
    3a37:	4d 85 e4             	test   %r12,%r12
    3a3a:	0f 84 e8 13 00 00    	je     4e28 <main+0x1998>
    3a40:	41 80 7c 24 38 00    	cmpb   $0x0,0x38(%r12)
    3a46:	0f 84 84 0f 00 00    	je     49d0 <main+0x1540>
    3a4c:	c6 83 e1 00 00 00 01 	movb   $0x1,0xe1(%rbx)
    3a53:	e9 f5 fe ff ff       	jmpq   394d <main+0x4bd>
    3a58:	0f 1f 84 00 00 00 00 	nopl   0x0(%rax,%rax,1)
    3a5f:	00 
    3a60:	4c 89 ff             	mov    %r15,%rdi
    3a63:	e8 c8 f5 ff ff       	callq  3030 <_ZSt4endlIcSt11char_traitsIcEERSt13basic_ostreamIT_T0_ES6_@plt>
    3a68:	48 8b 35 51 05 21 00 	mov    0x210551(%rip),%rsi        # 213fc0 <_DYNAMIC+0x228>
    3a6f:	48 8d bd 30 fb ff ff 	lea    -0x4d0(%rbp),%rdi
    3a76:	48 8d 0d e3 d6 00 00 	lea    0xd6e3(%rip),%rcx        # 11160 <_fini+0xc>
    3a7d:	41 b8 f4 01 00 00    	mov    $0x1f4,%r8d
    3a83:	ba 10 00 00 00       	mov    $0x10,%edx
    3a88:	31 c0                	xor    %eax,%eax
    3a8a:	e8 01 36 00 00       	callq  7090 <_ZN9__gnu_cxx12__to_xstringISscEET_PFiPT0_mPKS2_P13__va_list_tagEmS5_z.constprop.76>
    3a8f:	be 20 00 00 00       	mov    $0x20,%esi
    3a94:	4c 89 ff             	mov    %r15,%rdi
    3a97:	e8 54 35 00 00       	callq  6ff0 <_ZStlsIcSt11char_traitsIcEERSt13basic_ostreamIT_T0_ES6_St8_SetfillIS3_E.constprop.77>
    3a9c:	48 8b 10             	mov    (%rax),%rdx
    3a9f:	48 8b b5 30 fb ff ff 	mov    -0x4d0(%rbp),%rsi
    3aa6:	48 89 c7             	mov    %rax,%rdi
    3aa9:	48 8b 52 e8          	mov    -0x18(%rdx),%rdx
    3aad:	48 c7 44 10 10 06 00 	movq   $0x6,0x10(%rax,%rdx,1)
    3ab4:	00 00 
    3ab6:	48 8b 56 e8          	mov    -0x18(%rsi),%rdx
    3aba:	e8 31 f7 ff ff       	callq  31f0 <_ZSt16__ostream_insertIcSt11char_traitsIcEERSt13basic_ostreamIT_T0_ES6_PKS3_l@plt>
    3abf:	48 8b 85 30 fb ff ff 	mov    -0x4d0(%rbp),%rax
    3ac6:	48 8d 78 e8          	lea    -0x18(%rax),%rdi
    3aca:	48 3b bd b8 fa ff ff 	cmp    -0x548(%rbp),%rdi
    3ad1:	0f 85 2f 12 00 00    	jne    4d06 <main+0x1876>
    3ad7:	48 8d 85 40 fb ff ff 	lea    -0x4c0(%rbp),%rax
    3ade:	41 be 06 00 00 00    	mov    $0x6,%r14d
    3ae4:	41 bd 01 00 00 00    	mov    $0x1,%r13d
    3aea:	48 89 85 a8 fa ff ff 	mov    %rax,-0x558(%rbp)
    3af1:	e9 b6 00 00 00       	jmpq   3bac <main+0x71c>
    3af6:	66 2e 0f 1f 84 00 00 	nopw   %cs:0x0(%rax,%rax,1)
    3afd:	00 00 00 
    3b00:	41 0f be 74 24 43    	movsbl 0x43(%r12),%esi
    3b06:	48 89 df             	mov    %rbx,%rdi
    3b09:	e8 52 f4 ff ff       	callq  2f60 <_ZNSo3putEc@plt>
    3b0e:	48 89 c7             	mov    %rax,%rdi
    3b11:	e8 7a f5 ff ff       	callq  3090 <_ZNSo5flushEv@plt>
    3b16:	44 89 ef             	mov    %r13d,%edi
    3b19:	e8 22 52 00 00       	callq  8d40 <_Z9benchmarkIfLl500EEmi>
    3b1e:	48 8b 35 9b 04 21 00 	mov    0x21049b(%rip),%rsi        # 213fc0 <_DYNAMIC+0x228>
    3b25:	48 8b bd a8 fa ff ff 	mov    -0x558(%rbp),%rdi
    3b2c:	48 8d 0d 2d d6 00 00 	lea    0xd62d(%rip),%rcx        # 11160 <_fini+0xc>
    3b33:	41 89 c0             	mov    %eax,%r8d
    3b36:	ba 10 00 00 00       	mov    $0x10,%edx
    3b3b:	31 c0                	xor    %eax,%eax
    3b3d:	e8 4e 35 00 00       	callq  7090 <_ZN9__gnu_cxx12__to_xstringISscEET_PFiPT0_mPKS2_P13__va_list_tagEmS5_z.constprop.76>
    3b42:	48 8b 85 c0 fd ff ff 	mov    -0x240(%rbp),%rax
    3b49:	4c 89 fb             	mov    %r15,%rbx
    3b4c:	48 03 58 e8          	add    -0x18(%rax),%rbx
    3b50:	80 bb e1 00 00 00 00 	cmpb   $0x0,0xe1(%rbx)
    3b57:	0f 84 e3 00 00 00    	je     3c40 <main+0x7b0>
    3b5d:	c6 83 e0 00 00 00 20 	movb   $0x20,0xe0(%rbx)
    3b64:	48 8b b5 40 fb ff ff 	mov    -0x4c0(%rbp),%rsi
    3b6b:	4c 89 ff             	mov    %r15,%rdi
    3b6e:	48 8b 40 e8          	mov    -0x18(%rax),%rax
    3b72:	48 c7 84 05 d0 fd ff 	movq   $0x14,-0x230(%rbp,%rax,1)
    3b79:	ff 14 00 00 00 
    3b7e:	48 8b 56 e8          	mov    -0x18(%rsi),%rdx
    3b82:	e8 69 f6 ff ff       	callq  31f0 <_ZSt16__ostream_insertIcSt11char_traitsIcEERSt13basic_ostreamIT_T0_ES6_PKS3_l@plt>
    3b87:	48 8b 85 40 fb ff ff 	mov    -0x4c0(%rbp),%rax
    3b8e:	48 8d 78 e8          	lea    -0x18(%rax),%rdi
    3b92:	48 3b bd b8 fa ff ff 	cmp    -0x548(%rbp),%rdi
    3b99:	0f 85 be 0f 00 00    	jne    4b5d <main+0x16cd>
    3b9f:	45 01 ed             	add    %r13d,%r13d
    3ba2:	41 83 ee 01          	sub    $0x1,%r14d
    3ba6:	0f 84 c4 00 00 00    	je     3c70 <main+0x7e0>
    3bac:	48 8d 35 39 d6 00 00 	lea    0xd639(%rip),%rsi        # 111ec <_fini+0x98>
    3bb3:	48 8d 3d a6 08 21 00 	lea    0x2108a6(%rip),%rdi        # 214460 <_ZSt4cout@@GLIBCXX_3.4>
    3bba:	ba 09 00 00 00       	mov    $0x9,%edx
    3bbf:	e8 2c f6 ff ff       	callq  31f0 <_ZSt16__ostream_insertIcSt11char_traitsIcEERSt13basic_ostreamIT_T0_ES6_PKS3_l@plt>
    3bc4:	48 8d 3d 95 08 21 00 	lea    0x210895(%rip),%rdi        # 214460 <_ZSt4cout@@GLIBCXX_3.4>
    3bcb:	44 89 ee             	mov    %r13d,%esi
    3bce:	e8 cd f7 ff ff       	callq  33a0 <_ZNSolsEi@plt>
    3bd3:	48 8d 35 9c d5 00 00 	lea    0xd59c(%rip),%rsi        # 11176 <_fini+0x22>
    3bda:	ba 09 00 00 00       	mov    $0x9,%edx
    3bdf:	48 89 c7             	mov    %rax,%rdi
    3be2:	48 89 c3             	mov    %rax,%rbx
    3be5:	e8 06 f6 ff ff       	callq  31f0 <_ZSt16__ostream_insertIcSt11char_traitsIcEERSt13basic_ostreamIT_T0_ES6_PKS3_l@plt>
    3bea:	48 8b 03             	mov    (%rbx),%rax
    3bed:	48 8b 40 e8          	mov    -0x18(%rax),%rax
    3bf1:	4c 8b a4 03 f0 00 00 	mov    0xf0(%rbx,%rax,1),%r12
    3bf8:	00 
    3bf9:	4d 85 e4             	test   %r12,%r12
    3bfc:	0f 84 21 12 00 00    	je     4e23 <main+0x1993>
    3c02:	41 80 7c 24 38 00    	cmpb   $0x0,0x38(%r12)
    3c08:	0f 85 f2 fe ff ff    	jne    3b00 <main+0x670>
    3c0e:	4c 89 e7             	mov    %r12,%rdi
    3c11:	e8 ea f5 ff ff       	callq  3200 <_ZNKSt5ctypeIcE13_M_widen_initEv@plt>
    3c16:	49 8b 04 24          	mov    (%r12),%rax
    3c1a:	48 8d 0d df 18 00 00 	lea    0x18df(%rip),%rcx        # 5500 <_ZNKSt5ctypeIcE8do_widenEc>
    3c21:	be 0a 00 00 00       	mov    $0xa,%esi
    3c26:	48 8b 40 30          	mov    0x30(%rax),%rax
    3c2a:	48 39 c8             	cmp    %rcx,%rax
    3c2d:	0f 84 d3 fe ff ff    	je     3b06 <main+0x676>
    3c33:	4c 89 e7             	mov    %r12,%rdi
    3c36:	ff d0                	callq  *%rax
    3c38:	0f be f0             	movsbl %al,%esi
    3c3b:	e9 c6 fe ff ff       	jmpq   3b06 <main+0x676>
    3c40:	4c 8b a3 f0 00 00 00 	mov    0xf0(%rbx),%r12
    3c47:	4d 85 e4             	test   %r12,%r12
    3c4a:	0f 84 09 12 00 00    	je     4e59 <main+0x19c9>
    3c50:	41 80 7c 24 38 00    	cmpb   $0x0,0x38(%r12)
    3c56:	0f 84 a4 0d 00 00    	je     4a00 <main+0x1570>
    3c5c:	c6 83 e1 00 00 00 01 	movb   $0x1,0xe1(%rbx)
    3c63:	e9 f5 fe ff ff       	jmpq   3b5d <main+0x6cd>
    3c68:	0f 1f 84 00 00 00 00 	nopl   0x0(%rax,%rax,1)
    3c6f:	00 
    3c70:	4c 89 ff             	mov    %r15,%rdi
    3c73:	e8 b8 f3 ff ff       	callq  3030 <_ZSt4endlIcSt11char_traitsIcEERSt13basic_ostreamIT_T0_ES6_@plt>
    3c78:	48 8b 35 41 03 21 00 	mov    0x210341(%rip),%rsi        # 213fc0 <_DYNAMIC+0x228>
    3c7f:	48 8d bd 50 fb ff ff 	lea    -0x4b0(%rbp),%rdi
    3c86:	48 8d 0d d3 d4 00 00 	lea    0xd4d3(%rip),%rcx        # 11160 <_fini+0xc>
    3c8d:	41 b8 e8 03 00 00    	mov    $0x3e8,%r8d
    3c93:	ba 10 00 00 00       	mov    $0x10,%edx
    3c98:	31 c0                	xor    %eax,%eax
    3c9a:	e8 f1 33 00 00       	callq  7090 <_ZN9__gnu_cxx12__to_xstringISscEET_PFiPT0_mPKS2_P13__va_list_tagEmS5_z.constprop.76>
    3c9f:	be 20 00 00 00       	mov    $0x20,%esi
    3ca4:	4c 89 ff             	mov    %r15,%rdi
    3ca7:	e8 44 33 00 00       	callq  6ff0 <_ZStlsIcSt11char_traitsIcEERSt13basic_ostreamIT_T0_ES6_St8_SetfillIS3_E.constprop.77>
    3cac:	48 8b 10             	mov    (%rax),%rdx
    3caf:	48 8b b5 50 fb ff ff 	mov    -0x4b0(%rbp),%rsi
    3cb6:	48 89 c7             	mov    %rax,%rdi
    3cb9:	48 8b 52 e8          	mov    -0x18(%rdx),%rdx
    3cbd:	48 c7 44 10 10 06 00 	movq   $0x6,0x10(%rax,%rdx,1)
    3cc4:	00 00 
    3cc6:	48 8b 56 e8          	mov    -0x18(%rsi),%rdx
    3cca:	e8 21 f5 ff ff       	callq  31f0 <_ZSt16__ostream_insertIcSt11char_traitsIcEERSt13basic_ostreamIT_T0_ES6_PKS3_l@plt>
    3ccf:	48 8b 85 50 fb ff ff 	mov    -0x4b0(%rbp),%rax
    3cd6:	48 8d 78 e8          	lea    -0x18(%rax),%rdi
    3cda:	48 3b bd b8 fa ff ff 	cmp    -0x548(%rbp),%rdi
    3ce1:	0f 85 41 10 00 00    	jne    4d28 <main+0x1898>
    3ce7:	48 8d 85 60 fb ff ff 	lea    -0x4a0(%rbp),%rax
    3cee:	41 be 06 00 00 00    	mov    $0x6,%r14d
    3cf4:	41 bd 01 00 00 00    	mov    $0x1,%r13d
    3cfa:	48 89 85 a8 fa ff ff 	mov    %rax,-0x558(%rbp)
    3d01:	e9 b6 00 00 00       	jmpq   3dbc <main+0x92c>
    3d06:	66 2e 0f 1f 84 00 00 	nopw   %cs:0x0(%rax,%rax,1)
    3d0d:	00 00 00 
    3d10:	41 0f be 74 24 43    	movsbl 0x43(%r12),%esi
    3d16:	48 89 df             	mov    %rbx,%rdi
    3d19:	e8 42 f2 ff ff       	callq  2f60 <_ZNSo3putEc@plt>
    3d1e:	48 89 c7             	mov    %rax,%rdi
    3d21:	e8 6a f3 ff ff       	callq  3090 <_ZNSo5flushEv@plt>
    3d26:	44 89 ef             	mov    %r13d,%edi
    3d29:	e8 92 58 00 00       	callq  95c0 <_Z9benchmarkIfLl1000EEmi>
    3d2e:	48 8b 35 8b 02 21 00 	mov    0x21028b(%rip),%rsi        # 213fc0 <_DYNAMIC+0x228>
    3d35:	48 8b bd a8 fa ff ff 	mov    -0x558(%rbp),%rdi
    3d3c:	48 8d 0d 1d d4 00 00 	lea    0xd41d(%rip),%rcx        # 11160 <_fini+0xc>
    3d43:	41 89 c0             	mov    %eax,%r8d
    3d46:	ba 10 00 00 00       	mov    $0x10,%edx
    3d4b:	31 c0                	xor    %eax,%eax
    3d4d:	e8 3e 33 00 00       	callq  7090 <_ZN9__gnu_cxx12__to_xstringISscEET_PFiPT0_mPKS2_P13__va_list_tagEmS5_z.constprop.76>
    3d52:	48 8b 85 c0 fd ff ff 	mov    -0x240(%rbp),%rax
    3d59:	4c 89 fb             	mov    %r15,%rbx
    3d5c:	48 03 58 e8          	add    -0x18(%rax),%rbx
    3d60:	80 bb e1 00 00 00 00 	cmpb   $0x0,0xe1(%rbx)
    3d67:	0f 84 e3 00 00 00    	je     3e50 <main+0x9c0>
    3d6d:	c6 83 e0 00 00 00 20 	movb   $0x20,0xe0(%rbx)
    3d74:	48 8b b5 60 fb ff ff 	mov    -0x4a0(%rbp),%rsi
    3d7b:	4c 89 ff             	mov    %r15,%rdi
    3d7e:	48 8b 40 e8          	mov    -0x18(%rax),%rax
    3d82:	48 c7 84 05 d0 fd ff 	movq   $0x14,-0x230(%rbp,%rax,1)
    3d89:	ff 14 00 00 00 
    3d8e:	48 8b 56 e8          	mov    -0x18(%rsi),%rdx
    3d92:	e8 59 f4 ff ff       	callq  31f0 <_ZSt16__ostream_insertIcSt11char_traitsIcEERSt13basic_ostreamIT_T0_ES6_PKS3_l@plt>
    3d97:	48 8b 85 60 fb ff ff 	mov    -0x4a0(%rbp),%rax
    3d9e:	48 8d 78 e8          	lea    -0x18(%rax),%rdi
    3da2:	48 3b bd b8 fa ff ff 	cmp    -0x548(%rbp),%rdi
    3da9:	0f 85 bf 0d 00 00    	jne    4b6e <main+0x16de>
    3daf:	45 01 ed             	add    %r13d,%r13d
    3db2:	41 83 ee 01          	sub    $0x1,%r14d
    3db6:	0f 84 c4 00 00 00    	je     3e80 <main+0x9f0>
    3dbc:	48 8d 35 29 d4 00 00 	lea    0xd429(%rip),%rsi        # 111ec <_fini+0x98>
    3dc3:	48 8d 3d 96 06 21 00 	lea    0x210696(%rip),%rdi        # 214460 <_ZSt4cout@@GLIBCXX_3.4>
    3dca:	ba 09 00 00 00       	mov    $0x9,%edx
    3dcf:	e8 1c f4 ff ff       	callq  31f0 <_ZSt16__ostream_insertIcSt11char_traitsIcEERSt13basic_ostreamIT_T0_ES6_PKS3_l@plt>
    3dd4:	48 8d 3d 85 06 21 00 	lea    0x210685(%rip),%rdi        # 214460 <_ZSt4cout@@GLIBCXX_3.4>
    3ddb:	44 89 ee             	mov    %r13d,%esi
    3dde:	e8 bd f5 ff ff       	callq  33a0 <_ZNSolsEi@plt>
    3de3:	48 8d 35 8c d3 00 00 	lea    0xd38c(%rip),%rsi        # 11176 <_fini+0x22>
    3dea:	ba 09 00 00 00       	mov    $0x9,%edx
    3def:	48 89 c7             	mov    %rax,%rdi
    3df2:	48 89 c3             	mov    %rax,%rbx
    3df5:	e8 f6 f3 ff ff       	callq  31f0 <_ZSt16__ostream_insertIcSt11char_traitsIcEERSt13basic_ostreamIT_T0_ES6_PKS3_l@plt>
    3dfa:	48 8b 03             	mov    (%rbx),%rax
    3dfd:	48 8b 40 e8          	mov    -0x18(%rax),%rax
    3e01:	4c 8b a4 03 f0 00 00 	mov    0xf0(%rbx,%rax,1),%r12
    3e08:	00 
    3e09:	4d 85 e4             	test   %r12,%r12
    3e0c:	0f 84 f1 0f 00 00    	je     4e03 <main+0x1973>
    3e12:	41 80 7c 24 38 00    	cmpb   $0x0,0x38(%r12)
    3e18:	0f 85 f2 fe ff ff    	jne    3d10 <main+0x880>
    3e1e:	4c 89 e7             	mov    %r12,%rdi
    3e21:	e8 da f3 ff ff       	callq  3200 <_ZNKSt5ctypeIcE13_M_widen_initEv@plt>
    3e26:	49 8b 04 24          	mov    (%r12),%rax
    3e2a:	48 8d 0d cf 16 00 00 	lea    0x16cf(%rip),%rcx        # 5500 <_ZNKSt5ctypeIcE8do_widenEc>
    3e31:	be 0a 00 00 00       	mov    $0xa,%esi
    3e36:	48 8b 40 30          	mov    0x30(%rax),%rax
    3e3a:	48 39 c8             	cmp    %rcx,%rax
    3e3d:	0f 84 d3 fe ff ff    	je     3d16 <main+0x886>
    3e43:	4c 89 e7             	mov    %r12,%rdi
    3e46:	ff d0                	callq  *%rax
    3e48:	0f be f0             	movsbl %al,%esi
    3e4b:	e9 c6 fe ff ff       	jmpq   3d16 <main+0x886>
    3e50:	4c 8b a3 f0 00 00 00 	mov    0xf0(%rbx),%r12
    3e57:	4d 85 e4             	test   %r12,%r12
    3e5a:	0f 84 d3 10 00 00    	je     4f33 <main+0x1aa3>
    3e60:	41 80 7c 24 38 00    	cmpb   $0x0,0x38(%r12)
    3e66:	0f 84 c4 0b 00 00    	je     4a30 <main+0x15a0>
    3e6c:	c6 83 e1 00 00 00 01 	movb   $0x1,0xe1(%rbx)
    3e73:	e9 f5 fe ff ff       	jmpq   3d6d <main+0x8dd>
    3e78:	0f 1f 84 00 00 00 00 	nopl   0x0(%rax,%rax,1)
    3e7f:	00 
    3e80:	4c 89 ff             	mov    %r15,%rdi
    3e83:	e8 a8 f1 ff ff       	callq  3030 <_ZSt4endlIcSt11char_traitsIcEERSt13basic_ostreamIT_T0_ES6_@plt>
    3e88:	48 8b 35 31 01 21 00 	mov    0x210131(%rip),%rsi        # 213fc0 <_DYNAMIC+0x228>
    3e8f:	48 8d bd 70 fb ff ff 	lea    -0x490(%rbp),%rdi
    3e96:	48 8d 0d c3 d2 00 00 	lea    0xd2c3(%rip),%rcx        # 11160 <_fini+0xc>
    3e9d:	41 b8 10 27 00 00    	mov    $0x2710,%r8d
    3ea3:	ba 10 00 00 00       	mov    $0x10,%edx
    3ea8:	31 c0                	xor    %eax,%eax
    3eaa:	e8 e1 31 00 00       	callq  7090 <_ZN9__gnu_cxx12__to_xstringISscEET_PFiPT0_mPKS2_P13__va_list_tagEmS5_z.constprop.76>
    3eaf:	be 20 00 00 00       	mov    $0x20,%esi
    3eb4:	4c 89 ff             	mov    %r15,%rdi
    3eb7:	e8 34 31 00 00       	callq  6ff0 <_ZStlsIcSt11char_traitsIcEERSt13basic_ostreamIT_T0_ES6_St8_SetfillIS3_E.constprop.77>
    3ebc:	48 8b 10             	mov    (%rax),%rdx
    3ebf:	48 8b b5 70 fb ff ff 	mov    -0x490(%rbp),%rsi
    3ec6:	48 89 c7             	mov    %rax,%rdi
    3ec9:	48 8b 52 e8          	mov    -0x18(%rdx),%rdx
    3ecd:	48 c7 44 10 10 06 00 	movq   $0x6,0x10(%rax,%rdx,1)
    3ed4:	00 00 
    3ed6:	48 8b 56 e8          	mov    -0x18(%rsi),%rdx
    3eda:	e8 11 f3 ff ff       	callq  31f0 <_ZSt16__ostream_insertIcSt11char_traitsIcEERSt13basic_ostreamIT_T0_ES6_PKS3_l@plt>
    3edf:	48 8b 85 70 fb ff ff 	mov    -0x490(%rbp),%rax
    3ee6:	48 8d 78 e8          	lea    -0x18(%rax),%rdi
    3eea:	48 3b bd b8 fa ff ff 	cmp    -0x548(%rbp),%rdi
    3ef1:	0f 85 20 0e 00 00    	jne    4d17 <main+0x1887>
    3ef7:	48 8d 85 80 fb ff ff 	lea    -0x480(%rbp),%rax
    3efe:	41 be 06 00 00 00    	mov    $0x6,%r14d
    3f04:	41 bd 01 00 00 00    	mov    $0x1,%r13d
    3f0a:	48 89 85 a8 fa ff ff 	mov    %rax,-0x558(%rbp)
    3f11:	e9 b6 00 00 00       	jmpq   3fcc <main+0xb3c>
    3f16:	66 2e 0f 1f 84 00 00 	nopw   %cs:0x0(%rax,%rax,1)
    3f1d:	00 00 00 
    3f20:	41 0f be 74 24 43    	movsbl 0x43(%r12),%esi
    3f26:	48 89 df             	mov    %rbx,%rdi
    3f29:	e8 32 f0 ff ff       	callq  2f60 <_ZNSo3putEc@plt>
    3f2e:	48 89 c7             	mov    %rax,%rdi
    3f31:	e8 5a f1 ff ff       	callq  3090 <_ZNSo5flushEv@plt>
    3f36:	44 89 ef             	mov    %r13d,%edi
    3f39:	e8 02 5f 00 00       	callq  9e40 <_Z9benchmarkIfLl10000EEmi>
    3f3e:	48 8b 35 7b 00 21 00 	mov    0x21007b(%rip),%rsi        # 213fc0 <_DYNAMIC+0x228>
    3f45:	48 8b bd a8 fa ff ff 	mov    -0x558(%rbp),%rdi
    3f4c:	48 8d 0d 0d d2 00 00 	lea    0xd20d(%rip),%rcx        # 11160 <_fini+0xc>
    3f53:	41 89 c0             	mov    %eax,%r8d
    3f56:	ba 10 00 00 00       	mov    $0x10,%edx
    3f5b:	31 c0                	xor    %eax,%eax
    3f5d:	e8 2e 31 00 00       	callq  7090 <_ZN9__gnu_cxx12__to_xstringISscEET_PFiPT0_mPKS2_P13__va_list_tagEmS5_z.constprop.76>
    3f62:	48 8b 85 c0 fd ff ff 	mov    -0x240(%rbp),%rax
    3f69:	4c 89 fb             	mov    %r15,%rbx
    3f6c:	48 03 58 e8          	add    -0x18(%rax),%rbx
    3f70:	80 bb e1 00 00 00 00 	cmpb   $0x0,0xe1(%rbx)
    3f77:	0f 84 e3 00 00 00    	je     4060 <main+0xbd0>
    3f7d:	c6 83 e0 00 00 00 20 	movb   $0x20,0xe0(%rbx)
    3f84:	48 8b b5 80 fb ff ff 	mov    -0x480(%rbp),%rsi
    3f8b:	4c 89 ff             	mov    %r15,%rdi
    3f8e:	48 8b 40 e8          	mov    -0x18(%rax),%rax
    3f92:	48 c7 84 05 d0 fd ff 	movq   $0x14,-0x230(%rbp,%rax,1)
    3f99:	ff 14 00 00 00 
    3f9e:	48 8b 56 e8          	mov    -0x18(%rsi),%rdx
    3fa2:	e8 49 f2 ff ff       	callq  31f0 <_ZSt16__ostream_insertIcSt11char_traitsIcEERSt13basic_ostreamIT_T0_ES6_PKS3_l@plt>
    3fa7:	48 8b 85 80 fb ff ff 	mov    -0x480(%rbp),%rax
    3fae:	48 8d 78 e8          	lea    -0x18(%rax),%rdi
    3fb2:	48 3b bd b8 fa ff ff 	cmp    -0x548(%rbp),%rdi
    3fb9:	0f 85 c0 0b 00 00    	jne    4b7f <main+0x16ef>
    3fbf:	45 01 ed             	add    %r13d,%r13d
    3fc2:	41 83 ee 01          	sub    $0x1,%r14d
    3fc6:	0f 84 c4 00 00 00    	je     4090 <main+0xc00>
    3fcc:	48 8d 35 19 d2 00 00 	lea    0xd219(%rip),%rsi        # 111ec <_fini+0x98>
    3fd3:	48 8d 3d 86 04 21 00 	lea    0x210486(%rip),%rdi        # 214460 <_ZSt4cout@@GLIBCXX_3.4>
    3fda:	ba 09 00 00 00       	mov    $0x9,%edx
    3fdf:	e8 0c f2 ff ff       	callq  31f0 <_ZSt16__ostream_insertIcSt11char_traitsIcEERSt13basic_ostreamIT_T0_ES6_PKS3_l@plt>
    3fe4:	48 8d 3d 75 04 21 00 	lea    0x210475(%rip),%rdi        # 214460 <_ZSt4cout@@GLIBCXX_3.4>
    3feb:	44 89 ee             	mov    %r13d,%esi
    3fee:	e8 ad f3 ff ff       	callq  33a0 <_ZNSolsEi@plt>
    3ff3:	48 8d 35 7c d1 00 00 	lea    0xd17c(%rip),%rsi        # 11176 <_fini+0x22>
    3ffa:	ba 09 00 00 00       	mov    $0x9,%edx
    3fff:	48 89 c7             	mov    %rax,%rdi
    4002:	48 89 c3             	mov    %rax,%rbx
    4005:	e8 e6 f1 ff ff       	callq  31f0 <_ZSt16__ostream_insertIcSt11char_traitsIcEERSt13basic_ostreamIT_T0_ES6_PKS3_l@plt>
    400a:	48 8b 03             	mov    (%rbx),%rax
    400d:	48 8b 40 e8          	mov    -0x18(%rax),%rax
    4011:	4c 8b a4 03 f0 00 00 	mov    0xf0(%rbx,%rax,1),%r12
    4018:	00 
    4019:	4d 85 e4             	test   %r12,%r12
    401c:	0f 84 f7 0d 00 00    	je     4e19 <main+0x1989>
    4022:	41 80 7c 24 38 00    	cmpb   $0x0,0x38(%r12)
    4028:	0f 85 f2 fe ff ff    	jne    3f20 <main+0xa90>
    402e:	4c 89 e7             	mov    %r12,%rdi
    4031:	e8 ca f1 ff ff       	callq  3200 <_ZNKSt5ctypeIcE13_M_widen_initEv@plt>
    4036:	49 8b 04 24          	mov    (%r12),%rax
    403a:	48 8d 0d bf 14 00 00 	lea    0x14bf(%rip),%rcx        # 5500 <_ZNKSt5ctypeIcE8do_widenEc>
    4041:	be 0a 00 00 00       	mov    $0xa,%esi
    4046:	48 8b 40 30          	mov    0x30(%rax),%rax
    404a:	48 39 c8             	cmp    %rcx,%rax
    404d:	0f 84 d3 fe ff ff    	je     3f26 <main+0xa96>
    4053:	4c 89 e7             	mov    %r12,%rdi
    4056:	ff d0                	callq  *%rax
    4058:	0f be f0             	movsbl %al,%esi
    405b:	e9 c6 fe ff ff       	jmpq   3f26 <main+0xa96>
    4060:	4c 8b a3 f0 00 00 00 	mov    0xf0(%rbx),%r12
    4067:	4d 85 e4             	test   %r12,%r12
    406a:	0f 84 9e 0e 00 00    	je     4f0e <main+0x1a7e>
    4070:	41 80 7c 24 38 00    	cmpb   $0x0,0x38(%r12)
    4076:	0f 84 e4 09 00 00    	je     4a60 <main+0x15d0>
    407c:	c6 83 e1 00 00 00 01 	movb   $0x1,0xe1(%rbx)
    4083:	e9 f5 fe ff ff       	jmpq   3f7d <main+0xaed>
    4088:	0f 1f 84 00 00 00 00 	nopl   0x0(%rax,%rax,1)
    408f:	00 
    4090:	4c 89 ff             	mov    %r15,%rdi
    4093:	e8 98 ef ff ff       	callq  3030 <_ZSt4endlIcSt11char_traitsIcEERSt13basic_ostreamIT_T0_ES6_@plt>
    4098:	4c 89 ff             	mov    %r15,%rdi
    409b:	e8 f0 f1 ff ff       	callq  3290 <_ZNSt14basic_ofstreamIcSt11char_traitsIcEE5closeEv@plt>
    40a0:	48 8b 85 70 fc ff ff 	mov    -0x390(%rbp),%rax
    40a7:	48 8d 78 e8          	lea    -0x18(%rax),%rdi
    40ab:	48 3b bd b8 fa ff ff 	cmp    -0x548(%rbp),%rdi
    40b2:	0f 85 81 0c 00 00    	jne    4d39 <main+0x18a9>
    40b8:	4c 89 ff             	mov    %r15,%rdi
    40bb:	e8 00 f2 ff ff       	callq  32c0 <_ZNSt14basic_ofstreamIcSt11char_traitsIcEED1Ev@plt>
    40c0:	4c 89 ff             	mov    %r15,%rdi
    40c3:	e8 b8 f2 ff ff       	callq  3380 <_ZNSt14basic_ofstreamIcSt11char_traitsIcEEC1Ev@plt>
    40c8:	4c 8b b5 a0 fa ff ff 	mov    -0x560(%rbp),%r14
    40cf:	48 8b b5 90 fa ff ff 	mov    -0x570(%rbp),%rsi
    40d6:	48 8d 15 19 d1 00 00 	lea    0xd119(%rip),%rdx        # 111f6 <_fini+0xa2>
    40dd:	4c 89 f7             	mov    %r14,%rdi
    40e0:	e8 eb 33 00 00       	callq  74d0 <_ZStplIcSt11char_traitsIcESaIcEESbIT_T0_T1_ERKS6_PKS3_>
    40e5:	48 8b 95 88 fa ff ff 	mov    -0x578(%rbp),%rdx
    40ec:	48 8b b5 70 fc ff ff 	mov    -0x390(%rbp),%rsi
    40f3:	bf 01 00 00 00       	mov    $0x1,%edi
    40f8:	e8 83 f0 ff ff       	callq  3180 <__xstat@plt>
    40fd:	ba 01 00 00 00       	mov    $0x1,%edx
    4102:	4c 89 f6             	mov    %r14,%rsi
    4105:	4c 89 ff             	mov    %r15,%rdi
    4108:	89 c3                	mov    %eax,%ebx
    410a:	e8 11 f1 ff ff       	callq  3220 <_ZNSt14basic_ofstreamIcSt11char_traitsIcEE4openERKSsSt13_Ios_Openmode@plt>
    410f:	85 db                	test   %ebx,%ebx
    4111:	0f 85 bd 0a 00 00    	jne    4bd4 <main+0x1744>
    4117:	48 8b 35 a2 fe 20 00 	mov    0x20fea2(%rip),%rsi        # 213fc0 <_DYNAMIC+0x228>
    411e:	48 8d bd 90 fb ff ff 	lea    -0x470(%rbp),%rdi
    4125:	48 8d 0d 34 d0 00 00 	lea    0xd034(%rip),%rcx        # 11160 <_fini+0xc>
    412c:	41 b8 64 00 00 00    	mov    $0x64,%r8d
    4132:	ba 10 00 00 00       	mov    $0x10,%edx
    4137:	31 c0                	xor    %eax,%eax
    4139:	e8 52 2f 00 00       	callq  7090 <_ZN9__gnu_cxx12__to_xstringISscEET_PFiPT0_mPKS2_P13__va_list_tagEmS5_z.constprop.76>
    413e:	be 20 00 00 00       	mov    $0x20,%esi
    4143:	4c 89 ff             	mov    %r15,%rdi
    4146:	e8 a5 2e 00 00       	callq  6ff0 <_ZStlsIcSt11char_traitsIcEERSt13basic_ostreamIT_T0_ES6_St8_SetfillIS3_E.constprop.77>
    414b:	48 8b 10             	mov    (%rax),%rdx
    414e:	48 8b b5 90 fb ff ff 	mov    -0x470(%rbp),%rsi
    4155:	48 89 c7             	mov    %rax,%rdi
    4158:	48 8b 52 e8          	mov    -0x18(%rdx),%rdx
    415c:	48 c7 44 10 10 06 00 	movq   $0x6,0x10(%rax,%rdx,1)
    4163:	00 00 
    4165:	48 8b 56 e8          	mov    -0x18(%rsi),%rdx
    4169:	e8 82 f0 ff ff       	callq  31f0 <_ZSt16__ostream_insertIcSt11char_traitsIcEERSt13basic_ostreamIT_T0_ES6_PKS3_l@plt>
    416e:	48 8b 85 90 fb ff ff 	mov    -0x470(%rbp),%rax
    4175:	48 8d 78 e8          	lea    -0x18(%rax),%rdi
    4179:	48 3b bd b8 fa ff ff 	cmp    -0x548(%rbp),%rdi
    4180:	0f 85 d5 0b 00 00    	jne    4d5b <main+0x18cb>
    4186:	48 8d 85 a0 fb ff ff 	lea    -0x460(%rbp),%rax
    418d:	41 be 06 00 00 00    	mov    $0x6,%r14d
    4193:	41 bd 01 00 00 00    	mov    $0x1,%r13d
    4199:	48 89 85 a8 fa ff ff 	mov    %rax,-0x558(%rbp)
    41a0:	e9 af 00 00 00       	jmpq   4254 <main+0xdc4>
    41a5:	0f 1f 00             	nopl   (%rax)
    41a8:	41 0f be 74 24 43    	movsbl 0x43(%r12),%esi
    41ae:	48 89 df             	mov    %rbx,%rdi
    41b1:	e8 aa ed ff ff       	callq  2f60 <_ZNSo3putEc@plt>
    41b6:	48 89 c7             	mov    %rax,%rdi
    41b9:	e8 d2 ee ff ff       	callq  3090 <_ZNSo5flushEv@plt>
    41be:	44 89 ef             	mov    %r13d,%edi
    41c1:	e8 4a 64 00 00       	callq  a610 <_Z9benchmarkIdLl100EEmi>
    41c6:	48 8b 35 f3 fd 20 00 	mov    0x20fdf3(%rip),%rsi        # 213fc0 <_DYNAMIC+0x228>
    41cd:	48 8b bd a8 fa ff ff 	mov    -0x558(%rbp),%rdi
    41d4:	48 8d 0d 85 cf 00 00 	lea    0xcf85(%rip),%rcx        # 11160 <_fini+0xc>
    41db:	41 89 c0             	mov    %eax,%r8d
    41de:	ba 10 00 00 00       	mov    $0x10,%edx
    41e3:	31 c0                	xor    %eax,%eax
    41e5:	e8 a6 2e 00 00       	callq  7090 <_ZN9__gnu_cxx12__to_xstringISscEET_PFiPT0_mPKS2_P13__va_list_tagEmS5_z.constprop.76>
    41ea:	48 8b 85 c0 fd ff ff 	mov    -0x240(%rbp),%rax
    41f1:	4c 89 fb             	mov    %r15,%rbx
    41f4:	48 03 58 e8          	add    -0x18(%rax),%rbx
    41f8:	80 bb e1 00 00 00 00 	cmpb   $0x0,0xe1(%rbx)
    41ff:	0f 84 eb 00 00 00    	je     42f0 <main+0xe60>
    4205:	c6 83 e0 00 00 00 20 	movb   $0x20,0xe0(%rbx)
    420c:	48 8b b5 a0 fb ff ff 	mov    -0x460(%rbp),%rsi
    4213:	4c 89 ff             	mov    %r15,%rdi
    4216:	48 8b 40 e8          	mov    -0x18(%rax),%rax
    421a:	48 c7 84 05 d0 fd ff 	movq   $0x14,-0x230(%rbp,%rax,1)
    4221:	ff 14 00 00 00 
    4226:	48 8b 56 e8          	mov    -0x18(%rsi),%rdx
    422a:	e8 c1 ef ff ff       	callq  31f0 <_ZSt16__ostream_insertIcSt11char_traitsIcEERSt13basic_ostreamIT_T0_ES6_PKS3_l@plt>
    422f:	48 8b 85 a0 fb ff ff 	mov    -0x460(%rbp),%rax
    4236:	48 8d 78 e8          	lea    -0x18(%rax),%rdi
    423a:	48 3b bd b8 fa ff ff 	cmp    -0x548(%rbp),%rdi
    4241:	0f 85 49 09 00 00    	jne    4b90 <main+0x1700>
    4247:	45 01 ed             	add    %r13d,%r13d
    424a:	41 83 ee 01          	sub    $0x1,%r14d
    424e:	0f 84 cc 00 00 00    	je     4320 <main+0xe90>
    4254:	48 8d 35 91 cf 00 00 	lea    0xcf91(%rip),%rsi        # 111ec <_fini+0x98>
    425b:	48 8d 3d fe 01 21 00 	lea    0x2101fe(%rip),%rdi        # 214460 <_ZSt4cout@@GLIBCXX_3.4>
    4262:	ba 09 00 00 00       	mov    $0x9,%edx
    4267:	e8 84 ef ff ff       	callq  31f0 <_ZSt16__ostream_insertIcSt11char_traitsIcEERSt13basic_ostreamIT_T0_ES6_PKS3_l@plt>
    426c:	48 8d 3d ed 01 21 00 	lea    0x2101ed(%rip),%rdi        # 214460 <_ZSt4cout@@GLIBCXX_3.4>
    4273:	44 89 ee             	mov    %r13d,%esi
    4276:	e8 25 f1 ff ff       	callq  33a0 <_ZNSolsEi@plt>
    427b:	48 8d 35 f4 ce 00 00 	lea    0xcef4(%rip),%rsi        # 11176 <_fini+0x22>
    4282:	ba 09 00 00 00       	mov    $0x9,%edx
    4287:	48 89 c7             	mov    %rax,%rdi
    428a:	48 89 c3             	mov    %rax,%rbx
    428d:	e8 5e ef ff ff       	callq  31f0 <_ZSt16__ostream_insertIcSt11char_traitsIcEERSt13basic_ostreamIT_T0_ES6_PKS3_l@plt>
    4292:	48 8b 03             	mov    (%rbx),%rax
    4295:	48 8b 40 e8          	mov    -0x18(%rax),%rax
    4299:	4c 8b a4 03 f0 00 00 	mov    0xf0(%rbx,%rax,1),%r12
    42a0:	00 
    42a1:	4d 85 e4             	test   %r12,%r12
    42a4:	0f 84 f5 0a 00 00    	je     4d9f <main+0x190f>
    42aa:	41 80 7c 24 38 00    	cmpb   $0x0,0x38(%r12)
    42b0:	0f 85 f2 fe ff ff    	jne    41a8 <main+0xd18>
    42b6:	4c 89 e7             	mov    %r12,%rdi
    42b9:	e8 42 ef ff ff       	callq  3200 <_ZNKSt5ctypeIcE13_M_widen_initEv@plt>
    42be:	49 8b 04 24          	mov    (%r12),%rax
    42c2:	48 8d 0d 37 12 00 00 	lea    0x1237(%rip),%rcx        # 5500 <_ZNKSt5ctypeIcE8do_widenEc>
    42c9:	be 0a 00 00 00       	mov    $0xa,%esi
    42ce:	48 8b 40 30          	mov    0x30(%rax),%rax
    42d2:	48 39 c8             	cmp    %rcx,%rax
    42d5:	0f 84 d3 fe ff ff    	je     41ae <main+0xd1e>
    42db:	4c 89 e7             	mov    %r12,%rdi
    42de:	ff d0                	callq  *%rax
    42e0:	0f be f0             	movsbl %al,%esi
    42e3:	e9 c6 fe ff ff       	jmpq   41ae <main+0xd1e>
    42e8:	0f 1f 84 00 00 00 00 	nopl   0x0(%rax,%rax,1)
    42ef:	00 
    42f0:	4c 8b a3 f0 00 00 00 	mov    0xf0(%rbx),%r12
    42f7:	4d 85 e4             	test   %r12,%r12
    42fa:	0f 84 80 0b 00 00    	je     4e80 <main+0x19f0>
    4300:	41 80 7c 24 38 00    	cmpb   $0x0,0x38(%r12)
    4306:	0f 84 84 07 00 00    	je     4a90 <main+0x1600>
    430c:	c6 83 e1 00 00 00 01 	movb   $0x1,0xe1(%rbx)
    4313:	e9 ed fe ff ff       	jmpq   4205 <main+0xd75>
    4318:	0f 1f 84 00 00 00 00 	nopl   0x0(%rax,%rax,1)
    431f:	00 
    4320:	4c 89 ff             	mov    %r15,%rdi
    4323:	e8 08 ed ff ff       	callq  3030 <_ZSt4endlIcSt11char_traitsIcEERSt13basic_ostreamIT_T0_ES6_@plt>
    4328:	48 8b 35 91 fc 20 00 	mov    0x20fc91(%rip),%rsi        # 213fc0 <_DYNAMIC+0x228>
    432f:	48 8d bd b0 fb ff ff 	lea    -0x450(%rbp),%rdi
    4336:	48 8d 0d 23 ce 00 00 	lea    0xce23(%rip),%rcx        # 11160 <_fini+0xc>
    433d:	41 b8 f4 01 00 00    	mov    $0x1f4,%r8d
    4343:	ba 10 00 00 00       	mov    $0x10,%edx
    4348:	31 c0                	xor    %eax,%eax
    434a:	e8 41 2d 00 00       	callq  7090 <_ZN9__gnu_cxx12__to_xstringISscEET_PFiPT0_mPKS2_P13__va_list_tagEmS5_z.constprop.76>
    434f:	be 20 00 00 00       	mov    $0x20,%esi
    4354:	4c 89 ff             	mov    %r15,%rdi
    4357:	e8 94 2c 00 00       	callq  6ff0 <_ZStlsIcSt11char_traitsIcEERSt13basic_ostreamIT_T0_ES6_St8_SetfillIS3_E.constprop.77>
    435c:	48 8b 10             	mov    (%rax),%rdx
    435f:	48 8b b5 b0 fb ff ff 	mov    -0x450(%rbp),%rsi
    4366:	48 89 c7             	mov    %rax,%rdi
    4369:	48 8b 52 e8          	mov    -0x18(%rdx),%rdx
    436d:	48 c7 44 10 10 06 00 	movq   $0x6,0x10(%rax,%rdx,1)
    4374:	00 00 
    4376:	48 8b 56 e8          	mov    -0x18(%rsi),%rdx
    437a:	e8 71 ee ff ff       	callq  31f0 <_ZSt16__ostream_insertIcSt11char_traitsIcEERSt13basic_ostreamIT_T0_ES6_PKS3_l@plt>
    437f:	48 8b 85 b0 fb ff ff 	mov    -0x450(%rbp),%rax
    4386:	48 8d 78 e8          	lea    -0x18(%rax),%rdi
    438a:	48 3b bd b8 fa ff ff 	cmp    -0x548(%rbp),%rdi
    4391:	0f 85 d5 09 00 00    	jne    4d6c <main+0x18dc>
    4397:	48 8d 85 c0 fb ff ff 	lea    -0x440(%rbp),%rax
    439e:	41 be 06 00 00 00    	mov    $0x6,%r14d
    43a4:	41 bd 01 00 00 00    	mov    $0x1,%r13d
    43aa:	48 89 85 a8 fa ff ff 	mov    %rax,-0x558(%rbp)
    43b1:	e9 b6 00 00 00       	jmpq   446c <main+0xfdc>
    43b6:	66 2e 0f 1f 84 00 00 	nopw   %cs:0x0(%rax,%rax,1)
    43bd:	00 00 00 
    43c0:	41 0f be 74 24 43    	movsbl 0x43(%r12),%esi
    43c6:	48 89 df             	mov    %rbx,%rdi
    43c9:	e8 92 eb ff ff       	callq  2f60 <_ZNSo3putEc@plt>
    43ce:	48 89 c7             	mov    %rax,%rdi
    43d1:	e8 ba ec ff ff       	callq  3090 <_ZNSo5flushEv@plt>
    43d6:	44 89 ef             	mov    %r13d,%edi
    43d9:	e8 52 69 00 00       	callq  ad30 <_Z9benchmarkIdLl500EEmi>
    43de:	48 8b 35 db fb 20 00 	mov    0x20fbdb(%rip),%rsi        # 213fc0 <_DYNAMIC+0x228>
    43e5:	48 8b bd a8 fa ff ff 	mov    -0x558(%rbp),%rdi
    43ec:	48 8d 0d 6d cd 00 00 	lea    0xcd6d(%rip),%rcx        # 11160 <_fini+0xc>
    43f3:	41 89 c0             	mov    %eax,%r8d
    43f6:	ba 10 00 00 00       	mov    $0x10,%edx
    43fb:	31 c0                	xor    %eax,%eax
    43fd:	e8 8e 2c 00 00       	callq  7090 <_ZN9__gnu_cxx12__to_xstringISscEET_PFiPT0_mPKS2_P13__va_list_tagEmS5_z.constprop.76>
    4402:	48 8b 85 c0 fd ff ff 	mov    -0x240(%rbp),%rax
    4409:	4c 89 fb             	mov    %r15,%rbx
    440c:	48 03 58 e8          	add    -0x18(%rax),%rbx
    4410:	80 bb e1 00 00 00 00 	cmpb   $0x0,0xe1(%rbx)
    4417:	0f 84 e3 00 00 00    	je     4500 <main+0x1070>
    441d:	c6 83 e0 00 00 00 20 	movb   $0x20,0xe0(%rbx)
    4424:	48 8b b5 c0 fb ff ff 	mov    -0x440(%rbp),%rsi
    442b:	4c 89 ff             	mov    %r15,%rdi
    442e:	48 8b 40 e8          	mov    -0x18(%rax),%rax
    4432:	48 c7 84 05 d0 fd ff 	movq   $0x14,-0x230(%rbp,%rax,1)
    4439:	ff 14 00 00 00 
    443e:	48 8b 56 e8          	mov    -0x18(%rsi),%rdx
    4442:	e8 a9 ed ff ff       	callq  31f0 <_ZSt16__ostream_insertIcSt11char_traitsIcEERSt13basic_ostreamIT_T0_ES6_PKS3_l@plt>
    4447:	48 8b 85 c0 fb ff ff 	mov    -0x440(%rbp),%rax
    444e:	48 8d 78 e8          	lea    -0x18(%rax),%rdi
    4452:	48 3b bd b8 fa ff ff 	cmp    -0x548(%rbp),%rdi
    4459:	0f 85 42 07 00 00    	jne    4ba1 <main+0x1711>
    445f:	45 01 ed             	add    %r13d,%r13d
    4462:	41 83 ee 01          	sub    $0x1,%r14d
    4466:	0f 84 c4 00 00 00    	je     4530 <main+0x10a0>
    446c:	48 8d 35 79 cd 00 00 	lea    0xcd79(%rip),%rsi        # 111ec <_fini+0x98>
    4473:	48 8d 3d e6 ff 20 00 	lea    0x20ffe6(%rip),%rdi        # 214460 <_ZSt4cout@@GLIBCXX_3.4>
    447a:	ba 09 00 00 00       	mov    $0x9,%edx
    447f:	e8 6c ed ff ff       	callq  31f0 <_ZSt16__ostream_insertIcSt11char_traitsIcEERSt13basic_ostreamIT_T0_ES6_PKS3_l@plt>
    4484:	48 8d 3d d5 ff 20 00 	lea    0x20ffd5(%rip),%rdi        # 214460 <_ZSt4cout@@GLIBCXX_3.4>
    448b:	44 89 ee             	mov    %r13d,%esi
    448e:	e8 0d ef ff ff       	callq  33a0 <_ZNSolsEi@plt>
    4493:	48 8d 35 dc cc 00 00 	lea    0xccdc(%rip),%rsi        # 11176 <_fini+0x22>
    449a:	ba 09 00 00 00       	mov    $0x9,%edx
    449f:	48 89 c7             	mov    %rax,%rdi
    44a2:	48 89 c3             	mov    %rax,%rbx
    44a5:	e8 46 ed ff ff       	callq  31f0 <_ZSt16__ostream_insertIcSt11char_traitsIcEERSt13basic_ostreamIT_T0_ES6_PKS3_l@plt>
    44aa:	48 8b 03             	mov    (%rbx),%rax
    44ad:	48 8b 40 e8          	mov    -0x18(%rax),%rax
    44b1:	4c 8b a4 03 f0 00 00 	mov    0xf0(%rbx,%rax,1),%r12
    44b8:	00 
    44b9:	4d 85 e4             	test   %r12,%r12
    44bc:	0f 84 52 09 00 00    	je     4e14 <main+0x1984>
    44c2:	41 80 7c 24 38 00    	cmpb   $0x0,0x38(%r12)
    44c8:	0f 85 f2 fe ff ff    	jne    43c0 <main+0xf30>
    44ce:	4c 89 e7             	mov    %r12,%rdi
    44d1:	e8 2a ed ff ff       	callq  3200 <_ZNKSt5ctypeIcE13_M_widen_initEv@plt>
    44d6:	49 8b 04 24          	mov    (%r12),%rax
    44da:	48 8d 0d 1f 10 00 00 	lea    0x101f(%rip),%rcx        # 5500 <_ZNKSt5ctypeIcE8do_widenEc>
    44e1:	be 0a 00 00 00       	mov    $0xa,%esi
    44e6:	48 8b 40 30          	mov    0x30(%rax),%rax
    44ea:	48 39 c8             	cmp    %rcx,%rax
    44ed:	0f 84 d3 fe ff ff    	je     43c6 <main+0xf36>
    44f3:	4c 89 e7             	mov    %r12,%rdi
    44f6:	ff d0                	callq  *%rax
    44f8:	0f be f0             	movsbl %al,%esi
    44fb:	e9 c6 fe ff ff       	jmpq   43c6 <main+0xf36>
    4500:	4c 8b a3 f0 00 00 00 	mov    0xf0(%rbx),%r12
    4507:	4d 85 e4             	test   %r12,%r12
    450a:	0f 84 92 09 00 00    	je     4ea2 <main+0x1a12>
    4510:	41 80 7c 24 38 00    	cmpb   $0x0,0x38(%r12)
    4516:	0f 84 a4 05 00 00    	je     4ac0 <main+0x1630>
    451c:	c6 83 e1 00 00 00 01 	movb   $0x1,0xe1(%rbx)
    4523:	e9 f5 fe ff ff       	jmpq   441d <main+0xf8d>
    4528:	0f 1f 84 00 00 00 00 	nopl   0x0(%rax,%rax,1)
    452f:	00 
    4530:	4c 89 ff             	mov    %r15,%rdi
    4533:	e8 f8 ea ff ff       	callq  3030 <_ZSt4endlIcSt11char_traitsIcEERSt13basic_ostreamIT_T0_ES6_@plt>
    4538:	48 8b 35 81 fa 20 00 	mov    0x20fa81(%rip),%rsi        # 213fc0 <_DYNAMIC+0x228>
    453f:	48 8d bd d0 fb ff ff 	lea    -0x430(%rbp),%rdi
    4546:	48 8d 0d 13 cc 00 00 	lea    0xcc13(%rip),%rcx        # 11160 <_fini+0xc>
    454d:	41 b8 e8 03 00 00    	mov    $0x3e8,%r8d
    4553:	ba 10 00 00 00       	mov    $0x10,%edx
    4558:	31 c0                	xor    %eax,%eax
    455a:	e8 31 2b 00 00       	callq  7090 <_ZN9__gnu_cxx12__to_xstringISscEET_PFiPT0_mPKS2_P13__va_list_tagEmS5_z.constprop.76>
    455f:	be 20 00 00 00       	mov    $0x20,%esi
    4564:	4c 89 ff             	mov    %r15,%rdi
    4567:	e8 84 2a 00 00       	callq  6ff0 <_ZStlsIcSt11char_traitsIcEERSt13basic_ostreamIT_T0_ES6_St8_SetfillIS3_E.constprop.77>
    456c:	48 8b 10             	mov    (%rax),%rdx
    456f:	48 8b b5 d0 fb ff ff 	mov    -0x430(%rbp),%rsi
    4576:	48 89 c7             	mov    %rax,%rdi
    4579:	48 8b 52 e8          	mov    -0x18(%rdx),%rdx
    457d:	48 c7 44 10 10 06 00 	movq   $0x6,0x10(%rax,%rdx,1)
    4584:	00 00 
    4586:	48 8b 56 e8          	mov    -0x18(%rsi),%rdx
    458a:	e8 61 ec ff ff       	callq  31f0 <_ZSt16__ostream_insertIcSt11char_traitsIcEERSt13basic_ostreamIT_T0_ES6_PKS3_l@plt>
    458f:	48 8b 85 d0 fb ff ff 	mov    -0x430(%rbp),%rax
    4596:	48 8d 78 e8          	lea    -0x18(%rax),%rdi
    459a:	48 3b bd b8 fa ff ff 	cmp    -0x548(%rbp),%rdi
    45a1:	0f 85 a3 07 00 00    	jne    4d4a <main+0x18ba>
    45a7:	48 8d 85 e0 fb ff ff 	lea    -0x420(%rbp),%rax
    45ae:	41 be 06 00 00 00    	mov    $0x6,%r14d
    45b4:	41 bd 01 00 00 00    	mov    $0x1,%r13d
    45ba:	48 89 85 a8 fa ff ff 	mov    %rax,-0x558(%rbp)
    45c1:	e9 b6 00 00 00       	jmpq   467c <main+0x11ec>
    45c6:	66 2e 0f 1f 84 00 00 	nopw   %cs:0x0(%rax,%rax,1)
    45cd:	00 00 00 
    45d0:	41 0f be 74 24 43    	movsbl 0x43(%r12),%esi
    45d6:	48 89 df             	mov    %rbx,%rdi
    45d9:	e8 82 e9 ff ff       	callq  2f60 <_ZNSo3putEc@plt>
    45de:	48 89 c7             	mov    %rax,%rdi
    45e1:	e8 aa ea ff ff       	callq  3090 <_ZNSo5flushEv@plt>
    45e6:	44 89 ef             	mov    %r13d,%edi
    45e9:	e8 62 6e 00 00       	callq  b450 <_Z9benchmarkIdLl1000EEmi>
    45ee:	48 8b 35 cb f9 20 00 	mov    0x20f9cb(%rip),%rsi        # 213fc0 <_DYNAMIC+0x228>
    45f5:	48 8b bd a8 fa ff ff 	mov    -0x558(%rbp),%rdi
    45fc:	48 8d 0d 5d cb 00 00 	lea    0xcb5d(%rip),%rcx        # 11160 <_fini+0xc>
    4603:	41 89 c0             	mov    %eax,%r8d
    4606:	ba 10 00 00 00       	mov    $0x10,%edx
    460b:	31 c0                	xor    %eax,%eax
    460d:	e8 7e 2a 00 00       	callq  7090 <_ZN9__gnu_cxx12__to_xstringISscEET_PFiPT0_mPKS2_P13__va_list_tagEmS5_z.constprop.76>
    4612:	48 8b 85 c0 fd ff ff 	mov    -0x240(%rbp),%rax
    4619:	4c 89 fb             	mov    %r15,%rbx
    461c:	48 03 58 e8          	add    -0x18(%rax),%rbx
    4620:	80 bb e1 00 00 00 00 	cmpb   $0x0,0xe1(%rbx)
    4627:	0f 84 e3 00 00 00    	je     4710 <main+0x1280>
    462d:	c6 83 e0 00 00 00 20 	movb   $0x20,0xe0(%rbx)
    4634:	48 8b b5 e0 fb ff ff 	mov    -0x420(%rbp),%rsi
    463b:	4c 89 ff             	mov    %r15,%rdi
    463e:	48 8b 40 e8          	mov    -0x18(%rax),%rax
    4642:	48 c7 84 05 d0 fd ff 	movq   $0x14,-0x230(%rbp,%rax,1)
    4649:	ff 14 00 00 00 
    464e:	48 8b 56 e8          	mov    -0x18(%rsi),%rdx
    4652:	e8 99 eb ff ff       	callq  31f0 <_ZSt16__ostream_insertIcSt11char_traitsIcEERSt13basic_ostreamIT_T0_ES6_PKS3_l@plt>
    4657:	48 8b 85 e0 fb ff ff 	mov    -0x420(%rbp),%rax
    465e:	48 8d 78 e8          	lea    -0x18(%rax),%rdi
    4662:	48 3b bd b8 fa ff ff 	cmp    -0x548(%rbp),%rdi
    4669:	0f 85 43 05 00 00    	jne    4bb2 <main+0x1722>
    466f:	45 01 ed             	add    %r13d,%r13d
    4672:	41 83 ee 01          	sub    $0x1,%r14d
    4676:	0f 84 c4 00 00 00    	je     4740 <main+0x12b0>
    467c:	48 8d 35 69 cb 00 00 	lea    0xcb69(%rip),%rsi        # 111ec <_fini+0x98>
    4683:	48 8d 3d d6 fd 20 00 	lea    0x20fdd6(%rip),%rdi        # 214460 <_ZSt4cout@@GLIBCXX_3.4>
    468a:	ba 09 00 00 00       	mov    $0x9,%edx
    468f:	e8 5c eb ff ff       	callq  31f0 <_ZSt16__ostream_insertIcSt11char_traitsIcEERSt13basic_ostreamIT_T0_ES6_PKS3_l@plt>
    4694:	48 8d 3d c5 fd 20 00 	lea    0x20fdc5(%rip),%rdi        # 214460 <_ZSt4cout@@GLIBCXX_3.4>
    469b:	44 89 ee             	mov    %r13d,%esi
    469e:	e8 fd ec ff ff       	callq  33a0 <_ZNSolsEi@plt>
    46a3:	48 8d 35 cc ca 00 00 	lea    0xcacc(%rip),%rsi        # 11176 <_fini+0x22>
    46aa:	ba 09 00 00 00       	mov    $0x9,%edx
    46af:	48 89 c7             	mov    %rax,%rdi
    46b2:	48 89 c3             	mov    %rax,%rbx
    46b5:	e8 36 eb ff ff       	callq  31f0 <_ZSt16__ostream_insertIcSt11char_traitsIcEERSt13basic_ostreamIT_T0_ES6_PKS3_l@plt>
    46ba:	48 8b 03             	mov    (%rbx),%rax
    46bd:	48 8b 40 e8          	mov    -0x18(%rax),%rax
    46c1:	4c 8b a4 03 f0 00 00 	mov    0xf0(%rbx,%rax,1),%r12
    46c8:	00 
    46c9:	4d 85 e4             	test   %r12,%r12
    46cc:	0f 84 3d 07 00 00    	je     4e0f <main+0x197f>
    46d2:	41 80 7c 24 38 00    	cmpb   $0x0,0x38(%r12)
    46d8:	0f 85 f2 fe ff ff    	jne    45d0 <main+0x1140>
    46de:	4c 89 e7             	mov    %r12,%rdi
    46e1:	e8 1a eb ff ff       	callq  3200 <_ZNKSt5ctypeIcE13_M_widen_initEv@plt>
    46e6:	49 8b 04 24          	mov    (%r12),%rax
    46ea:	48 8d 0d 0f 0e 00 00 	lea    0xe0f(%rip),%rcx        # 5500 <_ZNKSt5ctypeIcE8do_widenEc>
    46f1:	be 0a 00 00 00       	mov    $0xa,%esi
    46f6:	48 8b 40 30          	mov    0x30(%rax),%rax
    46fa:	48 39 c8             	cmp    %rcx,%rax
    46fd:	0f 84 d3 fe ff ff    	je     45d6 <main+0x1146>
    4703:	4c 89 e7             	mov    %r12,%rdi
    4706:	ff d0                	callq  *%rax
    4708:	0f be f0             	movsbl %al,%esi
    470b:	e9 c6 fe ff ff       	jmpq   45d6 <main+0x1146>
    4710:	4c 8b a3 f0 00 00 00 	mov    0xf0(%rbx),%r12
    4717:	4d 85 e4             	test   %r12,%r12
    471a:	0f 84 a4 07 00 00    	je     4ec4 <main+0x1a34>
    4720:	41 80 7c 24 38 00    	cmpb   $0x0,0x38(%r12)
    4726:	0f 84 c4 03 00 00    	je     4af0 <main+0x1660>
    472c:	c6 83 e1 00 00 00 01 	movb   $0x1,0xe1(%rbx)
    4733:	e9 f5 fe ff ff       	jmpq   462d <main+0x119d>
    4738:	0f 1f 84 00 00 00 00 	nopl   0x0(%rax,%rax,1)
    473f:	00 
    4740:	4c 89 ff             	mov    %r15,%rdi
    4743:	e8 e8 e8 ff ff       	callq  3030 <_ZSt4endlIcSt11char_traitsIcEERSt13basic_ostreamIT_T0_ES6_@plt>
    4748:	48 8b 35 71 f8 20 00 	mov    0x20f871(%rip),%rsi        # 213fc0 <_DYNAMIC+0x228>
    474f:	48 8d bd f0 fb ff ff 	lea    -0x410(%rbp),%rdi
    4756:	48 8d 0d 03 ca 00 00 	lea    0xca03(%rip),%rcx        # 11160 <_fini+0xc>
    475d:	41 b8 10 27 00 00    	mov    $0x2710,%r8d
    4763:	ba 10 00 00 00       	mov    $0x10,%edx
    4768:	31 c0                	xor    %eax,%eax
    476a:	e8 21 29 00 00       	callq  7090 <_ZN9__gnu_cxx12__to_xstringISscEET_PFiPT0_mPKS2_P13__va_list_tagEmS5_z.constprop.76>
    476f:	be 20 00 00 00       	mov    $0x20,%esi
    4774:	4c 89 ff             	mov    %r15,%rdi
    4777:	e8 74 28 00 00       	callq  6ff0 <_ZStlsIcSt11char_traitsIcEERSt13basic_ostreamIT_T0_ES6_St8_SetfillIS3_E.constprop.77>
    477c:	48 8b 10             	mov    (%rax),%rdx
    477f:	48 8b b5 f0 fb ff ff 	mov    -0x410(%rbp),%rsi
    4786:	48 89 c7             	mov    %rax,%rdi
    4789:	48 8b 52 e8          	mov    -0x18(%rdx),%rdx
    478d:	48 c7 44 10 10 06 00 	movq   $0x6,0x10(%rax,%rdx,1)
    4794:	00 00 
    4796:	48 8b 56 e8          	mov    -0x18(%rsi),%rdx
    479a:	e8 51 ea ff ff       	callq  31f0 <_ZSt16__ostream_insertIcSt11char_traitsIcEERSt13basic_ostreamIT_T0_ES6_PKS3_l@plt>
    479f:	48 8b 85 f0 fb ff ff 	mov    -0x410(%rbp),%rax
    47a6:	48 8d 78 e8          	lea    -0x18(%rax),%rdi
    47aa:	48 3b bd b8 fa ff ff 	cmp    -0x548(%rbp),%rdi
    47b1:	0f 85 d7 05 00 00    	jne    4d8e <main+0x18fe>
    47b7:	48 8d 85 00 fc ff ff 	lea    -0x400(%rbp),%rax
    47be:	41 be 06 00 00 00    	mov    $0x6,%r14d
    47c4:	41 bd 01 00 00 00    	mov    $0x1,%r13d
    47ca:	48 89 85 a8 fa ff ff 	mov    %rax,-0x558(%rbp)
    47d1:	e9 b6 00 00 00       	jmpq   488c <main+0x13fc>
    47d6:	66 2e 0f 1f 84 00 00 	nopw   %cs:0x0(%rax,%rax,1)
    47dd:	00 00 00 
    47e0:	41 0f be 74 24 43    	movsbl 0x43(%r12),%esi
    47e6:	48 89 df             	mov    %rbx,%rdi
    47e9:	e8 72 e7 ff ff       	callq  2f60 <_ZNSo3putEc@plt>
    47ee:	48 89 c7             	mov    %rax,%rdi
    47f1:	e8 9a e8 ff ff       	callq  3090 <_ZNSo5flushEv@plt>
    47f6:	44 89 ef             	mov    %r13d,%edi
    47f9:	e8 72 73 00 00       	callq  bb70 <_Z9benchmarkIdLl10000EEmi>
    47fe:	48 8b 35 bb f7 20 00 	mov    0x20f7bb(%rip),%rsi        # 213fc0 <_DYNAMIC+0x228>
    4805:	48 8b bd a8 fa ff ff 	mov    -0x558(%rbp),%rdi
    480c:	48 8d 0d 4d c9 00 00 	lea    0xc94d(%rip),%rcx        # 11160 <_fini+0xc>
    4813:	41 89 c0             	mov    %eax,%r8d
    4816:	ba 10 00 00 00       	mov    $0x10,%edx
    481b:	31 c0                	xor    %eax,%eax
    481d:	e8 6e 28 00 00       	callq  7090 <_ZN9__gnu_cxx12__to_xstringISscEET_PFiPT0_mPKS2_P13__va_list_tagEmS5_z.constprop.76>
    4822:	48 8b 85 c0 fd ff ff 	mov    -0x240(%rbp),%rax
    4829:	4c 89 fb             	mov    %r15,%rbx
    482c:	48 03 58 e8          	add    -0x18(%rax),%rbx
    4830:	80 bb e1 00 00 00 00 	cmpb   $0x0,0xe1(%rbx)
    4837:	0f 84 e3 00 00 00    	je     4920 <main+0x1490>
    483d:	c6 83 e0 00 00 00 20 	movb   $0x20,0xe0(%rbx)
    4844:	48 8b b5 00 fc ff ff 	mov    -0x400(%rbp),%rsi
    484b:	4c 89 ff             	mov    %r15,%rdi
    484e:	48 8b 40 e8          	mov    -0x18(%rax),%rax
    4852:	48 c7 84 05 d0 fd ff 	movq   $0x14,-0x230(%rbp,%rax,1)
    4859:	ff 14 00 00 00 
    485e:	48 8b 56 e8          	mov    -0x18(%rsi),%rdx
    4862:	e8 89 e9 ff ff       	callq  31f0 <_ZSt16__ostream_insertIcSt11char_traitsIcEERSt13basic_ostreamIT_T0_ES6_PKS3_l@plt>
    4867:	48 8b 85 00 fc ff ff 	mov    -0x400(%rbp),%rax
    486e:	48 8d 78 e8          	lea    -0x18(%rax),%rdi
    4872:	48 3b bd b8 fa ff ff 	cmp    -0x548(%rbp),%rdi
    4879:	0f 85 44 03 00 00    	jne    4bc3 <main+0x1733>
    487f:	45 01 ed             	add    %r13d,%r13d
    4882:	41 83 ee 01          	sub    $0x1,%r14d
    4886:	0f 84 c4 00 00 00    	je     4950 <main+0x14c0>
    488c:	48 8d 35 59 c9 00 00 	lea    0xc959(%rip),%rsi        # 111ec <_fini+0x98>
    4893:	48 8d 3d c6 fb 20 00 	lea    0x20fbc6(%rip),%rdi        # 214460 <_ZSt4cout@@GLIBCXX_3.4>
    489a:	ba 09 00 00 00       	mov    $0x9,%edx
    489f:	e8 4c e9 ff ff       	callq  31f0 <_ZSt16__ostream_insertIcSt11char_traitsIcEERSt13basic_ostreamIT_T0_ES6_PKS3_l@plt>
    48a4:	48 8d 3d b5 fb 20 00 	lea    0x20fbb5(%rip),%rdi        # 214460 <_ZSt4cout@@GLIBCXX_3.4>
    48ab:	44 89 ee             	mov    %r13d,%esi
    48ae:	e8 ed ea ff ff       	callq  33a0 <_ZNSolsEi@plt>
    48b3:	48 8d 35 bc c8 00 00 	lea    0xc8bc(%rip),%rsi        # 11176 <_fini+0x22>
    48ba:	ba 09 00 00 00       	mov    $0x9,%edx
    48bf:	48 89 c7             	mov    %rax,%rdi
    48c2:	48 89 c3             	mov    %rax,%rbx
    48c5:	e8 26 e9 ff ff       	callq  31f0 <_ZSt16__ostream_insertIcSt11char_traitsIcEERSt13basic_ostreamIT_T0_ES6_PKS3_l@plt>
    48ca:	48 8b 03             	mov    (%rbx),%rax
    48cd:	48 8b 40 e8          	mov    -0x18(%rax),%rax
    48d1:	4c 8b a4 03 f0 00 00 	mov    0xf0(%rbx,%rax,1),%r12
    48d8:	00 
    48d9:	4d 85 e4             	test   %r12,%r12
    48dc:	0f 84 28 05 00 00    	je     4e0a <main+0x197a>
    48e2:	41 80 7c 24 38 00    	cmpb   $0x0,0x38(%r12)
    48e8:	0f 85 f2 fe ff ff    	jne    47e0 <main+0x1350>
    48ee:	4c 89 e7             	mov    %r12,%rdi
    48f1:	e8 0a e9 ff ff       	callq  3200 <_ZNKSt5ctypeIcE13_M_widen_initEv@plt>
    48f6:	49 8b 04 24          	mov    (%r12),%rax
    48fa:	48 8d 0d ff 0b 00 00 	lea    0xbff(%rip),%rcx        # 5500 <_ZNKSt5ctypeIcE8do_widenEc>
    4901:	be 0a 00 00 00       	mov    $0xa,%esi
    4906:	48 8b 40 30          	mov    0x30(%rax),%rax
    490a:	48 39 c8             	cmp    %rcx,%rax
    490d:	0f 84 d3 fe ff ff    	je     47e6 <main+0x1356>
    4913:	4c 89 e7             	mov    %r12,%rdi
    4916:	ff d0                	callq  *%rax
    4918:	0f be f0             	movsbl %al,%esi
    491b:	e9 c6 fe ff ff       	jmpq   47e6 <main+0x1356>
    4920:	4c 8b a3 f0 00 00 00 	mov    0xf0(%rbx),%r12
    4927:	4d 85 e4             	test   %r12,%r12
    492a:	0f 84 b9 05 00 00    	je     4ee9 <main+0x1a59>
    4930:	41 80 7c 24 38 00    	cmpb   $0x0,0x38(%r12)
    4936:	0f 84 e4 01 00 00    	je     4b20 <main+0x1690>
    493c:	c6 83 e1 00 00 00 01 	movb   $0x1,0xe1(%rbx)
    4943:	e9 f5 fe ff ff       	jmpq   483d <main+0x13ad>
    4948:	0f 1f 84 00 00 00 00 	nopl   0x0(%rax,%rax,1)
    494f:	00 
    4950:	4c 89 ff             	mov    %r15,%rdi
    4953:	e8 d8 e6 ff ff       	callq  3030 <_ZSt4endlIcSt11char_traitsIcEERSt13basic_ostreamIT_T0_ES6_@plt>
    4958:	4c 89 ff             	mov    %r15,%rdi
    495b:	e8 30 e9 ff ff       	callq  3290 <_ZNSt14basic_ofstreamIcSt11char_traitsIcEE5closeEv@plt>
    4960:	48 8b 85 70 fc ff ff 	mov    -0x390(%rbp),%rax
    4967:	48 8d 78 e8          	lea    -0x18(%rax),%rdi
    496b:	48 3b bd b8 fa ff ff 	cmp    -0x548(%rbp),%rdi
    4972:	0f 85 05 04 00 00    	jne    4d7d <main+0x18ed>
    4978:	4c 89 ff             	mov    %r15,%rdi
    497b:	e8 40 e9 ff ff       	callq  32c0 <_ZNSt14basic_ofstreamIcSt11char_traitsIcEED1Ev@plt>
    4980:	48 8b 85 f0 fa ff ff 	mov    -0x510(%rbp),%rax
    4987:	48 8d 78 e8          	lea    -0x18(%rax),%rdi
    498b:	48 3b bd b8 fa ff ff 	cmp    -0x548(%rbp),%rdi
    4992:	0f 85 5d 02 00 00    	jne    4bf5 <main+0x1765>
    4998:	31 db                	xor    %ebx,%ebx
    499a:	48 8b bd 98 fa ff ff 	mov    -0x568(%rbp),%rdi
    49a1:	e8 aa 35 00 00       	callq  7f50 <_ZN6GetOpt9GetOpt_ppD1Ev>
    49a6:	48 8b 4d c8          	mov    -0x38(%rbp),%rcx
    49aa:	64 48 33 0c 25 28 00 	xor    %fs:0x28,%rcx
    49b1:	00 00 
    49b3:	89 d8                	mov    %ebx,%eax
    49b5:	0f 85 c0 04 00 00    	jne    4e7b <main+0x19eb>
    49bb:	48 81 c4 58 05 00 00 	add    $0x558,%rsp
    49c2:	5b                   	pop    %rbx
    49c3:	41 5c                	pop    %r12
    49c5:	41 5d                	pop    %r13
    49c7:	41 5e                	pop    %r14
    49c9:	41 5f                	pop    %r15
    49cb:	5d                   	pop    %rbp
    49cc:	c3                   	retq   
    49cd:	0f 1f 00             	nopl   (%rax)
    49d0:	4c 89 e7             	mov    %r12,%rdi
    49d3:	e8 28 e8 ff ff       	callq  3200 <_ZNKSt5ctypeIcE13_M_widen_initEv@plt>
    49d8:	49 8b 04 24          	mov    (%r12),%rax
    49dc:	48 8d 0d 1d 0b 00 00 	lea    0xb1d(%rip),%rcx        # 5500 <_ZNKSt5ctypeIcE8do_widenEc>
    49e3:	48 8b 40 30          	mov    0x30(%rax),%rax
    49e7:	48 39 c8             	cmp    %rcx,%rax
    49ea:	0f 85 27 02 00 00    	jne    4c17 <main+0x1787>
    49f0:	48 8b 85 c0 fd ff ff 	mov    -0x240(%rbp),%rax
    49f7:	e9 50 f0 ff ff       	jmpq   3a4c <main+0x5bc>
    49fc:	0f 1f 40 00          	nopl   0x0(%rax)
    4a00:	4c 89 e7             	mov    %r12,%rdi
    4a03:	e8 f8 e7 ff ff       	callq  3200 <_ZNKSt5ctypeIcE13_M_widen_initEv@plt>
    4a08:	49 8b 04 24          	mov    (%r12),%rax
    4a0c:	48 8d 0d ed 0a 00 00 	lea    0xaed(%rip),%rcx        # 5500 <_ZNKSt5ctypeIcE8do_widenEc>
    4a13:	48 8b 40 30          	mov    0x30(%rax),%rax
    4a17:	48 39 c8             	cmp    %rcx,%rax
    4a1a:	0f 85 06 02 00 00    	jne    4c26 <main+0x1796>
    4a20:	48 8b 85 c0 fd ff ff 	mov    -0x240(%rbp),%rax
    4a27:	e9 30 f2 ff ff       	jmpq   3c5c <main+0x7cc>
    4a2c:	0f 1f 40 00          	nopl   0x0(%rax)
    4a30:	4c 89 e7             	mov    %r12,%rdi
    4a33:	e8 c8 e7 ff ff       	callq  3200 <_ZNKSt5ctypeIcE13_M_widen_initEv@plt>
    4a38:	49 8b 04 24          	mov    (%r12),%rax
    4a3c:	48 8d 0d bd 0a 00 00 	lea    0xabd(%rip),%rcx        # 5500 <_ZNKSt5ctypeIcE8do_widenEc>
    4a43:	48 8b 40 30          	mov    0x30(%rax),%rax
    4a47:	48 39 c8             	cmp    %rcx,%rax
    4a4a:	0f 85 e5 01 00 00    	jne    4c35 <main+0x17a5>
    4a50:	48 8b 85 c0 fd ff ff 	mov    -0x240(%rbp),%rax
    4a57:	e9 10 f4 ff ff       	jmpq   3e6c <main+0x9dc>
    4a5c:	0f 1f 40 00          	nopl   0x0(%rax)
    4a60:	4c 89 e7             	mov    %r12,%rdi
    4a63:	e8 98 e7 ff ff       	callq  3200 <_ZNKSt5ctypeIcE13_M_widen_initEv@plt>
    4a68:	49 8b 04 24          	mov    (%r12),%rax
    4a6c:	48 8d 0d 8d 0a 00 00 	lea    0xa8d(%rip),%rcx        # 5500 <_ZNKSt5ctypeIcE8do_widenEc>
    4a73:	48 8b 40 30          	mov    0x30(%rax),%rax
    4a77:	48 39 c8             	cmp    %rcx,%rax
    4a7a:	0f 85 c4 01 00 00    	jne    4c44 <main+0x17b4>
    4a80:	48 8b 85 c0 fd ff ff 	mov    -0x240(%rbp),%rax
    4a87:	e9 f0 f5 ff ff       	jmpq   407c <main+0xbec>
    4a8c:	0f 1f 40 00          	nopl   0x0(%rax)
    4a90:	4c 89 e7             	mov    %r12,%rdi
    4a93:	e8 68 e7 ff ff       	callq  3200 <_ZNKSt5ctypeIcE13_M_widen_initEv@plt>
    4a98:	49 8b 04 24          	mov    (%r12),%rax
    4a9c:	48 8d 0d 5d 0a 00 00 	lea    0xa5d(%rip),%rcx        # 5500 <_ZNKSt5ctypeIcE8do_widenEc>
    4aa3:	48 8b 40 30          	mov    0x30(%rax),%rax
    4aa7:	48 39 c8             	cmp    %rcx,%rax
    4aaa:	0f 85 a3 01 00 00    	jne    4c53 <main+0x17c3>
    4ab0:	48 8b 85 c0 fd ff ff 	mov    -0x240(%rbp),%rax
    4ab7:	e9 50 f8 ff ff       	jmpq   430c <main+0xe7c>
    4abc:	0f 1f 40 00          	nopl   0x0(%rax)
    4ac0:	4c 89 e7             	mov    %r12,%rdi
    4ac3:	e8 38 e7 ff ff       	callq  3200 <_ZNKSt5ctypeIcE13_M_widen_initEv@plt>
    4ac8:	49 8b 04 24          	mov    (%r12),%rax
    4acc:	48 8d 0d 2d 0a 00 00 	lea    0xa2d(%rip),%rcx        # 5500 <_ZNKSt5ctypeIcE8do_widenEc>
    4ad3:	48 8b 40 30          	mov    0x30(%rax),%rax
    4ad7:	48 39 c8             	cmp    %rcx,%rax
    4ada:	0f 85 82 01 00 00    	jne    4c62 <main+0x17d2>
    4ae0:	48 8b 85 c0 fd ff ff 	mov    -0x240(%rbp),%rax
    4ae7:	e9 30 fa ff ff       	jmpq   451c <main+0x108c>
    4aec:	0f 1f 40 00          	nopl   0x0(%rax)
    4af0:	4c 89 e7             	mov    %r12,%rdi
    4af3:	e8 08 e7 ff ff       	callq  3200 <_ZNKSt5ctypeIcE13_M_widen_initEv@plt>
    4af8:	49 8b 04 24          	mov    (%r12),%rax
    4afc:	48 8d 0d fd 09 00 00 	lea    0x9fd(%rip),%rcx        # 5500 <_ZNKSt5ctypeIcE8do_widenEc>
    4b03:	48 8b 40 30          	mov    0x30(%rax),%rax
    4b07:	48 39 c8             	cmp    %rcx,%rax
    4b0a:	0f 85 61 01 00 00    	jne    4c71 <main+0x17e1>
    4b10:	48 8b 85 c0 fd ff ff 	mov    -0x240(%rbp),%rax
    4b17:	e9 10 fc ff ff       	jmpq   472c <main+0x129c>
    4b1c:	0f 1f 40 00          	nopl   0x0(%rax)
    4b20:	4c 89 e7             	mov    %r12,%rdi
    4b23:	e8 d8 e6 ff ff       	callq  3200 <_ZNKSt5ctypeIcE13_M_widen_initEv@plt>
    4b28:	49 8b 04 24          	mov    (%r12),%rax
    4b2c:	48 8d 0d cd 09 00 00 	lea    0x9cd(%rip),%rcx        # 5500 <_ZNKSt5ctypeIcE8do_widenEc>
    4b33:	48 8b 40 30          	mov    0x30(%rax),%rax
    4b37:	48 39 c8             	cmp    %rcx,%rax
    4b3a:	0f 85 40 01 00 00    	jne    4c80 <main+0x17f0>
    4b40:	48 8b 85 c0 fd ff ff 	mov    -0x240(%rbp),%rax
    4b47:	e9 f0 fd ff ff       	jmpq   493c <main+0x14ac>
    4b4c:	48 8b b5 b0 fa ff ff 	mov    -0x550(%rbp),%rsi
    4b53:	e8 58 24 00 00       	callq  6fb0 <_ZNSs4_Rep10_M_disposeERKSaIcE.part.19>
    4b58:	e9 32 ee ff ff       	jmpq   398f <main+0x4ff>
    4b5d:	48 8b b5 b0 fa ff ff 	mov    -0x550(%rbp),%rsi
    4b64:	e8 47 24 00 00       	callq  6fb0 <_ZNSs4_Rep10_M_disposeERKSaIcE.part.19>
    4b69:	e9 31 f0 ff ff       	jmpq   3b9f <main+0x70f>
    4b6e:	48 8b b5 b0 fa ff ff 	mov    -0x550(%rbp),%rsi
    4b75:	e8 36 24 00 00       	callq  6fb0 <_ZNSs4_Rep10_M_disposeERKSaIcE.part.19>
    4b7a:	e9 30 f2 ff ff       	jmpq   3daf <main+0x91f>
    4b7f:	48 8b b5 b0 fa ff ff 	mov    -0x550(%rbp),%rsi
    4b86:	e8 25 24 00 00       	callq  6fb0 <_ZNSs4_Rep10_M_disposeERKSaIcE.part.19>
    4b8b:	e9 2f f4 ff ff       	jmpq   3fbf <main+0xb2f>
    4b90:	48 8b b5 b0 fa ff ff 	mov    -0x550(%rbp),%rsi
    4b97:	e8 14 24 00 00       	callq  6fb0 <_ZNSs4_Rep10_M_disposeERKSaIcE.part.19>
    4b9c:	e9 a6 f6 ff ff       	jmpq   4247 <main+0xdb7>
    4ba1:	48 8b b5 b0 fa ff ff 	mov    -0x550(%rbp),%rsi
    4ba8:	e8 03 24 00 00       	callq  6fb0 <_ZNSs4_Rep10_M_disposeERKSaIcE.part.19>
    4bad:	e9 ad f8 ff ff       	jmpq   445f <main+0xfcf>
    4bb2:	48 8b b5 b0 fa ff ff 	mov    -0x550(%rbp),%rsi
    4bb9:	e8 f2 23 00 00       	callq  6fb0 <_ZNSs4_Rep10_M_disposeERKSaIcE.part.19>
    4bbe:	e9 ac fa ff ff       	jmpq   466f <main+0x11df>
    4bc3:	48 8b b5 b0 fa ff ff 	mov    -0x550(%rbp),%rsi
    4bca:	e8 e1 23 00 00       	callq  6fb0 <_ZNSs4_Rep10_M_disposeERKSaIcE.part.19>
    4bcf:	e9 ab fc ff ff       	jmpq   487f <main+0x13ef>
    4bd4:	48 8d 35 ad c7 00 00 	lea    0xc7ad(%rip),%rsi        # 11388 <_fini+0x234>
    4bdb:	ba 5a 00 00 00       	mov    $0x5a,%edx
    4be0:	4c 89 ff             	mov    %r15,%rdi
    4be3:	e8 08 e6 ff ff       	callq  31f0 <_ZSt16__ostream_insertIcSt11char_traitsIcEERSt13basic_ostreamIT_T0_ES6_PKS3_l@plt>
    4be8:	4c 89 ff             	mov    %r15,%rdi
    4beb:	e8 40 e4 ff ff       	callq  3030 <_ZSt4endlIcSt11char_traitsIcEERSt13basic_ostreamIT_T0_ES6_@plt>
    4bf0:	e9 22 f5 ff ff       	jmpq   4117 <main+0xc87>
    4bf5:	48 8b b5 a0 fa ff ff 	mov    -0x560(%rbp),%rsi
    4bfc:	e8 af 23 00 00       	callq  6fb0 <_ZNSs4_Rep10_M_disposeERKSaIcE.part.19>
    4c01:	e9 92 fd ff ff       	jmpq   4998 <main+0x1508>
    4c06:	48 8b b5 a0 fa ff ff 	mov    -0x560(%rbp),%rsi
    4c0d:	e8 9e 23 00 00       	callq  6fb0 <_ZNSs4_Rep10_M_disposeERKSaIcE.part.19>
    4c12:	e9 c8 eb ff ff       	jmpq   37df <main+0x34f>
    4c17:	be 20 00 00 00       	mov    $0x20,%esi
    4c1c:	4c 89 e7             	mov    %r12,%rdi
    4c1f:	ff d0                	callq  *%rax
    4c21:	e9 ca fd ff ff       	jmpq   49f0 <main+0x1560>
    4c26:	be 20 00 00 00       	mov    $0x20,%esi
    4c2b:	4c 89 e7             	mov    %r12,%rdi
    4c2e:	ff d0                	callq  *%rax
    4c30:	e9 eb fd ff ff       	jmpq   4a20 <main+0x1590>
    4c35:	be 20 00 00 00       	mov    $0x20,%esi
    4c3a:	4c 89 e7             	mov    %r12,%rdi
    4c3d:	ff d0                	callq  *%rax
    4c3f:	e9 0c fe ff ff       	jmpq   4a50 <main+0x15c0>
    4c44:	be 20 00 00 00       	mov    $0x20,%esi
    4c49:	4c 89 e7             	mov    %r12,%rdi
    4c4c:	ff d0                	callq  *%rax
    4c4e:	e9 2d fe ff ff       	jmpq   4a80 <main+0x15f0>
    4c53:	be 20 00 00 00       	mov    $0x20,%esi
    4c58:	4c 89 e7             	mov    %r12,%rdi
    4c5b:	ff d0                	callq  *%rax
    4c5d:	e9 4e fe ff ff       	jmpq   4ab0 <main+0x1620>
    4c62:	be 20 00 00 00       	mov    $0x20,%esi
    4c67:	4c 89 e7             	mov    %r12,%rdi
    4c6a:	ff d0                	callq  *%rax
    4c6c:	e9 6f fe ff ff       	jmpq   4ae0 <main+0x1650>
    4c71:	be 20 00 00 00       	mov    $0x20,%esi
    4c76:	4c 89 e7             	mov    %r12,%rdi
    4c79:	ff d0                	callq  *%rax
    4c7b:	e9 90 fe ff ff       	jmpq   4b10 <main+0x1680>
    4c80:	be 20 00 00 00       	mov    $0x20,%esi
    4c85:	4c 89 e7             	mov    %r12,%rdi
    4c88:	ff d0                	callq  *%rax
    4c8a:	e9 b1 fe ff ff       	jmpq   4b40 <main+0x16b0>
    4c8f:	48 8d b5 70 fc ff ff 	lea    -0x390(%rbp),%rsi
    4c96:	e8 15 23 00 00       	callq  6fb0 <_ZNSs4_Rep10_M_disposeERKSaIcE.part.19>
    4c9b:	e9 12 e9 ff ff       	jmpq   35b2 <main+0x122>
    4ca0:	48 8b b5 a0 fa ff ff 	mov    -0x560(%rbp),%rsi
    4ca7:	e8 04 23 00 00       	callq  6fb0 <_ZNSs4_Rep10_M_disposeERKSaIcE.part.19>
    4cac:	e9 79 ea ff ff       	jmpq   372a <main+0x29a>
    4cb1:	48 8d b5 70 fc ff ff 	lea    -0x390(%rbp),%rsi
    4cb8:	e8 f3 22 00 00       	callq  6fb0 <_ZNSs4_Rep10_M_disposeERKSaIcE.part.19>
    4cbd:	e9 d8 e8 ff ff       	jmpq   359a <main+0x10a>
    4cc2:	48 8b b5 b0 fa ff ff 	mov    -0x550(%rbp),%rsi
    4cc9:	e8 e2 22 00 00       	callq  6fb0 <_ZNSs4_Rep10_M_disposeERKSaIcE.part.19>
    4cce:	e9 f4 eb ff ff       	jmpq   38c7 <main+0x437>
    4cd3:	48 8d b5 70 fc ff ff 	lea    -0x390(%rbp),%rsi
    4cda:	e8 d1 22 00 00       	callq  6fb0 <_ZNSs4_Rep10_M_disposeERKSaIcE.part.19>
    4cdf:	e9 6a e9 ff ff       	jmpq   364e <main+0x1be>
    4ce4:	48 8d b5 70 fc ff ff 	lea    -0x390(%rbp),%rsi
    4ceb:	e8 c0 22 00 00       	callq  6fb0 <_ZNSs4_Rep10_M_disposeERKSaIcE.part.19>
    4cf0:	e9 71 e9 ff ff       	jmpq   3666 <main+0x1d6>
    4cf5:	48 8b b5 b0 fa ff ff 	mov    -0x550(%rbp),%rsi
    4cfc:	e8 af 22 00 00       	callq  6fb0 <_ZNSs4_Rep10_M_disposeERKSaIcE.part.19>
    4d01:	e9 0c ea ff ff       	jmpq   3712 <main+0x282>
    4d06:	48 8b b5 b0 fa ff ff 	mov    -0x550(%rbp),%rsi
    4d0d:	e8 9e 22 00 00       	callq  6fb0 <_ZNSs4_Rep10_M_disposeERKSaIcE.part.19>
    4d12:	e9 c0 ed ff ff       	jmpq   3ad7 <main+0x647>
    4d17:	48 8b b5 b0 fa ff ff 	mov    -0x550(%rbp),%rsi
    4d1e:	e8 8d 22 00 00       	callq  6fb0 <_ZNSs4_Rep10_M_disposeERKSaIcE.part.19>
    4d23:	e9 cf f1 ff ff       	jmpq   3ef7 <main+0xa67>
    4d28:	48 8b b5 b0 fa ff ff 	mov    -0x550(%rbp),%rsi
    4d2f:	e8 7c 22 00 00       	callq  6fb0 <_ZNSs4_Rep10_M_disposeERKSaIcE.part.19>
    4d34:	e9 ae ef ff ff       	jmpq   3ce7 <main+0x857>
    4d39:	48 8b b5 b0 fa ff ff 	mov    -0x550(%rbp),%rsi
    4d40:	e8 6b 22 00 00       	callq  6fb0 <_ZNSs4_Rep10_M_disposeERKSaIcE.part.19>
    4d45:	e9 6e f3 ff ff       	jmpq   40b8 <main+0xc28>
    4d4a:	48 8b b5 b0 fa ff ff 	mov    -0x550(%rbp),%rsi
    4d51:	e8 5a 22 00 00       	callq  6fb0 <_ZNSs4_Rep10_M_disposeERKSaIcE.part.19>
    4d56:	e9 4c f8 ff ff       	jmpq   45a7 <main+0x1117>
    4d5b:	48 8b b5 b0 fa ff ff 	mov    -0x550(%rbp),%rsi
    4d62:	e8 49 22 00 00       	callq  6fb0 <_ZNSs4_Rep10_M_disposeERKSaIcE.part.19>
    4d67:	e9 1a f4 ff ff       	jmpq   4186 <main+0xcf6>
    4d6c:	48 8b b5 b0 fa ff ff 	mov    -0x550(%rbp),%rsi
    4d73:	e8 38 22 00 00       	callq  6fb0 <_ZNSs4_Rep10_M_disposeERKSaIcE.part.19>
    4d78:	e9 1a f6 ff ff       	jmpq   4397 <main+0xf07>
    4d7d:	48 8b b5 b0 fa ff ff 	mov    -0x550(%rbp),%rsi
    4d84:	e8 27 22 00 00       	callq  6fb0 <_ZNSs4_Rep10_M_disposeERKSaIcE.part.19>
    4d89:	e9 ea fb ff ff       	jmpq   4978 <main+0x14e8>
    4d8e:	48 8b b5 b0 fa ff ff 	mov    -0x550(%rbp),%rsi
    4d95:	e8 16 22 00 00       	callq  6fb0 <_ZNSs4_Rep10_M_disposeERKSaIcE.part.19>
    4d9a:	e9 18 fa ff ff       	jmpq   47b7 <main+0x1327>
    4d9f:	e8 8c e4 ff ff       	callq  3230 <_ZSt16__throw_bad_castv@plt>
    4da4:	48 89 c3             	mov    %rax,%rbx
    4da7:	48 8b 85 70 fc ff ff 	mov    -0x390(%rbp),%rax
    4dae:	48 8d 78 e8          	lea    -0x18(%rax),%rdi
    4db2:	48 3b bd b8 fa ff ff 	cmp    -0x548(%rbp),%rdi
    4db9:	74 0c                	je     4dc7 <main+0x1937>
    4dbb:	48 8b b5 b0 fa ff ff 	mov    -0x550(%rbp),%rsi
    4dc2:	e8 e9 21 00 00       	callq  6fb0 <_ZNSs4_Rep10_M_disposeERKSaIcE.part.19>
    4dc7:	4c 89 ff             	mov    %r15,%rdi
    4dca:	e8 f1 e4 ff ff       	callq  32c0 <_ZNSt14basic_ofstreamIcSt11char_traitsIcEED1Ev@plt>
    4dcf:	48 8b 85 f0 fa ff ff 	mov    -0x510(%rbp),%rax
    4dd6:	48 8d 78 e8          	lea    -0x18(%rax),%rdi
    4dda:	48 3b bd b8 fa ff ff 	cmp    -0x548(%rbp),%rdi
    4de1:	74 0c                	je     4def <main+0x195f>
    4de3:	48 8b b5 a0 fa ff ff 	mov    -0x560(%rbp),%rsi
    4dea:	e8 c1 21 00 00       	callq  6fb0 <_ZNSs4_Rep10_M_disposeERKSaIcE.part.19>
    4def:	48 8b bd 98 fa ff ff 	mov    -0x568(%rbp),%rdi
    4df6:	e8 55 31 00 00       	callq  7f50 <_ZN6GetOpt9GetOpt_ppD1Ev>
    4dfb:	48 89 df             	mov    %rbx,%rdi
    4dfe:	e8 ad e5 ff ff       	callq  33b0 <_Unwind_Resume@plt>
    4e03:	e8 28 e4 ff ff       	callq  3230 <_ZSt16__throw_bad_castv@plt>
    4e08:	eb 9a                	jmp    4da4 <main+0x1914>
    4e0a:	e8 21 e4 ff ff       	callq  3230 <_ZSt16__throw_bad_castv@plt>
    4e0f:	e8 1c e4 ff ff       	callq  3230 <_ZSt16__throw_bad_castv@plt>
    4e14:	e8 17 e4 ff ff       	callq  3230 <_ZSt16__throw_bad_castv@plt>
    4e19:	e8 12 e4 ff ff       	callq  3230 <_ZSt16__throw_bad_castv@plt>
    4e1e:	e8 0d e4 ff ff       	callq  3230 <_ZSt16__throw_bad_castv@plt>
    4e23:	e8 08 e4 ff ff       	callq  3230 <_ZSt16__throw_bad_castv@plt>
    4e28:	e8 03 e4 ff ff       	callq  3230 <_ZSt16__throw_bad_castv@plt>
    4e2d:	48 89 c3             	mov    %rax,%rbx
    4e30:	48 8b 85 20 fb ff ff 	mov    -0x4e0(%rbp),%rax
    4e37:	48 8d 78 e8          	lea    -0x18(%rax),%rdi
    4e3b:	48 3b bd b8 fa ff ff 	cmp    -0x548(%rbp),%rdi
    4e42:	0f 84 5f ff ff ff    	je     4da7 <main+0x1917>
    4e48:	48 8b b5 b0 fa ff ff 	mov    -0x550(%rbp),%rsi
    4e4f:	e8 5c 21 00 00       	callq  6fb0 <_ZNSs4_Rep10_M_disposeERKSaIcE.part.19>
    4e54:	e9 4e ff ff ff       	jmpq   4da7 <main+0x1917>
    4e59:	e8 d2 e3 ff ff       	callq  3230 <_ZSt16__throw_bad_castv@plt>
    4e5e:	48 89 c3             	mov    %rax,%rbx
    4e61:	48 8b 85 40 fb ff ff 	mov    -0x4c0(%rbp),%rax
    4e68:	48 8d 78 e8          	lea    -0x18(%rax),%rdi
    4e6c:	48 3b bd b8 fa ff ff 	cmp    -0x548(%rbp),%rdi
    4e73:	0f 84 2e ff ff ff    	je     4da7 <main+0x1917>
    4e79:	eb cd                	jmp    4e48 <main+0x19b8>
    4e7b:	e8 40 e3 ff ff       	callq  31c0 <__stack_chk_fail@plt>
    4e80:	e8 ab e3 ff ff       	callq  3230 <_ZSt16__throw_bad_castv@plt>
    4e85:	48 89 c3             	mov    %rax,%rbx
    4e88:	48 8b 85 a0 fb ff ff 	mov    -0x460(%rbp),%rax
    4e8f:	48 8d 78 e8          	lea    -0x18(%rax),%rdi
    4e93:	48 3b bd b8 fa ff ff 	cmp    -0x548(%rbp),%rdi
    4e9a:	0f 84 07 ff ff ff    	je     4da7 <main+0x1917>
    4ea0:	eb a6                	jmp    4e48 <main+0x19b8>
    4ea2:	e8 89 e3 ff ff       	callq  3230 <_ZSt16__throw_bad_castv@plt>
    4ea7:	48 89 c3             	mov    %rax,%rbx
    4eaa:	48 8b 85 c0 fb ff ff 	mov    -0x440(%rbp),%rax
    4eb1:	48 8d 78 e8          	lea    -0x18(%rax),%rdi
    4eb5:	48 3b bd b8 fa ff ff 	cmp    -0x548(%rbp),%rdi
    4ebc:	0f 84 e5 fe ff ff    	je     4da7 <main+0x1917>
    4ec2:	eb 84                	jmp    4e48 <main+0x19b8>
    4ec4:	e8 67 e3 ff ff       	callq  3230 <_ZSt16__throw_bad_castv@plt>
    4ec9:	48 89 c3             	mov    %rax,%rbx
    4ecc:	48 8b 85 e0 fb ff ff 	mov    -0x420(%rbp),%rax
    4ed3:	48 8d 78 e8          	lea    -0x18(%rax),%rdi
    4ed7:	48 3b bd b8 fa ff ff 	cmp    -0x548(%rbp),%rdi
    4ede:	0f 84 c3 fe ff ff    	je     4da7 <main+0x1917>
    4ee4:	e9 5f ff ff ff       	jmpq   4e48 <main+0x19b8>
    4ee9:	e8 42 e3 ff ff       	callq  3230 <_ZSt16__throw_bad_castv@plt>
    4eee:	48 89 c3             	mov    %rax,%rbx
    4ef1:	48 8b 85 00 fc ff ff 	mov    -0x400(%rbp),%rax
    4ef8:	48 8d 78 e8          	lea    -0x18(%rax),%rdi
    4efc:	48 3b bd b8 fa ff ff 	cmp    -0x548(%rbp),%rdi
    4f03:	0f 84 9e fe ff ff    	je     4da7 <main+0x1917>
    4f09:	e9 3a ff ff ff       	jmpq   4e48 <main+0x19b8>
    4f0e:	e8 1d e3 ff ff       	callq  3230 <_ZSt16__throw_bad_castv@plt>
    4f13:	48 89 c3             	mov    %rax,%rbx
    4f16:	48 8b 85 80 fb ff ff 	mov    -0x480(%rbp),%rax
    4f1d:	48 8d 78 e8          	lea    -0x18(%rax),%rdi
    4f21:	48 3b bd b8 fa ff ff 	cmp    -0x548(%rbp),%rdi
    4f28:	0f 84 79 fe ff ff    	je     4da7 <main+0x1917>
    4f2e:	e9 15 ff ff ff       	jmpq   4e48 <main+0x19b8>
    4f33:	e8 f8 e2 ff ff       	callq  3230 <_ZSt16__throw_bad_castv@plt>
    4f38:	48 89 c3             	mov    %rax,%rbx
    4f3b:	48 8b 85 60 fb ff ff 	mov    -0x4a0(%rbp),%rax
    4f42:	48 8d 78 e8          	lea    -0x18(%rax),%rdi
    4f46:	48 3b bd b8 fa ff ff 	cmp    -0x548(%rbp),%rdi
    4f4d:	0f 84 54 fe ff ff    	je     4da7 <main+0x1917>
    4f53:	e9 f0 fe ff ff       	jmpq   4e48 <main+0x19b8>
    4f58:	48 89 c3             	mov    %rax,%rbx
    4f5b:	e9 67 fe ff ff       	jmpq   4dc7 <main+0x1937>
    4f60:	48 89 c3             	mov    %rax,%rbx
    4f63:	e9 67 fe ff ff       	jmpq   4dcf <main+0x193f>
    4f68:	48 89 c3             	mov    %rax,%rbx
    4f6b:	48 8b 85 00 fb ff ff 	mov    -0x500(%rbp),%rax
    4f72:	48 8d 78 e8          	lea    -0x18(%rax),%rdi
    4f76:	48 3b bd b8 fa ff ff 	cmp    -0x548(%rbp),%rdi
    4f7d:	0f 84 4c fe ff ff    	je     4dcf <main+0x193f>
    4f83:	48 8b b5 a0 fa ff ff 	mov    -0x560(%rbp),%rsi
    4f8a:	e8 21 20 00 00       	callq  6fb0 <_ZNSs4_Rep10_M_disposeERKSaIcE.part.19>
    4f8f:	e9 3b fe ff ff       	jmpq   4dcf <main+0x193f>
    4f94:	48 89 c3             	mov    %rax,%rbx
    4f97:	e9 53 fe ff ff       	jmpq   4def <main+0x195f>
    4f9c:	48 89 c3             	mov    %rax,%rbx
    4f9f:	48 8b 85 70 fb ff ff 	mov    -0x490(%rbp),%rax
    4fa6:	48 8d 78 e8          	lea    -0x18(%rax),%rdi
    4faa:	48 3b bd b8 fa ff ff 	cmp    -0x548(%rbp),%rdi
    4fb1:	0f 84 f0 fd ff ff    	je     4da7 <main+0x1917>
    4fb7:	e9 8c fe ff ff       	jmpq   4e48 <main+0x19b8>
    4fbc:	48 89 c3             	mov    %rax,%rbx
    4fbf:	48 8b 85 50 fb ff ff 	mov    -0x4b0(%rbp),%rax
    4fc6:	48 8d 78 e8          	lea    -0x18(%rax),%rdi
    4fca:	48 3b bd b8 fa ff ff 	cmp    -0x548(%rbp),%rdi
    4fd1:	0f 84 d0 fd ff ff    	je     4da7 <main+0x1917>
    4fd7:	e9 6c fe ff ff       	jmpq   4e48 <main+0x19b8>
    4fdc:	48 89 c3             	mov    %rax,%rbx
    4fdf:	48 8b 85 90 fb ff ff 	mov    -0x470(%rbp),%rax
    4fe6:	48 8d 78 e8          	lea    -0x18(%rax),%rdi
    4fea:	48 3b bd b8 fa ff ff 	cmp    -0x548(%rbp),%rdi
    4ff1:	0f 84 b0 fd ff ff    	je     4da7 <main+0x1917>
    4ff7:	e9 4c fe ff ff       	jmpq   4e48 <main+0x19b8>
    4ffc:	48 89 c3             	mov    %rax,%rbx
    4fff:	48 8b 85 f0 fb ff ff 	mov    -0x410(%rbp),%rax
    5006:	48 8d 78 e8          	lea    -0x18(%rax),%rdi
    500a:	48 3b bd b8 fa ff ff 	cmp    -0x548(%rbp),%rdi
    5011:	0f 84 90 fd ff ff    	je     4da7 <main+0x1917>
    5017:	e9 2c fe ff ff       	jmpq   4e48 <main+0x19b8>
    501c:	48 89 c3             	mov    %rax,%rbx
    501f:	48 8d 05 a2 eb 20 00 	lea    0x20eba2(%rip),%rax        # 213bc8 <_ZTVN6GetOpt12_OptionTBaseIiEE+0x10>
    5026:	49 89 d5             	mov    %rdx,%r13
    5029:	48 89 85 10 fc ff ff 	mov    %rax,-0x3f0(%rbp)
    5030:	48 8b 85 20 fc ff ff 	mov    -0x3e0(%rbp),%rax
    5037:	48 8d 78 e8          	lea    -0x18(%rax),%rdi
    503b:	48 8d 05 9e f2 20 00 	lea    0x20f29e(%rip),%rax        # 2142e0 <_ZNSs4_Rep20_S_empty_rep_storageE@@GLIBCXX_3.4>
    5042:	48 39 c7             	cmp    %rax,%rdi
    5045:	48 89 85 b8 fa ff ff 	mov    %rax,-0x548(%rbp)
    504c:	74 0c                	je     505a <main+0x1bca>
    504e:	48 8d b5 70 fc ff ff 	lea    -0x390(%rbp),%rsi
    5055:	e8 56 1f 00 00       	callq  6fb0 <_ZNSs4_Rep10_M_disposeERKSaIcE.part.19>
    505a:	48 8b 85 c0 fa ff ff 	mov    -0x540(%rbp),%rax
    5061:	48 8d 78 e8          	lea    -0x18(%rax),%rdi
    5065:	48 3b bd b8 fa ff ff 	cmp    -0x548(%rbp),%rdi
    506c:	0f 85 e5 01 00 00    	jne    5257 <main+0x1dc7>
    5072:	48 89 d8             	mov    %rbx,%rax
    5075:	4c 89 ea             	mov    %r13,%rdx
    5078:	48 83 ea 01          	sub    $0x1,%rdx
    507c:	0f 85 12 ff ff ff    	jne    4f94 <main+0x1b04>
    5082:	48 8d 0d 17 eb 20 00 	lea    0x20eb17(%rip),%rcx        # 213ba0 <_ZTVN6GetOpt8GetOptExE+0x10>
    5089:	48 89 c7             	mov    %rax,%rdi
    508c:	48 89 8d 00 fc ff ff 	mov    %rcx,-0x400(%rbp)
    5093:	e8 48 df ff ff       	callq  2fe0 <__cxa_begin_catch@plt>
    5098:	48 8d 35 74 c1 00 00 	lea    0xc174(%rip),%rsi        # 11213 <_fini+0xbf>
    509f:	48 8d 3d 5a f6 20 00 	lea    0x20f65a(%rip),%rdi        # 214700 <_ZSt4cerr@@GLIBCXX_3.4>
    50a6:	ba 12 00 00 00       	mov    $0x12,%edx
    50ab:	e8 40 e1 ff ff       	callq  31f0 <_ZSt16__ostream_insertIcSt11char_traitsIcEERSt13basic_ostreamIT_T0_ES6_PKS3_l@plt>
    50b0:	48 8d 3d 49 f6 20 00 	lea    0x20f649(%rip),%rdi        # 214700 <_ZSt4cerr@@GLIBCXX_3.4>
    50b7:	e8 74 df ff ff       	callq  3030 <_ZSt4endlIcSt11char_traitsIcEERSt13basic_ostreamIT_T0_ES6_@plt>
    50bc:	48 8d 35 63 c1 00 00 	lea    0xc163(%rip),%rsi        # 11226 <_fini+0xd2>
    50c3:	48 8d 3d 36 f6 20 00 	lea    0x20f636(%rip),%rdi        # 214700 <_ZSt4cerr@@GLIBCXX_3.4>
    50ca:	ba 07 00 00 00       	mov    $0x7,%edx
    50cf:	49 8b 1c 24          	mov    (%r12),%rbx
    50d3:	e8 18 e1 ff ff       	callq  31f0 <_ZSt16__ostream_insertIcSt11char_traitsIcEERSt13basic_ostreamIT_T0_ES6_PKS3_l@plt>
    50d8:	48 8d 3d 21 f6 20 00 	lea    0x20f621(%rip),%rdi        # 214700 <_ZSt4cerr@@GLIBCXX_3.4>
    50df:	48 89 de             	mov    %rbx,%rsi
    50e2:	e8 79 e0 ff ff       	callq  3160 <_ZStlsISt11char_traitsIcEERSt13basic_ostreamIcT_ES5_PKc@plt>
    50e7:	48 8d 35 40 c1 00 00 	lea    0xc140(%rip),%rsi        # 1122e <_fini+0xda>
    50ee:	ba 0a 00 00 00       	mov    $0xa,%edx
    50f3:	48 89 c7             	mov    %rax,%rdi
    50f6:	48 89 c3             	mov    %rax,%rbx
    50f9:	e8 f2 e0 ff ff       	callq  31f0 <_ZSt16__ostream_insertIcSt11char_traitsIcEERSt13basic_ostreamIT_T0_ES6_PKS3_l@plt>
    50fe:	48 89 df             	mov    %rbx,%rdi
    5101:	e8 2a df ff ff       	callq  3030 <_ZSt4endlIcSt11char_traitsIcEERSt13basic_ostreamIT_T0_ES6_@plt>
    5106:	48 8d 35 2c c1 00 00 	lea    0xc12c(%rip),%rsi        # 11239 <_fini+0xe5>
    510d:	48 8d 3d ec f5 20 00 	lea    0x20f5ec(%rip),%rdi        # 214700 <_ZSt4cerr@@GLIBCXX_3.4>
    5114:	ba 08 00 00 00       	mov    $0x8,%edx
    5119:	e8 d2 e0 ff ff       	callq  31f0 <_ZSt16__ostream_insertIcSt11char_traitsIcEERSt13basic_ostreamIT_T0_ES6_PKS3_l@plt>
    511e:	48 8d 3d db f5 20 00 	lea    0x20f5db(%rip),%rdi        # 214700 <_ZSt4cerr@@GLIBCXX_3.4>
    5125:	e8 06 df ff ff       	callq  3030 <_ZSt4endlIcSt11char_traitsIcEERSt13basic_ostreamIT_T0_ES6_@plt>
    512a:	48 8d 35 b7 c2 00 00 	lea    0xc2b7(%rip),%rsi        # 113e8 <_fini+0x294>
    5131:	48 8d 3d c8 f5 20 00 	lea    0x20f5c8(%rip),%rdi        # 214700 <_ZSt4cerr@@GLIBCXX_3.4>
    5138:	ba 37 00 00 00       	mov    $0x37,%edx
    513d:	e8 ae e0 ff ff       	callq  31f0 <_ZSt16__ostream_insertIcSt11char_traitsIcEERSt13basic_ostreamIT_T0_ES6_PKS3_l@plt>
    5142:	48 8d 3d b7 f5 20 00 	lea    0x20f5b7(%rip),%rdi        # 214700 <_ZSt4cerr@@GLIBCXX_3.4>
    5149:	e8 e2 de ff ff       	callq  3030 <_ZSt4endlIcSt11char_traitsIcEERSt13basic_ostreamIT_T0_ES6_@plt>
    514e:	48 8d 35 cb c2 00 00 	lea    0xc2cb(%rip),%rsi        # 11420 <_fini+0x2cc>
    5155:	48 8d 3d a4 f5 20 00 	lea    0x20f5a4(%rip),%rdi        # 214700 <_ZSt4cerr@@GLIBCXX_3.4>
    515c:	ba 32 00 00 00       	mov    $0x32,%edx
    5161:	e8 8a e0 ff ff       	callq  31f0 <_ZSt16__ostream_insertIcSt11char_traitsIcEERSt13basic_ostreamIT_T0_ES6_PKS3_l@plt>
    5166:	48 8d 3d 93 f5 20 00 	lea    0x20f593(%rip),%rdi        # 214700 <_ZSt4cerr@@GLIBCXX_3.4>
    516d:	e8 be de ff ff       	callq  3030 <_ZSt4endlIcSt11char_traitsIcEERSt13basic_ostreamIT_T0_ES6_@plt>
    5172:	48 8d 35 df c2 00 00 	lea    0xc2df(%rip),%rsi        # 11458 <_fini+0x304>
    5179:	48 8d 3d 80 f5 20 00 	lea    0x20f580(%rip),%rdi        # 214700 <_ZSt4cerr@@GLIBCXX_3.4>
    5180:	ba 30 00 00 00       	mov    $0x30,%edx
    5185:	e8 66 e0 ff ff       	callq  31f0 <_ZSt16__ostream_insertIcSt11char_traitsIcEERSt13basic_ostreamIT_T0_ES6_PKS3_l@plt>
    518a:	48 8d 3d 6f f5 20 00 	lea    0x20f56f(%rip),%rdi        # 214700 <_ZSt4cerr@@GLIBCXX_3.4>
    5191:	e8 9a de ff ff       	callq  3030 <_ZSt4endlIcSt11char_traitsIcEERSt13basic_ostreamIT_T0_ES6_@plt>
    5196:	48 8d 05 03 ea 20 00 	lea    0x20ea03(%rip),%rax        # 213ba0 <_ZTVN6GetOpt8GetOptExE+0x10>
    519d:	48 8d bd 00 fc ff ff 	lea    -0x400(%rbp),%rdi
    51a4:	83 cb ff             	or     $0xffffffff,%ebx
    51a7:	48 89 85 00 fc ff ff 	mov    %rax,-0x400(%rbp)
    51ae:	e8 0d e2 ff ff       	callq  33c0 <_ZNSt9exceptionD2Ev@plt>
    51b3:	e8 88 e1 ff ff       	callq  3340 <__cxa_end_catch@plt>
    51b8:	e9 dd f7 ff ff       	jmpq   499a <main+0x150a>
    51bd:	48 8d 0d b4 e9 20 00 	lea    0x20e9b4(%rip),%rcx        # 213b78 <_ZTVN6GetOpt7_OptionE+0x10>
    51c4:	48 89 c3             	mov    %rax,%rbx
    51c7:	48 8d 05 12 f1 20 00 	lea    0x20f112(%rip),%rax        # 2142e0 <_ZNSs4_Rep20_S_empty_rep_storageE@@GLIBCXX_3.4>
    51ce:	49 89 d5             	mov    %rdx,%r13
    51d1:	48 89 8d 10 fc ff ff 	mov    %rcx,-0x3f0(%rbp)
    51d8:	48 89 85 b8 fa ff ff 	mov    %rax,-0x548(%rbp)
    51df:	e9 76 fe ff ff       	jmpq   505a <main+0x1bca>
    51e4:	48 89 c3             	mov    %rax,%rbx
    51e7:	48 8d bd 00 fc ff ff 	lea    -0x400(%rbp),%rdi
    51ee:	48 8d 05 ab e9 20 00 	lea    0x20e9ab(%rip),%rax        # 213ba0 <_ZTVN6GetOpt8GetOptExE+0x10>
    51f5:	48 89 85 00 fc ff ff 	mov    %rax,-0x400(%rbp)
    51fc:	e8 bf e1 ff ff       	callq  33c0 <_ZNSt9exceptionD2Ev@plt>
    5201:	e8 3a e1 ff ff       	callq  3340 <__cxa_end_catch@plt>
    5206:	e9 e4 fb ff ff       	jmpq   4def <main+0x195f>
    520b:	48 89 c3             	mov    %rax,%rbx
    520e:	48 8d 05 b3 e9 20 00 	lea    0x20e9b3(%rip),%rax        # 213bc8 <_ZTVN6GetOpt12_OptionTBaseIiEE+0x10>
    5215:	49 89 d5             	mov    %rdx,%r13
    5218:	48 89 85 40 fc ff ff 	mov    %rax,-0x3c0(%rbp)
    521f:	48 8b 85 50 fc ff ff 	mov    -0x3b0(%rbp),%rax
    5226:	48 8d 78 e8          	lea    -0x18(%rax),%rdi
    522a:	48 3b bd b8 fa ff ff 	cmp    -0x548(%rbp),%rdi
    5231:	74 0c                	je     523f <main+0x1daf>
    5233:	48 8d b5 70 fc ff ff 	lea    -0x390(%rbp),%rsi
    523a:	e8 71 1d 00 00       	callq  6fb0 <_ZNSs4_Rep10_M_disposeERKSaIcE.part.19>
    523f:	48 8b 85 d0 fa ff ff 	mov    -0x530(%rbp),%rax
    5246:	48 8d 78 e8          	lea    -0x18(%rax),%rdi
    524a:	48 3b bd b8 fa ff ff 	cmp    -0x548(%rbp),%rdi
    5251:	0f 84 1b fe ff ff    	je     5072 <main+0x1be2>
    5257:	48 8d b5 70 fc ff ff 	lea    -0x390(%rbp),%rsi
    525e:	e8 4d 1d 00 00       	callq  6fb0 <_ZNSs4_Rep10_M_disposeERKSaIcE.part.19>
    5263:	e9 0a fe ff ff       	jmpq   5072 <main+0x1be2>
    5268:	48 89 c3             	mov    %rax,%rbx
    526b:	48 8d 05 86 e9 20 00 	lea    0x20e986(%rip),%rax        # 213bf8 <_ZTVN6GetOpt12_OptionTBaseIdEE+0x10>
    5272:	49 89 d5             	mov    %rdx,%r13
    5275:	48 89 85 70 fc ff ff 	mov    %rax,-0x390(%rbp)
    527c:	48 8b 85 80 fc ff ff 	mov    -0x380(%rbp),%rax
    5283:	48 8d 78 e8          	lea    -0x18(%rax),%rdi
    5287:	48 3b bd b8 fa ff ff 	cmp    -0x548(%rbp),%rdi
    528e:	74 0c                	je     529c <main+0x1e0c>
    5290:	48 8b b5 b0 fa ff ff 	mov    -0x550(%rbp),%rsi
    5297:	e8 14 1d 00 00       	callq  6fb0 <_ZNSs4_Rep10_M_disposeERKSaIcE.part.19>
    529c:	48 8b 85 e0 fa ff ff 	mov    -0x520(%rbp),%rax
    52a3:	48 8d 78 e8          	lea    -0x18(%rax),%rdi
    52a7:	48 3b bd b8 fa ff ff 	cmp    -0x548(%rbp),%rdi
    52ae:	0f 84 be fd ff ff    	je     5072 <main+0x1be2>
    52b4:	48 8b b5 b0 fa ff ff 	mov    -0x550(%rbp),%rsi
    52bb:	e8 f0 1c 00 00       	callq  6fb0 <_ZNSs4_Rep10_M_disposeERKSaIcE.part.19>
    52c0:	e9 ad fd ff ff       	jmpq   5072 <main+0x1be2>
    52c5:	e9 ae fd ff ff       	jmpq   5078 <main+0x1be8>
    52ca:	e9 99 fc ff ff       	jmpq   4f68 <main+0x1ad8>
    52cf:	48 89 c3             	mov    %rax,%rbx
    52d2:	48 8b 85 d0 fb ff ff 	mov    -0x430(%rbp),%rax
    52d9:	48 8d 78 e8          	lea    -0x18(%rax),%rdi
    52dd:	48 3b bd b8 fa ff ff 	cmp    -0x548(%rbp),%rdi
    52e4:	0f 84 bd fa ff ff    	je     4da7 <main+0x1917>
    52ea:	e9 59 fb ff ff       	jmpq   4e48 <main+0x19b8>
    52ef:	48 8d 0d 82 e8 20 00 	lea    0x20e882(%rip),%rcx        # 213b78 <_ZTVN6GetOpt7_OptionE+0x10>
    52f6:	48 89 c3             	mov    %rax,%rbx
    52f9:	49 89 d5             	mov    %rdx,%r13
    52fc:	48 89 8d 40 fc ff ff 	mov    %rcx,-0x3c0(%rbp)
    5303:	e9 37 ff ff ff       	jmpq   523f <main+0x1daf>
    5308:	48 89 c3             	mov    %rax,%rbx
    530b:	48 8b 85 30 fb ff ff 	mov    -0x4d0(%rbp),%rax
    5312:	48 8d 78 e8          	lea    -0x18(%rax),%rdi
    5316:	48 3b bd b8 fa ff ff 	cmp    -0x548(%rbp),%rdi
    531d:	0f 84 84 fa ff ff    	je     4da7 <main+0x1917>
    5323:	e9 20 fb ff ff       	jmpq   4e48 <main+0x19b8>
    5328:	48 89 c3             	mov    %rax,%rbx
    532b:	48 8b 85 b0 fb ff ff 	mov    -0x450(%rbp),%rax
    5332:	48 8d 78 e8          	lea    -0x18(%rax),%rdi
    5336:	48 3b bd b8 fa ff ff 	cmp    -0x548(%rbp),%rdi
    533d:	0f 84 64 fa ff ff    	je     4da7 <main+0x1917>
    5343:	e9 00 fb ff ff       	jmpq   4e48 <main+0x19b8>
    5348:	48 8d 0d 29 e8 20 00 	lea    0x20e829(%rip),%rcx        # 213b78 <_ZTVN6GetOpt7_OptionE+0x10>
    534f:	48 89 c3             	mov    %rax,%rbx
    5352:	49 89 d5             	mov    %rdx,%r13
    5355:	48 89 8d 70 fc ff ff 	mov    %rcx,-0x390(%rbp)
    535c:	e9 3b ff ff ff       	jmpq   529c <main+0x1e0c>
    5361:	48 89 c3             	mov    %rax,%rbx
    5364:	48 8b 85 10 fb ff ff 	mov    -0x4f0(%rbp),%rax
    536b:	48 8d 78 e8          	lea    -0x18(%rax),%rdi
    536f:	48 3b bd b8 fa ff ff 	cmp    -0x548(%rbp),%rdi
    5376:	0f 84 2b fa ff ff    	je     4da7 <main+0x1917>
    537c:	e9 c7 fa ff ff       	jmpq   4e48 <main+0x19b8>
    5381:	e9 d2 fb ff ff       	jmpq   4f58 <main+0x1ac8>
    5386:	66 2e 0f 1f 84 00 00 	nopw   %cs:0x0(%rax,%rax,1)
    538d:	00 00 00 

0000000000005390 <_GLOBAL__sub_I_steps>:
    5390:	55                   	push   %rbp
    5391:	48 89 e5             	mov    %rsp,%rbp
    5394:	48 81 ec 20 10 00 00 	sub    $0x1020,%rsp
    539b:	48 83 0c 24 00       	orq    $0x0,(%rsp)
    53a0:	48 81 c4 20 10 00 00 	add    $0x1020,%rsp
    53a7:	48 8d 3d aa f4 20 00 	lea    0x20f4aa(%rip),%rdi        # 214858 <_ZStL8__ioinit>
    53ae:	e8 4d df ff ff       	callq  3300 <_ZNSt8ios_base4InitC1Ev@plt>
    53b3:	5d                   	pop    %rbp
    53b4:	48 8b 3d 3d ec 20 00 	mov    0x20ec3d(%rip),%rdi        # 213ff8 <_DYNAMIC+0x260>
    53bb:	48 8d 15 d6 ee 20 00 	lea    0x20eed6(%rip),%rdx        # 214298 <__dso_handle>
    53c2:	48 8d 35 8f f4 20 00 	lea    0x20f48f(%rip),%rsi        # 214858 <_ZStL8__ioinit>
    53c9:	e9 52 dd ff ff       	jmpq   3120 <__cxa_atexit@plt>
    53ce:	66 90                	xchg   %ax,%ax

00000000000053d0 <_start>:
    53d0:	31 ed                	xor    %ebp,%ebp
    53d2:	49 89 d1             	mov    %rdx,%r9
    53d5:	5e                   	pop    %rsi
    53d6:	48 89 e2             	mov    %rsp,%rdx
    53d9:	48 83 e4 f0          	and    $0xfffffffffffffff0,%rsp
    53dd:	50                   	push   %rax
    53de:	54                   	push   %rsp
    53df:	4c 8d 05 6a bd 00 00 	lea    0xbd6a(%rip),%r8        # 11150 <__libc_csu_fini>
    53e6:	48 8d 0d f3 bc 00 00 	lea    0xbcf3(%rip),%rcx        # 110e0 <__libc_csu_init>
    53ed:	48 8d 3d 9c e0 ff ff 	lea    -0x1f64(%rip),%rdi        # 3490 <main>
    53f4:	e8 e7 df ff ff       	callq  33e0 <__libc_start_main@plt>
    53f9:	f4                   	hlt    
    53fa:	66 0f 1f 44 00 00    	nopw   0x0(%rax,%rax,1)

0000000000005400 <deregister_tm_clones>:
    5400:	48 8d 3d b1 ee 20 00 	lea    0x20eeb1(%rip),%rdi        # 2142b8 <__TMC_END__>
    5407:	48 8d 05 b1 ee 20 00 	lea    0x20eeb1(%rip),%rax        # 2142bf <__TMC_END__+0x7>
    540e:	55                   	push   %rbp
    540f:	48 29 f8             	sub    %rdi,%rax
    5412:	48 89 e5             	mov    %rsp,%rbp
    5415:	48 83 f8 0e          	cmp    $0xe,%rax
    5419:	76 15                	jbe    5430 <deregister_tm_clones+0x30>
    541b:	48 8b 05 be eb 20 00 	mov    0x20ebbe(%rip),%rax        # 213fe0 <_DYNAMIC+0x248>
    5422:	48 85 c0             	test   %rax,%rax
    5425:	74 09                	je     5430 <deregister_tm_clones+0x30>
    5427:	5d                   	pop    %rbp
    5428:	ff e0                	jmpq   *%rax
    542a:	66 0f 1f 44 00 00    	nopw   0x0(%rax,%rax,1)
    5430:	5d                   	pop    %rbp
    5431:	c3                   	retq   
    5432:	0f 1f 40 00          	nopl   0x0(%rax)
    5436:	66 2e 0f 1f 84 00 00 	nopw   %cs:0x0(%rax,%rax,1)
    543d:	00 00 00 

0000000000005440 <register_tm_clones>:
    5440:	48 8d 3d 71 ee 20 00 	lea    0x20ee71(%rip),%rdi        # 2142b8 <__TMC_END__>
    5447:	48 8d 35 6a ee 20 00 	lea    0x20ee6a(%rip),%rsi        # 2142b8 <__TMC_END__>
    544e:	55                   	push   %rbp
    544f:	48 29 fe             	sub    %rdi,%rsi
    5452:	48 89 e5             	mov    %rsp,%rbp
    5455:	48 c1 fe 03          	sar    $0x3,%rsi
    5459:	48 89 f0             	mov    %rsi,%rax
    545c:	48 c1 e8 3f          	shr    $0x3f,%rax
    5460:	48 01 c6             	add    %rax,%rsi
    5463:	48 d1 fe             	sar    %rsi
    5466:	74 18                	je     5480 <register_tm_clones+0x40>
    5468:	48 8b 05 81 eb 20 00 	mov    0x20eb81(%rip),%rax        # 213ff0 <_DYNAMIC+0x258>
    546f:	48 85 c0             	test   %rax,%rax
    5472:	74 0c                	je     5480 <register_tm_clones+0x40>
    5474:	5d                   	pop    %rbp
    5475:	ff e0                	jmpq   *%rax
    5477:	66 0f 1f 84 00 00 00 	nopw   0x0(%rax,%rax,1)
    547e:	00 00 
    5480:	5d                   	pop    %rbp
    5481:	c3                   	retq   
    5482:	0f 1f 40 00          	nopl   0x0(%rax)
    5486:	66 2e 0f 1f 84 00 00 	nopw   %cs:0x0(%rax,%rax,1)
    548d:	00 00 00 

0000000000005490 <__do_global_dtors_aux>:
    5490:	80 3d a9 f3 20 00 00 	cmpb   $0x0,0x20f3a9(%rip)        # 214840 <completed.6938>
    5497:	75 27                	jne    54c0 <__do_global_dtors_aux+0x30>
    5499:	48 83 3d 17 eb 20 00 	cmpq   $0x0,0x20eb17(%rip)        # 213fb8 <_DYNAMIC+0x220>
    54a0:	00 
    54a1:	55                   	push   %rbp
    54a2:	48 89 e5             	mov    %rsp,%rbp
    54a5:	74 0c                	je     54b3 <__do_global_dtors_aux+0x23>
    54a7:	48 8b 3d ea ed 20 00 	mov    0x20edea(%rip),%rdi        # 214298 <__dso_handle>
    54ae:	e8 3d db ff ff       	callq  2ff0 <__cxa_finalize@plt>
    54b3:	e8 48 ff ff ff       	callq  5400 <deregister_tm_clones>
    54b8:	5d                   	pop    %rbp
    54b9:	c6 05 80 f3 20 00 01 	movb   $0x1,0x20f380(%rip)        # 214840 <completed.6938>
    54c0:	f3 c3                	repz retq 
    54c2:	0f 1f 40 00          	nopl   0x0(%rax)
    54c6:	66 2e 0f 1f 84 00 00 	nopw   %cs:0x0(%rax,%rax,1)
    54cd:	00 00 00 

00000000000054d0 <frame_dummy>:
    54d0:	48 8d 3d 71 e5 20 00 	lea    0x20e571(%rip),%rdi        # 213a48 <__JCR_END__>
    54d7:	48 83 3f 00          	cmpq   $0x0,(%rdi)
    54db:	75 0b                	jne    54e8 <frame_dummy+0x18>
    54dd:	e9 5e ff ff ff       	jmpq   5440 <register_tm_clones>
    54e2:	66 0f 1f 44 00 00    	nopw   0x0(%rax,%rax,1)
    54e8:	48 8b 05 d9 ea 20 00 	mov    0x20ead9(%rip),%rax        # 213fc8 <_DYNAMIC+0x230>
    54ef:	48 85 c0             	test   %rax,%rax
    54f2:	74 e9                	je     54dd <frame_dummy+0xd>
    54f4:	55                   	push   %rbp
    54f5:	48 89 e5             	mov    %rsp,%rbp
    54f8:	ff d0                	callq  *%rax
    54fa:	5d                   	pop    %rbp
    54fb:	e9 40 ff ff ff       	jmpq   5440 <register_tm_clones>

0000000000005500 <_ZNKSt5ctypeIcE8do_widenEc>:
    5500:	55                   	push   %rbp
    5501:	89 f0                	mov    %esi,%eax
    5503:	48 89 e5             	mov    %rsp,%rbp
    5506:	5d                   	pop    %rbp
    5507:	c3                   	retq   
    5508:	0f 1f 84 00 00 00 00 	nopl   0x0(%rax,%rax,1)
    550f:	00 

0000000000005510 <_ZN10RelaxationIfLl100EEC2Effllff._omp_fn.0>:
    5510:	55                   	push   %rbp
    5511:	48 89 e5             	mov    %rsp,%rbp
    5514:	41 57                	push   %r15
    5516:	41 56                	push   %r14
    5518:	41 55                	push   %r13
    551a:	41 54                	push   %r12
    551c:	53                   	push   %rbx
    551d:	48 81 ec 38 10 00 00 	sub    $0x1038,%rsp
    5524:	48 83 0c 24 00       	orq    $0x0,(%rsp)
    5529:	48 81 c4 20 10 00 00 	add    $0x1020,%rsp
    5530:	49 89 fc             	mov    %rdi,%r12
    5533:	e8 b8 de ff ff       	callq  33f0 <omp_get_num_threads@plt>
    5538:	48 63 d8             	movslq %eax,%rbx
    553b:	e8 f0 dd ff ff       	callq  3330 <omp_get_thread_num@plt>
    5540:	48 63 c8             	movslq %eax,%rcx
    5543:	b8 62 00 00 00       	mov    $0x62,%eax
    5548:	48 99                	cqto   
    554a:	48 f7 fb             	idiv   %rbx
    554d:	48 39 d1             	cmp    %rdx,%rcx
    5550:	7d 06                	jge    5558 <_ZN10RelaxationIfLl100EEC2Effllff._omp_fn.0+0x48>
    5552:	48 83 c0 01          	add    $0x1,%rax
    5556:	31 d2                	xor    %edx,%edx
    5558:	48 0f af c8          	imul   %rax,%rcx
    555c:	48 01 ca             	add    %rcx,%rdx
    555f:	48 01 d0             	add    %rdx,%rax
    5562:	48 39 c2             	cmp    %rax,%rdx
    5565:	0f 8d fa 00 00 00    	jge    5665 <_ZN10RelaxationIfLl100EEC2Effllff._omp_fn.0+0x155>
    556b:	4d 8b 34 24          	mov    (%r12),%r14
    556f:	66 0f ef d2          	pxor   %xmm2,%xmm2
    5573:	48 83 c0 01          	add    $0x1,%rax
    5577:	4c 8d 7a 01          	lea    0x1(%rdx),%r15
    557b:	48 89 45 c0          	mov    %rax,-0x40(%rbp)
    557f:	49 8b 4e 28          	mov    0x28(%r14),%rcx
    5583:	0f 1f 44 00 00       	nopl   0x0(%rax,%rax,1)
    5588:	4b 8d 04 bf          	lea    (%r15,%r15,4),%rax
    558c:	41 bc 01 00 00 00    	mov    $0x1,%r12d
    5592:	48 8d 34 80          	lea    (%rax,%rax,4),%rsi
    5596:	49 89 f5             	mov    %rsi,%r13
    5599:	48 89 f3             	mov    %rsi,%rbx
    559c:	49 c1 e5 04          	shl    $0x4,%r13
    55a0:	49 01 cd             	add    %rcx,%r13
    55a3:	41 c7 45 00 00 00 00 	movl   $0x0,0x0(%r13)
    55aa:	00 
    55ab:	eb 28                	jmp    55d5 <_ZN10RelaxationIfLl100EEC2Effllff._omp_fn.0+0xc5>
    55ad:	0f 1f 00             	nopl   (%rax)
    55b0:	66 0f ef c0          	pxor   %xmm0,%xmm0
    55b4:	f3 49 0f 2a 46 20    	cvtsi2ssq 0x20(%r14),%xmm0
    55ba:	f3 43 0f 11 44 a5 00 	movss  %xmm0,0x0(%r13,%r12,4)
    55c1:	49 83 c4 01          	add    $0x1,%r12
    55c5:	49 83 fc 63          	cmp    $0x63,%r12
    55c9:	74 75                	je     5640 <_ZN10RelaxationIfLl100EEC2Effllff._omp_fn.0+0x130>
    55cb:	49 89 dd             	mov    %rbx,%r13
    55ce:	49 c1 e5 04          	shl    $0x4,%r13
    55d2:	49 01 cd             	add    %rcx,%r13
    55d5:	49 8b 56 08          	mov    0x8(%r14),%rdx
    55d9:	49 8b 46 10          	mov    0x10(%r14),%rax
    55dd:	66 0f ef c9          	pxor   %xmm1,%xmm1
    55e1:	4c 29 fa             	sub    %r15,%rdx
    55e4:	4c 29 e0             	sub    %r12,%rax
    55e7:	48 0f af d2          	imul   %rdx,%rdx
    55eb:	48 0f af c0          	imul   %rax,%rax
    55ef:	48 01 d0             	add    %rdx,%rax
    55f2:	f2 48 0f 2a c8       	cvtsi2sd %rax,%xmm1
    55f7:	f2 0f 51 c1          	sqrtsd %xmm1,%xmm0
    55fb:	66 0f 2e c0          	ucomisd %xmm0,%xmm0
    55ff:	7a 1f                	jp     5620 <_ZN10RelaxationIfLl100EEC2Effllff._omp_fn.0+0x110>
    5601:	66 0f ef c9          	pxor   %xmm1,%xmm1
    5605:	f2 0f 5a c0          	cvtsd2ss %xmm0,%xmm0
    5609:	f3 49 0f 2a 4e 18    	cvtsi2ssq 0x18(%r14),%xmm1
    560f:	0f 2e c8             	ucomiss %xmm0,%xmm1
    5612:	77 9c                	ja     55b0 <_ZN10RelaxationIfLl100EEC2Effllff._omp_fn.0+0xa0>
    5614:	0f 28 c2             	movaps %xmm2,%xmm0
    5617:	eb a1                	jmp    55ba <_ZN10RelaxationIfLl100EEC2Effllff._omp_fn.0+0xaa>
    5619:	0f 1f 80 00 00 00 00 	nopl   0x0(%rax)
    5620:	66 0f 28 c1          	movapd %xmm1,%xmm0
    5624:	f3 0f 11 55 cc       	movss  %xmm2,-0x34(%rbp)
    5629:	e8 92 da ff ff       	callq  30c0 <sqrt@plt>
    562e:	49 8b 4e 28          	mov    0x28(%r14),%rcx
    5632:	f3 0f 10 55 cc       	movss  -0x34(%rbp),%xmm2
    5637:	eb c8                	jmp    5601 <_ZN10RelaxationIfLl100EEC2Effllff._omp_fn.0+0xf1>
    5639:	0f 1f 80 00 00 00 00 	nopl   0x0(%rax)
    5640:	4b 8d 04 bf          	lea    (%r15,%r15,4),%rax
    5644:	49 83 c7 01          	add    $0x1,%r15
    5648:	48 8d 04 80          	lea    (%rax,%rax,4),%rax
    564c:	48 c1 e0 04          	shl    $0x4,%rax
    5650:	4c 3b 7d c0          	cmp    -0x40(%rbp),%r15
    5654:	c7 84 01 8c 01 00 00 	movl   $0x0,0x18c(%rcx,%rax,1)
    565b:	00 00 00 00 
    565f:	0f 85 23 ff ff ff    	jne    5588 <_ZN10RelaxationIfLl100EEC2Effllff._omp_fn.0+0x78>
    5665:	48 83 c4 18          	add    $0x18,%rsp
    5669:	5b                   	pop    %rbx
    566a:	41 5c                	pop    %r12
    566c:	41 5d                	pop    %r13
    566e:	41 5e                	pop    %r14
    5670:	41 5f                	pop    %r15
    5672:	5d                   	pop    %rbp
    5673:	c3                   	retq   
    5674:	66 2e 0f 1f 84 00 00 	nopw   %cs:0x0(%rax,%rax,1)
    567b:	00 00 00 
    567e:	66 90                	xchg   %ax,%ax

0000000000005680 <_ZN10RelaxationIfLl100EE7iterateEv._omp_fn.1>:
    5680:	55                   	push   %rbp
    5681:	48 89 e5             	mov    %rsp,%rbp
    5684:	41 57                	push   %r15
    5686:	41 56                	push   %r14
    5688:	41 55                	push   %r13
    568a:	41 54                	push   %r12
    568c:	53                   	push   %rbx
    568d:	48 81 ec 58 10 00 00 	sub    $0x1058,%rsp
    5694:	48 83 0c 24 00       	orq    $0x0,(%rsp)
    5699:	48 81 c4 20 10 00 00 	add    $0x1020,%rsp
    56a0:	48 8b 1f             	mov    (%rdi),%rbx
    56a3:	49 89 fd             	mov    %rdi,%r13
    56a6:	e8 45 dd ff ff       	callq  33f0 <omp_get_num_threads@plt>
    56ab:	4c 63 e0             	movslq %eax,%r12
    56ae:	e8 7d dc ff ff       	callq  3330 <omp_get_thread_num@plt>
    56b3:	48 63 d0             	movslq %eax,%rdx
    56b6:	b9 62 00 00 00       	mov    $0x62,%ecx
    56bb:	48 89 d0             	mov    %rdx,%rax
    56be:	48 c1 e0 05          	shl    $0x5,%rax
    56c2:	48 29 d0             	sub    %rdx,%rax
    56c5:	4c 8d 50 1f          	lea    0x1f(%rax),%r10
    56c9:	49 83 fa 62          	cmp    $0x62,%r10
    56cd:	4c 0f 4f d1          	cmovg  %rcx,%r10
    56d1:	48 83 f8 61          	cmp    $0x61,%rax
    56d5:	0f 8f 7a 01 00 00    	jg     5855 <_ZN10RelaxationIfLl100EE7iterateEv._omp_fn.1+0x1d5>
    56db:	49 8d 54 14 01       	lea    0x1(%r12,%rdx,1),%rdx
    56e0:	49 8b 7d 08          	mov    0x8(%r13),%rdi
    56e4:	4c 8d 78 01          	lea    0x1(%rax),%r15
    56e8:	48 8d 04 80          	lea    (%rax,%rax,4),%rax
    56ec:	4c 8b 5b 28          	mov    0x28(%rbx),%r11
    56f0:	4c 89 e1             	mov    %r12,%rcx
    56f3:	49 89 d6             	mov    %rdx,%r14
    56f6:	48 c1 e1 05          	shl    $0x5,%rcx
    56fa:	49 c1 e6 05          	shl    $0x5,%r14
    56fe:	48 89 7d b8          	mov    %rdi,-0x48(%rbp)
    5702:	4c 8d 2c 80          	lea    (%rax,%rax,4),%r13
    5706:	49 29 d6             	sub    %rdx,%r14
    5709:	4b 8d 14 bf          	lea    (%r15,%r15,4),%rdx
    570d:	4c 89 e0             	mov    %r12,%rax
    5710:	49 69 fc 70 30 00 00 	imul   $0x3070,%r12,%rdi
    5717:	48 f7 d8             	neg    %rax
    571a:	4c 29 e1             	sub    %r12,%rcx
    571d:	48 8d 14 92          	lea    (%rdx,%rdx,4),%rdx
    5721:	48 c1 e0 05          	shl    $0x5,%rax
    5725:	48 89 4d b0          	mov    %rcx,-0x50(%rbp)
    5729:	49 8d 44 04 e1       	lea    -0x1f(%r12,%rax,1),%rax
    572e:	66 0f ef db          	pxor   %xmm3,%xmm3
    5732:	48 c1 e2 04          	shl    $0x4,%rdx
    5736:	49 c1 e5 04          	shl    $0x4,%r13
    573a:	48 89 7d c0          	mov    %rdi,-0x40(%rbp)
    573e:	49 8d 3c 13          	lea    (%r11,%rdx,1),%rdi
    5742:	48 89 45 a8          	mov    %rax,-0x58(%rbp)
    5746:	f3 0f 10 25 7e be 00 	movss  0xbe7e(%rip),%xmm4        # 115cc <_ZTSN6GetOpt13_DefValOptionIdNS_8_OptionTIdEEEE+0x2c>
    574d:	00 
    574e:	48 89 7d c8          	mov    %rdi,-0x38(%rbp)
    5752:	48 8b 7d b8          	mov    -0x48(%rbp),%rdi
    5756:	48 8b 45 c8          	mov    -0x38(%rbp),%rax
    575a:	4d 8d a5 20 03 00 00 	lea    0x320(%r13),%r12
    5761:	4f 8d 04 2b          	lea    (%r11,%r13,1),%r8
    5765:	4d 89 f9             	mov    %r15,%r9
    5768:	4a 8d bc 2f 90 01 00 	lea    0x190(%rdi,%r13,1),%rdi
    576f:	00 
    5770:	48 89 c6             	mov    %rax,%rsi
    5773:	49 29 c4             	sub    %rax,%r12
    5776:	66 2e 0f 1f 84 00 00 	nopw   %cs:0x0(%rax,%rax,1)
    577d:	00 00 00 
    5780:	4c 01 e6             	add    %r12,%rsi
    5783:	c7 07 00 00 00 00    	movl   $0x0,(%rdi)
    5789:	49 83 c1 01          	add    $0x1,%r9
    578d:	4c 01 de             	add    %r11,%rsi
    5790:	b8 01 00 00 00       	mov    $0x1,%eax
    5795:	48 8d 96 74 fe ff ff 	lea    -0x18c(%rsi),%rdx
    579c:	eb 16                	jmp    57b4 <_ZN10RelaxationIfLl100EE7iterateEv._omp_fn.1+0x134>
    579e:	66 90                	xchg   %ax,%ax
    57a0:	f3 0f 5d d0          	minss  %xmm0,%xmm2
    57a4:	48 83 c2 04          	add    $0x4,%rdx
    57a8:	48 83 f8 63          	cmp    $0x63,%rax
    57ac:	f3 0f 11 54 87 fc    	movss  %xmm2,-0x4(%rdi,%rax,4)
    57b2:	74 4c                	je     5800 <_ZN10RelaxationIfLl100EE7iterateEv._omp_fn.1+0x180>
    57b4:	f3 0f 10 02          	movss  (%rdx),%xmm0
    57b8:	48 89 c1             	mov    %rax,%rcx
    57bb:	48 83 c0 01          	add    $0x1,%rax
    57bf:	0f 28 c8             	movaps %xmm0,%xmm1
    57c2:	f3 0f 10 13          	movss  (%rbx),%xmm2
    57c6:	f3 0f 59 cc          	mulss  %xmm4,%xmm1
    57ca:	f3 0f 58 0c 8e       	addss  (%rsi,%rcx,4),%xmm1
    57cf:	f3 41 0f 58 0c 88    	addss  (%r8,%rcx,4),%xmm1
    57d5:	f3 0f 58 4a 04       	addss  0x4(%rdx),%xmm1
    57da:	f3 0f 58 4a fc       	addss  -0x4(%rdx),%xmm1
    57df:	f3 0f 59 4b 04       	mulss  0x4(%rbx),%xmm1
    57e4:	f3 0f 58 c1          	addss  %xmm1,%xmm0
    57e8:	0f 2e d8             	ucomiss %xmm0,%xmm3
    57eb:	76 b3                	jbe    57a0 <_ZN10RelaxationIfLl100EE7iterateEv._omp_fn.1+0x120>
    57ed:	0f 28 d3             	movaps %xmm3,%xmm2
    57f0:	48 83 c2 04          	add    $0x4,%rdx
    57f4:	48 83 f8 63          	cmp    $0x63,%rax
    57f8:	f3 0f 11 54 87 fc    	movss  %xmm2,-0x4(%rdi,%rax,4)
    57fe:	75 b4                	jne    57b4 <_ZN10RelaxationIfLl100EE7iterateEv._omp_fn.1+0x134>
    5800:	c7 87 8c 01 00 00 00 	movl   $0x0,0x18c(%rdi)
    5807:	00 00 00 
    580a:	49 81 c0 90 01 00 00 	add    $0x190,%r8
    5811:	48 81 c7 90 01 00 00 	add    $0x190,%rdi
    5818:	4d 39 ca             	cmp    %r9,%r10
    581b:	0f 8d 5f ff ff ff    	jge    5780 <_ZN10RelaxationIfLl100EE7iterateEv._omp_fn.1+0x100>
    5821:	48 8b 45 b0          	mov    -0x50(%rbp),%rax
    5825:	49 83 fe 62          	cmp    $0x62,%r14
    5829:	41 ba 62 00 00 00    	mov    $0x62,%r10d
    582f:	4d 0f 4e d6          	cmovle %r14,%r10
    5833:	48 8b 7d c0          	mov    -0x40(%rbp),%rdi
    5837:	48 01 7d c8          	add    %rdi,-0x38(%rbp)
    583b:	49 01 c6             	add    %rax,%r14
    583e:	49 01 c7             	add    %rax,%r15
    5841:	48 8b 45 a8          	mov    -0x58(%rbp),%rax
    5845:	49 01 fd             	add    %rdi,%r13
    5848:	4c 01 f0             	add    %r14,%rax
    584b:	48 83 f8 61          	cmp    $0x61,%rax
    584f:	0f 8e fd fe ff ff    	jle    5752 <_ZN10RelaxationIfLl100EE7iterateEv._omp_fn.1+0xd2>
    5855:	48 83 c4 38          	add    $0x38,%rsp
    5859:	5b                   	pop    %rbx
    585a:	41 5c                	pop    %r12
    585c:	41 5d                	pop    %r13
    585e:	41 5e                	pop    %r14
    5860:	41 5f                	pop    %r15
    5862:	5d                   	pop    %rbp
    5863:	c3                   	retq   
    5864:	66 2e 0f 1f 84 00 00 	nopw   %cs:0x0(%rax,%rax,1)
    586b:	00 00 00 
    586e:	66 90                	xchg   %ax,%ax

0000000000005870 <_ZN10RelaxationIfLl500EEC2Effllff._omp_fn.2>:
    5870:	55                   	push   %rbp
    5871:	48 89 e5             	mov    %rsp,%rbp
    5874:	41 57                	push   %r15
    5876:	41 56                	push   %r14
    5878:	41 55                	push   %r13
    587a:	41 54                	push   %r12
    587c:	53                   	push   %rbx
    587d:	48 81 ec 38 10 00 00 	sub    $0x1038,%rsp
    5884:	48 83 0c 24 00       	orq    $0x0,(%rsp)
    5889:	48 81 c4 20 10 00 00 	add    $0x1020,%rsp
    5890:	49 89 fc             	mov    %rdi,%r12
    5893:	e8 58 db ff ff       	callq  33f0 <omp_get_num_threads@plt>
    5898:	48 63 d8             	movslq %eax,%rbx
    589b:	e8 90 da ff ff       	callq  3330 <omp_get_thread_num@plt>
    58a0:	48 63 c8             	movslq %eax,%rcx
    58a3:	b8 f2 01 00 00       	mov    $0x1f2,%eax
    58a8:	48 99                	cqto   
    58aa:	48 f7 fb             	idiv   %rbx
    58ad:	48 39 d1             	cmp    %rdx,%rcx
    58b0:	7d 06                	jge    58b8 <_ZN10RelaxationIfLl500EEC2Effllff._omp_fn.2+0x48>
    58b2:	48 83 c0 01          	add    $0x1,%rax
    58b6:	31 d2                	xor    %edx,%edx
    58b8:	48 0f af c8          	imul   %rax,%rcx
    58bc:	48 01 ca             	add    %rcx,%rdx
    58bf:	48 01 d0             	add    %rdx,%rax
    58c2:	48 39 c2             	cmp    %rax,%rdx
    58c5:	0f 8d e5 00 00 00    	jge    59b0 <_ZN10RelaxationIfLl500EEC2Effllff._omp_fn.2+0x140>
    58cb:	4d 8b 2c 24          	mov    (%r12),%r13
    58cf:	66 0f ef d2          	pxor   %xmm2,%xmm2
    58d3:	48 83 c0 01          	add    $0x1,%rax
    58d7:	4c 8d 7a 01          	lea    0x1(%rdx),%r15
    58db:	48 89 45 c0          	mov    %rax,-0x40(%rbp)
    58df:	49 8b 75 28          	mov    0x28(%r13),%rsi
    58e3:	0f 1f 44 00 00       	nopl   0x0(%rax,%rax,1)
    58e8:	49 69 cf d0 07 00 00 	imul   $0x7d0,%r15,%rcx
    58ef:	41 bc 01 00 00 00    	mov    $0x1,%r12d
    58f5:	4c 8d 34 0e          	lea    (%rsi,%rcx,1),%r14
    58f9:	48 89 cb             	mov    %rcx,%rbx
    58fc:	41 c7 06 00 00 00 00 	movl   $0x0,(%r14)
    5903:	eb 24                	jmp    5929 <_ZN10RelaxationIfLl500EEC2Effllff._omp_fn.2+0xb9>
    5905:	0f 1f 00             	nopl   (%rax)
    5908:	66 0f ef c0          	pxor   %xmm0,%xmm0
    590c:	f3 49 0f 2a 45 20    	cvtsi2ssq 0x20(%r13),%xmm0
    5912:	f3 43 0f 11 04 a6    	movss  %xmm0,(%r14,%r12,4)
    5918:	49 83 c4 01          	add    $0x1,%r12
    591c:	49 81 fc f3 01 00 00 	cmp    $0x1f3,%r12
    5923:	74 6b                	je     5990 <_ZN10RelaxationIfLl500EEC2Effllff._omp_fn.2+0x120>
    5925:	4c 8d 34 1e          	lea    (%rsi,%rbx,1),%r14
    5929:	49 8b 55 08          	mov    0x8(%r13),%rdx
    592d:	49 8b 45 10          	mov    0x10(%r13),%rax
    5931:	66 0f ef c9          	pxor   %xmm1,%xmm1
    5935:	4c 29 fa             	sub    %r15,%rdx
    5938:	4c 29 e0             	sub    %r12,%rax
    593b:	48 0f af d2          	imul   %rdx,%rdx
    593f:	48 0f af c0          	imul   %rax,%rax
    5943:	48 01 d0             	add    %rdx,%rax
    5946:	f2 48 0f 2a c8       	cvtsi2sd %rax,%xmm1
    594b:	f2 0f 51 c1          	sqrtsd %xmm1,%xmm0
    594f:	66 0f 2e c0          	ucomisd %xmm0,%xmm0
    5953:	7a 18                	jp     596d <_ZN10RelaxationIfLl500EEC2Effllff._omp_fn.2+0xfd>
    5955:	66 0f ef c9          	pxor   %xmm1,%xmm1
    5959:	f2 0f 5a c0          	cvtsd2ss %xmm0,%xmm0
    595d:	f3 49 0f 2a 4d 18    	cvtsi2ssq 0x18(%r13),%xmm1
    5963:	0f 2e c8             	ucomiss %xmm0,%xmm1
    5966:	77 a0                	ja     5908 <_ZN10RelaxationIfLl500EEC2Effllff._omp_fn.2+0x98>
    5968:	0f 28 c2             	movaps %xmm2,%xmm0
    596b:	eb a5                	jmp    5912 <_ZN10RelaxationIfLl500EEC2Effllff._omp_fn.2+0xa2>
    596d:	66 0f 28 c1          	movapd %xmm1,%xmm0
    5971:	f3 0f 11 55 cc       	movss  %xmm2,-0x34(%rbp)
    5976:	e8 45 d7 ff ff       	callq  30c0 <sqrt@plt>
    597b:	49 8b 75 28          	mov    0x28(%r13),%rsi
    597f:	f3 0f 10 55 cc       	movss  -0x34(%rbp),%xmm2
    5984:	eb cf                	jmp    5955 <_ZN10RelaxationIfLl500EEC2Effllff._omp_fn.2+0xe5>
    5986:	66 2e 0f 1f 84 00 00 	nopw   %cs:0x0(%rax,%rax,1)
    598d:	00 00 00 
    5990:	49 69 c7 d0 07 00 00 	imul   $0x7d0,%r15,%rax
    5997:	49 83 c7 01          	add    $0x1,%r15
    599b:	4c 3b 7d c0          	cmp    -0x40(%rbp),%r15
    599f:	c7 84 06 cc 07 00 00 	movl   $0x0,0x7cc(%rsi,%rax,1)
    59a6:	00 00 00 00 
    59aa:	0f 85 38 ff ff ff    	jne    58e8 <_ZN10RelaxationIfLl500EEC2Effllff._omp_fn.2+0x78>
    59b0:	48 83 c4 18          	add    $0x18,%rsp
    59b4:	5b                   	pop    %rbx
    59b5:	41 5c                	pop    %r12
    59b7:	41 5d                	pop    %r13
    59b9:	41 5e                	pop    %r14
    59bb:	41 5f                	pop    %r15
    59bd:	5d                   	pop    %rbp
    59be:	c3                   	retq   
    59bf:	90                   	nop

00000000000059c0 <_ZN10RelaxationIfLl500EE7iterateEv._omp_fn.3>:
    59c0:	55                   	push   %rbp
    59c1:	48 89 e5             	mov    %rsp,%rbp
    59c4:	41 57                	push   %r15
    59c6:	41 56                	push   %r14
    59c8:	41 55                	push   %r13
    59ca:	41 54                	push   %r12
    59cc:	53                   	push   %rbx
    59cd:	48 81 ec 58 10 00 00 	sub    $0x1058,%rsp
    59d4:	48 83 0c 24 00       	orq    $0x0,(%rsp)
    59d9:	48 81 c4 20 10 00 00 	add    $0x1020,%rsp
    59e0:	48 8b 1f             	mov    (%rdi),%rbx
    59e3:	49 89 fc             	mov    %rdi,%r12
    59e6:	e8 05 da ff ff       	callq  33f0 <omp_get_num_threads@plt>
    59eb:	48 63 d0             	movslq %eax,%rdx
    59ee:	48 89 55 c8          	mov    %rdx,-0x38(%rbp)
    59f2:	e8 39 d9 ff ff       	callq  3330 <omp_get_thread_num@plt>
    59f7:	48 63 c8             	movslq %eax,%rcx
    59fa:	be f2 01 00 00       	mov    $0x1f2,%esi
    59ff:	48 89 c8             	mov    %rcx,%rax
    5a02:	48 c1 e0 05          	shl    $0x5,%rax
    5a06:	48 29 c8             	sub    %rcx,%rax
    5a09:	4c 8d 50 1f          	lea    0x1f(%rax),%r10
    5a0d:	49 81 fa f2 01 00 00 	cmp    $0x1f2,%r10
    5a14:	4c 0f 4f d6          	cmovg  %rsi,%r10
    5a18:	48 3d f1 01 00 00    	cmp    $0x1f1,%rax
    5a1e:	0f 8f 6e 01 00 00    	jg     5b92 <_ZN10RelaxationIfLl500EE7iterateEv._omp_fn.3+0x1d2>
    5a24:	48 8b 55 c8          	mov    -0x38(%rbp),%rdx
    5a28:	48 83 c0 01          	add    $0x1,%rax
    5a2c:	49 8b 74 24 08       	mov    0x8(%r12),%rsi
    5a31:	4c 69 e8 d0 07 00 00 	imul   $0x7d0,%rax,%r13
    5a38:	48 89 45 c8          	mov    %rax,-0x38(%rbp)
    5a3c:	4c 8b 63 28          	mov    0x28(%rbx),%r12
    5a40:	66 0f ef db          	pxor   %xmm3,%xmm3
    5a44:	48 89 d7             	mov    %rdx,%rdi
    5a47:	48 89 d0             	mov    %rdx,%rax
    5a4a:	48 8d 4c 0a 01       	lea    0x1(%rdx,%rcx,1),%rcx
    5a4f:	48 c1 e7 05          	shl    $0x5,%rdi
    5a53:	48 f7 d8             	neg    %rax
    5a56:	48 29 d7             	sub    %rdx,%rdi
    5a59:	48 c1 e0 05          	shl    $0x5,%rax
    5a5d:	49 89 ce             	mov    %rcx,%r14
    5a60:	48 8d 44 02 e1       	lea    -0x1f(%rdx,%rax,1),%rax
    5a65:	48 89 7d b8          	mov    %rdi,-0x48(%rbp)
    5a69:	49 c1 e6 05          	shl    $0x5,%r14
    5a6d:	48 69 fa 30 f2 00 00 	imul   $0xf230,%rdx,%rdi
    5a74:	4f 8d 3c 2c          	lea    (%r12,%r13,1),%r15
    5a78:	49 29 ce             	sub    %rcx,%r14
    5a7b:	48 89 45 b0          	mov    %rax,-0x50(%rbp)
    5a7f:	48 c7 c0 30 f8 ff ff 	mov    $0xfffffffffffff830,%rax
    5a86:	49 01 f5             	add    %rsi,%r13
    5a89:	48 29 f0             	sub    %rsi,%rax
    5a8c:	f3 0f 10 25 38 bb 00 	movss  0xbb38(%rip),%xmm4        # 115cc <_ZTSN6GetOpt13_DefValOptionIdNS_8_OptionTIdEEEE+0x2c>
    5a93:	00 
    5a94:	48 89 45 a8          	mov    %rax,-0x58(%rbp)
    5a98:	48 89 7d c0          	mov    %rdi,-0x40(%rbp)
    5a9c:	48 8b 45 a8          	mov    -0x58(%rbp),%rax
    5aa0:	4c 8b 4d c8          	mov    -0x38(%rbp),%r9
    5aa4:	4d 8d 87 30 f8 ff ff 	lea    -0x7d0(%r15),%r8
    5aab:	4c 89 fe             	mov    %r15,%rsi
    5aae:	4c 89 ef             	mov    %r13,%rdi
    5ab1:	4e 8d 1c 28          	lea    (%rax,%r13,1),%r11
    5ab5:	b8 a0 0f 00 00       	mov    $0xfa0,%eax
    5aba:	4c 29 f8             	sub    %r15,%rax
    5abd:	49 01 c3             	add    %rax,%r11
    5ac0:	4c 01 de             	add    %r11,%rsi
    5ac3:	c7 07 00 00 00 00    	movl   $0x0,(%rdi)
    5ac9:	49 83 c1 01          	add    $0x1,%r9
    5acd:	4c 01 e6             	add    %r12,%rsi
    5ad0:	b8 01 00 00 00       	mov    $0x1,%eax
    5ad5:	48 8d 96 34 f8 ff ff 	lea    -0x7cc(%rsi),%rdx
    5adc:	eb 18                	jmp    5af6 <_ZN10RelaxationIfLl500EE7iterateEv._omp_fn.3+0x136>
    5ade:	66 90                	xchg   %ax,%ax
    5ae0:	f3 0f 5d d0          	minss  %xmm0,%xmm2
    5ae4:	48 83 c2 04          	add    $0x4,%rdx
    5ae8:	48 3d f3 01 00 00    	cmp    $0x1f3,%rax
    5aee:	f3 0f 11 54 87 fc    	movss  %xmm2,-0x4(%rdi,%rax,4)
    5af4:	74 42                	je     5b38 <_ZN10RelaxationIfLl500EE7iterateEv._omp_fn.3+0x178>
    5af6:	f3 0f 10 02          	movss  (%rdx),%xmm0
    5afa:	48 89 c1             	mov    %rax,%rcx
    5afd:	48 83 c0 01          	add    $0x1,%rax
    5b01:	0f 28 c8             	movaps %xmm0,%xmm1
    5b04:	f3 0f 10 13          	movss  (%rbx),%xmm2
    5b08:	f3 0f 59 cc          	mulss  %xmm4,%xmm1
    5b0c:	f3 0f 58 0c 8e       	addss  (%rsi,%rcx,4),%xmm1
    5b11:	f3 41 0f 58 0c 88    	addss  (%r8,%rcx,4),%xmm1
    5b17:	f3 0f 58 4a 04       	addss  0x4(%rdx),%xmm1
    5b1c:	f3 0f 58 4a fc       	addss  -0x4(%rdx),%xmm1
    5b21:	f3 0f 59 4b 04       	mulss  0x4(%rbx),%xmm1
    5b26:	f3 0f 58 c1          	addss  %xmm1,%xmm0
    5b2a:	0f 2e d8             	ucomiss %xmm0,%xmm3
    5b2d:	76 b1                	jbe    5ae0 <_ZN10RelaxationIfLl500EE7iterateEv._omp_fn.3+0x120>
    5b2f:	0f 28 d3             	movaps %xmm3,%xmm2
    5b32:	eb b0                	jmp    5ae4 <_ZN10RelaxationIfLl500EE7iterateEv._omp_fn.3+0x124>
    5b34:	0f 1f 40 00          	nopl   0x0(%rax)
    5b38:	c7 87 cc 07 00 00 00 	movl   $0x0,0x7cc(%rdi)
    5b3f:	00 00 00 
    5b42:	49 81 c0 d0 07 00 00 	add    $0x7d0,%r8
    5b49:	48 81 c7 d0 07 00 00 	add    $0x7d0,%rdi
    5b50:	4d 39 ca             	cmp    %r9,%r10
    5b53:	0f 8d 67 ff ff ff    	jge    5ac0 <_ZN10RelaxationIfLl500EE7iterateEv._omp_fn.3+0x100>
    5b59:	48 8b 45 b8          	mov    -0x48(%rbp),%rax
    5b5d:	49 81 fe f2 01 00 00 	cmp    $0x1f2,%r14
    5b64:	41 ba f2 01 00 00    	mov    $0x1f2,%r10d
    5b6a:	4d 0f 4e d6          	cmovle %r14,%r10
    5b6e:	48 01 45 c8          	add    %rax,-0x38(%rbp)
    5b72:	49 01 c6             	add    %rax,%r14
    5b75:	48 8b 45 c0          	mov    -0x40(%rbp),%rax
    5b79:	49 01 c7             	add    %rax,%r15
    5b7c:	49 01 c5             	add    %rax,%r13
    5b7f:	48 8b 45 b0          	mov    -0x50(%rbp),%rax
    5b83:	4c 01 f0             	add    %r14,%rax
    5b86:	48 3d f1 01 00 00    	cmp    $0x1f1,%rax
    5b8c:	0f 8e 0a ff ff ff    	jle    5a9c <_ZN10RelaxationIfLl500EE7iterateEv._omp_fn.3+0xdc>
    5b92:	48 83 c4 38          	add    $0x38,%rsp
    5b96:	5b                   	pop    %rbx
    5b97:	41 5c                	pop    %r12
    5b99:	41 5d                	pop    %r13
    5b9b:	41 5e                	pop    %r14
    5b9d:	41 5f                	pop    %r15
    5b9f:	5d                   	pop    %rbp
    5ba0:	c3                   	retq   
    5ba1:	66 2e 0f 1f 84 00 00 	nopw   %cs:0x0(%rax,%rax,1)
    5ba8:	00 00 00 
    5bab:	0f 1f 44 00 00       	nopl   0x0(%rax,%rax,1)

0000000000005bb0 <_ZN10RelaxationIfLl1000EEC2Effllff._omp_fn.4>:
    5bb0:	55                   	push   %rbp
    5bb1:	48 89 e5             	mov    %rsp,%rbp
    5bb4:	41 57                	push   %r15
    5bb6:	41 56                	push   %r14
    5bb8:	41 55                	push   %r13
    5bba:	41 54                	push   %r12
    5bbc:	53                   	push   %rbx
    5bbd:	48 81 ec 38 10 00 00 	sub    $0x1038,%rsp
    5bc4:	48 83 0c 24 00       	orq    $0x0,(%rsp)
    5bc9:	48 81 c4 20 10 00 00 	add    $0x1020,%rsp
    5bd0:	49 89 fc             	mov    %rdi,%r12
    5bd3:	e8 18 d8 ff ff       	callq  33f0 <omp_get_num_threads@plt>
    5bd8:	48 63 d8             	movslq %eax,%rbx
    5bdb:	e8 50 d7 ff ff       	callq  3330 <omp_get_thread_num@plt>
    5be0:	48 63 c8             	movslq %eax,%rcx
    5be3:	b8 e6 03 00 00       	mov    $0x3e6,%eax
    5be8:	48 99                	cqto   
    5bea:	48 f7 fb             	idiv   %rbx
    5bed:	48 39 d1             	cmp    %rdx,%rcx
    5bf0:	7d 06                	jge    5bf8 <_ZN10RelaxationIfLl1000EEC2Effllff._omp_fn.4+0x48>
    5bf2:	48 83 c0 01          	add    $0x1,%rax
    5bf6:	31 d2                	xor    %edx,%edx
    5bf8:	48 0f af c8          	imul   %rax,%rcx
    5bfc:	48 01 ca             	add    %rcx,%rdx
    5bff:	48 01 d0             	add    %rdx,%rax
    5c02:	48 39 c2             	cmp    %rax,%rdx
    5c05:	0f 8d e5 00 00 00    	jge    5cf0 <_ZN10RelaxationIfLl1000EEC2Effllff._omp_fn.4+0x140>
    5c0b:	4d 8b 2c 24          	mov    (%r12),%r13
    5c0f:	66 0f ef d2          	pxor   %xmm2,%xmm2
    5c13:	48 83 c0 01          	add    $0x1,%rax
    5c17:	4c 8d 7a 01          	lea    0x1(%rdx),%r15
    5c1b:	48 89 45 c0          	mov    %rax,-0x40(%rbp)
    5c1f:	49 8b 75 28          	mov    0x28(%r13),%rsi
    5c23:	0f 1f 44 00 00       	nopl   0x0(%rax,%rax,1)
    5c28:	49 69 cf a0 0f 00 00 	imul   $0xfa0,%r15,%rcx
    5c2f:	41 bc 01 00 00 00    	mov    $0x1,%r12d
    5c35:	4c 8d 34 0e          	lea    (%rsi,%rcx,1),%r14
    5c39:	48 89 cb             	mov    %rcx,%rbx
    5c3c:	41 c7 06 00 00 00 00 	movl   $0x0,(%r14)
    5c43:	eb 24                	jmp    5c69 <_ZN10RelaxationIfLl1000EEC2Effllff._omp_fn.4+0xb9>
    5c45:	0f 1f 00             	nopl   (%rax)
    5c48:	66 0f ef c0          	pxor   %xmm0,%xmm0
    5c4c:	f3 49 0f 2a 45 20    	cvtsi2ssq 0x20(%r13),%xmm0
    5c52:	f3 43 0f 11 04 a6    	movss  %xmm0,(%r14,%r12,4)
    5c58:	49 83 c4 01          	add    $0x1,%r12
    5c5c:	49 81 fc e7 03 00 00 	cmp    $0x3e7,%r12
    5c63:	74 6b                	je     5cd0 <_ZN10RelaxationIfLl1000EEC2Effllff._omp_fn.4+0x120>
    5c65:	4c 8d 34 1e          	lea    (%rsi,%rbx,1),%r14
    5c69:	49 8b 55 08          	mov    0x8(%r13),%rdx
    5c6d:	49 8b 45 10          	mov    0x10(%r13),%rax
    5c71:	66 0f ef c9          	pxor   %xmm1,%xmm1
    5c75:	4c 29 fa             	sub    %r15,%rdx
    5c78:	4c 29 e0             	sub    %r12,%rax
    5c7b:	48 0f af d2          	imul   %rdx,%rdx
    5c7f:	48 0f af c0          	imul   %rax,%rax
    5c83:	48 01 d0             	add    %rdx,%rax
    5c86:	f2 48 0f 2a c8       	cvtsi2sd %rax,%xmm1
    5c8b:	f2 0f 51 c1          	sqrtsd %xmm1,%xmm0
    5c8f:	66 0f 2e c0          	ucomisd %xmm0,%xmm0
    5c93:	7a 18                	jp     5cad <_ZN10RelaxationIfLl1000EEC2Effllff._omp_fn.4+0xfd>
    5c95:	66 0f ef c9          	pxor   %xmm1,%xmm1
    5c99:	f2 0f 5a c0          	cvtsd2ss %xmm0,%xmm0
    5c9d:	f3 49 0f 2a 4d 18    	cvtsi2ssq 0x18(%r13),%xmm1
    5ca3:	0f 2e c8             	ucomiss %xmm0,%xmm1
    5ca6:	77 a0                	ja     5c48 <_ZN10RelaxationIfLl1000EEC2Effllff._omp_fn.4+0x98>
    5ca8:	0f 28 c2             	movaps %xmm2,%xmm0
    5cab:	eb a5                	jmp    5c52 <_ZN10RelaxationIfLl1000EEC2Effllff._omp_fn.4+0xa2>
    5cad:	66 0f 28 c1          	movapd %xmm1,%xmm0
    5cb1:	f3 0f 11 55 cc       	movss  %xmm2,-0x34(%rbp)
    5cb6:	e8 05 d4 ff ff       	callq  30c0 <sqrt@plt>
    5cbb:	49 8b 75 28          	mov    0x28(%r13),%rsi
    5cbf:	f3 0f 10 55 cc       	movss  -0x34(%rbp),%xmm2
    5cc4:	eb cf                	jmp    5c95 <_ZN10RelaxationIfLl1000EEC2Effllff._omp_fn.4+0xe5>
    5cc6:	66 2e 0f 1f 84 00 00 	nopw   %cs:0x0(%rax,%rax,1)
    5ccd:	00 00 00 
    5cd0:	49 69 c7 a0 0f 00 00 	imul   $0xfa0,%r15,%rax
    5cd7:	49 83 c7 01          	add    $0x1,%r15
    5cdb:	4c 3b 7d c0          	cmp    -0x40(%rbp),%r15
    5cdf:	c7 84 06 9c 0f 00 00 	movl   $0x0,0xf9c(%rsi,%rax,1)
    5ce6:	00 00 00 00 
    5cea:	0f 85 38 ff ff ff    	jne    5c28 <_ZN10RelaxationIfLl1000EEC2Effllff._omp_fn.4+0x78>
    5cf0:	48 83 c4 18          	add    $0x18,%rsp
    5cf4:	5b                   	pop    %rbx
    5cf5:	41 5c                	pop    %r12
    5cf7:	41 5d                	pop    %r13
    5cf9:	41 5e                	pop    %r14
    5cfb:	41 5f                	pop    %r15
    5cfd:	5d                   	pop    %rbp
    5cfe:	c3                   	retq   
    5cff:	90                   	nop

0000000000005d00 <_ZN10RelaxationIfLl1000EE7iterateEv._omp_fn.5>:
    5d00:	55                   	push   %rbp
    5d01:	48 89 e5             	mov    %rsp,%rbp
    5d04:	41 57                	push   %r15
    5d06:	41 56                	push   %r14
    5d08:	41 55                	push   %r13
    5d0a:	41 54                	push   %r12
    5d0c:	53                   	push   %rbx
    5d0d:	48 81 ec 58 10 00 00 	sub    $0x1058,%rsp
    5d14:	48 83 0c 24 00       	orq    $0x0,(%rsp)
    5d19:	48 81 c4 20 10 00 00 	add    $0x1020,%rsp
    5d20:	48 8b 1f             	mov    (%rdi),%rbx
    5d23:	49 89 fc             	mov    %rdi,%r12
    5d26:	e8 c5 d6 ff ff       	callq  33f0 <omp_get_num_threads@plt>
    5d2b:	48 63 d0             	movslq %eax,%rdx
    5d2e:	48 89 55 c8          	mov    %rdx,-0x38(%rbp)
    5d32:	e8 f9 d5 ff ff       	callq  3330 <omp_get_thread_num@plt>
    5d37:	48 63 c8             	movslq %eax,%rcx
    5d3a:	be e6 03 00 00       	mov    $0x3e6,%esi
    5d3f:	48 89 c8             	mov    %rcx,%rax
    5d42:	48 c1 e0 05          	shl    $0x5,%rax
    5d46:	48 29 c8             	sub    %rcx,%rax
    5d49:	4c 8d 50 1f          	lea    0x1f(%rax),%r10
    5d4d:	49 81 fa e6 03 00 00 	cmp    $0x3e6,%r10
    5d54:	4c 0f 4f d6          	cmovg  %rsi,%r10
    5d58:	48 3d e5 03 00 00    	cmp    $0x3e5,%rax
    5d5e:	0f 8f 6e 01 00 00    	jg     5ed2 <_ZN10RelaxationIfLl1000EE7iterateEv._omp_fn.5+0x1d2>
    5d64:	48 8b 55 c8          	mov    -0x38(%rbp),%rdx
    5d68:	48 83 c0 01          	add    $0x1,%rax
    5d6c:	49 8b 74 24 08       	mov    0x8(%r12),%rsi
    5d71:	4c 69 e8 a0 0f 00 00 	imul   $0xfa0,%rax,%r13
    5d78:	48 89 45 c8          	mov    %rax,-0x38(%rbp)
    5d7c:	4c 8b 63 28          	mov    0x28(%rbx),%r12
    5d80:	66 0f ef db          	pxor   %xmm3,%xmm3
    5d84:	48 89 d7             	mov    %rdx,%rdi
    5d87:	48 89 d0             	mov    %rdx,%rax
    5d8a:	48 8d 4c 0a 01       	lea    0x1(%rdx,%rcx,1),%rcx
    5d8f:	48 c1 e7 05          	shl    $0x5,%rdi
    5d93:	48 f7 d8             	neg    %rax
    5d96:	48 29 d7             	sub    %rdx,%rdi
    5d99:	48 c1 e0 05          	shl    $0x5,%rax
    5d9d:	49 89 ce             	mov    %rcx,%r14
    5da0:	48 8d 44 02 e1       	lea    -0x1f(%rdx,%rax,1),%rax
    5da5:	48 89 7d b8          	mov    %rdi,-0x48(%rbp)
    5da9:	49 c1 e6 05          	shl    $0x5,%r14
    5dad:	48 69 fa 60 e4 01 00 	imul   $0x1e460,%rdx,%rdi
    5db4:	4f 8d 3c 2c          	lea    (%r12,%r13,1),%r15
    5db8:	49 29 ce             	sub    %rcx,%r14
    5dbb:	48 89 45 b0          	mov    %rax,-0x50(%rbp)
    5dbf:	48 c7 c0 60 f0 ff ff 	mov    $0xfffffffffffff060,%rax
    5dc6:	49 01 f5             	add    %rsi,%r13
    5dc9:	48 29 f0             	sub    %rsi,%rax
    5dcc:	f3 0f 10 25 f8 b7 00 	movss  0xb7f8(%rip),%xmm4        # 115cc <_ZTSN6GetOpt13_DefValOptionIdNS_8_OptionTIdEEEE+0x2c>
    5dd3:	00 
    5dd4:	48 89 45 a8          	mov    %rax,-0x58(%rbp)
    5dd8:	48 89 7d c0          	mov    %rdi,-0x40(%rbp)
    5ddc:	48 8b 45 a8          	mov    -0x58(%rbp),%rax
    5de0:	4c 8b 4d c8          	mov    -0x38(%rbp),%r9
    5de4:	4d 8d 87 60 f0 ff ff 	lea    -0xfa0(%r15),%r8
    5deb:	4c 89 fe             	mov    %r15,%rsi
    5dee:	4c 89 ef             	mov    %r13,%rdi
    5df1:	4e 8d 1c 28          	lea    (%rax,%r13,1),%r11
    5df5:	b8 40 1f 00 00       	mov    $0x1f40,%eax
    5dfa:	4c 29 f8             	sub    %r15,%rax
    5dfd:	49 01 c3             	add    %rax,%r11
    5e00:	4c 01 de             	add    %r11,%rsi
    5e03:	c7 07 00 00 00 00    	movl   $0x0,(%rdi)
    5e09:	49 83 c1 01          	add    $0x1,%r9
    5e0d:	4c 01 e6             	add    %r12,%rsi
    5e10:	b8 01 00 00 00       	mov    $0x1,%eax
    5e15:	48 8d 96 64 f0 ff ff 	lea    -0xf9c(%rsi),%rdx
    5e1c:	eb 18                	jmp    5e36 <_ZN10RelaxationIfLl1000EE7iterateEv._omp_fn.5+0x136>
    5e1e:	66 90                	xchg   %ax,%ax
    5e20:	f3 0f 5d d0          	minss  %xmm0,%xmm2
    5e24:	48 83 c2 04          	add    $0x4,%rdx
    5e28:	48 3d e7 03 00 00    	cmp    $0x3e7,%rax
    5e2e:	f3 0f 11 54 87 fc    	movss  %xmm2,-0x4(%rdi,%rax,4)
    5e34:	74 42                	je     5e78 <_ZN10RelaxationIfLl1000EE7iterateEv._omp_fn.5+0x178>
    5e36:	f3 0f 10 02          	movss  (%rdx),%xmm0
    5e3a:	48 89 c1             	mov    %rax,%rcx
    5e3d:	48 83 c0 01          	add    $0x1,%rax
    5e41:	0f 28 c8             	movaps %xmm0,%xmm1
    5e44:	f3 0f 10 13          	movss  (%rbx),%xmm2
    5e48:	f3 0f 59 cc          	mulss  %xmm4,%xmm1
    5e4c:	f3 0f 58 0c 8e       	addss  (%rsi,%rcx,4),%xmm1
    5e51:	f3 41 0f 58 0c 88    	addss  (%r8,%rcx,4),%xmm1
    5e57:	f3 0f 58 4a 04       	addss  0x4(%rdx),%xmm1
    5e5c:	f3 0f 58 4a fc       	addss  -0x4(%rdx),%xmm1
    5e61:	f3 0f 59 4b 04       	mulss  0x4(%rbx),%xmm1
    5e66:	f3 0f 58 c1          	addss  %xmm1,%xmm0
    5e6a:	0f 2e d8             	ucomiss %xmm0,%xmm3
    5e6d:	76 b1                	jbe    5e20 <_ZN10RelaxationIfLl1000EE7iterateEv._omp_fn.5+0x120>
    5e6f:	0f 28 d3             	movaps %xmm3,%xmm2
    5e72:	eb b0                	jmp    5e24 <_ZN10RelaxationIfLl1000EE7iterateEv._omp_fn.5+0x124>
    5e74:	0f 1f 40 00          	nopl   0x0(%rax)
    5e78:	c7 87 9c 0f 00 00 00 	movl   $0x0,0xf9c(%rdi)
    5e7f:	00 00 00 
    5e82:	49 81 c0 a0 0f 00 00 	add    $0xfa0,%r8
    5e89:	48 81 c7 a0 0f 00 00 	add    $0xfa0,%rdi
    5e90:	4d 39 ca             	cmp    %r9,%r10
    5e93:	0f 8d 67 ff ff ff    	jge    5e00 <_ZN10RelaxationIfLl1000EE7iterateEv._omp_fn.5+0x100>
    5e99:	48 8b 45 b8          	mov    -0x48(%rbp),%rax
    5e9d:	49 81 fe e6 03 00 00 	cmp    $0x3e6,%r14
    5ea4:	41 ba e6 03 00 00    	mov    $0x3e6,%r10d
    5eaa:	4d 0f 4e d6          	cmovle %r14,%r10
    5eae:	48 01 45 c8          	add    %rax,-0x38(%rbp)
    5eb2:	49 01 c6             	add    %rax,%r14
    5eb5:	48 8b 45 c0          	mov    -0x40(%rbp),%rax
    5eb9:	49 01 c7             	add    %rax,%r15
    5ebc:	49 01 c5             	add    %rax,%r13
    5ebf:	48 8b 45 b0          	mov    -0x50(%rbp),%rax
    5ec3:	4c 01 f0             	add    %r14,%rax
    5ec6:	48 3d e5 03 00 00    	cmp    $0x3e5,%rax
    5ecc:	0f 8e 0a ff ff ff    	jle    5ddc <_ZN10RelaxationIfLl1000EE7iterateEv._omp_fn.5+0xdc>
    5ed2:	48 83 c4 38          	add    $0x38,%rsp
    5ed6:	5b                   	pop    %rbx
    5ed7:	41 5c                	pop    %r12
    5ed9:	41 5d                	pop    %r13
    5edb:	41 5e                	pop    %r14
    5edd:	41 5f                	pop    %r15
    5edf:	5d                   	pop    %rbp
    5ee0:	c3                   	retq   
    5ee1:	66 2e 0f 1f 84 00 00 	nopw   %cs:0x0(%rax,%rax,1)
    5ee8:	00 00 00 
    5eeb:	0f 1f 44 00 00       	nopl   0x0(%rax,%rax,1)

0000000000005ef0 <_ZN10RelaxationIfLl10000EEC2Effllff._omp_fn.6>:
    5ef0:	55                   	push   %rbp
    5ef1:	48 89 e5             	mov    %rsp,%rbp
    5ef4:	41 57                	push   %r15
    5ef6:	41 56                	push   %r14
    5ef8:	41 55                	push   %r13
    5efa:	41 54                	push   %r12
    5efc:	53                   	push   %rbx
    5efd:	48 81 ec 38 10 00 00 	sub    $0x1038,%rsp
    5f04:	48 83 0c 24 00       	orq    $0x0,(%rsp)
    5f09:	48 81 c4 20 10 00 00 	add    $0x1020,%rsp
    5f10:	49 89 fc             	mov    %rdi,%r12
    5f13:	e8 d8 d4 ff ff       	callq  33f0 <omp_get_num_threads@plt>
    5f18:	48 63 d8             	movslq %eax,%rbx
    5f1b:	e8 10 d4 ff ff       	callq  3330 <omp_get_thread_num@plt>
    5f20:	48 63 c8             	movslq %eax,%rcx
    5f23:	b8 0e 27 00 00       	mov    $0x270e,%eax
    5f28:	48 99                	cqto   
    5f2a:	48 f7 fb             	idiv   %rbx
    5f2d:	48 39 d1             	cmp    %rdx,%rcx
    5f30:	7d 06                	jge    5f38 <_ZN10RelaxationIfLl10000EEC2Effllff._omp_fn.6+0x48>
    5f32:	48 83 c0 01          	add    $0x1,%rax
    5f36:	31 d2                	xor    %edx,%edx
    5f38:	48 0f af c8          	imul   %rax,%rcx
    5f3c:	48 01 ca             	add    %rcx,%rdx
    5f3f:	48 01 d0             	add    %rdx,%rax
    5f42:	48 39 c2             	cmp    %rax,%rdx
    5f45:	0f 8d e5 00 00 00    	jge    6030 <_ZN10RelaxationIfLl10000EEC2Effllff._omp_fn.6+0x140>
    5f4b:	4d 8b 2c 24          	mov    (%r12),%r13
    5f4f:	66 0f ef d2          	pxor   %xmm2,%xmm2
    5f53:	48 83 c0 01          	add    $0x1,%rax
    5f57:	4c 8d 7a 01          	lea    0x1(%rdx),%r15
    5f5b:	48 89 45 c0          	mov    %rax,-0x40(%rbp)
    5f5f:	49 8b 75 28          	mov    0x28(%r13),%rsi
    5f63:	0f 1f 44 00 00       	nopl   0x0(%rax,%rax,1)
    5f68:	49 69 cf 40 9c 00 00 	imul   $0x9c40,%r15,%rcx
    5f6f:	41 bc 01 00 00 00    	mov    $0x1,%r12d
    5f75:	4c 8d 34 0e          	lea    (%rsi,%rcx,1),%r14
    5f79:	48 89 cb             	mov    %rcx,%rbx
    5f7c:	41 c7 06 00 00 00 00 	movl   $0x0,(%r14)
    5f83:	eb 24                	jmp    5fa9 <_ZN10RelaxationIfLl10000EEC2Effllff._omp_fn.6+0xb9>
    5f85:	0f 1f 00             	nopl   (%rax)
    5f88:	66 0f ef c0          	pxor   %xmm0,%xmm0
    5f8c:	f3 49 0f 2a 45 20    	cvtsi2ssq 0x20(%r13),%xmm0
    5f92:	f3 43 0f 11 04 a6    	movss  %xmm0,(%r14,%r12,4)
    5f98:	49 83 c4 01          	add    $0x1,%r12
    5f9c:	49 81 fc 0f 27 00 00 	cmp    $0x270f,%r12
    5fa3:	74 6b                	je     6010 <_ZN10RelaxationIfLl10000EEC2Effllff._omp_fn.6+0x120>
    5fa5:	4c 8d 34 1e          	lea    (%rsi,%rbx,1),%r14
    5fa9:	49 8b 55 08          	mov    0x8(%r13),%rdx
    5fad:	49 8b 45 10          	mov    0x10(%r13),%rax
    5fb1:	66 0f ef c9          	pxor   %xmm1,%xmm1
    5fb5:	4c 29 fa             	sub    %r15,%rdx
    5fb8:	4c 29 e0             	sub    %r12,%rax
    5fbb:	48 0f af d2          	imul   %rdx,%rdx
    5fbf:	48 0f af c0          	imul   %rax,%rax
    5fc3:	48 01 d0             	add    %rdx,%rax
    5fc6:	f2 48 0f 2a c8       	cvtsi2sd %rax,%xmm1
    5fcb:	f2 0f 51 c1          	sqrtsd %xmm1,%xmm0
    5fcf:	66 0f 2e c0          	ucomisd %xmm0,%xmm0
    5fd3:	7a 18                	jp     5fed <_ZN10RelaxationIfLl10000EEC2Effllff._omp_fn.6+0xfd>
    5fd5:	66 0f ef c9          	pxor   %xmm1,%xmm1
    5fd9:	f2 0f 5a c0          	cvtsd2ss %xmm0,%xmm0
    5fdd:	f3 49 0f 2a 4d 18    	cvtsi2ssq 0x18(%r13),%xmm1
    5fe3:	0f 2e c8             	ucomiss %xmm0,%xmm1
    5fe6:	77 a0                	ja     5f88 <_ZN10RelaxationIfLl10000EEC2Effllff._omp_fn.6+0x98>
    5fe8:	0f 28 c2             	movaps %xmm2,%xmm0
    5feb:	eb a5                	jmp    5f92 <_ZN10RelaxationIfLl10000EEC2Effllff._omp_fn.6+0xa2>
    5fed:	66 0f 28 c1          	movapd %xmm1,%xmm0
    5ff1:	f3 0f 11 55 cc       	movss  %xmm2,-0x34(%rbp)
    5ff6:	e8 c5 d0 ff ff       	callq  30c0 <sqrt@plt>
    5ffb:	49 8b 75 28          	mov    0x28(%r13),%rsi
    5fff:	f3 0f 10 55 cc       	movss  -0x34(%rbp),%xmm2
    6004:	eb cf                	jmp    5fd5 <_ZN10RelaxationIfLl10000EEC2Effllff._omp_fn.6+0xe5>
    6006:	66 2e 0f 1f 84 00 00 	nopw   %cs:0x0(%rax,%rax,1)
    600d:	00 00 00 
    6010:	49 69 c7 40 9c 00 00 	imul   $0x9c40,%r15,%rax
    6017:	49 83 c7 01          	add    $0x1,%r15
    601b:	4c 3b 7d c0          	cmp    -0x40(%rbp),%r15
    601f:	c7 84 06 3c 9c 00 00 	movl   $0x0,0x9c3c(%rsi,%rax,1)
    6026:	00 00 00 00 
    602a:	0f 85 38 ff ff ff    	jne    5f68 <_ZN10RelaxationIfLl10000EEC2Effllff._omp_fn.6+0x78>
    6030:	48 83 c4 18          	add    $0x18,%rsp
    6034:	5b                   	pop    %rbx
    6035:	41 5c                	pop    %r12
    6037:	41 5d                	pop    %r13
    6039:	41 5e                	pop    %r14
    603b:	41 5f                	pop    %r15
    603d:	5d                   	pop    %rbp
    603e:	c3                   	retq   
    603f:	90                   	nop

0000000000006040 <_ZN10RelaxationIfLl10000EE7iterateEv._omp_fn.7>:
    6040:	55                   	push   %rbp
    6041:	48 89 e5             	mov    %rsp,%rbp
    6044:	41 57                	push   %r15
    6046:	41 56                	push   %r14
    6048:	41 55                	push   %r13
    604a:	41 54                	push   %r12
    604c:	53                   	push   %rbx
    604d:	48 81 ec 58 10 00 00 	sub    $0x1058,%rsp
    6054:	48 83 0c 24 00       	orq    $0x0,(%rsp)
    6059:	48 81 c4 20 10 00 00 	add    $0x1020,%rsp
    6060:	48 8b 1f             	mov    (%rdi),%rbx
    6063:	49 89 fc             	mov    %rdi,%r12
    6066:	e8 85 d3 ff ff       	callq  33f0 <omp_get_num_threads@plt>
    606b:	48 63 d0             	movslq %eax,%rdx
    606e:	48 89 55 c8          	mov    %rdx,-0x38(%rbp)
    6072:	e8 b9 d2 ff ff       	callq  3330 <omp_get_thread_num@plt>
    6077:	48 63 c8             	movslq %eax,%rcx
    607a:	be 0e 27 00 00       	mov    $0x270e,%esi
    607f:	48 89 c8             	mov    %rcx,%rax
    6082:	48 c1 e0 05          	shl    $0x5,%rax
    6086:	48 29 c8             	sub    %rcx,%rax
    6089:	4c 8d 50 1f          	lea    0x1f(%rax),%r10
    608d:	49 81 fa 0e 27 00 00 	cmp    $0x270e,%r10
    6094:	4c 0f 4f d6          	cmovg  %rsi,%r10
    6098:	48 3d 0d 27 00 00    	cmp    $0x270d,%rax
    609e:	0f 8f 6e 01 00 00    	jg     6212 <_ZN10RelaxationIfLl10000EE7iterateEv._omp_fn.7+0x1d2>
    60a4:	48 8b 55 c8          	mov    -0x38(%rbp),%rdx
    60a8:	48 83 c0 01          	add    $0x1,%rax
    60ac:	49 8b 74 24 08       	mov    0x8(%r12),%rsi
    60b1:	4c 69 e8 40 9c 00 00 	imul   $0x9c40,%rax,%r13
    60b8:	48 89 45 c8          	mov    %rax,-0x38(%rbp)
    60bc:	4c 8b 63 28          	mov    0x28(%rbx),%r12
    60c0:	66 0f ef db          	pxor   %xmm3,%xmm3
    60c4:	48 89 d7             	mov    %rdx,%rdi
    60c7:	48 89 d0             	mov    %rdx,%rax
    60ca:	48 8d 4c 0a 01       	lea    0x1(%rdx,%rcx,1),%rcx
    60cf:	48 c1 e7 05          	shl    $0x5,%rdi
    60d3:	48 f7 d8             	neg    %rax
    60d6:	48 29 d7             	sub    %rdx,%rdi
    60d9:	48 c1 e0 05          	shl    $0x5,%rax
    60dd:	49 89 ce             	mov    %rcx,%r14
    60e0:	48 8d 44 02 e1       	lea    -0x1f(%rdx,%rax,1),%rax
    60e5:	48 89 7d b8          	mov    %rdi,-0x48(%rbp)
    60e9:	49 c1 e6 05          	shl    $0x5,%r14
    60ed:	48 69 fa c0 eb 12 00 	imul   $0x12ebc0,%rdx,%rdi
    60f4:	4f 8d 3c 2c          	lea    (%r12,%r13,1),%r15
    60f8:	49 29 ce             	sub    %rcx,%r14
    60fb:	48 89 45 b0          	mov    %rax,-0x50(%rbp)
    60ff:	48 c7 c0 c0 63 ff ff 	mov    $0xffffffffffff63c0,%rax
    6106:	49 01 f5             	add    %rsi,%r13
    6109:	48 29 f0             	sub    %rsi,%rax
    610c:	f3 0f 10 25 b8 b4 00 	movss  0xb4b8(%rip),%xmm4        # 115cc <_ZTSN6GetOpt13_DefValOptionIdNS_8_OptionTIdEEEE+0x2c>
    6113:	00 
    6114:	48 89 45 a8          	mov    %rax,-0x58(%rbp)
    6118:	48 89 7d c0          	mov    %rdi,-0x40(%rbp)
    611c:	48 8b 45 a8          	mov    -0x58(%rbp),%rax
    6120:	4c 8b 4d c8          	mov    -0x38(%rbp),%r9
    6124:	4d 8d 87 c0 63 ff ff 	lea    -0x9c40(%r15),%r8
    612b:	4c 89 fe             	mov    %r15,%rsi
    612e:	4c 89 ef             	mov    %r13,%rdi
    6131:	4e 8d 1c 28          	lea    (%rax,%r13,1),%r11
    6135:	b8 80 38 01 00       	mov    $0x13880,%eax
    613a:	4c 29 f8             	sub    %r15,%rax
    613d:	49 01 c3             	add    %rax,%r11
    6140:	4c 01 de             	add    %r11,%rsi
    6143:	c7 07 00 00 00 00    	movl   $0x0,(%rdi)
    6149:	49 83 c1 01          	add    $0x1,%r9
    614d:	4c 01 e6             	add    %r12,%rsi
    6150:	b8 01 00 00 00       	mov    $0x1,%eax
    6155:	48 8d 96 c4 63 ff ff 	lea    -0x9c3c(%rsi),%rdx
    615c:	eb 18                	jmp    6176 <_ZN10RelaxationIfLl10000EE7iterateEv._omp_fn.7+0x136>
    615e:	66 90                	xchg   %ax,%ax
    6160:	f3 0f 5d d0          	minss  %xmm0,%xmm2
    6164:	48 83 c2 04          	add    $0x4,%rdx
    6168:	48 3d 0f 27 00 00    	cmp    $0x270f,%rax
    616e:	f3 0f 11 54 87 fc    	movss  %xmm2,-0x4(%rdi,%rax,4)
    6174:	74 42                	je     61b8 <_ZN10RelaxationIfLl10000EE7iterateEv._omp_fn.7+0x178>
    6176:	f3 0f 10 02          	movss  (%rdx),%xmm0
    617a:	48 89 c1             	mov    %rax,%rcx
    617d:	48 83 c0 01          	add    $0x1,%rax
    6181:	0f 28 c8             	movaps %xmm0,%xmm1
    6184:	f3 0f 10 13          	movss  (%rbx),%xmm2
    6188:	f3 0f 59 cc          	mulss  %xmm4,%xmm1
    618c:	f3 0f 58 0c 8e       	addss  (%rsi,%rcx,4),%xmm1
    6191:	f3 41 0f 58 0c 88    	addss  (%r8,%rcx,4),%xmm1
    6197:	f3 0f 58 4a 04       	addss  0x4(%rdx),%xmm1
    619c:	f3 0f 58 4a fc       	addss  -0x4(%rdx),%xmm1
    61a1:	f3 0f 59 4b 04       	mulss  0x4(%rbx),%xmm1
    61a6:	f3 0f 58 c1          	addss  %xmm1,%xmm0
    61aa:	0f 2e d8             	ucomiss %xmm0,%xmm3
    61ad:	76 b1                	jbe    6160 <_ZN10RelaxationIfLl10000EE7iterateEv._omp_fn.7+0x120>
    61af:	0f 28 d3             	movaps %xmm3,%xmm2
    61b2:	eb b0                	jmp    6164 <_ZN10RelaxationIfLl10000EE7iterateEv._omp_fn.7+0x124>
    61b4:	0f 1f 40 00          	nopl   0x0(%rax)
    61b8:	c7 87 3c 9c 00 00 00 	movl   $0x0,0x9c3c(%rdi)
    61bf:	00 00 00 
    61c2:	49 81 c0 40 9c 00 00 	add    $0x9c40,%r8
    61c9:	48 81 c7 40 9c 00 00 	add    $0x9c40,%rdi
    61d0:	4d 39 ca             	cmp    %r9,%r10
    61d3:	0f 8d 67 ff ff ff    	jge    6140 <_ZN10RelaxationIfLl10000EE7iterateEv._omp_fn.7+0x100>
    61d9:	48 8b 45 b8          	mov    -0x48(%rbp),%rax
    61dd:	49 81 fe 0e 27 00 00 	cmp    $0x270e,%r14
    61e4:	41 ba 0e 27 00 00    	mov    $0x270e,%r10d
    61ea:	4d 0f 4e d6          	cmovle %r14,%r10
    61ee:	48 01 45 c8          	add    %rax,-0x38(%rbp)
    61f2:	49 01 c6             	add    %rax,%r14
    61f5:	48 8b 45 c0          	mov    -0x40(%rbp),%rax
    61f9:	49 01 c7             	add    %rax,%r15
    61fc:	49 01 c5             	add    %rax,%r13
    61ff:	48 8b 45 b0          	mov    -0x50(%rbp),%rax
    6203:	4c 01 f0             	add    %r14,%rax
    6206:	48 3d 0d 27 00 00    	cmp    $0x270d,%rax
    620c:	0f 8e 0a ff ff ff    	jle    611c <_ZN10RelaxationIfLl10000EE7iterateEv._omp_fn.7+0xdc>
    6212:	48 83 c4 38          	add    $0x38,%rsp
    6216:	5b                   	pop    %rbx
    6217:	41 5c                	pop    %r12
    6219:	41 5d                	pop    %r13
    621b:	41 5e                	pop    %r14
    621d:	41 5f                	pop    %r15
    621f:	5d                   	pop    %rbp
    6220:	c3                   	retq   
    6221:	66 2e 0f 1f 84 00 00 	nopw   %cs:0x0(%rax,%rax,1)
    6228:	00 00 00 
    622b:	0f 1f 44 00 00       	nopl   0x0(%rax,%rax,1)

0000000000006230 <_ZN10RelaxationIdLl100EEC2Eddlldd._omp_fn.8>:
    6230:	55                   	push   %rbp
    6231:	48 89 e5             	mov    %rsp,%rbp
    6234:	41 57                	push   %r15
    6236:	41 56                	push   %r14
    6238:	41 55                	push   %r13
    623a:	41 54                	push   %r12
    623c:	53                   	push   %rbx
    623d:	48 81 ec 38 10 00 00 	sub    $0x1038,%rsp
    6244:	48 83 0c 24 00       	orq    $0x0,(%rsp)
    6249:	48 81 c4 20 10 00 00 	add    $0x1020,%rsp
    6250:	49 89 fc             	mov    %rdi,%r12
    6253:	e8 98 d1 ff ff       	callq  33f0 <omp_get_num_threads@plt>
    6258:	48 63 d8             	movslq %eax,%rbx
    625b:	e8 d0 d0 ff ff       	callq  3330 <omp_get_thread_num@plt>
    6260:	48 63 c8             	movslq %eax,%rcx
    6263:	b8 62 00 00 00       	mov    $0x62,%eax
    6268:	48 99                	cqto   
    626a:	48 f7 fb             	idiv   %rbx
    626d:	48 39 d1             	cmp    %rdx,%rcx
    6270:	7d 06                	jge    6278 <_ZN10RelaxationIdLl100EEC2Eddlldd._omp_fn.8+0x48>
    6272:	48 83 c0 01          	add    $0x1,%rax
    6276:	31 d2                	xor    %edx,%edx
    6278:	48 0f af c8          	imul   %rax,%rcx
    627c:	48 01 ca             	add    %rcx,%rdx
    627f:	48 01 d0             	add    %rdx,%rax
    6282:	48 39 c2             	cmp    %rax,%rdx
    6285:	0f 8d fb 00 00 00    	jge    6386 <_ZN10RelaxationIdLl100EEC2Eddlldd._omp_fn.8+0x156>
    628b:	4d 8b 34 24          	mov    (%r12),%r14
    628f:	66 0f ef d2          	pxor   %xmm2,%xmm2
    6293:	48 83 c0 01          	add    $0x1,%rax
    6297:	4c 8d 7a 01          	lea    0x1(%rdx),%r15
    629b:	48 89 45 c0          	mov    %rax,-0x40(%rbp)
    629f:	49 8b 4e 30          	mov    0x30(%r14),%rcx
    62a3:	0f 1f 44 00 00       	nopl   0x0(%rax,%rax,1)
    62a8:	4b 8d 04 bf          	lea    (%r15,%r15,4),%rax
    62ac:	41 bc 01 00 00 00    	mov    $0x1,%r12d
    62b2:	48 8d 34 80          	lea    (%rax,%rax,4),%rsi
    62b6:	49 89 f5             	mov    %rsi,%r13
    62b9:	48 89 f3             	mov    %rsi,%rbx
    62bc:	49 c1 e5 05          	shl    $0x5,%r13
    62c0:	49 01 cd             	add    %rcx,%r13
    62c3:	49 c7 45 00 00 00 00 	movq   $0x0,0x0(%r13)
    62ca:	00 
    62cb:	eb 28                	jmp    62f5 <_ZN10RelaxationIdLl100EEC2Eddlldd._omp_fn.8+0xc5>
    62cd:	0f 1f 00             	nopl   (%rax)
    62d0:	66 0f ef c0          	pxor   %xmm0,%xmm0
    62d4:	f2 49 0f 2a 46 28    	cvtsi2sdq 0x28(%r14),%xmm0
    62da:	f2 43 0f 11 44 e5 00 	movsd  %xmm0,0x0(%r13,%r12,8)
    62e1:	49 83 c4 01          	add    $0x1,%r12
    62e5:	49 83 fc 63          	cmp    $0x63,%r12
    62e9:	74 75                	je     6360 <_ZN10RelaxationIdLl100EEC2Eddlldd._omp_fn.8+0x130>
    62eb:	49 89 dd             	mov    %rbx,%r13
    62ee:	49 c1 e5 05          	shl    $0x5,%r13
    62f2:	49 01 cd             	add    %rcx,%r13
    62f5:	49 8b 56 10          	mov    0x10(%r14),%rdx
    62f9:	49 8b 46 18          	mov    0x18(%r14),%rax
    62fd:	66 0f ef c9          	pxor   %xmm1,%xmm1
    6301:	4c 29 fa             	sub    %r15,%rdx
    6304:	4c 29 e0             	sub    %r12,%rax
    6307:	48 0f af d2          	imul   %rdx,%rdx
    630b:	48 0f af c0          	imul   %rax,%rax
    630f:	48 01 d0             	add    %rdx,%rax
    6312:	f2 48 0f 2a c8       	cvtsi2sd %rax,%xmm1
    6317:	f2 0f 51 c1          	sqrtsd %xmm1,%xmm0
    631b:	66 0f 2e c0          	ucomisd %xmm0,%xmm0
    631f:	7a 1f                	jp     6340 <_ZN10RelaxationIdLl100EEC2Eddlldd._omp_fn.8+0x110>
    6321:	66 0f ef c9          	pxor   %xmm1,%xmm1
    6325:	f2 49 0f 2a 4e 20    	cvtsi2sdq 0x20(%r14),%xmm1
    632b:	66 0f 2e c8          	ucomisd %xmm0,%xmm1
    632f:	77 9f                	ja     62d0 <_ZN10RelaxationIdLl100EEC2Eddlldd._omp_fn.8+0xa0>
    6331:	66 0f 28 c2          	movapd %xmm2,%xmm0
    6335:	eb a3                	jmp    62da <_ZN10RelaxationIdLl100EEC2Eddlldd._omp_fn.8+0xaa>
    6337:	66 0f 1f 84 00 00 00 	nopw   0x0(%rax,%rax,1)
    633e:	00 00 
    6340:	66 0f 28 c1          	movapd %xmm1,%xmm0
    6344:	f2 0f 11 55 c8       	movsd  %xmm2,-0x38(%rbp)
    6349:	e8 72 cd ff ff       	callq  30c0 <sqrt@plt>
    634e:	49 8b 4e 30          	mov    0x30(%r14),%rcx
    6352:	f2 0f 10 55 c8       	movsd  -0x38(%rbp),%xmm2
    6357:	eb c8                	jmp    6321 <_ZN10RelaxationIdLl100EEC2Eddlldd._omp_fn.8+0xf1>
    6359:	0f 1f 80 00 00 00 00 	nopl   0x0(%rax)
    6360:	4b 8d 04 bf          	lea    (%r15,%r15,4),%rax
    6364:	49 83 c7 01          	add    $0x1,%r15
    6368:	48 8d 04 80          	lea    (%rax,%rax,4),%rax
    636c:	48 c1 e0 05          	shl    $0x5,%rax
    6370:	4c 3b 7d c0          	cmp    -0x40(%rbp),%r15
    6374:	48 c7 84 01 18 03 00 	movq   $0x0,0x318(%rcx,%rax,1)
    637b:	00 00 00 00 00 
    6380:	0f 85 22 ff ff ff    	jne    62a8 <_ZN10RelaxationIdLl100EEC2Eddlldd._omp_fn.8+0x78>
    6386:	48 83 c4 18          	add    $0x18,%rsp
    638a:	5b                   	pop    %rbx
    638b:	41 5c                	pop    %r12
    638d:	41 5d                	pop    %r13
    638f:	41 5e                	pop    %r14
    6391:	41 5f                	pop    %r15
    6393:	5d                   	pop    %rbp
    6394:	c3                   	retq   
    6395:	66 2e 0f 1f 84 00 00 	nopw   %cs:0x0(%rax,%rax,1)
    639c:	00 00 00 
    639f:	90                   	nop

00000000000063a0 <_ZN10RelaxationIdLl100EE7iterateEv._omp_fn.9>:
    63a0:	55                   	push   %rbp
    63a1:	48 89 e5             	mov    %rsp,%rbp
    63a4:	41 57                	push   %r15
    63a6:	41 56                	push   %r14
    63a8:	41 55                	push   %r13
    63aa:	41 54                	push   %r12
    63ac:	53                   	push   %rbx
    63ad:	48 81 ec 58 10 00 00 	sub    $0x1058,%rsp
    63b4:	48 83 0c 24 00       	orq    $0x0,(%rsp)
    63b9:	48 81 c4 20 10 00 00 	add    $0x1020,%rsp
    63c0:	48 8b 1f             	mov    (%rdi),%rbx
    63c3:	49 89 fd             	mov    %rdi,%r13
    63c6:	e8 25 d0 ff ff       	callq  33f0 <omp_get_num_threads@plt>
    63cb:	4c 63 e0             	movslq %eax,%r12
    63ce:	e8 5d cf ff ff       	callq  3330 <omp_get_thread_num@plt>
    63d3:	48 63 d0             	movslq %eax,%rdx
    63d6:	b9 62 00 00 00       	mov    $0x62,%ecx
    63db:	48 89 d0             	mov    %rdx,%rax
    63de:	48 c1 e0 05          	shl    $0x5,%rax
    63e2:	48 29 d0             	sub    %rdx,%rax
    63e5:	4c 8d 50 1f          	lea    0x1f(%rax),%r10
    63e9:	49 83 fa 62          	cmp    $0x62,%r10
    63ed:	4c 0f 4f d1          	cmovg  %rcx,%r10
    63f1:	48 83 f8 61          	cmp    $0x61,%rax
    63f5:	0f 8f 83 01 00 00    	jg     657e <_ZN10RelaxationIdLl100EE7iterateEv._omp_fn.9+0x1de>
    63fb:	49 8d 54 14 01       	lea    0x1(%r12,%rdx,1),%rdx
    6400:	49 8b 7d 08          	mov    0x8(%r13),%rdi
    6404:	4c 8d 78 01          	lea    0x1(%rax),%r15
    6408:	48 8d 04 80          	lea    (%rax,%rax,4),%rax
    640c:	4c 8b 5b 30          	mov    0x30(%rbx),%r11
    6410:	4c 89 e1             	mov    %r12,%rcx
    6413:	49 89 d6             	mov    %rdx,%r14
    6416:	48 c1 e1 05          	shl    $0x5,%rcx
    641a:	49 c1 e6 05          	shl    $0x5,%r14
    641e:	48 89 7d b8          	mov    %rdi,-0x48(%rbp)
    6422:	4c 8d 2c 80          	lea    (%rax,%rax,4),%r13
    6426:	49 29 d6             	sub    %rdx,%r14
    6429:	4b 8d 14 bf          	lea    (%r15,%r15,4),%rdx
    642d:	4c 89 e0             	mov    %r12,%rax
    6430:	49 69 fc e0 60 00 00 	imul   $0x60e0,%r12,%rdi
    6437:	48 f7 d8             	neg    %rax
    643a:	4c 29 e1             	sub    %r12,%rcx
    643d:	48 8d 14 92          	lea    (%rdx,%rdx,4),%rdx
    6441:	48 c1 e0 05          	shl    $0x5,%rax
    6445:	48 89 4d b0          	mov    %rcx,-0x50(%rbp)
    6449:	49 8d 44 04 e1       	lea    -0x1f(%r12,%rax,1),%rax
    644e:	66 0f ef d2          	pxor   %xmm2,%xmm2
    6452:	48 c1 e2 05          	shl    $0x5,%rdx
    6456:	f2 0f 10 1d 92 b1 00 	movsd  0xb192(%rip),%xmm3        # 115f0 <_ZTSN6GetOpt13_DefValOptionIdNS_8_OptionTIdEEEE+0x50>
    645d:	00 
    645e:	48 89 7d c0          	mov    %rdi,-0x40(%rbp)
    6462:	49 8d 3c 13          	lea    (%r11,%rdx,1),%rdi
    6466:	49 c1 e5 05          	shl    $0x5,%r13
    646a:	48 89 45 a8          	mov    %rax,-0x58(%rbp)
    646e:	48 89 7d c8          	mov    %rdi,-0x38(%rbp)
    6472:	48 8b 7d b8          	mov    -0x48(%rbp),%rdi
    6476:	48 8b 45 c8          	mov    -0x38(%rbp),%rax
    647a:	4d 8d a5 40 06 00 00 	lea    0x640(%r13),%r12
    6481:	4f 8d 04 2b          	lea    (%r11,%r13,1),%r8
    6485:	4d 89 f9             	mov    %r15,%r9
    6488:	4a 8d bc 2f 20 03 00 	lea    0x320(%rdi,%r13,1),%rdi
    648f:	00 
    6490:	48 89 c6             	mov    %rax,%rsi
    6493:	49 29 c4             	sub    %rax,%r12
    6496:	66 2e 0f 1f 84 00 00 	nopw   %cs:0x0(%rax,%rax,1)
    649d:	00 00 00 
    64a0:	4c 01 e6             	add    %r12,%rsi
    64a3:	48 c7 07 00 00 00 00 	movq   $0x0,(%rdi)
    64aa:	49 83 c1 01          	add    $0x1,%r9
    64ae:	4c 01 de             	add    %r11,%rsi
    64b1:	b8 01 00 00 00       	mov    $0x1,%eax
    64b6:	48 8d 96 e8 fc ff ff 	lea    -0x318(%rsi),%rdx
    64bd:	eb 19                	jmp    64d8 <_ZN10RelaxationIdLl100EE7iterateEv._omp_fn.9+0x138>
    64bf:	90                   	nop
    64c0:	f2 0f 10 0b          	movsd  (%rbx),%xmm1
    64c4:	48 83 c2 08          	add    $0x8,%rdx
    64c8:	48 83 f8 63          	cmp    $0x63,%rax
    64cc:	f2 0f 5d c8          	minsd  %xmm0,%xmm1
    64d0:	f2 0f 11 4c c7 f8    	movsd  %xmm1,-0x8(%rdi,%rax,8)
    64d6:	74 50                	je     6528 <_ZN10RelaxationIdLl100EE7iterateEv._omp_fn.9+0x188>
    64d8:	f2 0f 10 02          	movsd  (%rdx),%xmm0
    64dc:	48 89 c1             	mov    %rax,%rcx
    64df:	48 83 c0 01          	add    $0x1,%rax
    64e3:	66 0f 28 c8          	movapd %xmm0,%xmm1
    64e7:	f2 0f 59 cb          	mulsd  %xmm3,%xmm1
    64eb:	f2 0f 58 0c ce       	addsd  (%rsi,%rcx,8),%xmm1
    64f0:	f2 41 0f 58 0c c8    	addsd  (%r8,%rcx,8),%xmm1
    64f6:	f2 0f 58 4a 08       	addsd  0x8(%rdx),%xmm1
    64fb:	f2 0f 58 4a f8       	addsd  -0x8(%rdx),%xmm1
    6500:	f2 0f 59 4b 08       	mulsd  0x8(%rbx),%xmm1
    6505:	f2 0f 58 c1          	addsd  %xmm1,%xmm0
    6509:	66 0f 2e d0          	ucomisd %xmm0,%xmm2
    650d:	76 b1                	jbe    64c0 <_ZN10RelaxationIdLl100EE7iterateEv._omp_fn.9+0x120>
    650f:	66 0f 28 ca          	movapd %xmm2,%xmm1
    6513:	48 83 c2 08          	add    $0x8,%rdx
    6517:	48 83 f8 63          	cmp    $0x63,%rax
    651b:	f2 0f 11 4c c7 f8    	movsd  %xmm1,-0x8(%rdi,%rax,8)
    6521:	75 b5                	jne    64d8 <_ZN10RelaxationIdLl100EE7iterateEv._omp_fn.9+0x138>
    6523:	0f 1f 44 00 00       	nopl   0x0(%rax,%rax,1)
    6528:	48 c7 87 18 03 00 00 	movq   $0x0,0x318(%rdi)
    652f:	00 00 00 00 
    6533:	49 81 c0 20 03 00 00 	add    $0x320,%r8
    653a:	48 81 c7 20 03 00 00 	add    $0x320,%rdi
    6541:	4d 39 ca             	cmp    %r9,%r10
    6544:	0f 8d 56 ff ff ff    	jge    64a0 <_ZN10RelaxationIdLl100EE7iterateEv._omp_fn.9+0x100>
    654a:	48 8b 45 b0          	mov    -0x50(%rbp),%rax
    654e:	49 83 fe 62          	cmp    $0x62,%r14
    6552:	41 ba 62 00 00 00    	mov    $0x62,%r10d
    6558:	4d 0f 4e d6          	cmovle %r14,%r10
    655c:	48 8b 7d c0          	mov    -0x40(%rbp),%rdi
    6560:	48 01 7d c8          	add    %rdi,-0x38(%rbp)
    6564:	49 01 c6             	add    %rax,%r14
    6567:	49 01 c7             	add    %rax,%r15
    656a:	48 8b 45 a8          	mov    -0x58(%rbp),%rax
    656e:	49 01 fd             	add    %rdi,%r13
    6571:	4c 01 f0             	add    %r14,%rax
    6574:	48 83 f8 61          	cmp    $0x61,%rax
    6578:	0f 8e f4 fe ff ff    	jle    6472 <_ZN10RelaxationIdLl100EE7iterateEv._omp_fn.9+0xd2>
    657e:	48 83 c4 38          	add    $0x38,%rsp
    6582:	5b                   	pop    %rbx
    6583:	41 5c                	pop    %r12
    6585:	41 5d                	pop    %r13
    6587:	41 5e                	pop    %r14
    6589:	41 5f                	pop    %r15
    658b:	5d                   	pop    %rbp
    658c:	c3                   	retq   
    658d:	0f 1f 00             	nopl   (%rax)

0000000000006590 <_ZN10RelaxationIdLl500EEC2Eddlldd._omp_fn.10>:
    6590:	55                   	push   %rbp
    6591:	48 89 e5             	mov    %rsp,%rbp
    6594:	41 57                	push   %r15
    6596:	41 56                	push   %r14
    6598:	41 55                	push   %r13
    659a:	41 54                	push   %r12
    659c:	53                   	push   %rbx
    659d:	48 81 ec 38 10 00 00 	sub    $0x1038,%rsp
    65a4:	48 83 0c 24 00       	orq    $0x0,(%rsp)
    65a9:	48 81 c4 20 10 00 00 	add    $0x1020,%rsp
    65b0:	49 89 fc             	mov    %rdi,%r12
    65b3:	e8 38 ce ff ff       	callq  33f0 <omp_get_num_threads@plt>
    65b8:	48 63 d8             	movslq %eax,%rbx
    65bb:	e8 70 cd ff ff       	callq  3330 <omp_get_thread_num@plt>
    65c0:	48 63 c8             	movslq %eax,%rcx
    65c3:	b8 f2 01 00 00       	mov    $0x1f2,%eax
    65c8:	48 99                	cqto   
    65ca:	48 f7 fb             	idiv   %rbx
    65cd:	48 39 d1             	cmp    %rdx,%rcx
    65d0:	7d 06                	jge    65d8 <_ZN10RelaxationIdLl500EEC2Eddlldd._omp_fn.10+0x48>
    65d2:	48 83 c0 01          	add    $0x1,%rax
    65d6:	31 d2                	xor    %edx,%edx
    65d8:	48 0f af c8          	imul   %rax,%rcx
    65dc:	48 01 ca             	add    %rcx,%rdx
    65df:	48 01 d0             	add    %rdx,%rax
    65e2:	48 39 c2             	cmp    %rax,%rdx
    65e5:	0f 8d de 00 00 00    	jge    66c9 <_ZN10RelaxationIdLl500EEC2Eddlldd._omp_fn.10+0x139>
    65eb:	4d 8b 2c 24          	mov    (%r12),%r13
    65ef:	66 0f ef d2          	pxor   %xmm2,%xmm2
    65f3:	48 83 c0 01          	add    $0x1,%rax
    65f7:	4c 8d 7a 01          	lea    0x1(%rdx),%r15
    65fb:	48 89 45 c0          	mov    %rax,-0x40(%rbp)
    65ff:	49 8b 75 30          	mov    0x30(%r13),%rsi
    6603:	0f 1f 44 00 00       	nopl   0x0(%rax,%rax,1)
    6608:	49 69 cf a0 0f 00 00 	imul   $0xfa0,%r15,%rcx
    660f:	41 bc 01 00 00 00    	mov    $0x1,%r12d
    6615:	4c 8d 34 0e          	lea    (%rsi,%rcx,1),%r14
    6619:	48 89 cb             	mov    %rcx,%rbx
    661c:	49 c7 06 00 00 00 00 	movq   $0x0,(%r14)
    6623:	eb 24                	jmp    6649 <_ZN10RelaxationIdLl500EEC2Eddlldd._omp_fn.10+0xb9>
    6625:	0f 1f 00             	nopl   (%rax)
    6628:	66 0f ef c0          	pxor   %xmm0,%xmm0
    662c:	f2 49 0f 2a 45 28    	cvtsi2sdq 0x28(%r13),%xmm0
    6632:	f2 43 0f 11 04 e6    	movsd  %xmm0,(%r14,%r12,8)
    6638:	49 83 c4 01          	add    $0x1,%r12
    663c:	49 81 fc f3 01 00 00 	cmp    $0x1f3,%r12
    6643:	74 63                	je     66a8 <_ZN10RelaxationIdLl500EEC2Eddlldd._omp_fn.10+0x118>
    6645:	4c 8d 34 1e          	lea    (%rsi,%rbx,1),%r14
    6649:	49 8b 55 10          	mov    0x10(%r13),%rdx
    664d:	49 8b 45 18          	mov    0x18(%r13),%rax
    6651:	66 0f ef c9          	pxor   %xmm1,%xmm1
    6655:	4c 29 fa             	sub    %r15,%rdx
    6658:	4c 29 e0             	sub    %r12,%rax
    665b:	48 0f af d2          	imul   %rdx,%rdx
    665f:	48 0f af c0          	imul   %rax,%rax
    6663:	48 01 d0             	add    %rdx,%rax
    6666:	f2 48 0f 2a c8       	cvtsi2sd %rax,%xmm1
    666b:	f2 0f 51 c1          	sqrtsd %xmm1,%xmm0
    666f:	66 0f 2e c0          	ucomisd %xmm0,%xmm0
    6673:	7a 16                	jp     668b <_ZN10RelaxationIdLl500EEC2Eddlldd._omp_fn.10+0xfb>
    6675:	66 0f ef c9          	pxor   %xmm1,%xmm1
    6679:	f2 49 0f 2a 4d 20    	cvtsi2sdq 0x20(%r13),%xmm1
    667f:	66 0f 2e c8          	ucomisd %xmm0,%xmm1
    6683:	77 a3                	ja     6628 <_ZN10RelaxationIdLl500EEC2Eddlldd._omp_fn.10+0x98>
    6685:	66 0f 28 c2          	movapd %xmm2,%xmm0
    6689:	eb a7                	jmp    6632 <_ZN10RelaxationIdLl500EEC2Eddlldd._omp_fn.10+0xa2>
    668b:	66 0f 28 c1          	movapd %xmm1,%xmm0
    668f:	f2 0f 11 55 c8       	movsd  %xmm2,-0x38(%rbp)
    6694:	e8 27 ca ff ff       	callq  30c0 <sqrt@plt>
    6699:	49 8b 75 30          	mov    0x30(%r13),%rsi
    669d:	f2 0f 10 55 c8       	movsd  -0x38(%rbp),%xmm2
    66a2:	eb d1                	jmp    6675 <_ZN10RelaxationIdLl500EEC2Eddlldd._omp_fn.10+0xe5>
    66a4:	0f 1f 40 00          	nopl   0x0(%rax)
    66a8:	49 69 c7 a0 0f 00 00 	imul   $0xfa0,%r15,%rax
    66af:	49 83 c7 01          	add    $0x1,%r15
    66b3:	4c 3b 7d c0          	cmp    -0x40(%rbp),%r15
    66b7:	48 c7 84 06 98 0f 00 	movq   $0x0,0xf98(%rsi,%rax,1)
    66be:	00 00 00 00 00 
    66c3:	0f 85 3f ff ff ff    	jne    6608 <_ZN10RelaxationIdLl500EEC2Eddlldd._omp_fn.10+0x78>
    66c9:	48 83 c4 18          	add    $0x18,%rsp
    66cd:	5b                   	pop    %rbx
    66ce:	41 5c                	pop    %r12
    66d0:	41 5d                	pop    %r13
    66d2:	41 5e                	pop    %r14
    66d4:	41 5f                	pop    %r15
    66d6:	5d                   	pop    %rbp
    66d7:	c3                   	retq   
    66d8:	0f 1f 84 00 00 00 00 	nopl   0x0(%rax,%rax,1)
    66df:	00 

00000000000066e0 <_ZN10RelaxationIdLl500EE7iterateEv._omp_fn.11>:
    66e0:	55                   	push   %rbp
    66e1:	48 89 e5             	mov    %rsp,%rbp
    66e4:	41 57                	push   %r15
    66e6:	41 56                	push   %r14
    66e8:	41 55                	push   %r13
    66ea:	41 54                	push   %r12
    66ec:	53                   	push   %rbx
    66ed:	48 81 ec 58 10 00 00 	sub    $0x1058,%rsp
    66f4:	48 83 0c 24 00       	orq    $0x0,(%rsp)
    66f9:	48 81 c4 20 10 00 00 	add    $0x1020,%rsp
    6700:	48 8b 1f             	mov    (%rdi),%rbx
    6703:	49 89 fc             	mov    %rdi,%r12
    6706:	e8 e5 cc ff ff       	callq  33f0 <omp_get_num_threads@plt>
    670b:	48 63 d0             	movslq %eax,%rdx
    670e:	48 89 55 c8          	mov    %rdx,-0x38(%rbp)
    6712:	e8 19 cc ff ff       	callq  3330 <omp_get_thread_num@plt>
    6717:	48 63 c8             	movslq %eax,%rcx
    671a:	be f2 01 00 00       	mov    $0x1f2,%esi
    671f:	48 89 c8             	mov    %rcx,%rax
    6722:	48 c1 e0 05          	shl    $0x5,%rax
    6726:	48 29 c8             	sub    %rcx,%rax
    6729:	4c 8d 50 1f          	lea    0x1f(%rax),%r10
    672d:	49 81 fa f2 01 00 00 	cmp    $0x1f2,%r10
    6734:	4c 0f 4f d6          	cmovg  %rsi,%r10
    6738:	48 3d f1 01 00 00    	cmp    $0x1f1,%rax
    673e:	0f 8f 77 01 00 00    	jg     68bb <_ZN10RelaxationIdLl500EE7iterateEv._omp_fn.11+0x1db>
    6744:	48 8b 55 c8          	mov    -0x38(%rbp),%rdx
    6748:	48 83 c0 01          	add    $0x1,%rax
    674c:	49 8b 74 24 08       	mov    0x8(%r12),%rsi
    6751:	4c 69 e8 a0 0f 00 00 	imul   $0xfa0,%rax,%r13
    6758:	48 89 45 c8          	mov    %rax,-0x38(%rbp)
    675c:	4c 8b 63 30          	mov    0x30(%rbx),%r12
    6760:	66 0f ef d2          	pxor   %xmm2,%xmm2
    6764:	48 89 d7             	mov    %rdx,%rdi
    6767:	48 89 d0             	mov    %rdx,%rax
    676a:	48 8d 4c 0a 01       	lea    0x1(%rdx,%rcx,1),%rcx
    676f:	48 c1 e7 05          	shl    $0x5,%rdi
    6773:	48 f7 d8             	neg    %rax
    6776:	48 29 d7             	sub    %rdx,%rdi
    6779:	48 c1 e0 05          	shl    $0x5,%rax
    677d:	49 89 ce             	mov    %rcx,%r14
    6780:	48 8d 44 02 e1       	lea    -0x1f(%rdx,%rax,1),%rax
    6785:	48 89 7d b8          	mov    %rdi,-0x48(%rbp)
    6789:	49 c1 e6 05          	shl    $0x5,%r14
    678d:	48 69 fa 60 e4 01 00 	imul   $0x1e460,%rdx,%rdi
    6794:	f2 0f 10 1d 54 ae 00 	movsd  0xae54(%rip),%xmm3        # 115f0 <_ZTSN6GetOpt13_DefValOptionIdNS_8_OptionTIdEEEE+0x50>
    679b:	00 
    679c:	48 89 45 b0          	mov    %rax,-0x50(%rbp)
    67a0:	48 c7 c0 60 f0 ff ff 	mov    $0xfffffffffffff060,%rax
    67a7:	4f 8d 3c 2c          	lea    (%r12,%r13,1),%r15
    67ab:	48 29 f0             	sub    %rsi,%rax
    67ae:	49 29 ce             	sub    %rcx,%r14
    67b1:	49 01 f5             	add    %rsi,%r13
    67b4:	48 89 45 a8          	mov    %rax,-0x58(%rbp)
    67b8:	48 89 7d c0          	mov    %rdi,-0x40(%rbp)
    67bc:	48 8b 45 a8          	mov    -0x58(%rbp),%rax
    67c0:	4c 8b 4d c8          	mov    -0x38(%rbp),%r9
    67c4:	4d 8d 87 60 f0 ff ff 	lea    -0xfa0(%r15),%r8
    67cb:	4c 89 fe             	mov    %r15,%rsi
    67ce:	4c 89 ef             	mov    %r13,%rdi
    67d1:	4e 8d 1c 28          	lea    (%rax,%r13,1),%r11
    67d5:	b8 40 1f 00 00       	mov    $0x1f40,%eax
    67da:	4c 29 f8             	sub    %r15,%rax
    67dd:	49 01 c3             	add    %rax,%r11
    67e0:	4c 01 de             	add    %r11,%rsi
    67e3:	48 c7 07 00 00 00 00 	movq   $0x0,(%rdi)
    67ea:	49 83 c1 01          	add    $0x1,%r9
    67ee:	4c 01 e6             	add    %r12,%rsi
    67f1:	b8 01 00 00 00       	mov    $0x1,%eax
    67f6:	48 8d 96 68 f0 ff ff 	lea    -0xf98(%rsi),%rdx
    67fd:	eb 1b                	jmp    681a <_ZN10RelaxationIdLl500EE7iterateEv._omp_fn.11+0x13a>
    67ff:	90                   	nop
    6800:	f2 0f 10 0b          	movsd  (%rbx),%xmm1
    6804:	f2 0f 5d c8          	minsd  %xmm0,%xmm1
    6808:	48 83 c2 08          	add    $0x8,%rdx
    680c:	48 3d f3 01 00 00    	cmp    $0x1f3,%rax
    6812:	f2 0f 11 4c c7 f8    	movsd  %xmm1,-0x8(%rdi,%rax,8)
    6818:	74 46                	je     6860 <_ZN10RelaxationIdLl500EE7iterateEv._omp_fn.11+0x180>
    681a:	f2 0f 10 02          	movsd  (%rdx),%xmm0
    681e:	48 89 c1             	mov    %rax,%rcx
    6821:	48 83 c0 01          	add    $0x1,%rax
    6825:	66 0f 28 c8          	movapd %xmm0,%xmm1
    6829:	f2 0f 59 cb          	mulsd  %xmm3,%xmm1
    682d:	f2 0f 58 0c ce       	addsd  (%rsi,%rcx,8),%xmm1
    6832:	f2 41 0f 58 0c c8    	addsd  (%r8,%rcx,8),%xmm1
    6838:	f2 0f 58 4a 08       	addsd  0x8(%rdx),%xmm1
    683d:	f2 0f 58 4a f8       	addsd  -0x8(%rdx),%xmm1
    6842:	f2 0f 59 4b 08       	mulsd  0x8(%rbx),%xmm1
    6847:	f2 0f 58 c1          	addsd  %xmm1,%xmm0
    684b:	66 0f 2e d0          	ucomisd %xmm0,%xmm2
    684f:	76 af                	jbe    6800 <_ZN10RelaxationIdLl500EE7iterateEv._omp_fn.11+0x120>
    6851:	66 0f 28 ca          	movapd %xmm2,%xmm1
    6855:	eb b1                	jmp    6808 <_ZN10RelaxationIdLl500EE7iterateEv._omp_fn.11+0x128>
    6857:	66 0f 1f 84 00 00 00 	nopw   0x0(%rax,%rax,1)
    685e:	00 00 
    6860:	48 c7 87 98 0f 00 00 	movq   $0x0,0xf98(%rdi)
    6867:	00 00 00 00 
    686b:	49 81 c0 a0 0f 00 00 	add    $0xfa0,%r8
    6872:	48 81 c7 a0 0f 00 00 	add    $0xfa0,%rdi
    6879:	4d 39 ca             	cmp    %r9,%r10
    687c:	0f 8d 5e ff ff ff    	jge    67e0 <_ZN10RelaxationIdLl500EE7iterateEv._omp_fn.11+0x100>
    6882:	48 8b 45 b8          	mov    -0x48(%rbp),%rax
    6886:	49 81 fe f2 01 00 00 	cmp    $0x1f2,%r14
    688d:	41 ba f2 01 00 00    	mov    $0x1f2,%r10d
    6893:	4d 0f 4e d6          	cmovle %r14,%r10
    6897:	48 01 45 c8          	add    %rax,-0x38(%rbp)
    689b:	49 01 c6             	add    %rax,%r14
    689e:	48 8b 45 c0          	mov    -0x40(%rbp),%rax
    68a2:	49 01 c7             	add    %rax,%r15
    68a5:	49 01 c5             	add    %rax,%r13
    68a8:	48 8b 45 b0          	mov    -0x50(%rbp),%rax
    68ac:	4c 01 f0             	add    %r14,%rax
    68af:	48 3d f1 01 00 00    	cmp    $0x1f1,%rax
    68b5:	0f 8e 01 ff ff ff    	jle    67bc <_ZN10RelaxationIdLl500EE7iterateEv._omp_fn.11+0xdc>
    68bb:	48 83 c4 38          	add    $0x38,%rsp
    68bf:	5b                   	pop    %rbx
    68c0:	41 5c                	pop    %r12
    68c2:	41 5d                	pop    %r13
    68c4:	41 5e                	pop    %r14
    68c6:	41 5f                	pop    %r15
    68c8:	5d                   	pop    %rbp
    68c9:	c3                   	retq   
    68ca:	66 0f 1f 44 00 00    	nopw   0x0(%rax,%rax,1)

00000000000068d0 <_ZN10RelaxationIdLl1000EEC2Eddlldd._omp_fn.12>:
    68d0:	55                   	push   %rbp
    68d1:	48 89 e5             	mov    %rsp,%rbp
    68d4:	41 57                	push   %r15
    68d6:	41 56                	push   %r14
    68d8:	41 55                	push   %r13
    68da:	41 54                	push   %r12
    68dc:	53                   	push   %rbx
    68dd:	48 81 ec 38 10 00 00 	sub    $0x1038,%rsp
    68e4:	48 83 0c 24 00       	orq    $0x0,(%rsp)
    68e9:	48 81 c4 20 10 00 00 	add    $0x1020,%rsp
    68f0:	49 89 fc             	mov    %rdi,%r12
    68f3:	e8 f8 ca ff ff       	callq  33f0 <omp_get_num_threads@plt>
    68f8:	48 63 d8             	movslq %eax,%rbx
    68fb:	e8 30 ca ff ff       	callq  3330 <omp_get_thread_num@plt>
    6900:	48 63 c8             	movslq %eax,%rcx
    6903:	b8 e6 03 00 00       	mov    $0x3e6,%eax
    6908:	48 99                	cqto   
    690a:	48 f7 fb             	idiv   %rbx
    690d:	48 39 d1             	cmp    %rdx,%rcx
    6910:	7d 06                	jge    6918 <_ZN10RelaxationIdLl1000EEC2Eddlldd._omp_fn.12+0x48>
    6912:	48 83 c0 01          	add    $0x1,%rax
    6916:	31 d2                	xor    %edx,%edx
    6918:	48 0f af c8          	imul   %rax,%rcx
    691c:	48 01 ca             	add    %rcx,%rdx
    691f:	48 01 d0             	add    %rdx,%rax
    6922:	48 39 c2             	cmp    %rax,%rdx
    6925:	0f 8d de 00 00 00    	jge    6a09 <_ZN10RelaxationIdLl1000EEC2Eddlldd._omp_fn.12+0x139>
    692b:	4d 8b 2c 24          	mov    (%r12),%r13
    692f:	66 0f ef d2          	pxor   %xmm2,%xmm2
    6933:	48 83 c0 01          	add    $0x1,%rax
    6937:	4c 8d 7a 01          	lea    0x1(%rdx),%r15
    693b:	48 89 45 c0          	mov    %rax,-0x40(%rbp)
    693f:	49 8b 75 30          	mov    0x30(%r13),%rsi
    6943:	0f 1f 44 00 00       	nopl   0x0(%rax,%rax,1)
    6948:	49 69 cf 40 1f 00 00 	imul   $0x1f40,%r15,%rcx
    694f:	41 bc 01 00 00 00    	mov    $0x1,%r12d
    6955:	4c 8d 34 0e          	lea    (%rsi,%rcx,1),%r14
    6959:	48 89 cb             	mov    %rcx,%rbx
    695c:	49 c7 06 00 00 00 00 	movq   $0x0,(%r14)
    6963:	eb 24                	jmp    6989 <_ZN10RelaxationIdLl1000EEC2Eddlldd._omp_fn.12+0xb9>
    6965:	0f 1f 00             	nopl   (%rax)
    6968:	66 0f ef c0          	pxor   %xmm0,%xmm0
    696c:	f2 49 0f 2a 45 28    	cvtsi2sdq 0x28(%r13),%xmm0
    6972:	f2 43 0f 11 04 e6    	movsd  %xmm0,(%r14,%r12,8)
    6978:	49 83 c4 01          	add    $0x1,%r12
    697c:	49 81 fc e7 03 00 00 	cmp    $0x3e7,%r12
    6983:	74 63                	je     69e8 <_ZN10RelaxationIdLl1000EEC2Eddlldd._omp_fn.12+0x118>
    6985:	4c 8d 34 1e          	lea    (%rsi,%rbx,1),%r14
    6989:	49 8b 55 10          	mov    0x10(%r13),%rdx
    698d:	49 8b 45 18          	mov    0x18(%r13),%rax
    6991:	66 0f ef c9          	pxor   %xmm1,%xmm1
    6995:	4c 29 fa             	sub    %r15,%rdx
    6998:	4c 29 e0             	sub    %r12,%rax
    699b:	48 0f af d2          	imul   %rdx,%rdx
    699f:	48 0f af c0          	imul   %rax,%rax
    69a3:	48 01 d0             	add    %rdx,%rax
    69a6:	f2 48 0f 2a c8       	cvtsi2sd %rax,%xmm1
    69ab:	f2 0f 51 c1          	sqrtsd %xmm1,%xmm0
    69af:	66 0f 2e c0          	ucomisd %xmm0,%xmm0
    69b3:	7a 16                	jp     69cb <_ZN10RelaxationIdLl1000EEC2Eddlldd._omp_fn.12+0xfb>
    69b5:	66 0f ef c9          	pxor   %xmm1,%xmm1
    69b9:	f2 49 0f 2a 4d 20    	cvtsi2sdq 0x20(%r13),%xmm1
    69bf:	66 0f 2e c8          	ucomisd %xmm0,%xmm1
    69c3:	77 a3                	ja     6968 <_ZN10RelaxationIdLl1000EEC2Eddlldd._omp_fn.12+0x98>
    69c5:	66 0f 28 c2          	movapd %xmm2,%xmm0
    69c9:	eb a7                	jmp    6972 <_ZN10RelaxationIdLl1000EEC2Eddlldd._omp_fn.12+0xa2>
    69cb:	66 0f 28 c1          	movapd %xmm1,%xmm0
    69cf:	f2 0f 11 55 c8       	movsd  %xmm2,-0x38(%rbp)
    69d4:	e8 e7 c6 ff ff       	callq  30c0 <sqrt@plt>
    69d9:	49 8b 75 30          	mov    0x30(%r13),%rsi
    69dd:	f2 0f 10 55 c8       	movsd  -0x38(%rbp),%xmm2
    69e2:	eb d1                	jmp    69b5 <_ZN10RelaxationIdLl1000EEC2Eddlldd._omp_fn.12+0xe5>
    69e4:	0f 1f 40 00          	nopl   0x0(%rax)
    69e8:	49 69 c7 40 1f 00 00 	imul   $0x1f40,%r15,%rax
    69ef:	49 83 c7 01          	add    $0x1,%r15
    69f3:	4c 3b 7d c0          	cmp    -0x40(%rbp),%r15
    69f7:	48 c7 84 06 38 1f 00 	movq   $0x0,0x1f38(%rsi,%rax,1)
    69fe:	00 00 00 00 00 
    6a03:	0f 85 3f ff ff ff    	jne    6948 <_ZN10RelaxationIdLl1000EEC2Eddlldd._omp_fn.12+0x78>
    6a09:	48 83 c4 18          	add    $0x18,%rsp
    6a0d:	5b                   	pop    %rbx
    6a0e:	41 5c                	pop    %r12
    6a10:	41 5d                	pop    %r13
    6a12:	41 5e                	pop    %r14
    6a14:	41 5f                	pop    %r15
    6a16:	5d                   	pop    %rbp
    6a17:	c3                   	retq   
    6a18:	0f 1f 84 00 00 00 00 	nopl   0x0(%rax,%rax,1)
    6a1f:	00 

0000000000006a20 <_ZN10RelaxationIdLl1000EE7iterateEv._omp_fn.13>:
    6a20:	55                   	push   %rbp
    6a21:	48 89 e5             	mov    %rsp,%rbp
    6a24:	41 57                	push   %r15
    6a26:	41 56                	push   %r14
    6a28:	41 55                	push   %r13
    6a2a:	41 54                	push   %r12
    6a2c:	53                   	push   %rbx
    6a2d:	48 81 ec 58 10 00 00 	sub    $0x1058,%rsp
    6a34:	48 83 0c 24 00       	orq    $0x0,(%rsp)
    6a39:	48 81 c4 20 10 00 00 	add    $0x1020,%rsp
    6a40:	48 8b 1f             	mov    (%rdi),%rbx
    6a43:	49 89 fc             	mov    %rdi,%r12
    6a46:	e8 a5 c9 ff ff       	callq  33f0 <omp_get_num_threads@plt>
    6a4b:	48 63 d0             	movslq %eax,%rdx
    6a4e:	48 89 55 c8          	mov    %rdx,-0x38(%rbp)
    6a52:	e8 d9 c8 ff ff       	callq  3330 <omp_get_thread_num@plt>
    6a57:	48 63 c8             	movslq %eax,%rcx
    6a5a:	be e6 03 00 00       	mov    $0x3e6,%esi
    6a5f:	48 89 c8             	mov    %rcx,%rax
    6a62:	48 c1 e0 05          	shl    $0x5,%rax
    6a66:	48 29 c8             	sub    %rcx,%rax
    6a69:	4c 8d 50 1f          	lea    0x1f(%rax),%r10
    6a6d:	49 81 fa e6 03 00 00 	cmp    $0x3e6,%r10
    6a74:	4c 0f 4f d6          	cmovg  %rsi,%r10
    6a78:	48 3d e5 03 00 00    	cmp    $0x3e5,%rax
    6a7e:	0f 8f 77 01 00 00    	jg     6bfb <_ZN10RelaxationIdLl1000EE7iterateEv._omp_fn.13+0x1db>
    6a84:	48 8b 55 c8          	mov    -0x38(%rbp),%rdx
    6a88:	48 83 c0 01          	add    $0x1,%rax
    6a8c:	49 8b 74 24 08       	mov    0x8(%r12),%rsi
    6a91:	4c 69 e8 40 1f 00 00 	imul   $0x1f40,%rax,%r13
    6a98:	48 89 45 c8          	mov    %rax,-0x38(%rbp)
    6a9c:	4c 8b 63 30          	mov    0x30(%rbx),%r12
    6aa0:	66 0f ef d2          	pxor   %xmm2,%xmm2
    6aa4:	48 89 d7             	mov    %rdx,%rdi
    6aa7:	48 89 d0             	mov    %rdx,%rax
    6aaa:	48 8d 4c 0a 01       	lea    0x1(%rdx,%rcx,1),%rcx
    6aaf:	48 c1 e7 05          	shl    $0x5,%rdi
    6ab3:	48 f7 d8             	neg    %rax
    6ab6:	48 29 d7             	sub    %rdx,%rdi
    6ab9:	48 c1 e0 05          	shl    $0x5,%rax
    6abd:	49 89 ce             	mov    %rcx,%r14
    6ac0:	48 8d 44 02 e1       	lea    -0x1f(%rdx,%rax,1),%rax
    6ac5:	48 89 7d b8          	mov    %rdi,-0x48(%rbp)
    6ac9:	49 c1 e6 05          	shl    $0x5,%r14
    6acd:	48 69 fa c0 c8 03 00 	imul   $0x3c8c0,%rdx,%rdi
    6ad4:	f2 0f 10 1d 14 ab 00 	movsd  0xab14(%rip),%xmm3        # 115f0 <_ZTSN6GetOpt13_DefValOptionIdNS_8_OptionTIdEEEE+0x50>
    6adb:	00 
    6adc:	48 89 45 b0          	mov    %rax,-0x50(%rbp)
    6ae0:	48 c7 c0 c0 e0 ff ff 	mov    $0xffffffffffffe0c0,%rax
    6ae7:	4f 8d 3c 2c          	lea    (%r12,%r13,1),%r15
    6aeb:	48 29 f0             	sub    %rsi,%rax
    6aee:	49 29 ce             	sub    %rcx,%r14
    6af1:	49 01 f5             	add    %rsi,%r13
    6af4:	48 89 45 a8          	mov    %rax,-0x58(%rbp)
    6af8:	48 89 7d c0          	mov    %rdi,-0x40(%rbp)
    6afc:	48 8b 45 a8          	mov    -0x58(%rbp),%rax
    6b00:	4c 8b 4d c8          	mov    -0x38(%rbp),%r9
    6b04:	4d 8d 87 c0 e0 ff ff 	lea    -0x1f40(%r15),%r8
    6b0b:	4c 89 fe             	mov    %r15,%rsi
    6b0e:	4c 89 ef             	mov    %r13,%rdi
    6b11:	4e 8d 1c 28          	lea    (%rax,%r13,1),%r11
    6b15:	b8 80 3e 00 00       	mov    $0x3e80,%eax
    6b1a:	4c 29 f8             	sub    %r15,%rax
    6b1d:	49 01 c3             	add    %rax,%r11
    6b20:	4c 01 de             	add    %r11,%rsi
    6b23:	48 c7 07 00 00 00 00 	movq   $0x0,(%rdi)
    6b2a:	49 83 c1 01          	add    $0x1,%r9
    6b2e:	4c 01 e6             	add    %r12,%rsi
    6b31:	b8 01 00 00 00       	mov    $0x1,%eax
    6b36:	48 8d 96 c8 e0 ff ff 	lea    -0x1f38(%rsi),%rdx
    6b3d:	eb 1b                	jmp    6b5a <_ZN10RelaxationIdLl1000EE7iterateEv._omp_fn.13+0x13a>
    6b3f:	90                   	nop
    6b40:	f2 0f 10 0b          	movsd  (%rbx),%xmm1
    6b44:	f2 0f 5d c8          	minsd  %xmm0,%xmm1
    6b48:	48 83 c2 08          	add    $0x8,%rdx
    6b4c:	48 3d e7 03 00 00    	cmp    $0x3e7,%rax
    6b52:	f2 0f 11 4c c7 f8    	movsd  %xmm1,-0x8(%rdi,%rax,8)
    6b58:	74 46                	je     6ba0 <_ZN10RelaxationIdLl1000EE7iterateEv._omp_fn.13+0x180>
    6b5a:	f2 0f 10 02          	movsd  (%rdx),%xmm0
    6b5e:	48 89 c1             	mov    %rax,%rcx
    6b61:	48 83 c0 01          	add    $0x1,%rax
    6b65:	66 0f 28 c8          	movapd %xmm0,%xmm1
    6b69:	f2 0f 59 cb          	mulsd  %xmm3,%xmm1
    6b6d:	f2 0f 58 0c ce       	addsd  (%rsi,%rcx,8),%xmm1
    6b72:	f2 41 0f 58 0c c8    	addsd  (%r8,%rcx,8),%xmm1
    6b78:	f2 0f 58 4a 08       	addsd  0x8(%rdx),%xmm1
    6b7d:	f2 0f 58 4a f8       	addsd  -0x8(%rdx),%xmm1
    6b82:	f2 0f 59 4b 08       	mulsd  0x8(%rbx),%xmm1
    6b87:	f2 0f 58 c1          	addsd  %xmm1,%xmm0
    6b8b:	66 0f 2e d0          	ucomisd %xmm0,%xmm2
    6b8f:	76 af                	jbe    6b40 <_ZN10RelaxationIdLl1000EE7iterateEv._omp_fn.13+0x120>
    6b91:	66 0f 28 ca          	movapd %xmm2,%xmm1
    6b95:	eb b1                	jmp    6b48 <_ZN10RelaxationIdLl1000EE7iterateEv._omp_fn.13+0x128>
    6b97:	66 0f 1f 84 00 00 00 	nopw   0x0(%rax,%rax,1)
    6b9e:	00 00 
    6ba0:	48 c7 87 38 1f 00 00 	movq   $0x0,0x1f38(%rdi)
    6ba7:	00 00 00 00 
    6bab:	49 81 c0 40 1f 00 00 	add    $0x1f40,%r8
    6bb2:	48 81 c7 40 1f 00 00 	add    $0x1f40,%rdi
    6bb9:	4d 39 ca             	cmp    %r9,%r10
    6bbc:	0f 8d 5e ff ff ff    	jge    6b20 <_ZN10RelaxationIdLl1000EE7iterateEv._omp_fn.13+0x100>
    6bc2:	48 8b 45 b8          	mov    -0x48(%rbp),%rax
    6bc6:	49 81 fe e6 03 00 00 	cmp    $0x3e6,%r14
    6bcd:	41 ba e6 03 00 00    	mov    $0x3e6,%r10d
    6bd3:	4d 0f 4e d6          	cmovle %r14,%r10
    6bd7:	48 01 45 c8          	add    %rax,-0x38(%rbp)
    6bdb:	49 01 c6             	add    %rax,%r14
    6bde:	48 8b 45 c0          	mov    -0x40(%rbp),%rax
    6be2:	49 01 c7             	add    %rax,%r15
    6be5:	49 01 c5             	add    %rax,%r13
    6be8:	48 8b 45 b0          	mov    -0x50(%rbp),%rax
    6bec:	4c 01 f0             	add    %r14,%rax
    6bef:	48 3d e5 03 00 00    	cmp    $0x3e5,%rax
    6bf5:	0f 8e 01 ff ff ff    	jle    6afc <_ZN10RelaxationIdLl1000EE7iterateEv._omp_fn.13+0xdc>
    6bfb:	48 83 c4 38          	add    $0x38,%rsp
    6bff:	5b                   	pop    %rbx
    6c00:	41 5c                	pop    %r12
    6c02:	41 5d                	pop    %r13
    6c04:	41 5e                	pop    %r14
    6c06:	41 5f                	pop    %r15
    6c08:	5d                   	pop    %rbp
    6c09:	c3                   	retq   
    6c0a:	66 0f 1f 44 00 00    	nopw   0x0(%rax,%rax,1)

0000000000006c10 <_ZN10RelaxationIdLl10000EEC2Eddlldd._omp_fn.14>:
    6c10:	55                   	push   %rbp
    6c11:	48 89 e5             	mov    %rsp,%rbp
    6c14:	41 57                	push   %r15
    6c16:	41 56                	push   %r14
    6c18:	41 55                	push   %r13
    6c1a:	41 54                	push   %r12
    6c1c:	53                   	push   %rbx
    6c1d:	48 81 ec 38 10 00 00 	sub    $0x1038,%rsp
    6c24:	48 83 0c 24 00       	orq    $0x0,(%rsp)
    6c29:	48 81 c4 20 10 00 00 	add    $0x1020,%rsp
    6c30:	49 89 fc             	mov    %rdi,%r12
    6c33:	e8 b8 c7 ff ff       	callq  33f0 <omp_get_num_threads@plt>
    6c38:	48 63 d8             	movslq %eax,%rbx
    6c3b:	e8 f0 c6 ff ff       	callq  3330 <omp_get_thread_num@plt>
    6c40:	48 63 c8             	movslq %eax,%rcx
    6c43:	b8 0e 27 00 00       	mov    $0x270e,%eax
    6c48:	48 99                	cqto   
    6c4a:	48 f7 fb             	idiv   %rbx
    6c4d:	48 39 d1             	cmp    %rdx,%rcx
    6c50:	7d 06                	jge    6c58 <_ZN10RelaxationIdLl10000EEC2Eddlldd._omp_fn.14+0x48>
    6c52:	48 83 c0 01          	add    $0x1,%rax
    6c56:	31 d2                	xor    %edx,%edx
    6c58:	48 0f af c8          	imul   %rax,%rcx
    6c5c:	48 01 ca             	add    %rcx,%rdx
    6c5f:	48 01 d0             	add    %rdx,%rax
    6c62:	48 39 c2             	cmp    %rax,%rdx
    6c65:	0f 8d de 00 00 00    	jge    6d49 <_ZN10RelaxationIdLl10000EEC2Eddlldd._omp_fn.14+0x139>
    6c6b:	4d 8b 2c 24          	mov    (%r12),%r13
    6c6f:	66 0f ef d2          	pxor   %xmm2,%xmm2
    6c73:	48 83 c0 01          	add    $0x1,%rax
    6c77:	4c 8d 7a 01          	lea    0x1(%rdx),%r15
    6c7b:	48 89 45 c0          	mov    %rax,-0x40(%rbp)
    6c7f:	49 8b 75 30          	mov    0x30(%r13),%rsi
    6c83:	0f 1f 44 00 00       	nopl   0x0(%rax,%rax,1)
    6c88:	49 69 cf 80 38 01 00 	imul   $0x13880,%r15,%rcx
    6c8f:	41 bc 01 00 00 00    	mov    $0x1,%r12d
    6c95:	4c 8d 34 0e          	lea    (%rsi,%rcx,1),%r14
    6c99:	48 89 cb             	mov    %rcx,%rbx
    6c9c:	49 c7 06 00 00 00 00 	movq   $0x0,(%r14)
    6ca3:	eb 24                	jmp    6cc9 <_ZN10RelaxationIdLl10000EEC2Eddlldd._omp_fn.14+0xb9>
    6ca5:	0f 1f 00             	nopl   (%rax)
    6ca8:	66 0f ef c0          	pxor   %xmm0,%xmm0
    6cac:	f2 49 0f 2a 45 28    	cvtsi2sdq 0x28(%r13),%xmm0
    6cb2:	f2 43 0f 11 04 e6    	movsd  %xmm0,(%r14,%r12,8)
    6cb8:	49 83 c4 01          	add    $0x1,%r12
    6cbc:	49 81 fc 0f 27 00 00 	cmp    $0x270f,%r12
    6cc3:	74 63                	je     6d28 <_ZN10RelaxationIdLl10000EEC2Eddlldd._omp_fn.14+0x118>
    6cc5:	4c 8d 34 1e          	lea    (%rsi,%rbx,1),%r14
    6cc9:	49 8b 55 10          	mov    0x10(%r13),%rdx
    6ccd:	49 8b 45 18          	mov    0x18(%r13),%rax
    6cd1:	66 0f ef c9          	pxor   %xmm1,%xmm1
    6cd5:	4c 29 fa             	sub    %r15,%rdx
    6cd8:	4c 29 e0             	sub    %r12,%rax
    6cdb:	48 0f af d2          	imul   %rdx,%rdx
    6cdf:	48 0f af c0          	imul   %rax,%rax
    6ce3:	48 01 d0             	add    %rdx,%rax
    6ce6:	f2 48 0f 2a c8       	cvtsi2sd %rax,%xmm1
    6ceb:	f2 0f 51 c1          	sqrtsd %xmm1,%xmm0
    6cef:	66 0f 2e c0          	ucomisd %xmm0,%xmm0
    6cf3:	7a 16                	jp     6d0b <_ZN10RelaxationIdLl10000EEC2Eddlldd._omp_fn.14+0xfb>
    6cf5:	66 0f ef c9          	pxor   %xmm1,%xmm1
    6cf9:	f2 49 0f 2a 4d 20    	cvtsi2sdq 0x20(%r13),%xmm1
    6cff:	66 0f 2e c8          	ucomisd %xmm0,%xmm1
    6d03:	77 a3                	ja     6ca8 <_ZN10RelaxationIdLl10000EEC2Eddlldd._omp_fn.14+0x98>
    6d05:	66 0f 28 c2          	movapd %xmm2,%xmm0
    6d09:	eb a7                	jmp    6cb2 <_ZN10RelaxationIdLl10000EEC2Eddlldd._omp_fn.14+0xa2>
    6d0b:	66 0f 28 c1          	movapd %xmm1,%xmm0
    6d0f:	f2 0f 11 55 c8       	movsd  %xmm2,-0x38(%rbp)
    6d14:	e8 a7 c3 ff ff       	callq  30c0 <sqrt@plt>
    6d19:	49 8b 75 30          	mov    0x30(%r13),%rsi
    6d1d:	f2 0f 10 55 c8       	movsd  -0x38(%rbp),%xmm2
    6d22:	eb d1                	jmp    6cf5 <_ZN10RelaxationIdLl10000EEC2Eddlldd._omp_fn.14+0xe5>
    6d24:	0f 1f 40 00          	nopl   0x0(%rax)
    6d28:	49 69 c7 80 38 01 00 	imul   $0x13880,%r15,%rax
    6d2f:	49 83 c7 01          	add    $0x1,%r15
    6d33:	4c 3b 7d c0          	cmp    -0x40(%rbp),%r15
    6d37:	48 c7 84 06 78 38 01 	movq   $0x0,0x13878(%rsi,%rax,1)
    6d3e:	00 00 00 00 00 
    6d43:	0f 85 3f ff ff ff    	jne    6c88 <_ZN10RelaxationIdLl10000EEC2Eddlldd._omp_fn.14+0x78>
    6d49:	48 83 c4 18          	add    $0x18,%rsp
    6d4d:	5b                   	pop    %rbx
    6d4e:	41 5c                	pop    %r12
    6d50:	41 5d                	pop    %r13
    6d52:	41 5e                	pop    %r14
    6d54:	41 5f                	pop    %r15
    6d56:	5d                   	pop    %rbp
    6d57:	c3                   	retq   
    6d58:	0f 1f 84 00 00 00 00 	nopl   0x0(%rax,%rax,1)
    6d5f:	00 

0000000000006d60 <_ZN10RelaxationIdLl10000EE7iterateEv._omp_fn.15>:
    6d60:	55                   	push   %rbp
    6d61:	48 89 e5             	mov    %rsp,%rbp
    6d64:	41 57                	push   %r15
    6d66:	41 56                	push   %r14
    6d68:	41 55                	push   %r13
    6d6a:	41 54                	push   %r12
    6d6c:	53                   	push   %rbx
    6d6d:	48 81 ec 58 10 00 00 	sub    $0x1058,%rsp
    6d74:	48 83 0c 24 00       	orq    $0x0,(%rsp)
    6d79:	48 81 c4 20 10 00 00 	add    $0x1020,%rsp
    6d80:	48 8b 1f             	mov    (%rdi),%rbx
    6d83:	49 89 fc             	mov    %rdi,%r12
    6d86:	e8 65 c6 ff ff       	callq  33f0 <omp_get_num_threads@plt>
    6d8b:	48 63 d0             	movslq %eax,%rdx
    6d8e:	48 89 55 c8          	mov    %rdx,-0x38(%rbp)
    6d92:	e8 99 c5 ff ff       	callq  3330 <omp_get_thread_num@plt>
    6d97:	48 63 c8             	movslq %eax,%rcx
    6d9a:	be 0e 27 00 00       	mov    $0x270e,%esi
    6d9f:	48 89 c8             	mov    %rcx,%rax
    6da2:	48 c1 e0 05          	shl    $0x5,%rax
    6da6:	48 29 c8             	sub    %rcx,%rax
    6da9:	4c 8d 50 1f          	lea    0x1f(%rax),%r10
    6dad:	49 81 fa 0e 27 00 00 	cmp    $0x270e,%r10
    6db4:	4c 0f 4f d6          	cmovg  %rsi,%r10
    6db8:	48 3d 0d 27 00 00    	cmp    $0x270d,%rax
    6dbe:	0f 8f 77 01 00 00    	jg     6f3b <_ZN10RelaxationIdLl10000EE7iterateEv._omp_fn.15+0x1db>
    6dc4:	48 8b 55 c8          	mov    -0x38(%rbp),%rdx
    6dc8:	48 83 c0 01          	add    $0x1,%rax
    6dcc:	49 8b 74 24 08       	mov    0x8(%r12),%rsi
    6dd1:	4c 69 e8 80 38 01 00 	imul   $0x13880,%rax,%r13
    6dd8:	48 89 45 c8          	mov    %rax,-0x38(%rbp)
    6ddc:	4c 8b 63 30          	mov    0x30(%rbx),%r12
    6de0:	66 0f ef d2          	pxor   %xmm2,%xmm2
    6de4:	48 89 d7             	mov    %rdx,%rdi
    6de7:	48 89 d0             	mov    %rdx,%rax
    6dea:	48 8d 4c 0a 01       	lea    0x1(%rdx,%rcx,1),%rcx
    6def:	48 c1 e7 05          	shl    $0x5,%rdi
    6df3:	48 f7 d8             	neg    %rax
    6df6:	48 29 d7             	sub    %rdx,%rdi
    6df9:	48 c1 e0 05          	shl    $0x5,%rax
    6dfd:	49 89 ce             	mov    %rcx,%r14
    6e00:	48 8d 44 02 e1       	lea    -0x1f(%rdx,%rax,1),%rax
    6e05:	48 89 7d b8          	mov    %rdi,-0x48(%rbp)
    6e09:	49 c1 e6 05          	shl    $0x5,%r14
    6e0d:	48 69 fa 80 d7 25 00 	imul   $0x25d780,%rdx,%rdi
    6e14:	f2 0f 10 1d d4 a7 00 	movsd  0xa7d4(%rip),%xmm3        # 115f0 <_ZTSN6GetOpt13_DefValOptionIdNS_8_OptionTIdEEEE+0x50>
    6e1b:	00 
    6e1c:	48 89 45 b0          	mov    %rax,-0x50(%rbp)
    6e20:	48 c7 c0 80 c7 fe ff 	mov    $0xfffffffffffec780,%rax
    6e27:	4f 8d 3c 2c          	lea    (%r12,%r13,1),%r15
    6e2b:	48 29 f0             	sub    %rsi,%rax
    6e2e:	49 29 ce             	sub    %rcx,%r14
    6e31:	49 01 f5             	add    %rsi,%r13
    6e34:	48 89 45 a8          	mov    %rax,-0x58(%rbp)
    6e38:	48 89 7d c0          	mov    %rdi,-0x40(%rbp)
    6e3c:	48 8b 45 a8          	mov    -0x58(%rbp),%rax
    6e40:	4c 8b 4d c8          	mov    -0x38(%rbp),%r9
    6e44:	4d 8d 87 80 c7 fe ff 	lea    -0x13880(%r15),%r8
    6e4b:	4c 89 fe             	mov    %r15,%rsi
    6e4e:	4c 89 ef             	mov    %r13,%rdi
    6e51:	4e 8d 1c 28          	lea    (%rax,%r13,1),%r11
    6e55:	b8 00 71 02 00       	mov    $0x27100,%eax
    6e5a:	4c 29 f8             	sub    %r15,%rax
    6e5d:	49 01 c3             	add    %rax,%r11
    6e60:	4c 01 de             	add    %r11,%rsi
    6e63:	48 c7 07 00 00 00 00 	movq   $0x0,(%rdi)
    6e6a:	49 83 c1 01          	add    $0x1,%r9
    6e6e:	4c 01 e6             	add    %r12,%rsi
    6e71:	b8 01 00 00 00       	mov    $0x1,%eax
    6e76:	48 8d 96 88 c7 fe ff 	lea    -0x13878(%rsi),%rdx
    6e7d:	eb 1b                	jmp    6e9a <_ZN10RelaxationIdLl10000EE7iterateEv._omp_fn.15+0x13a>
    6e7f:	90                   	nop
    6e80:	f2 0f 10 0b          	movsd  (%rbx),%xmm1
    6e84:	f2 0f 5d c8          	minsd  %xmm0,%xmm1
    6e88:	48 83 c2 08          	add    $0x8,%rdx
    6e8c:	48 3d 0f 27 00 00    	cmp    $0x270f,%rax
    6e92:	f2 0f 11 4c c7 f8    	movsd  %xmm1,-0x8(%rdi,%rax,8)
    6e98:	74 46                	je     6ee0 <_ZN10RelaxationIdLl10000EE7iterateEv._omp_fn.15+0x180>
    6e9a:	f2 0f 10 02          	movsd  (%rdx),%xmm0
    6e9e:	48 89 c1             	mov    %rax,%rcx
    6ea1:	48 83 c0 01          	add    $0x1,%rax
    6ea5:	66 0f 28 c8          	movapd %xmm0,%xmm1
    6ea9:	f2 0f 59 cb          	mulsd  %xmm3,%xmm1
    6ead:	f2 0f 58 0c ce       	addsd  (%rsi,%rcx,8),%xmm1
    6eb2:	f2 41 0f 58 0c c8    	addsd  (%r8,%rcx,8),%xmm1
    6eb8:	f2 0f 58 4a 08       	addsd  0x8(%rdx),%xmm1
    6ebd:	f2 0f 58 4a f8       	addsd  -0x8(%rdx),%xmm1
    6ec2:	f2 0f 59 4b 08       	mulsd  0x8(%rbx),%xmm1
    6ec7:	f2 0f 58 c1          	addsd  %xmm1,%xmm0
    6ecb:	66 0f 2e d0          	ucomisd %xmm0,%xmm2
    6ecf:	76 af                	jbe    6e80 <_ZN10RelaxationIdLl10000EE7iterateEv._omp_fn.15+0x120>
    6ed1:	66 0f 28 ca          	movapd %xmm2,%xmm1
    6ed5:	eb b1                	jmp    6e88 <_ZN10RelaxationIdLl10000EE7iterateEv._omp_fn.15+0x128>
    6ed7:	66 0f 1f 84 00 00 00 	nopw   0x0(%rax,%rax,1)
    6ede:	00 00 
    6ee0:	48 c7 87 78 38 01 00 	movq   $0x0,0x13878(%rdi)
    6ee7:	00 00 00 00 
    6eeb:	49 81 c0 80 38 01 00 	add    $0x13880,%r8
    6ef2:	48 81 c7 80 38 01 00 	add    $0x13880,%rdi
    6ef9:	4d 39 ca             	cmp    %r9,%r10
    6efc:	0f 8d 5e ff ff ff    	jge    6e60 <_ZN10RelaxationIdLl10000EE7iterateEv._omp_fn.15+0x100>
    6f02:	48 8b 45 b8          	mov    -0x48(%rbp),%rax
    6f06:	49 81 fe 0e 27 00 00 	cmp    $0x270e,%r14
    6f0d:	41 ba 0e 27 00 00    	mov    $0x270e,%r10d
    6f13:	4d 0f 4e d6          	cmovle %r14,%r10
    6f17:	48 01 45 c8          	add    %rax,-0x38(%rbp)
    6f1b:	49 01 c6             	add    %rax,%r14
    6f1e:	48 8b 45 c0          	mov    -0x40(%rbp),%rax
    6f22:	49 01 c7             	add    %rax,%r15
    6f25:	49 01 c5             	add    %rax,%r13
    6f28:	48 8b 45 b0          	mov    -0x50(%rbp),%rax
    6f2c:	4c 01 f0             	add    %r14,%rax
    6f2f:	48 3d 0d 27 00 00    	cmp    $0x270d,%rax
    6f35:	0f 8e 01 ff ff ff    	jle    6e3c <_ZN10RelaxationIdLl10000EE7iterateEv._omp_fn.15+0xdc>
    6f3b:	48 83 c4 38          	add    $0x38,%rsp
    6f3f:	5b                   	pop    %rbx
    6f40:	41 5c                	pop    %r12
    6f42:	41 5d                	pop    %r13
    6f44:	41 5e                	pop    %r14
    6f46:	41 5f                	pop    %r15
    6f48:	5d                   	pop    %rbp
    6f49:	c3                   	retq   
    6f4a:	66 0f 1f 44 00 00    	nopw   0x0(%rax,%rax,1)

0000000000006f50 <_ZN6GetOpt8GetOptExD1Ev>:
    6f50:	55                   	push   %rbp
    6f51:	48 8d 05 48 cc 20 00 	lea    0x20cc48(%rip),%rax        # 213ba0 <_ZTVN6GetOpt8GetOptExE+0x10>
    6f58:	48 89 e5             	mov    %rsp,%rbp
    6f5b:	48 89 07             	mov    %rax,(%rdi)
    6f5e:	5d                   	pop    %rbp
    6f5f:	e9 5c c4 ff ff       	jmpq   33c0 <_ZNSt9exceptionD2Ev@plt>
    6f64:	66 2e 0f 1f 84 00 00 	nopw   %cs:0x0(%rax,%rax,1)
    6f6b:	00 00 00 
    6f6e:	66 90                	xchg   %ax,%ax

0000000000006f70 <_ZN6GetOpt8GetOptExD0Ev>:
    6f70:	55                   	push   %rbp
    6f71:	48 89 e5             	mov    %rsp,%rbp
    6f74:	53                   	push   %rbx
    6f75:	48 81 ec 28 10 00 00 	sub    $0x1028,%rsp
    6f7c:	48 83 0c 24 00       	orq    $0x0,(%rsp)
    6f81:	48 81 c4 20 10 00 00 	add    $0x1020,%rsp
    6f88:	48 8d 05 11 cc 20 00 	lea    0x20cc11(%rip),%rax        # 213ba0 <_ZTVN6GetOpt8GetOptExE+0x10>
    6f8f:	48 89 fb             	mov    %rdi,%rbx
    6f92:	48 89 07             	mov    %rax,(%rdi)
    6f95:	e8 26 c4 ff ff       	callq  33c0 <_ZNSt9exceptionD2Ev@plt>
    6f9a:	48 83 c4 08          	add    $0x8,%rsp
    6f9e:	48 89 df             	mov    %rbx,%rdi
    6fa1:	5b                   	pop    %rbx
    6fa2:	5d                   	pop    %rbp
    6fa3:	e9 98 c1 ff ff       	jmpq   3140 <_ZdlPv@plt>
    6fa8:	0f 1f 84 00 00 00 00 	nopl   0x0(%rax,%rax,1)
    6faf:	00 

0000000000006fb0 <_ZNSs4_Rep10_M_disposeERKSaIcE.part.19>:
    6fb0:	48 83 3d 20 d0 20 00 	cmpq   $0x0,0x20d020(%rip)        # 213fd8 <_DYNAMIC+0x240>
    6fb7:	00 
    6fb8:	55                   	push   %rbp
    6fb9:	48 89 e5             	mov    %rsp,%rbp
    6fbc:	74 12                	je     6fd0 <_ZNSs4_Rep10_M_disposeERKSaIcE.part.19+0x20>
    6fbe:	b8 ff ff ff ff       	mov    $0xffffffff,%eax
    6fc3:	f0 0f c1 47 10       	lock xadd %eax,0x10(%rdi)
    6fc8:	85 c0                	test   %eax,%eax
    6fca:	7e 11                	jle    6fdd <_ZNSs4_Rep10_M_disposeERKSaIcE.part.19+0x2d>
    6fcc:	5d                   	pop    %rbp
    6fcd:	c3                   	retq   
    6fce:	66 90                	xchg   %ax,%ax
    6fd0:	8b 47 10             	mov    0x10(%rdi),%eax
    6fd3:	8d 50 ff             	lea    -0x1(%rax),%edx
    6fd6:	85 c0                	test   %eax,%eax
    6fd8:	89 57 10             	mov    %edx,0x10(%rdi)
    6fdb:	7f ef                	jg     6fcc <_ZNSs4_Rep10_M_disposeERKSaIcE.part.19+0x1c>
    6fdd:	5d                   	pop    %rbp
    6fde:	e9 fd c0 ff ff       	jmpq   30e0 <_ZNSs4_Rep10_M_destroyERKSaIcE@plt>
    6fe3:	66 2e 0f 1f 84 00 00 	nopw   %cs:0x0(%rax,%rax,1)
    6fea:	00 00 00 
    6fed:	0f 1f 00             	nopl   (%rax)

0000000000006ff0 <_ZStlsIcSt11char_traitsIcEERSt13basic_ostreamIT_T0_ES6_St8_SetfillIS3_E.constprop.77>:
    6ff0:	55                   	push   %rbp
    6ff1:	48 89 e5             	mov    %rsp,%rbp
    6ff4:	41 55                	push   %r13
    6ff6:	41 54                	push   %r12
    6ff8:	53                   	push   %rbx
    6ff9:	48 81 ec 28 10 00 00 	sub    $0x1028,%rsp
    7000:	48 83 0c 24 00       	orq    $0x0,(%rsp)
    7005:	48 81 c4 20 10 00 00 	add    $0x1020,%rsp
    700c:	48 8b 07             	mov    (%rdi),%rax
    700f:	49 89 fc             	mov    %rdi,%r12
    7012:	48 89 fb             	mov    %rdi,%rbx
    7015:	4c 03 60 e8          	add    -0x18(%rax),%r12
    7019:	41 80 bc 24 e1 00 00 	cmpb   $0x0,0xe1(%r12)
    7020:	00 00 
    7022:	74 17                	je     703b <_ZStlsIcSt11char_traitsIcEERSt13basic_ostreamIT_T0_ES6_St8_SetfillIS3_E.constprop.77+0x4b>
    7024:	41 c6 84 24 e0 00 00 	movb   $0x20,0xe0(%r12)
    702b:	00 20 
    702d:	48 83 c4 08          	add    $0x8,%rsp
    7031:	48 89 d8             	mov    %rbx,%rax
    7034:	5b                   	pop    %rbx
    7035:	41 5c                	pop    %r12
    7037:	41 5d                	pop    %r13
    7039:	5d                   	pop    %rbp
    703a:	c3                   	retq   
    703b:	4d 8b ac 24 f0 00 00 	mov    0xf0(%r12),%r13
    7042:	00 
    7043:	4d 85 ed             	test   %r13,%r13
    7046:	74 3a                	je     7082 <_ZStlsIcSt11char_traitsIcEERSt13basic_ostreamIT_T0_ES6_St8_SetfillIS3_E.constprop.77+0x92>
    7048:	41 80 7d 38 00       	cmpb   $0x0,0x38(%r13)
    704d:	74 0b                	je     705a <_ZStlsIcSt11char_traitsIcEERSt13basic_ostreamIT_T0_ES6_St8_SetfillIS3_E.constprop.77+0x6a>
    704f:	41 c6 84 24 e1 00 00 	movb   $0x1,0xe1(%r12)
    7056:	00 01 
    7058:	eb ca                	jmp    7024 <_ZStlsIcSt11char_traitsIcEERSt13basic_ostreamIT_T0_ES6_St8_SetfillIS3_E.constprop.77+0x34>
    705a:	4c 89 ef             	mov    %r13,%rdi
    705d:	e8 9e c1 ff ff       	callq  3200 <_ZNKSt5ctypeIcE13_M_widen_initEv@plt>
    7062:	49 8b 45 00          	mov    0x0(%r13),%rax
    7066:	48 8d 15 93 e4 ff ff 	lea    -0x1b6d(%rip),%rdx        # 5500 <_ZNKSt5ctypeIcE8do_widenEc>
    706d:	48 8b 40 30          	mov    0x30(%rax),%rax
    7071:	48 39 d0             	cmp    %rdx,%rax
    7074:	74 d9                	je     704f <_ZStlsIcSt11char_traitsIcEERSt13basic_ostreamIT_T0_ES6_St8_SetfillIS3_E.constprop.77+0x5f>
    7076:	be 20 00 00 00       	mov    $0x20,%esi
    707b:	4c 89 ef             	mov    %r13,%rdi
    707e:	ff d0                	callq  *%rax
    7080:	eb cd                	jmp    704f <_ZStlsIcSt11char_traitsIcEERSt13basic_ostreamIT_T0_ES6_St8_SetfillIS3_E.constprop.77+0x5f>
    7082:	e8 a9 c1 ff ff       	callq  3230 <_ZSt16__throw_bad_castv@plt>
    7087:	66 0f 1f 84 00 00 00 	nopw   0x0(%rax,%rax,1)
    708e:	00 00 

0000000000007090 <_ZN9__gnu_cxx12__to_xstringISscEET_PFiPT0_mPKS2_P13__va_list_tagEmS5_z.constprop.76>:
    7090:	55                   	push   %rbp
    7091:	48 89 e5             	mov    %rsp,%rbp
    7094:	41 56                	push   %r14
    7096:	41 55                	push   %r13
    7098:	41 54                	push   %r12
    709a:	53                   	push   %rbx
    709b:	48 81 ec 00 11 00 00 	sub    $0x1100,%rsp
    70a2:	48 83 0c 24 00       	orq    $0x0,(%rsp)
    70a7:	48 81 c4 20 10 00 00 	add    $0x1020,%rsp
    70ae:	84 c0                	test   %al,%al
    70b0:	48 89 fb             	mov    %rdi,%rbx
    70b3:	4c 89 85 50 ff ff ff 	mov    %r8,-0xb0(%rbp)
    70ba:	4c 89 8d 58 ff ff ff 	mov    %r9,-0xa8(%rbp)
    70c1:	74 26                	je     70e9 <_ZN9__gnu_cxx12__to_xstringISscEET_PFiPT0_mPKS2_P13__va_list_tagEmS5_z.constprop.76+0x59>
    70c3:	0f 29 85 60 ff ff ff 	movaps %xmm0,-0xa0(%rbp)
    70ca:	0f 29 8d 70 ff ff ff 	movaps %xmm1,-0x90(%rbp)
    70d1:	0f 29 55 80          	movaps %xmm2,-0x80(%rbp)
    70d5:	0f 29 5d 90          	movaps %xmm3,-0x70(%rbp)
    70d9:	0f 29 65 a0          	movaps %xmm4,-0x60(%rbp)
    70dd:	0f 29 6d b0          	movaps %xmm5,-0x50(%rbp)
    70e1:	0f 29 75 c0          	movaps %xmm6,-0x40(%rbp)
    70e5:	0f 29 7d d0          	movaps %xmm7,-0x30(%rbp)
    70e9:	48 81 ec 20 10 00 00 	sub    $0x1020,%rsp
    70f0:	64 48 8b 04 25 28 00 	mov    %fs:0x28,%rax
    70f7:	00 00 
    70f9:	48 89 85 28 ff ff ff 	mov    %rax,-0xd8(%rbp)
    7100:	31 c0                	xor    %eax,%eax
    7102:	48 89 e0             	mov    %rsp,%rax
    7105:	eb 15                	jmp    711c <_ZN9__gnu_cxx12__to_xstringISscEET_PFiPT0_mPKS2_P13__va_list_tagEmS5_z.constprop.76+0x8c>
    7107:	66 0f 1f 84 00 00 00 	nopw   0x0(%rax,%rax,1)
    710e:	00 00 
    7110:	48 81 ec 00 10 00 00 	sub    $0x1000,%rsp
    7117:	48 83 0c 24 00       	orq    $0x0,(%rsp)
    711c:	48 39 c4             	cmp    %rax,%rsp
    711f:	75 ef                	jne    7110 <_ZN9__gnu_cxx12__to_xstringISscEET_PFiPT0_mPKS2_P13__va_list_tagEmS5_z.constprop.76+0x80>
    7121:	48 83 ec 20          	sub    $0x20,%rsp
    7125:	48 8d 45 10          	lea    0x10(%rbp),%rax
    7129:	4c 8d 8d 10 ff ff ff 	lea    -0xf0(%rbp),%r9
    7130:	48 83 0c 24 00       	orq    $0x0,(%rsp)
    7135:	48 81 c4 20 10 00 00 	add    $0x1020,%rsp
    713c:	4c 8d 05 1d a0 00 00 	lea    0xa01d(%rip),%r8        # 11160 <_fini+0xc>
    7143:	4c 8d 74 24 0f       	lea    0xf(%rsp),%r14
    7148:	48 89 85 18 ff ff ff 	mov    %rax,-0xe8(%rbp)
    714f:	48 8d 85 30 ff ff ff 	lea    -0xd0(%rbp),%rax
    7156:	b9 10 00 00 00       	mov    $0x10,%ecx
    715b:	ba 01 00 00 00       	mov    $0x1,%edx
    7160:	be 10 00 00 00       	mov    $0x10,%esi
    7165:	49 83 e6 f0          	and    $0xfffffffffffffff0,%r14
    7169:	c7 85 10 ff ff ff 20 	movl   $0x20,-0xf0(%rbp)
    7170:	00 00 00 
    7173:	4c 89 f7             	mov    %r14,%rdi
    7176:	c7 85 14 ff ff ff 30 	movl   $0x30,-0xec(%rbp)
    717d:	00 00 00 
    7180:	48 89 85 20 ff ff ff 	mov    %rax,-0xe0(%rbp)
    7187:	e8 64 bf ff ff       	callq  30f0 <__vsnprintf_chk@plt>
    718c:	4c 63 e8             	movslq %eax,%r13
    718f:	48 8d 0d 62 d1 20 00 	lea    0x20d162(%rip),%rcx        # 2142f8 <_ZNSs4_Rep20_S_empty_rep_storageE@@GLIBCXX_3.4+0x18>
    7196:	4d 85 ed             	test   %r13,%r13
    7199:	74 33                	je     71ce <_ZN9__gnu_cxx12__to_xstringISscEET_PFiPT0_mPKS2_P13__va_list_tagEmS5_z.constprop.76+0x13e>
    719b:	48 8d 95 0f ff ff ff 	lea    -0xf1(%rbp),%rdx
    71a2:	31 f6                	xor    %esi,%esi
    71a4:	4c 89 ef             	mov    %r13,%rdi
    71a7:	e8 74 c2 ff ff       	callq  3420 <_ZNSs4_Rep9_S_createEmmRKSaIcE@plt>
    71ac:	49 83 fd 01          	cmp    $0x1,%r13
    71b0:	49 89 c4             	mov    %rax,%r12
    71b3:	48 8d 48 18          	lea    0x18(%rax),%rcx
    71b7:	75 3f                	jne    71f8 <_ZN9__gnu_cxx12__to_xstringISscEET_PFiPT0_mPKS2_P13__va_list_tagEmS5_z.constprop.76+0x168>
    71b9:	41 0f b6 06          	movzbl (%r14),%eax
    71bd:	41 88 44 24 18       	mov    %al,0x18(%r12)
    71c2:	48 8d 05 17 d1 20 00 	lea    0x20d117(%rip),%rax        # 2142e0 <_ZNSs4_Rep20_S_empty_rep_storageE@@GLIBCXX_3.4>
    71c9:	49 39 c4             	cmp    %rax,%r12
    71cc:	75 42                	jne    7210 <_ZN9__gnu_cxx12__to_xstringISscEET_PFiPT0_mPKS2_P13__va_list_tagEmS5_z.constprop.76+0x180>
    71ce:	48 8b b5 28 ff ff ff 	mov    -0xd8(%rbp),%rsi
    71d5:	64 48 33 34 25 28 00 	xor    %fs:0x28,%rsi
    71dc:	00 00 
    71de:	48 89 0b             	mov    %rcx,(%rbx)
    71e1:	48 89 d8             	mov    %rbx,%rax
    71e4:	75 3f                	jne    7225 <_ZN9__gnu_cxx12__to_xstringISscEET_PFiPT0_mPKS2_P13__va_list_tagEmS5_z.constprop.76+0x195>
    71e6:	48 8d 65 e0          	lea    -0x20(%rbp),%rsp
    71ea:	5b                   	pop    %rbx
    71eb:	41 5c                	pop    %r12
    71ed:	41 5d                	pop    %r13
    71ef:	41 5e                	pop    %r14
    71f1:	5d                   	pop    %rbp
    71f2:	c3                   	retq   
    71f3:	0f 1f 44 00 00       	nopl   0x0(%rax,%rax,1)
    71f8:	48 89 cf             	mov    %rcx,%rdi
    71fb:	4c 89 ea             	mov    %r13,%rdx
    71fe:	4c 89 f6             	mov    %r14,%rsi
    7201:	e8 fa be ff ff       	callq  3100 <memcpy@plt>
    7206:	48 89 c1             	mov    %rax,%rcx
    7209:	eb b7                	jmp    71c2 <_ZN9__gnu_cxx12__to_xstringISscEET_PFiPT0_mPKS2_P13__va_list_tagEmS5_z.constprop.76+0x132>
    720b:	0f 1f 44 00 00       	nopl   0x0(%rax,%rax,1)
    7210:	41 c7 44 24 10 00 00 	movl   $0x0,0x10(%r12)
    7217:	00 00 
    7219:	4d 89 2c 24          	mov    %r13,(%r12)
    721d:	43 c6 44 2c 18 00    	movb   $0x0,0x18(%r12,%r13,1)
    7223:	eb a9                	jmp    71ce <_ZN9__gnu_cxx12__to_xstringISscEET_PFiPT0_mPKS2_P13__va_list_tagEmS5_z.constprop.76+0x13e>
    7225:	e8 96 bf ff ff       	callq  31c0 <__stack_chk_fail@plt>
    722a:	66 0f 1f 44 00 00    	nopw   0x0(%rax,%rax,1)

0000000000007230 <_ZN6GetOpt13_DefValOptionIiNS_8_OptionTIiEEED1Ev>:
    7230:	55                   	push   %rbp
    7231:	48 89 e5             	mov    %rsp,%rbp
    7234:	48 81 ec 30 10 00 00 	sub    $0x1030,%rsp
    723b:	48 83 0c 24 00       	orq    $0x0,(%rsp)
    7240:	48 81 c4 20 10 00 00 	add    $0x1020,%rsp
    7247:	48 8d 15 92 d0 20 00 	lea    0x20d092(%rip),%rdx        # 2142e0 <_ZNSs4_Rep20_S_empty_rep_storageE@@GLIBCXX_3.4>
    724e:	64 48 8b 04 25 28 00 	mov    %fs:0x28,%rax
    7255:	00 00 
    7257:	48 89 45 f8          	mov    %rax,-0x8(%rbp)
    725b:	31 c0                	xor    %eax,%eax
    725d:	48 8d 05 64 c9 20 00 	lea    0x20c964(%rip),%rax        # 213bc8 <_ZTVN6GetOpt12_OptionTBaseIiEE+0x10>
    7264:	48 89 07             	mov    %rax,(%rdi)
    7267:	48 8b 47 10          	mov    0x10(%rdi),%rax
    726b:	48 8d 78 e8          	lea    -0x18(%rax),%rdi
    726f:	48 39 d7             	cmp    %rdx,%rdi
    7272:	75 14                	jne    7288 <_ZN6GetOpt13_DefValOptionIiNS_8_OptionTIiEEED1Ev+0x58>
    7274:	48 8b 45 f8          	mov    -0x8(%rbp),%rax
    7278:	64 48 33 04 25 28 00 	xor    %fs:0x28,%rax
    727f:	00 00 
    7281:	75 3a                	jne    72bd <_ZN6GetOpt13_DefValOptionIiNS_8_OptionTIiEEED1Ev+0x8d>
    7283:	c9                   	leaveq 
    7284:	c3                   	retq   
    7285:	0f 1f 00             	nopl   (%rax)
    7288:	48 83 3d 48 cd 20 00 	cmpq   $0x0,0x20cd48(%rip)        # 213fd8 <_DYNAMIC+0x240>
    728f:	00 
    7290:	74 1e                	je     72b0 <_ZN6GetOpt13_DefValOptionIiNS_8_OptionTIiEEED1Ev+0x80>
    7292:	ba ff ff ff ff       	mov    $0xffffffff,%edx
    7297:	f0 0f c1 50 f8       	lock xadd %edx,-0x8(%rax)
    729c:	89 d0                	mov    %edx,%eax
    729e:	85 c0                	test   %eax,%eax
    72a0:	7f d2                	jg     7274 <_ZN6GetOpt13_DefValOptionIiNS_8_OptionTIiEEED1Ev+0x44>
    72a2:	48 8d 75 f7          	lea    -0x9(%rbp),%rsi
    72a6:	e8 35 be ff ff       	callq  30e0 <_ZNSs4_Rep10_M_destroyERKSaIcE@plt>
    72ab:	eb c7                	jmp    7274 <_ZN6GetOpt13_DefValOptionIiNS_8_OptionTIiEEED1Ev+0x44>
    72ad:	0f 1f 00             	nopl   (%rax)
    72b0:	8b 50 f8             	mov    -0x8(%rax),%edx
    72b3:	8d 4a ff             	lea    -0x1(%rdx),%ecx
    72b6:	89 48 f8             	mov    %ecx,-0x8(%rax)
    72b9:	89 d0                	mov    %edx,%eax
    72bb:	eb e1                	jmp    729e <_ZN6GetOpt13_DefValOptionIiNS_8_OptionTIiEEED1Ev+0x6e>
    72bd:	e8 fe be ff ff       	callq  31c0 <__stack_chk_fail@plt>
    72c2:	66 2e 0f 1f 84 00 00 	nopw   %cs:0x0(%rax,%rax,1)
    72c9:	00 00 00 
    72cc:	0f 1f 40 00          	nopl   0x0(%rax)

00000000000072d0 <_ZN6GetOpt13_DefValOptionIdNS_8_OptionTIdEEED1Ev>:
    72d0:	55                   	push   %rbp
    72d1:	48 89 e5             	mov    %rsp,%rbp
    72d4:	48 81 ec 30 10 00 00 	sub    $0x1030,%rsp
    72db:	48 83 0c 24 00       	orq    $0x0,(%rsp)
    72e0:	48 81 c4 20 10 00 00 	add    $0x1020,%rsp
    72e7:	48 8d 15 f2 cf 20 00 	lea    0x20cff2(%rip),%rdx        # 2142e0 <_ZNSs4_Rep20_S_empty_rep_storageE@@GLIBCXX_3.4>
    72ee:	64 48 8b 04 25 28 00 	mov    %fs:0x28,%rax
    72f5:	00 00 
    72f7:	48 89 45 f8          	mov    %rax,-0x8(%rbp)
    72fb:	31 c0                	xor    %eax,%eax
    72fd:	48 8d 05 f4 c8 20 00 	lea    0x20c8f4(%rip),%rax        # 213bf8 <_ZTVN6GetOpt12_OptionTBaseIdEE+0x10>
    7304:	48 89 07             	mov    %rax,(%rdi)
    7307:	48 8b 47 10          	mov    0x10(%rdi),%rax
    730b:	48 8d 78 e8          	lea    -0x18(%rax),%rdi
    730f:	48 39 d7             	cmp    %rdx,%rdi
    7312:	75 14                	jne    7328 <_ZN6GetOpt13_DefValOptionIdNS_8_OptionTIdEEED1Ev+0x58>
    7314:	48 8b 45 f8          	mov    -0x8(%rbp),%rax
    7318:	64 48 33 04 25 28 00 	xor    %fs:0x28,%rax
    731f:	00 00 
    7321:	75 3a                	jne    735d <_ZN6GetOpt13_DefValOptionIdNS_8_OptionTIdEEED1Ev+0x8d>
    7323:	c9                   	leaveq 
    7324:	c3                   	retq   
    7325:	0f 1f 00             	nopl   (%rax)
    7328:	48 83 3d a8 cc 20 00 	cmpq   $0x0,0x20cca8(%rip)        # 213fd8 <_DYNAMIC+0x240>
    732f:	00 
    7330:	74 1e                	je     7350 <_ZN6GetOpt13_DefValOptionIdNS_8_OptionTIdEEED1Ev+0x80>
    7332:	ba ff ff ff ff       	mov    $0xffffffff,%edx
    7337:	f0 0f c1 50 f8       	lock xadd %edx,-0x8(%rax)
    733c:	89 d0                	mov    %edx,%eax
    733e:	85 c0                	test   %eax,%eax
    7340:	7f d2                	jg     7314 <_ZN6GetOpt13_DefValOptionIdNS_8_OptionTIdEEED1Ev+0x44>
    7342:	48 8d 75 f7          	lea    -0x9(%rbp),%rsi
    7346:	e8 95 bd ff ff       	callq  30e0 <_ZNSs4_Rep10_M_destroyERKSaIcE@plt>
    734b:	eb c7                	jmp    7314 <_ZN6GetOpt13_DefValOptionIdNS_8_OptionTIdEEED1Ev+0x44>
    734d:	0f 1f 00             	nopl   (%rax)
    7350:	8b 50 f8             	mov    -0x8(%rax),%edx
    7353:	8d 4a ff             	lea    -0x1(%rdx),%ecx
    7356:	89 48 f8             	mov    %ecx,-0x8(%rax)
    7359:	89 d0                	mov    %edx,%eax
    735b:	eb e1                	jmp    733e <_ZN6GetOpt13_DefValOptionIdNS_8_OptionTIdEEED1Ev+0x6e>
    735d:	e8 5e be ff ff       	callq  31c0 <__stack_chk_fail@plt>
    7362:	66 2e 0f 1f 84 00 00 	nopw   %cs:0x0(%rax,%rax,1)
    7369:	00 00 00 
    736c:	0f 1f 40 00          	nopl   0x0(%rax)

0000000000007370 <_ZN6GetOpt13_DefValOptionIiNS_8_OptionTIiEEED0Ev>:
    7370:	55                   	push   %rbp
    7371:	48 89 e5             	mov    %rsp,%rbp
    7374:	53                   	push   %rbx
    7375:	48 81 ec 38 10 00 00 	sub    $0x1038,%rsp
    737c:	48 83 0c 24 00       	orq    $0x0,(%rsp)
    7381:	48 81 c4 20 10 00 00 	add    $0x1020,%rsp
    7388:	48 8d 15 51 cf 20 00 	lea    0x20cf51(%rip),%rdx        # 2142e0 <_ZNSs4_Rep20_S_empty_rep_storageE@@GLIBCXX_3.4>
    738f:	64 48 8b 04 25 28 00 	mov    %fs:0x28,%rax
    7396:	00 00 
    7398:	48 89 45 e8          	mov    %rax,-0x18(%rbp)
    739c:	31 c0                	xor    %eax,%eax
    739e:	48 8d 05 23 c8 20 00 	lea    0x20c823(%rip),%rax        # 213bc8 <_ZTVN6GetOpt12_OptionTBaseIiEE+0x10>
    73a5:	48 89 fb             	mov    %rdi,%rbx
    73a8:	48 89 07             	mov    %rax,(%rdi)
    73ab:	48 8b 47 10          	mov    0x10(%rdi),%rax
    73af:	48 8d 78 e8          	lea    -0x18(%rax),%rdi
    73b3:	48 39 d7             	cmp    %rdx,%rdi
    73b6:	75 28                	jne    73e0 <_ZN6GetOpt13_DefValOptionIiNS_8_OptionTIiEEED0Ev+0x70>
    73b8:	48 89 df             	mov    %rbx,%rdi
    73bb:	e8 80 bd ff ff       	callq  3140 <_ZdlPv@plt>
    73c0:	48 8b 45 e8          	mov    -0x18(%rbp),%rax
    73c4:	64 48 33 04 25 28 00 	xor    %fs:0x28,%rax
    73cb:	00 00 
    73cd:	75 46                	jne    7415 <_ZN6GetOpt13_DefValOptionIiNS_8_OptionTIiEEED0Ev+0xa5>
    73cf:	48 83 c4 18          	add    $0x18,%rsp
    73d3:	5b                   	pop    %rbx
    73d4:	5d                   	pop    %rbp
    73d5:	c3                   	retq   
    73d6:	66 2e 0f 1f 84 00 00 	nopw   %cs:0x0(%rax,%rax,1)
    73dd:	00 00 00 
    73e0:	48 83 3d f0 cb 20 00 	cmpq   $0x0,0x20cbf0(%rip)        # 213fd8 <_DYNAMIC+0x240>
    73e7:	00 
    73e8:	74 1e                	je     7408 <_ZN6GetOpt13_DefValOptionIiNS_8_OptionTIiEEED0Ev+0x98>
    73ea:	ba ff ff ff ff       	mov    $0xffffffff,%edx
    73ef:	f0 0f c1 50 f8       	lock xadd %edx,-0x8(%rax)
    73f4:	89 d0                	mov    %edx,%eax
    73f6:	85 c0                	test   %eax,%eax
    73f8:	7f be                	jg     73b8 <_ZN6GetOpt13_DefValOptionIiNS_8_OptionTIiEEED0Ev+0x48>
    73fa:	48 8d 75 e7          	lea    -0x19(%rbp),%rsi
    73fe:	e8 dd bc ff ff       	callq  30e0 <_ZNSs4_Rep10_M_destroyERKSaIcE@plt>
    7403:	eb b3                	jmp    73b8 <_ZN6GetOpt13_DefValOptionIiNS_8_OptionTIiEEED0Ev+0x48>
    7405:	0f 1f 00             	nopl   (%rax)
    7408:	8b 50 f8             	mov    -0x8(%rax),%edx
    740b:	8d 4a ff             	lea    -0x1(%rdx),%ecx
    740e:	89 48 f8             	mov    %ecx,-0x8(%rax)
    7411:	89 d0                	mov    %edx,%eax
    7413:	eb e1                	jmp    73f6 <_ZN6GetOpt13_DefValOptionIiNS_8_OptionTIiEEED0Ev+0x86>
    7415:	e8 a6 bd ff ff       	callq  31c0 <__stack_chk_fail@plt>
    741a:	66 0f 1f 44 00 00    	nopw   0x0(%rax,%rax,1)

0000000000007420 <_ZN6GetOpt13_DefValOptionIdNS_8_OptionTIdEEED0Ev>:
    7420:	55                   	push   %rbp
    7421:	48 89 e5             	mov    %rsp,%rbp
    7424:	53                   	push   %rbx
    7425:	48 81 ec 38 10 00 00 	sub    $0x1038,%rsp
    742c:	48 83 0c 24 00       	orq    $0x0,(%rsp)
    7431:	48 81 c4 20 10 00 00 	add    $0x1020,%rsp
    7438:	48 8d 15 a1 ce 20 00 	lea    0x20cea1(%rip),%rdx        # 2142e0 <_ZNSs4_Rep20_S_empty_rep_storageE@@GLIBCXX_3.4>
    743f:	64 48 8b 04 25 28 00 	mov    %fs:0x28,%rax
    7446:	00 00 
    7448:	48 89 45 e8          	mov    %rax,-0x18(%rbp)
    744c:	31 c0                	xor    %eax,%eax
    744e:	48 8d 05 a3 c7 20 00 	lea    0x20c7a3(%rip),%rax        # 213bf8 <_ZTVN6GetOpt12_OptionTBaseIdEE+0x10>
    7455:	48 89 fb             	mov    %rdi,%rbx
    7458:	48 89 07             	mov    %rax,(%rdi)
    745b:	48 8b 47 10          	mov    0x10(%rdi),%rax
    745f:	48 8d 78 e8          	lea    -0x18(%rax),%rdi
    7463:	48 39 d7             	cmp    %rdx,%rdi
    7466:	75 28                	jne    7490 <_ZN6GetOpt13_DefValOptionIdNS_8_OptionTIdEEED0Ev+0x70>
    7468:	48 89 df             	mov    %rbx,%rdi
    746b:	e8 d0 bc ff ff       	callq  3140 <_ZdlPv@plt>
    7470:	48 8b 45 e8          	mov    -0x18(%rbp),%rax
    7474:	64 48 33 04 25 28 00 	xor    %fs:0x28,%rax
    747b:	00 00 
    747d:	75 46                	jne    74c5 <_ZN6GetOpt13_DefValOptionIdNS_8_OptionTIdEEED0Ev+0xa5>
    747f:	48 83 c4 18          	add    $0x18,%rsp
    7483:	5b                   	pop    %rbx
    7484:	5d                   	pop    %rbp
    7485:	c3                   	retq   
    7486:	66 2e 0f 1f 84 00 00 	nopw   %cs:0x0(%rax,%rax,1)
    748d:	00 00 00 
    7490:	48 83 3d 40 cb 20 00 	cmpq   $0x0,0x20cb40(%rip)        # 213fd8 <_DYNAMIC+0x240>
    7497:	00 
    7498:	74 1e                	je     74b8 <_ZN6GetOpt13_DefValOptionIdNS_8_OptionTIdEEED0Ev+0x98>
    749a:	ba ff ff ff ff       	mov    $0xffffffff,%edx
    749f:	f0 0f c1 50 f8       	lock xadd %edx,-0x8(%rax)
    74a4:	89 d0                	mov    %edx,%eax
    74a6:	85 c0                	test   %eax,%eax
    74a8:	7f be                	jg     7468 <_ZN6GetOpt13_DefValOptionIdNS_8_OptionTIdEEED0Ev+0x48>
    74aa:	48 8d 75 e7          	lea    -0x19(%rbp),%rsi
    74ae:	e8 2d bc ff ff       	callq  30e0 <_ZNSs4_Rep10_M_destroyERKSaIcE@plt>
    74b3:	eb b3                	jmp    7468 <_ZN6GetOpt13_DefValOptionIdNS_8_OptionTIdEEED0Ev+0x48>
    74b5:	0f 1f 00             	nopl   (%rax)
    74b8:	8b 50 f8             	mov    -0x8(%rax),%edx
    74bb:	8d 4a ff             	lea    -0x1(%rdx),%ecx
    74be:	89 48 f8             	mov    %ecx,-0x8(%rax)
    74c1:	89 d0                	mov    %edx,%eax
    74c3:	eb e1                	jmp    74a6 <_ZN6GetOpt13_DefValOptionIdNS_8_OptionTIdEEED0Ev+0x86>
    74c5:	e8 f6 bc ff ff       	callq  31c0 <__stack_chk_fail@plt>
    74ca:	66 0f 1f 44 00 00    	nopw   0x0(%rax,%rax,1)

00000000000074d0 <_ZStplIcSt11char_traitsIcESaIcEESbIT_T0_T1_ERKS6_PKS3_>:
    74d0:	55                   	push   %rbp
    74d1:	48 89 e5             	mov    %rsp,%rbp
    74d4:	41 54                	push   %r12
    74d6:	53                   	push   %rbx
    74d7:	48 81 ec 30 10 00 00 	sub    $0x1030,%rsp
    74de:	48 83 0c 24 00       	orq    $0x0,(%rsp)
    74e3:	48 81 c4 20 10 00 00 	add    $0x1020,%rsp
    74ea:	49 89 d4             	mov    %rdx,%r12
    74ed:	48 89 fb             	mov    %rdi,%rbx
    74f0:	64 48 8b 04 25 28 00 	mov    %fs:0x28,%rax
    74f7:	00 00 
    74f9:	48 89 45 e8          	mov    %rax,-0x18(%rbp)
    74fd:	31 c0                	xor    %eax,%eax
    74ff:	e8 4c bb ff ff       	callq  3050 <_ZNSsC1ERKSs@plt>
    7504:	4c 89 e7             	mov    %r12,%rdi
    7507:	e8 f4 ba ff ff       	callq  3000 <strlen@plt>
    750c:	4c 89 e6             	mov    %r12,%rsi
    750f:	48 89 c2             	mov    %rax,%rdx
    7512:	48 89 df             	mov    %rbx,%rdi
    7515:	e8 66 ba ff ff       	callq  2f80 <_ZNSs6appendEPKcm@plt>
    751a:	48 8b 4d e8          	mov    -0x18(%rbp),%rcx
    751e:	64 48 33 0c 25 28 00 	xor    %fs:0x28,%rcx
    7525:	00 00 
    7527:	48 89 d8             	mov    %rbx,%rax
    752a:	75 09                	jne    7535 <_ZStplIcSt11char_traitsIcESaIcEESbIT_T0_T1_ERKS6_PKS3_+0x65>
    752c:	48 83 c4 10          	add    $0x10,%rsp
    7530:	5b                   	pop    %rbx
    7531:	41 5c                	pop    %r12
    7533:	5d                   	pop    %rbp
    7534:	c3                   	retq   
    7535:	e8 86 bc ff ff       	callq  31c0 <__stack_chk_fail@plt>
    753a:	49 89 c4             	mov    %rax,%r12
    753d:	48 8b 3b             	mov    (%rbx),%rdi
    7540:	48 8d 05 99 cd 20 00 	lea    0x20cd99(%rip),%rax        # 2142e0 <_ZNSs4_Rep20_S_empty_rep_storageE@@GLIBCXX_3.4>
    7547:	48 83 ef 18          	sub    $0x18,%rdi
    754b:	48 39 c7             	cmp    %rax,%rdi
    754e:	74 09                	je     7559 <_ZStplIcSt11char_traitsIcESaIcEESbIT_T0_T1_ERKS6_PKS3_+0x89>
    7550:	48 8d 75 e7          	lea    -0x19(%rbp),%rsi
    7554:	e8 57 fa ff ff       	callq  6fb0 <_ZNSs4_Rep10_M_disposeERKSaIcE.part.19>
    7559:	4c 89 e7             	mov    %r12,%rdi
    755c:	e8 4f be ff ff       	callq  33b0 <_Unwind_Resume@plt>
    7561:	66 2e 0f 1f 84 00 00 	nopw   %cs:0x0(%rax,%rax,1)
    7568:	00 00 00 
    756b:	0f 1f 44 00 00       	nopl   0x0(%rax,%rax,1)

0000000000007570 <_ZNSt8_Rb_treeISsSt4pairIKSsN6GetOpt10OptionDataEESt10_Select1stIS4_ESt4lessISsESaIS4_EE4findERS1_>:
    7570:	55                   	push   %rbp
    7571:	48 89 e5             	mov    %rsp,%rbp
    7574:	41 57                	push   %r15
    7576:	41 56                	push   %r14
    7578:	41 55                	push   %r13
    757a:	41 54                	push   %r12
    757c:	53                   	push   %rbx
    757d:	48 81 ec 38 10 00 00 	sub    $0x1038,%rsp
    7584:	48 83 0c 24 00       	orq    $0x0,(%rsp)
    7589:	48 81 c4 20 10 00 00 	add    $0x1020,%rsp
    7590:	4c 8b 7f 10          	mov    0x10(%rdi),%r15
    7594:	48 8d 47 08          	lea    0x8(%rdi),%rax
    7598:	4d 85 ff             	test   %r15,%r15
    759b:	48 89 45 c8          	mov    %rax,-0x38(%rbp)
    759f:	0f 84 c6 00 00 00    	je     766b <_ZNSt8_Rb_treeISsSt4pairIKSsN6GetOpt10OptionDataEESt10_Select1stIS4_ESt4lessISsESaIS4_EE4findERS1_+0xfb>
    75a5:	4c 8b 26             	mov    (%rsi),%r12
    75a8:	49 89 c5             	mov    %rax,%r13
    75ab:	4d 8b 74 24 e8       	mov    -0x18(%r12),%r14
    75b0:	eb 18                	jmp    75ca <_ZNSt8_Rb_treeISsSt4pairIKSsN6GetOpt10OptionDataEESt10_Select1stIS4_ESt4lessISsESaIS4_EE4findERS1_+0x5a>
    75b2:	66 0f 1f 44 00 00    	nopw   0x0(%rax,%rax,1)
    75b8:	89 d8                	mov    %ebx,%eax
    75ba:	85 c0                	test   %eax,%eax
    75bc:	78 3f                	js     75fd <_ZNSt8_Rb_treeISsSt4pairIKSsN6GetOpt10OptionDataEESt10_Select1stIS4_ESt4lessISsESaIS4_EE4findERS1_+0x8d>
    75be:	4d 89 fd             	mov    %r15,%r13
    75c1:	4d 8b 7f 10          	mov    0x10(%r15),%r15
    75c5:	4d 85 ff             	test   %r15,%r15
    75c8:	74 3c                	je     7606 <_ZNSt8_Rb_treeISsSt4pairIKSsN6GetOpt10OptionDataEESt10_Select1stIS4_ESt4lessISsESaIS4_EE4findERS1_+0x96>
    75ca:	49 8b 7f 20          	mov    0x20(%r15),%rdi
    75ce:	4c 89 f2             	mov    %r14,%rdx
    75d1:	4c 89 e6             	mov    %r12,%rsi
    75d4:	48 8b 5f e8          	mov    -0x18(%rdi),%rbx
    75d8:	4c 39 f3             	cmp    %r14,%rbx
    75db:	48 0f 46 d3          	cmovbe %rbx,%rdx
    75df:	e8 2c ba ff ff       	callq  3010 <memcmp@plt>
    75e4:	85 c0                	test   %eax,%eax
    75e6:	75 d2                	jne    75ba <_ZNSt8_Rb_treeISsSt4pairIKSsN6GetOpt10OptionDataEESt10_Select1stIS4_ESt4lessISsESaIS4_EE4findERS1_+0x4a>
    75e8:	4c 29 f3             	sub    %r14,%rbx
    75eb:	48 81 fb ff ff ff 7f 	cmp    $0x7fffffff,%rbx
    75f2:	7f ca                	jg     75be <_ZNSt8_Rb_treeISsSt4pairIKSsN6GetOpt10OptionDataEESt10_Select1stIS4_ESt4lessISsESaIS4_EE4findERS1_+0x4e>
    75f4:	48 81 fb 00 00 00 80 	cmp    $0xffffffff80000000,%rbx
    75fb:	7d bb                	jge    75b8 <_ZNSt8_Rb_treeISsSt4pairIKSsN6GetOpt10OptionDataEESt10_Select1stIS4_ESt4lessISsESaIS4_EE4findERS1_+0x48>
    75fd:	4d 8b 7f 18          	mov    0x18(%r15),%r15
    7601:	4d 85 ff             	test   %r15,%r15
    7604:	75 c4                	jne    75ca <_ZNSt8_Rb_treeISsSt4pairIKSsN6GetOpt10OptionDataEESt10_Select1stIS4_ESt4lessISsESaIS4_EE4findERS1_+0x5a>
    7606:	4c 3b 6d c8          	cmp    -0x38(%rbp),%r13
    760a:	74 2d                	je     7639 <_ZNSt8_Rb_treeISsSt4pairIKSsN6GetOpt10OptionDataEESt10_Select1stIS4_ESt4lessISsESaIS4_EE4findERS1_+0xc9>
    760c:	49 8b 75 20          	mov    0x20(%r13),%rsi
    7610:	4c 89 f2             	mov    %r14,%rdx
    7613:	4c 89 e7             	mov    %r12,%rdi
    7616:	48 8b 5e e8          	mov    -0x18(%rsi),%rbx
    761a:	4c 39 f3             	cmp    %r14,%rbx
    761d:	48 0f 46 d3          	cmovbe %rbx,%rdx
    7621:	e8 ea b9 ff ff       	callq  3010 <memcmp@plt>
    7626:	85 c0                	test   %eax,%eax
    7628:	75 38                	jne    7662 <_ZNSt8_Rb_treeISsSt4pairIKSsN6GetOpt10OptionDataEESt10_Select1stIS4_ESt4lessISsESaIS4_EE4findERS1_+0xf2>
    762a:	4c 89 f1             	mov    %r14,%rcx
    762d:	48 29 d9             	sub    %rbx,%rcx
    7630:	48 81 f9 ff ff ff 7f 	cmp    $0x7fffffff,%rcx
    7637:	7e 17                	jle    7650 <_ZNSt8_Rb_treeISsSt4pairIKSsN6GetOpt10OptionDataEESt10_Select1stIS4_ESt4lessISsESaIS4_EE4findERS1_+0xe0>
    7639:	48 83 c4 18          	add    $0x18,%rsp
    763d:	4c 89 e8             	mov    %r13,%rax
    7640:	5b                   	pop    %rbx
    7641:	41 5c                	pop    %r12
    7643:	41 5d                	pop    %r13
    7645:	41 5e                	pop    %r14
    7647:	41 5f                	pop    %r15
    7649:	5d                   	pop    %rbp
    764a:	c3                   	retq   
    764b:	0f 1f 44 00 00       	nopl   0x0(%rax,%rax,1)
    7650:	48 81 f9 00 00 00 80 	cmp    $0xffffffff80000000,%rcx
    7657:	7d 07                	jge    7660 <_ZNSt8_Rb_treeISsSt4pairIKSsN6GetOpt10OptionDataEESt10_Select1stIS4_ESt4lessISsESaIS4_EE4findERS1_+0xf0>
    7659:	4c 8b 6d c8          	mov    -0x38(%rbp),%r13
    765d:	eb da                	jmp    7639 <_ZNSt8_Rb_treeISsSt4pairIKSsN6GetOpt10OptionDataEESt10_Select1stIS4_ESt4lessISsESaIS4_EE4findERS1_+0xc9>
    765f:	90                   	nop
    7660:	89 c8                	mov    %ecx,%eax
    7662:	85 c0                	test   %eax,%eax
    7664:	4c 0f 48 6d c8       	cmovs  -0x38(%rbp),%r13
    7669:	eb ce                	jmp    7639 <_ZNSt8_Rb_treeISsSt4pairIKSsN6GetOpt10OptionDataEESt10_Select1stIS4_ESt4lessISsESaIS4_EE4findERS1_+0xc9>
    766b:	49 89 c5             	mov    %rax,%r13
    766e:	eb c9                	jmp    7639 <_ZNSt8_Rb_treeISsSt4pairIKSsN6GetOpt10OptionDataEESt10_Select1stIS4_ESt4lessISsESaIS4_EE4findERS1_+0xc9>

0000000000007670 <_ZNSt8_Rb_treeIcSt4pairIKcN6GetOpt10OptionDataEESt10_Select1stIS4_ESt4lessIcESaIS4_EE8_M_eraseEPSt13_Rb_tree_nodeIS4_E>:
    7670:	55                   	push   %rbp
    7671:	48 89 e5             	mov    %rsp,%rbp
    7674:	41 57                	push   %r15
    7676:	41 56                	push   %r14
    7678:	41 55                	push   %r13
    767a:	41 54                	push   %r12
    767c:	53                   	push   %rbx
    767d:	48 81 ec 58 10 00 00 	sub    $0x1058,%rsp
    7684:	48 83 0c 24 00       	orq    $0x0,(%rsp)
    7689:	48 81 c4 20 10 00 00 	add    $0x1020,%rsp
    7690:	48 85 f6             	test   %rsi,%rsi
    7693:	48 89 75 a0          	mov    %rsi,-0x60(%rbp)
    7697:	0f 84 95 01 00 00    	je     7832 <_ZNSt8_Rb_treeIcSt4pairIKcN6GetOpt10OptionDataEESt10_Select1stIS4_ESt4lessIcESaIS4_EE8_M_eraseEPSt13_Rb_tree_nodeIS4_E+0x1c2>
    769d:	49 89 fc             	mov    %rdi,%r12
    76a0:	48 89 f0             	mov    %rsi,%rax
    76a3:	48 8b 40 18          	mov    0x18(%rax),%rax
    76a7:	48 85 c0             	test   %rax,%rax
    76aa:	48 89 45 c8          	mov    %rax,-0x38(%rbp)
    76ae:	0f 84 5d 01 00 00    	je     7811 <_ZNSt8_Rb_treeIcSt4pairIKcN6GetOpt10OptionDataEESt10_Select1stIS4_ESt4lessIcESaIS4_EE8_M_eraseEPSt13_Rb_tree_nodeIS4_E+0x1a1>
    76b4:	48 8b 40 18          	mov    0x18(%rax),%rax
    76b8:	48 85 c0             	test   %rax,%rax
    76bb:	48 89 45 c0          	mov    %rax,-0x40(%rbp)
    76bf:	0f 84 2b 01 00 00    	je     77f0 <_ZNSt8_Rb_treeIcSt4pairIKcN6GetOpt10OptionDataEESt10_Select1stIS4_ESt4lessIcESaIS4_EE8_M_eraseEPSt13_Rb_tree_nodeIS4_E+0x180>
    76c5:	48 8b 40 18          	mov    0x18(%rax),%rax
    76c9:	48 85 c0             	test   %rax,%rax
    76cc:	48 89 45 b8          	mov    %rax,-0x48(%rbp)
    76d0:	0f 84 f9 00 00 00    	je     77cf <_ZNSt8_Rb_treeIcSt4pairIKcN6GetOpt10OptionDataEESt10_Select1stIS4_ESt4lessIcESaIS4_EE8_M_eraseEPSt13_Rb_tree_nodeIS4_E+0x15f>
    76d6:	48 8b 40 18          	mov    0x18(%rax),%rax
    76da:	48 85 c0             	test   %rax,%rax
    76dd:	48 89 45 b0          	mov    %rax,-0x50(%rbp)
    76e1:	0f 84 c7 00 00 00    	je     77ae <_ZNSt8_Rb_treeIcSt4pairIKcN6GetOpt10OptionDataEESt10_Select1stIS4_ESt4lessIcESaIS4_EE8_M_eraseEPSt13_Rb_tree_nodeIS4_E+0x13e>
    76e7:	48 8b 40 18          	mov    0x18(%rax),%rax
    76eb:	48 85 c0             	test   %rax,%rax
    76ee:	48 89 45 a8          	mov    %rax,-0x58(%rbp)
    76f2:	0f 84 95 00 00 00    	je     778d <_ZNSt8_Rb_treeIcSt4pairIKcN6GetOpt10OptionDataEESt10_Select1stIS4_ESt4lessIcESaIS4_EE8_M_eraseEPSt13_Rb_tree_nodeIS4_E+0x11d>
    76f8:	4c 8b 70 18          	mov    0x18(%rax),%r14
    76fc:	4d 85 f6             	test   %r14,%r14
    76ff:	74 6b                	je     776c <_ZNSt8_Rb_treeIcSt4pairIKcN6GetOpt10OptionDataEESt10_Select1stIS4_ESt4lessIcESaIS4_EE8_M_eraseEPSt13_Rb_tree_nodeIS4_E+0xfc>
    7701:	4d 8b 6e 18          	mov    0x18(%r14),%r13
    7705:	4d 85 ed             	test   %r13,%r13
    7708:	74 4c                	je     7756 <_ZNSt8_Rb_treeIcSt4pairIKcN6GetOpt10OptionDataEESt10_Select1stIS4_ESt4lessIcESaIS4_EE8_M_eraseEPSt13_Rb_tree_nodeIS4_E+0xe6>
    770a:	66 0f 1f 44 00 00    	nopw   0x0(%rax,%rax,1)
    7710:	4d 8b 7d 18          	mov    0x18(%r13),%r15
    7714:	4d 85 ff             	test   %r15,%r15
    7717:	74 27                	je     7740 <_ZNSt8_Rb_treeIcSt4pairIKcN6GetOpt10OptionDataEESt10_Select1stIS4_ESt4lessIcESaIS4_EE8_M_eraseEPSt13_Rb_tree_nodeIS4_E+0xd0>
    7719:	0f 1f 80 00 00 00 00 	nopl   0x0(%rax)
    7720:	49 8b 77 18          	mov    0x18(%r15),%rsi
    7724:	4c 89 e7             	mov    %r12,%rdi
    7727:	e8 44 ff ff ff       	callq  7670 <_ZNSt8_Rb_treeIcSt4pairIKcN6GetOpt10OptionDataEESt10_Select1stIS4_ESt4lessIcESaIS4_EE8_M_eraseEPSt13_Rb_tree_nodeIS4_E>
    772c:	49 8b 5f 10          	mov    0x10(%r15),%rbx
    7730:	4c 89 ff             	mov    %r15,%rdi
    7733:	e8 08 ba ff ff       	callq  3140 <_ZdlPv@plt>
    7738:	48 85 db             	test   %rbx,%rbx
    773b:	49 89 df             	mov    %rbx,%r15
    773e:	75 e0                	jne    7720 <_ZNSt8_Rb_treeIcSt4pairIKcN6GetOpt10OptionDataEESt10_Select1stIS4_ESt4lessIcESaIS4_EE8_M_eraseEPSt13_Rb_tree_nodeIS4_E+0xb0>
    7740:	49 8b 5d 10          	mov    0x10(%r13),%rbx
    7744:	4c 89 ef             	mov    %r13,%rdi
    7747:	e8 f4 b9 ff ff       	callq  3140 <_ZdlPv@plt>
    774c:	48 85 db             	test   %rbx,%rbx
    774f:	74 05                	je     7756 <_ZNSt8_Rb_treeIcSt4pairIKcN6GetOpt10OptionDataEESt10_Select1stIS4_ESt4lessIcESaIS4_EE8_M_eraseEPSt13_Rb_tree_nodeIS4_E+0xe6>
    7751:	49 89 dd             	mov    %rbx,%r13
    7754:	eb ba                	jmp    7710 <_ZNSt8_Rb_treeIcSt4pairIKcN6GetOpt10OptionDataEESt10_Select1stIS4_ESt4lessIcESaIS4_EE8_M_eraseEPSt13_Rb_tree_nodeIS4_E+0xa0>
    7756:	49 8b 5e 10          	mov    0x10(%r14),%rbx
    775a:	4c 89 f7             	mov    %r14,%rdi
    775d:	e8 de b9 ff ff       	callq  3140 <_ZdlPv@plt>
    7762:	48 85 db             	test   %rbx,%rbx
    7765:	74 05                	je     776c <_ZNSt8_Rb_treeIcSt4pairIKcN6GetOpt10OptionDataEESt10_Select1stIS4_ESt4lessIcESaIS4_EE8_M_eraseEPSt13_Rb_tree_nodeIS4_E+0xfc>
    7767:	49 89 de             	mov    %rbx,%r14
    776a:	eb 95                	jmp    7701 <_ZNSt8_Rb_treeIcSt4pairIKcN6GetOpt10OptionDataEESt10_Select1stIS4_ESt4lessIcESaIS4_EE8_M_eraseEPSt13_Rb_tree_nodeIS4_E+0x91>
    776c:	48 8b 45 a8          	mov    -0x58(%rbp),%rax
    7770:	48 8b 58 10          	mov    0x10(%rax),%rbx
    7774:	48 89 c7             	mov    %rax,%rdi
    7777:	e8 c4 b9 ff ff       	callq  3140 <_ZdlPv@plt>
    777c:	48 85 db             	test   %rbx,%rbx
    777f:	74 0c                	je     778d <_ZNSt8_Rb_treeIcSt4pairIKcN6GetOpt10OptionDataEESt10_Select1stIS4_ESt4lessIcESaIS4_EE8_M_eraseEPSt13_Rb_tree_nodeIS4_E+0x11d>
    7781:	48 89 5d a8          	mov    %rbx,-0x58(%rbp)
    7785:	48 89 d8             	mov    %rbx,%rax
    7788:	e9 6b ff ff ff       	jmpq   76f8 <_ZNSt8_Rb_treeIcSt4pairIKcN6GetOpt10OptionDataEESt10_Select1stIS4_ESt4lessIcESaIS4_EE8_M_eraseEPSt13_Rb_tree_nodeIS4_E+0x88>
    778d:	48 8b 45 b0          	mov    -0x50(%rbp),%rax
    7791:	48 8b 58 10          	mov    0x10(%rax),%rbx
    7795:	48 89 c7             	mov    %rax,%rdi
    7798:	e8 a3 b9 ff ff       	callq  3140 <_ZdlPv@plt>
    779d:	48 85 db             	test   %rbx,%rbx
    77a0:	74 0c                	je     77ae <_ZNSt8_Rb_treeIcSt4pairIKcN6GetOpt10OptionDataEESt10_Select1stIS4_ESt4lessIcESaIS4_EE8_M_eraseEPSt13_Rb_tree_nodeIS4_E+0x13e>
    77a2:	48 89 5d b0          	mov    %rbx,-0x50(%rbp)
    77a6:	48 89 d8             	mov    %rbx,%rax
    77a9:	e9 39 ff ff ff       	jmpq   76e7 <_ZNSt8_Rb_treeIcSt4pairIKcN6GetOpt10OptionDataEESt10_Select1stIS4_ESt4lessIcESaIS4_EE8_M_eraseEPSt13_Rb_tree_nodeIS4_E+0x77>
    77ae:	48 8b 45 b8          	mov    -0x48(%rbp),%rax
    77b2:	48 8b 58 10          	mov    0x10(%rax),%rbx
    77b6:	48 89 c7             	mov    %rax,%rdi
    77b9:	e8 82 b9 ff ff       	callq  3140 <_ZdlPv@plt>
    77be:	48 85 db             	test   %rbx,%rbx
    77c1:	74 0c                	je     77cf <_ZNSt8_Rb_treeIcSt4pairIKcN6GetOpt10OptionDataEESt10_Select1stIS4_ESt4lessIcESaIS4_EE8_M_eraseEPSt13_Rb_tree_nodeIS4_E+0x15f>
    77c3:	48 89 5d b8          	mov    %rbx,-0x48(%rbp)
    77c7:	48 89 d8             	mov    %rbx,%rax
    77ca:	e9 07 ff ff ff       	jmpq   76d6 <_ZNSt8_Rb_treeIcSt4pairIKcN6GetOpt10OptionDataEESt10_Select1stIS4_ESt4lessIcESaIS4_EE8_M_eraseEPSt13_Rb_tree_nodeIS4_E+0x66>
    77cf:	48 8b 45 c0          	mov    -0x40(%rbp),%rax
    77d3:	48 8b 58 10          	mov    0x10(%rax),%rbx
    77d7:	48 89 c7             	mov    %rax,%rdi
    77da:	e8 61 b9 ff ff       	callq  3140 <_ZdlPv@plt>
    77df:	48 85 db             	test   %rbx,%rbx
    77e2:	74 0c                	je     77f0 <_ZNSt8_Rb_treeIcSt4pairIKcN6GetOpt10OptionDataEESt10_Select1stIS4_ESt4lessIcESaIS4_EE8_M_eraseEPSt13_Rb_tree_nodeIS4_E+0x180>
    77e4:	48 89 5d c0          	mov    %rbx,-0x40(%rbp)
    77e8:	48 89 d8             	mov    %rbx,%rax
    77eb:	e9 d5 fe ff ff       	jmpq   76c5 <_ZNSt8_Rb_treeIcSt4pairIKcN6GetOpt10OptionDataEESt10_Select1stIS4_ESt4lessIcESaIS4_EE8_M_eraseEPSt13_Rb_tree_nodeIS4_E+0x55>
    77f0:	48 8b 45 c8          	mov    -0x38(%rbp),%rax
    77f4:	48 8b 58 10          	mov    0x10(%rax),%rbx
    77f8:	48 89 c7             	mov    %rax,%rdi
    77fb:	e8 40 b9 ff ff       	callq  3140 <_ZdlPv@plt>
    7800:	48 85 db             	test   %rbx,%rbx
    7803:	74 0c                	je     7811 <_ZNSt8_Rb_treeIcSt4pairIKcN6GetOpt10OptionDataEESt10_Select1stIS4_ESt4lessIcESaIS4_EE8_M_eraseEPSt13_Rb_tree_nodeIS4_E+0x1a1>
    7805:	48 89 5d c8          	mov    %rbx,-0x38(%rbp)
    7809:	48 89 d8             	mov    %rbx,%rax
    780c:	e9 a3 fe ff ff       	jmpq   76b4 <_ZNSt8_Rb_treeIcSt4pairIKcN6GetOpt10OptionDataEESt10_Select1stIS4_ESt4lessIcESaIS4_EE8_M_eraseEPSt13_Rb_tree_nodeIS4_E+0x44>
    7811:	48 8b 45 a0          	mov    -0x60(%rbp),%rax
    7815:	48 8b 58 10          	mov    0x10(%rax),%rbx
    7819:	48 89 c7             	mov    %rax,%rdi
    781c:	e8 1f b9 ff ff       	callq  3140 <_ZdlPv@plt>
    7821:	48 85 db             	test   %rbx,%rbx
    7824:	74 0c                	je     7832 <_ZNSt8_Rb_treeIcSt4pairIKcN6GetOpt10OptionDataEESt10_Select1stIS4_ESt4lessIcESaIS4_EE8_M_eraseEPSt13_Rb_tree_nodeIS4_E+0x1c2>
    7826:	48 89 5d a0          	mov    %rbx,-0x60(%rbp)
    782a:	48 89 d8             	mov    %rbx,%rax
    782d:	e9 71 fe ff ff       	jmpq   76a3 <_ZNSt8_Rb_treeIcSt4pairIKcN6GetOpt10OptionDataEESt10_Select1stIS4_ESt4lessIcESaIS4_EE8_M_eraseEPSt13_Rb_tree_nodeIS4_E+0x33>
    7832:	48 83 c4 38          	add    $0x38,%rsp
    7836:	5b                   	pop    %rbx
    7837:	41 5c                	pop    %r12
    7839:	41 5d                	pop    %r13
    783b:	41 5e                	pop    %r14
    783d:	41 5f                	pop    %r15
    783f:	5d                   	pop    %rbp
    7840:	c3                   	retq   
    7841:	66 2e 0f 1f 84 00 00 	nopw   %cs:0x0(%rax,%rax,1)
    7848:	00 00 00 
    784b:	0f 1f 44 00 00       	nopl   0x0(%rax,%rax,1)

0000000000007850 <_ZNSt8_Rb_treeIcSt4pairIKcN6GetOpt10OptionDataEESt10_Select1stIS4_ESt4lessIcESaIS4_EE5eraseERS1_>:
    7850:	55                   	push   %rbp
    7851:	48 89 e5             	mov    %rsp,%rbp
    7854:	41 57                	push   %r15
    7856:	41 56                	push   %r14
    7858:	41 55                	push   %r13
    785a:	41 54                	push   %r12
    785c:	53                   	push   %rbx
    785d:	48 81 ec 38 10 00 00 	sub    $0x1038,%rsp
    7864:	48 83 0c 24 00       	orq    $0x0,(%rsp)
    7869:	48 81 c4 20 10 00 00 	add    $0x1020,%rsp
    7870:	4c 8b 47 10          	mov    0x10(%rdi),%r8
    7874:	49 89 ff             	mov    %rdi,%r15
    7877:	4c 8d 6f 08          	lea    0x8(%rdi),%r13
    787b:	4d 85 c0             	test   %r8,%r8
    787e:	0f 84 63 01 00 00    	je     79e7 <_ZNSt8_Rb_treeIcSt4pairIKcN6GetOpt10OptionDataEESt10_Select1stIS4_ESt4lessIcESaIS4_EE5eraseERS1_+0x197>
    7884:	0f b6 06             	movzbl (%rsi),%eax
    7887:	4d 89 ee             	mov    %r13,%r14
    788a:	4c 89 c3             	mov    %r8,%rbx
    788d:	eb 0a                	jmp    7899 <_ZNSt8_Rb_treeIcSt4pairIKcN6GetOpt10OptionDataEESt10_Select1stIS4_ESt4lessIcESaIS4_EE5eraseERS1_+0x49>
    788f:	90                   	nop
    7890:	48 8b 5b 18          	mov    0x18(%rbx),%rbx
    7894:	48 85 db             	test   %rbx,%rbx
    7897:	74 13                	je     78ac <_ZNSt8_Rb_treeIcSt4pairIKcN6GetOpt10OptionDataEESt10_Select1stIS4_ESt4lessIcESaIS4_EE5eraseERS1_+0x5c>
    7899:	38 43 20             	cmp    %al,0x20(%rbx)
    789c:	7c f2                	jl     7890 <_ZNSt8_Rb_treeIcSt4pairIKcN6GetOpt10OptionDataEESt10_Select1stIS4_ESt4lessIcESaIS4_EE5eraseERS1_+0x40>
    789e:	7e 68                	jle    7908 <_ZNSt8_Rb_treeIcSt4pairIKcN6GetOpt10OptionDataEESt10_Select1stIS4_ESt4lessIcESaIS4_EE5eraseERS1_+0xb8>
    78a0:	49 89 de             	mov    %rbx,%r14
    78a3:	48 8b 5b 10          	mov    0x10(%rbx),%rbx
    78a7:	48 85 db             	test   %rbx,%rbx
    78aa:	75 ed                	jne    7899 <_ZNSt8_Rb_treeIcSt4pairIKcN6GetOpt10OptionDataEESt10_Select1stIS4_ESt4lessIcESaIS4_EE5eraseERS1_+0x49>
    78ac:	4d 39 f5             	cmp    %r14,%r13
    78af:	0f 94 c0             	sete   %al
    78b2:	4d 39 77 18          	cmp    %r14,0x18(%r15)
    78b6:	49 8b 4f 28          	mov    0x28(%r15),%rcx
    78ba:	48 89 4d c8          	mov    %rcx,-0x38(%rbp)
    78be:	0f 85 1c 01 00 00    	jne    79e0 <_ZNSt8_Rb_treeIcSt4pairIKcN6GetOpt10OptionDataEESt10_Select1stIS4_ESt4lessIcESaIS4_EE5eraseERS1_+0x190>
    78c4:	84 c0                	test   %al,%al
    78c6:	0f 84 14 01 00 00    	je     79e0 <_ZNSt8_Rb_treeIcSt4pairIKcN6GetOpt10OptionDataEESt10_Select1stIS4_ESt4lessIcESaIS4_EE5eraseERS1_+0x190>
    78cc:	4c 89 c6             	mov    %r8,%rsi
    78cf:	4c 89 ff             	mov    %r15,%rdi
    78d2:	e8 99 fd ff ff       	callq  7670 <_ZNSt8_Rb_treeIcSt4pairIKcN6GetOpt10OptionDataEESt10_Select1stIS4_ESt4lessIcESaIS4_EE8_M_eraseEPSt13_Rb_tree_nodeIS4_E>
    78d7:	48 8b 45 c8          	mov    -0x38(%rbp),%rax
    78db:	49 c7 47 10 00 00 00 	movq   $0x0,0x10(%r15)
    78e2:	00 
    78e3:	4d 89 6f 18          	mov    %r13,0x18(%r15)
    78e7:	4d 89 6f 20          	mov    %r13,0x20(%r15)
    78eb:	49 c7 47 28 00 00 00 	movq   $0x0,0x28(%r15)
    78f2:	00 
    78f3:	48 83 c4 18          	add    $0x18,%rsp
    78f7:	5b                   	pop    %rbx
    78f8:	41 5c                	pop    %r12
    78fa:	41 5d                	pop    %r13
    78fc:	41 5e                	pop    %r14
    78fe:	41 5f                	pop    %r15
    7900:	5d                   	pop    %rbp
    7901:	c3                   	retq   
    7902:	66 0f 1f 44 00 00    	nopw   0x0(%rax,%rax,1)
    7908:	48 8b 7b 18          	mov    0x18(%rbx),%rdi
    790c:	48 8b 53 10          	mov    0x10(%rbx),%rdx
    7910:	48 85 ff             	test   %rdi,%rdi
    7913:	75 17                	jne    792c <_ZNSt8_Rb_treeIcSt4pairIKcN6GetOpt10OptionDataEESt10_Select1stIS4_ESt4lessIcESaIS4_EE5eraseERS1_+0xdc>
    7915:	eb 29                	jmp    7940 <_ZNSt8_Rb_treeIcSt4pairIKcN6GetOpt10OptionDataEESt10_Select1stIS4_ESt4lessIcESaIS4_EE5eraseERS1_+0xf0>
    7917:	66 0f 1f 84 00 00 00 	nopw   0x0(%rax,%rax,1)
    791e:	00 00 
    7920:	49 89 fe             	mov    %rdi,%r14
    7923:	48 8b 7f 10          	mov    0x10(%rdi),%rdi
    7927:	48 85 ff             	test   %rdi,%rdi
    792a:	74 14                	je     7940 <_ZNSt8_Rb_treeIcSt4pairIKcN6GetOpt10OptionDataEESt10_Select1stIS4_ESt4lessIcESaIS4_EE5eraseERS1_+0xf0>
    792c:	38 47 20             	cmp    %al,0x20(%rdi)
    792f:	7f ef                	jg     7920 <_ZNSt8_Rb_treeIcSt4pairIKcN6GetOpt10OptionDataEESt10_Select1stIS4_ESt4lessIcESaIS4_EE5eraseERS1_+0xd0>
    7931:	48 8b 7f 18          	mov    0x18(%rdi),%rdi
    7935:	48 85 ff             	test   %rdi,%rdi
    7938:	75 f2                	jne    792c <_ZNSt8_Rb_treeIcSt4pairIKcN6GetOpt10OptionDataEESt10_Select1stIS4_ESt4lessIcESaIS4_EE5eraseERS1_+0xdc>
    793a:	66 0f 1f 44 00 00    	nopw   0x0(%rax,%rax,1)
    7940:	48 85 d2             	test   %rdx,%rdx
    7943:	74 11                	je     7956 <_ZNSt8_Rb_treeIcSt4pairIKcN6GetOpt10OptionDataEESt10_Select1stIS4_ESt4lessIcESaIS4_EE5eraseERS1_+0x106>
    7945:	38 42 20             	cmp    %al,0x20(%rdx)
    7948:	7c 76                	jl     79c0 <_ZNSt8_Rb_treeIcSt4pairIKcN6GetOpt10OptionDataEESt10_Select1stIS4_ESt4lessIcESaIS4_EE5eraseERS1_+0x170>
    794a:	48 89 d3             	mov    %rdx,%rbx
    794d:	48 8b 52 10          	mov    0x10(%rdx),%rdx
    7951:	48 85 d2             	test   %rdx,%rdx
    7954:	75 ef                	jne    7945 <_ZNSt8_Rb_treeIcSt4pairIKcN6GetOpt10OptionDataEESt10_Select1stIS4_ESt4lessIcESaIS4_EE5eraseERS1_+0xf5>
    7956:	49 39 5f 18          	cmp    %rbx,0x18(%r15)
    795a:	49 8b 47 28          	mov    0x28(%r15),%rax
    795e:	48 89 45 c8          	mov    %rax,-0x38(%rbp)
    7962:	74 6c                	je     79d0 <_ZNSt8_Rb_treeIcSt4pairIKcN6GetOpt10OptionDataEESt10_Select1stIS4_ESt4lessIcESaIS4_EE5eraseERS1_+0x180>
    7964:	49 39 de             	cmp    %rbx,%r14
    7967:	74 77                	je     79e0 <_ZNSt8_Rb_treeIcSt4pairIKcN6GetOpt10OptionDataEESt10_Select1stIS4_ESt4lessIcESaIS4_EE5eraseERS1_+0x190>
    7969:	0f 1f 80 00 00 00 00 	nopl   0x0(%rax)
    7970:	48 89 df             	mov    %rbx,%rdi
    7973:	e8 98 b8 ff ff       	callq  3210 <_ZSt18_Rb_tree_incrementPKSt18_Rb_tree_node_base@plt>
    7978:	48 89 df             	mov    %rbx,%rdi
    797b:	4c 89 ee             	mov    %r13,%rsi
    797e:	49 89 c4             	mov    %rax,%r12
    7981:	e8 da b6 ff ff       	callq  3060 <_ZSt28_Rb_tree_rebalance_for_erasePSt18_Rb_tree_node_baseRS_@plt>
    7986:	48 89 c7             	mov    %rax,%rdi
    7989:	4c 89 e3             	mov    %r12,%rbx
    798c:	e8 af b7 ff ff       	callq  3140 <_ZdlPv@plt>
    7991:	49 8b 47 28          	mov    0x28(%r15),%rax
    7995:	4d 39 f4             	cmp    %r14,%r12
    7998:	48 8d 50 ff          	lea    -0x1(%rax),%rdx
    799c:	49 89 57 28          	mov    %rdx,0x28(%r15)
    79a0:	75 ce                	jne    7970 <_ZNSt8_Rb_treeIcSt4pairIKcN6GetOpt10OptionDataEESt10_Select1stIS4_ESt4lessIcESaIS4_EE5eraseERS1_+0x120>
    79a2:	48 8b 45 c8          	mov    -0x38(%rbp),%rax
    79a6:	48 83 c4 18          	add    $0x18,%rsp
    79aa:	5b                   	pop    %rbx
    79ab:	41 5c                	pop    %r12
    79ad:	48 29 d0             	sub    %rdx,%rax
    79b0:	41 5d                	pop    %r13
    79b2:	41 5e                	pop    %r14
    79b4:	41 5f                	pop    %r15
    79b6:	5d                   	pop    %rbp
    79b7:	c3                   	retq   
    79b8:	0f 1f 84 00 00 00 00 	nopl   0x0(%rax,%rax,1)
    79bf:	00 
    79c0:	48 8b 52 18          	mov    0x18(%rdx),%rdx
    79c4:	e9 77 ff ff ff       	jmpq   7940 <_ZNSt8_Rb_treeIcSt4pairIKcN6GetOpt10OptionDataEESt10_Select1stIS4_ESt4lessIcESaIS4_EE5eraseERS1_+0xf0>
    79c9:	0f 1f 80 00 00 00 00 	nopl   0x0(%rax)
    79d0:	4d 39 f5             	cmp    %r14,%r13
    79d3:	75 8f                	jne    7964 <_ZNSt8_Rb_treeIcSt4pairIKcN6GetOpt10OptionDataEESt10_Select1stIS4_ESt4lessIcESaIS4_EE5eraseERS1_+0x114>
    79d5:	e9 f2 fe ff ff       	jmpq   78cc <_ZNSt8_Rb_treeIcSt4pairIKcN6GetOpt10OptionDataEESt10_Select1stIS4_ESt4lessIcESaIS4_EE5eraseERS1_+0x7c>
    79da:	66 0f 1f 44 00 00    	nopw   0x0(%rax,%rax,1)
    79e0:	31 c0                	xor    %eax,%eax
    79e2:	e9 0c ff ff ff       	jmpq   78f3 <_ZNSt8_Rb_treeIcSt4pairIKcN6GetOpt10OptionDataEESt10_Select1stIS4_ESt4lessIcESaIS4_EE5eraseERS1_+0xa3>
    79e7:	4d 89 ee             	mov    %r13,%r14
    79ea:	b8 01 00 00 00       	mov    $0x1,%eax
    79ef:	e9 be fe ff ff       	jmpq   78b2 <_ZNSt8_Rb_treeIcSt4pairIKcN6GetOpt10OptionDataEESt10_Select1stIS4_ESt4lessIcESaIS4_EE5eraseERS1_+0x62>
    79f4:	66 2e 0f 1f 84 00 00 	nopw   %cs:0x0(%rax,%rax,1)
    79fb:	00 00 00 
    79fe:	66 90                	xchg   %ax,%ax

0000000000007a00 <_ZNSt8_Rb_treeISsSt4pairIKSsN6GetOpt10OptionDataEESt10_Select1stIS4_ESt4lessISsESaIS4_EE8_M_eraseEPSt13_Rb_tree_nodeIS4_E>:
    7a00:	55                   	push   %rbp
    7a01:	48 89 e5             	mov    %rsp,%rbp
    7a04:	41 57                	push   %r15
    7a06:	41 56                	push   %r14
    7a08:	41 55                	push   %r13
    7a0a:	41 54                	push   %r12
    7a0c:	53                   	push   %rbx
    7a0d:	48 81 ec 78 10 00 00 	sub    $0x1078,%rsp
    7a14:	48 83 0c 24 00       	orq    $0x0,(%rsp)
    7a19:	48 81 c4 20 10 00 00 	add    $0x1020,%rsp
    7a20:	64 48 8b 0c 25 28 00 	mov    %fs:0x28,%rcx
    7a27:	00 00 
    7a29:	48 89 4d c8          	mov    %rcx,-0x38(%rbp)
    7a2d:	31 c9                	xor    %ecx,%ecx
    7a2f:	48 8d 4d c7          	lea    -0x39(%rbp),%rcx
    7a33:	48 85 f6             	test   %rsi,%rsi
    7a36:	48 89 75 80          	mov    %rsi,-0x80(%rbp)
    7a3a:	48 89 4d b0          	mov    %rcx,-0x50(%rbp)
    7a3e:	0f 84 8e 04 00 00    	je     7ed2 <_ZNSt8_Rb_treeISsSt4pairIKSsN6GetOpt10OptionDataEESt10_Select1stIS4_ESt4lessISsESaIS4_EE8_M_eraseEPSt13_Rb_tree_nodeIS4_E+0x4d2>
    7a44:	4c 8d 25 95 c8 20 00 	lea    0x20c895(%rip),%r12        # 2142e0 <_ZNSs4_Rep20_S_empty_rep_storageE@@GLIBCXX_3.4>
    7a4b:	49 89 fd             	mov    %rdi,%r13
    7a4e:	48 89 f0             	mov    %rsi,%rax
    7a51:	48 8b 40 18          	mov    0x18(%rax),%rax
    7a55:	48 85 c0             	test   %rax,%rax
    7a58:	48 89 45 a8          	mov    %rax,-0x58(%rbp)
    7a5c:	0f 84 41 04 00 00    	je     7ea3 <_ZNSt8_Rb_treeISsSt4pairIKSsN6GetOpt10OptionDataEESt10_Select1stIS4_ESt4lessISsESaIS4_EE8_M_eraseEPSt13_Rb_tree_nodeIS4_E+0x4a3>
    7a62:	48 8b 40 18          	mov    0x18(%rax),%rax
    7a66:	48 85 c0             	test   %rax,%rax
    7a69:	48 89 45 a0          	mov    %rax,-0x60(%rbp)
    7a6d:	0f 84 a6 03 00 00    	je     7e19 <_ZNSt8_Rb_treeISsSt4pairIKSsN6GetOpt10OptionDataEESt10_Select1stIS4_ESt4lessISsESaIS4_EE8_M_eraseEPSt13_Rb_tree_nodeIS4_E+0x419>
    7a73:	48 8b 40 18          	mov    0x18(%rax),%rax
    7a77:	48 85 c0             	test   %rax,%rax
    7a7a:	48 89 45 98          	mov    %rax,-0x68(%rbp)
    7a7e:	0f 84 66 03 00 00    	je     7dea <_ZNSt8_Rb_treeISsSt4pairIKSsN6GetOpt10OptionDataEESt10_Select1stIS4_ESt4lessISsESaIS4_EE8_M_eraseEPSt13_Rb_tree_nodeIS4_E+0x3ea>
    7a84:	48 8b 40 18          	mov    0x18(%rax),%rax
    7a88:	48 85 c0             	test   %rax,%rax
    7a8b:	48 89 45 90          	mov    %rax,-0x70(%rbp)
    7a8f:	0f 84 cb 02 00 00    	je     7d60 <_ZNSt8_Rb_treeISsSt4pairIKSsN6GetOpt10OptionDataEESt10_Select1stIS4_ESt4lessISsESaIS4_EE8_M_eraseEPSt13_Rb_tree_nodeIS4_E+0x360>
    7a95:	48 8b 40 18          	mov    0x18(%rax),%rax
    7a99:	48 85 c0             	test   %rax,%rax
    7a9c:	48 89 45 88          	mov    %rax,-0x78(%rbp)
    7aa0:	0f 84 8b 02 00 00    	je     7d31 <_ZNSt8_Rb_treeISsSt4pairIKSsN6GetOpt10OptionDataEESt10_Select1stIS4_ESt4lessISsESaIS4_EE8_M_eraseEPSt13_Rb_tree_nodeIS4_E+0x331>
    7aa6:	48 8b 40 18          	mov    0x18(%rax),%rax
    7aaa:	48 85 c0             	test   %rax,%rax
    7aad:	48 89 45 b8          	mov    %rax,-0x48(%rbp)
    7ab1:	0f 84 dc 01 00 00    	je     7c93 <_ZNSt8_Rb_treeISsSt4pairIKSsN6GetOpt10OptionDataEESt10_Select1stIS4_ESt4lessISsESaIS4_EE8_M_eraseEPSt13_Rb_tree_nodeIS4_E+0x293>
    7ab7:	66 0f 1f 84 00 00 00 	nopw   0x0(%rax,%rax,1)
    7abe:	00 00 
    7ac0:	4c 8b 70 18          	mov    0x18(%rax),%r14
    7ac4:	4d 85 f6             	test   %r14,%r14
    7ac7:	0f 84 f3 00 00 00    	je     7bc0 <_ZNSt8_Rb_treeISsSt4pairIKSsN6GetOpt10OptionDataEESt10_Select1stIS4_ESt4lessISsESaIS4_EE8_M_eraseEPSt13_Rb_tree_nodeIS4_E+0x1c0>
    7acd:	49 8b 5e 18          	mov    0x18(%r14),%rbx
    7ad1:	48 85 db             	test   %rbx,%rbx
    7ad4:	0f 84 9c 00 00 00    	je     7b76 <_ZNSt8_Rb_treeISsSt4pairIKSsN6GetOpt10OptionDataEESt10_Select1stIS4_ESt4lessISsESaIS4_EE8_M_eraseEPSt13_Rb_tree_nodeIS4_E+0x176>
    7ada:	66 0f 1f 44 00 00    	nopw   0x0(%rax,%rax,1)
    7ae0:	48 83 3d f0 c4 20 00 	cmpq   $0x0,0x20c4f0(%rip)        # 213fd8 <_DYNAMIC+0x240>
    7ae7:	00 
    7ae8:	75 16                	jne    7b00 <_ZNSt8_Rb_treeISsSt4pairIKSsN6GetOpt10OptionDataEESt10_Select1stIS4_ESt4lessISsESaIS4_EE8_M_eraseEPSt13_Rb_tree_nodeIS4_E+0x100>
    7aea:	e9 41 01 00 00       	jmpq   7c30 <_ZNSt8_Rb_treeISsSt4pairIKSsN6GetOpt10OptionDataEESt10_Select1stIS4_ESt4lessISsESaIS4_EE8_M_eraseEPSt13_Rb_tree_nodeIS4_E+0x230>
    7aef:	90                   	nop
    7af0:	48 89 df             	mov    %rbx,%rdi
    7af3:	4c 89 fb             	mov    %r15,%rbx
    7af6:	e8 45 b6 ff ff       	callq  3140 <_ZdlPv@plt>
    7afb:	4d 85 ff             	test   %r15,%r15
    7afe:	74 48                	je     7b48 <_ZNSt8_Rb_treeISsSt4pairIKSsN6GetOpt10OptionDataEESt10_Select1stIS4_ESt4lessISsESaIS4_EE8_M_eraseEPSt13_Rb_tree_nodeIS4_E+0x148>
    7b00:	48 8b 73 18          	mov    0x18(%rbx),%rsi
    7b04:	4c 89 ef             	mov    %r13,%rdi
    7b07:	e8 f4 fe ff ff       	callq  7a00 <_ZNSt8_Rb_treeISsSt4pairIKSsN6GetOpt10OptionDataEESt10_Select1stIS4_ESt4lessISsESaIS4_EE8_M_eraseEPSt13_Rb_tree_nodeIS4_E>
    7b0c:	48 8b 43 20          	mov    0x20(%rbx),%rax
    7b10:	4c 8b 7b 10          	mov    0x10(%rbx),%r15
    7b14:	48 8d 78 e8          	lea    -0x18(%rax),%rdi
    7b18:	4c 39 e7             	cmp    %r12,%rdi
    7b1b:	74 d3                	je     7af0 <_ZNSt8_Rb_treeISsSt4pairIKSsN6GetOpt10OptionDataEESt10_Select1stIS4_ESt4lessISsESaIS4_EE8_M_eraseEPSt13_Rb_tree_nodeIS4_E+0xf0>
    7b1d:	ba ff ff ff ff       	mov    $0xffffffff,%edx
    7b22:	f0 0f c1 50 f8       	lock xadd %edx,-0x8(%rax)
    7b27:	85 d2                	test   %edx,%edx
    7b29:	7f c5                	jg     7af0 <_ZNSt8_Rb_treeISsSt4pairIKSsN6GetOpt10OptionDataEESt10_Select1stIS4_ESt4lessISsESaIS4_EE8_M_eraseEPSt13_Rb_tree_nodeIS4_E+0xf0>
    7b2b:	48 8b 75 b0          	mov    -0x50(%rbp),%rsi
    7b2f:	e8 ac b5 ff ff       	callq  30e0 <_ZNSs4_Rep10_M_destroyERKSaIcE@plt>
    7b34:	48 89 df             	mov    %rbx,%rdi
    7b37:	4c 89 fb             	mov    %r15,%rbx
    7b3a:	e8 01 b6 ff ff       	callq  3140 <_ZdlPv@plt>
    7b3f:	4d 85 ff             	test   %r15,%r15
    7b42:	75 bc                	jne    7b00 <_ZNSt8_Rb_treeISsSt4pairIKSsN6GetOpt10OptionDataEESt10_Select1stIS4_ESt4lessISsESaIS4_EE8_M_eraseEPSt13_Rb_tree_nodeIS4_E+0x100>
    7b44:	0f 1f 40 00          	nopl   0x0(%rax)
    7b48:	49 8b 46 20          	mov    0x20(%r14),%rax
    7b4c:	49 8b 5e 10          	mov    0x10(%r14),%rbx
    7b50:	48 8d 78 e8          	lea    -0x18(%rax),%rdi
    7b54:	4c 39 e7             	cmp    %r12,%rdi
    7b57:	75 3c                	jne    7b95 <_ZNSt8_Rb_treeISsSt4pairIKSsN6GetOpt10OptionDataEESt10_Select1stIS4_ESt4lessISsESaIS4_EE8_M_eraseEPSt13_Rb_tree_nodeIS4_E+0x195>
    7b59:	4c 89 f7             	mov    %r14,%rdi
    7b5c:	e8 df b5 ff ff       	callq  3140 <_ZdlPv@plt>
    7b61:	48 85 db             	test   %rbx,%rbx
    7b64:	74 5a                	je     7bc0 <_ZNSt8_Rb_treeISsSt4pairIKSsN6GetOpt10OptionDataEESt10_Select1stIS4_ESt4lessISsESaIS4_EE8_M_eraseEPSt13_Rb_tree_nodeIS4_E+0x1c0>
    7b66:	49 89 de             	mov    %rbx,%r14
    7b69:	49 8b 5e 18          	mov    0x18(%r14),%rbx
    7b6d:	48 85 db             	test   %rbx,%rbx
    7b70:	0f 85 6a ff ff ff    	jne    7ae0 <_ZNSt8_Rb_treeISsSt4pairIKSsN6GetOpt10OptionDataEESt10_Select1stIS4_ESt4lessISsESaIS4_EE8_M_eraseEPSt13_Rb_tree_nodeIS4_E+0xe0>
    7b76:	49 8b 46 20          	mov    0x20(%r14),%rax
    7b7a:	49 8b 5e 10          	mov    0x10(%r14),%rbx
    7b7e:	48 8d 78 e8          	lea    -0x18(%rax),%rdi
    7b82:	4c 39 e7             	cmp    %r12,%rdi
    7b85:	74 d2                	je     7b59 <_ZNSt8_Rb_treeISsSt4pairIKSsN6GetOpt10OptionDataEESt10_Select1stIS4_ESt4lessISsESaIS4_EE8_M_eraseEPSt13_Rb_tree_nodeIS4_E+0x159>
    7b87:	48 83 3d 49 c4 20 00 	cmpq   $0x0,0x20c449(%rip)        # 213fd8 <_DYNAMIC+0x240>
    7b8e:	00 
    7b8f:	0f 84 dd 00 00 00    	je     7c72 <_ZNSt8_Rb_treeISsSt4pairIKSsN6GetOpt10OptionDataEESt10_Select1stIS4_ESt4lessISsESaIS4_EE8_M_eraseEPSt13_Rb_tree_nodeIS4_E+0x272>
    7b95:	ba ff ff ff ff       	mov    $0xffffffff,%edx
    7b9a:	f0 0f c1 50 f8       	lock xadd %edx,-0x8(%rax)
    7b9f:	89 d0                	mov    %edx,%eax
    7ba1:	85 c0                	test   %eax,%eax
    7ba3:	7f b4                	jg     7b59 <_ZNSt8_Rb_treeISsSt4pairIKSsN6GetOpt10OptionDataEESt10_Select1stIS4_ESt4lessISsESaIS4_EE8_M_eraseEPSt13_Rb_tree_nodeIS4_E+0x159>
    7ba5:	48 8b 75 b0          	mov    -0x50(%rbp),%rsi
    7ba9:	e8 32 b5 ff ff       	callq  30e0 <_ZNSs4_Rep10_M_destroyERKSaIcE@plt>
    7bae:	4c 89 f7             	mov    %r14,%rdi
    7bb1:	e8 8a b5 ff ff       	callq  3140 <_ZdlPv@plt>
    7bb6:	48 85 db             	test   %rbx,%rbx
    7bb9:	75 ab                	jne    7b66 <_ZNSt8_Rb_treeISsSt4pairIKSsN6GetOpt10OptionDataEESt10_Select1stIS4_ESt4lessISsESaIS4_EE8_M_eraseEPSt13_Rb_tree_nodeIS4_E+0x166>
    7bbb:	0f 1f 44 00 00       	nopl   0x0(%rax,%rax,1)
    7bc0:	48 8b 45 b8          	mov    -0x48(%rbp),%rax
    7bc4:	48 8b 58 10          	mov    0x10(%rax),%rbx
    7bc8:	48 8b 40 20          	mov    0x20(%rax),%rax
    7bcc:	48 8d 78 e8          	lea    -0x18(%rax),%rdi
    7bd0:	4c 39 e7             	cmp    %r12,%rdi
    7bd3:	0f 85 e9 00 00 00    	jne    7cc2 <_ZNSt8_Rb_treeISsSt4pairIKSsN6GetOpt10OptionDataEESt10_Select1stIS4_ESt4lessISsESaIS4_EE8_M_eraseEPSt13_Rb_tree_nodeIS4_E+0x2c2>
    7bd9:	48 8b 7d b8          	mov    -0x48(%rbp),%rdi
    7bdd:	e8 5e b5 ff ff       	callq  3140 <_ZdlPv@plt>
    7be2:	48 85 db             	test   %rbx,%rbx
    7be5:	0f 84 a8 00 00 00    	je     7c93 <_ZNSt8_Rb_treeISsSt4pairIKSsN6GetOpt10OptionDataEESt10_Select1stIS4_ESt4lessISsESaIS4_EE8_M_eraseEPSt13_Rb_tree_nodeIS4_E+0x293>
    7beb:	48 89 5d b8          	mov    %rbx,-0x48(%rbp)
    7bef:	48 89 d8             	mov    %rbx,%rax
    7bf2:	e9 c9 fe ff ff       	jmpq   7ac0 <_ZNSt8_Rb_treeISsSt4pairIKSsN6GetOpt10OptionDataEESt10_Select1stIS4_ESt4lessISsESaIS4_EE8_M_eraseEPSt13_Rb_tree_nodeIS4_E+0xc0>
    7bf7:	66 0f 1f 84 00 00 00 	nopw   0x0(%rax,%rax,1)
    7bfe:	00 00 
    7c00:	8b 50 f8             	mov    -0x8(%rax),%edx
    7c03:	8d 4a ff             	lea    -0x1(%rdx),%ecx
    7c06:	85 d2                	test   %edx,%edx
    7c08:	89 48 f8             	mov    %ecx,-0x8(%rax)
    7c0b:	7f 13                	jg     7c20 <_ZNSt8_Rb_treeISsSt4pairIKSsN6GetOpt10OptionDataEESt10_Select1stIS4_ESt4lessISsESaIS4_EE8_M_eraseEPSt13_Rb_tree_nodeIS4_E+0x220>
    7c0d:	48 8b 75 b0          	mov    -0x50(%rbp),%rsi
    7c11:	e8 ca b4 ff ff       	callq  30e0 <_ZNSs4_Rep10_M_destroyERKSaIcE@plt>
    7c16:	66 2e 0f 1f 84 00 00 	nopw   %cs:0x0(%rax,%rax,1)
    7c1d:	00 00 00 
    7c20:	48 89 df             	mov    %rbx,%rdi
    7c23:	4c 89 fb             	mov    %r15,%rbx
    7c26:	e8 15 b5 ff ff       	callq  3140 <_ZdlPv@plt>
    7c2b:	4d 85 ff             	test   %r15,%r15
    7c2e:	74 2d                	je     7c5d <_ZNSt8_Rb_treeISsSt4pairIKSsN6GetOpt10OptionDataEESt10_Select1stIS4_ESt4lessISsESaIS4_EE8_M_eraseEPSt13_Rb_tree_nodeIS4_E+0x25d>
    7c30:	48 8b 73 18          	mov    0x18(%rbx),%rsi
    7c34:	4c 89 ef             	mov    %r13,%rdi
    7c37:	e8 c4 fd ff ff       	callq  7a00 <_ZNSt8_Rb_treeISsSt4pairIKSsN6GetOpt10OptionDataEESt10_Select1stIS4_ESt4lessISsESaIS4_EE8_M_eraseEPSt13_Rb_tree_nodeIS4_E>
    7c3c:	48 8b 43 20          	mov    0x20(%rbx),%rax
    7c40:	4c 8b 7b 10          	mov    0x10(%rbx),%r15
    7c44:	48 8d 78 e8          	lea    -0x18(%rax),%rdi
    7c48:	4c 39 e7             	cmp    %r12,%rdi
    7c4b:	75 b3                	jne    7c00 <_ZNSt8_Rb_treeISsSt4pairIKSsN6GetOpt10OptionDataEESt10_Select1stIS4_ESt4lessISsESaIS4_EE8_M_eraseEPSt13_Rb_tree_nodeIS4_E+0x200>
    7c4d:	48 89 df             	mov    %rbx,%rdi
    7c50:	4c 89 fb             	mov    %r15,%rbx
    7c53:	e8 e8 b4 ff ff       	callq  3140 <_ZdlPv@plt>
    7c58:	4d 85 ff             	test   %r15,%r15
    7c5b:	75 d3                	jne    7c30 <_ZNSt8_Rb_treeISsSt4pairIKSsN6GetOpt10OptionDataEESt10_Select1stIS4_ESt4lessISsESaIS4_EE8_M_eraseEPSt13_Rb_tree_nodeIS4_E+0x230>
    7c5d:	49 8b 46 20          	mov    0x20(%r14),%rax
    7c61:	49 8b 5e 10          	mov    0x10(%r14),%rbx
    7c65:	48 8d 78 e8          	lea    -0x18(%rax),%rdi
    7c69:	4c 39 e7             	cmp    %r12,%rdi
    7c6c:	0f 84 e7 fe ff ff    	je     7b59 <_ZNSt8_Rb_treeISsSt4pairIKSsN6GetOpt10OptionDataEESt10_Select1stIS4_ESt4lessISsESaIS4_EE8_M_eraseEPSt13_Rb_tree_nodeIS4_E+0x159>
    7c72:	8b 50 f8             	mov    -0x8(%rax),%edx
    7c75:	8d 4a ff             	lea    -0x1(%rdx),%ecx
    7c78:	89 48 f8             	mov    %ecx,-0x8(%rax)
    7c7b:	89 d0                	mov    %edx,%eax
    7c7d:	85 c0                	test   %eax,%eax
    7c7f:	0f 8f d4 fe ff ff    	jg     7b59 <_ZNSt8_Rb_treeISsSt4pairIKSsN6GetOpt10OptionDataEESt10_Select1stIS4_ESt4lessISsESaIS4_EE8_M_eraseEPSt13_Rb_tree_nodeIS4_E+0x159>
    7c85:	48 8b 75 b0          	mov    -0x50(%rbp),%rsi
    7c89:	e8 52 b4 ff ff       	callq  30e0 <_ZNSs4_Rep10_M_destroyERKSaIcE@plt>
    7c8e:	e9 1b ff ff ff       	jmpq   7bae <_ZNSt8_Rb_treeISsSt4pairIKSsN6GetOpt10OptionDataEESt10_Select1stIS4_ESt4lessISsESaIS4_EE8_M_eraseEPSt13_Rb_tree_nodeIS4_E+0x1ae>
    7c93:	48 8b 45 88          	mov    -0x78(%rbp),%rax
    7c97:	48 8b 50 20          	mov    0x20(%rax),%rdx
    7c9b:	48 8b 58 10          	mov    0x10(%rax),%rbx
    7c9f:	48 8d 7a e8          	lea    -0x18(%rdx),%rdi
    7ca3:	4c 39 e7             	cmp    %r12,%rdi
    7ca6:	75 53                	jne    7cfb <_ZNSt8_Rb_treeISsSt4pairIKSsN6GetOpt10OptionDataEESt10_Select1stIS4_ESt4lessISsESaIS4_EE8_M_eraseEPSt13_Rb_tree_nodeIS4_E+0x2fb>
    7ca8:	48 8b 7d 88          	mov    -0x78(%rbp),%rdi
    7cac:	e8 8f b4 ff ff       	callq  3140 <_ZdlPv@plt>
    7cb1:	48 85 db             	test   %rbx,%rbx
    7cb4:	74 7b                	je     7d31 <_ZNSt8_Rb_treeISsSt4pairIKSsN6GetOpt10OptionDataEESt10_Select1stIS4_ESt4lessISsESaIS4_EE8_M_eraseEPSt13_Rb_tree_nodeIS4_E+0x331>
    7cb6:	48 89 5d 88          	mov    %rbx,-0x78(%rbp)
    7cba:	48 89 d8             	mov    %rbx,%rax
    7cbd:	e9 e4 fd ff ff       	jmpq   7aa6 <_ZNSt8_Rb_treeISsSt4pairIKSsN6GetOpt10OptionDataEESt10_Select1stIS4_ESt4lessISsESaIS4_EE8_M_eraseEPSt13_Rb_tree_nodeIS4_E+0xa6>
    7cc2:	48 83 3d 0e c3 20 00 	cmpq   $0x0,0x20c30e(%rip)        # 213fd8 <_DYNAMIC+0x240>
    7cc9:	00 
    7cca:	74 22                	je     7cee <_ZNSt8_Rb_treeISsSt4pairIKSsN6GetOpt10OptionDataEESt10_Select1stIS4_ESt4lessISsESaIS4_EE8_M_eraseEPSt13_Rb_tree_nodeIS4_E+0x2ee>
    7ccc:	ba ff ff ff ff       	mov    $0xffffffff,%edx
    7cd1:	f0 0f c1 50 f8       	lock xadd %edx,-0x8(%rax)
    7cd6:	89 d0                	mov    %edx,%eax
    7cd8:	85 c0                	test   %eax,%eax
    7cda:	0f 8f f9 fe ff ff    	jg     7bd9 <_ZNSt8_Rb_treeISsSt4pairIKSsN6GetOpt10OptionDataEESt10_Select1stIS4_ESt4lessISsESaIS4_EE8_M_eraseEPSt13_Rb_tree_nodeIS4_E+0x1d9>
    7ce0:	48 8b 75 b0          	mov    -0x50(%rbp),%rsi
    7ce4:	e8 f7 b3 ff ff       	callq  30e0 <_ZNSs4_Rep10_M_destroyERKSaIcE@plt>
    7ce9:	e9 eb fe ff ff       	jmpq   7bd9 <_ZNSt8_Rb_treeISsSt4pairIKSsN6GetOpt10OptionDataEESt10_Select1stIS4_ESt4lessISsESaIS4_EE8_M_eraseEPSt13_Rb_tree_nodeIS4_E+0x1d9>
    7cee:	8b 50 f8             	mov    -0x8(%rax),%edx
    7cf1:	8d 4a ff             	lea    -0x1(%rdx),%ecx
    7cf4:	89 48 f8             	mov    %ecx,-0x8(%rax)
    7cf7:	89 d0                	mov    %edx,%eax
    7cf9:	eb dd                	jmp    7cd8 <_ZNSt8_Rb_treeISsSt4pairIKSsN6GetOpt10OptionDataEESt10_Select1stIS4_ESt4lessISsESaIS4_EE8_M_eraseEPSt13_Rb_tree_nodeIS4_E+0x2d8>
    7cfb:	48 83 3d d5 c2 20 00 	cmpq   $0x0,0x20c2d5(%rip)        # 213fd8 <_DYNAMIC+0x240>
    7d02:	00 
    7d03:	48 8d 4f 10          	lea    0x10(%rdi),%rcx
    7d07:	0f 84 27 02 00 00    	je     7f34 <_ZNSt8_Rb_treeISsSt4pairIKSsN6GetOpt10OptionDataEESt10_Select1stIS4_ESt4lessISsESaIS4_EE8_M_eraseEPSt13_Rb_tree_nodeIS4_E+0x534>
    7d0d:	b8 ff ff ff ff       	mov    $0xffffffff,%eax
    7d12:	f0 0f c1 01          	lock xadd %eax,(%rcx)
    7d16:	85 c0                	test   %eax,%eax
    7d18:	7f 8e                	jg     7ca8 <_ZNSt8_Rb_treeISsSt4pairIKSsN6GetOpt10OptionDataEESt10_Select1stIS4_ESt4lessISsESaIS4_EE8_M_eraseEPSt13_Rb_tree_nodeIS4_E+0x2a8>
    7d1a:	48 8b 75 b0          	mov    -0x50(%rbp),%rsi
    7d1e:	e8 bd b3 ff ff       	callq  30e0 <_ZNSs4_Rep10_M_destroyERKSaIcE@plt>
    7d23:	48 8b 7d 88          	mov    -0x78(%rbp),%rdi
    7d27:	e8 14 b4 ff ff       	callq  3140 <_ZdlPv@plt>
    7d2c:	48 85 db             	test   %rbx,%rbx
    7d2f:	75 85                	jne    7cb6 <_ZNSt8_Rb_treeISsSt4pairIKSsN6GetOpt10OptionDataEESt10_Select1stIS4_ESt4lessISsESaIS4_EE8_M_eraseEPSt13_Rb_tree_nodeIS4_E+0x2b6>
    7d31:	48 8b 45 90          	mov    -0x70(%rbp),%rax
    7d35:	48 8b 50 20          	mov    0x20(%rax),%rdx
    7d39:	48 8b 58 10          	mov    0x10(%rax),%rbx
    7d3d:	48 8d 7a e8          	lea    -0x18(%rdx),%rdi
    7d41:	4c 39 e7             	cmp    %r12,%rdi
    7d44:	75 49                	jne    7d8f <_ZNSt8_Rb_treeISsSt4pairIKSsN6GetOpt10OptionDataEESt10_Select1stIS4_ESt4lessISsESaIS4_EE8_M_eraseEPSt13_Rb_tree_nodeIS4_E+0x38f>
    7d46:	48 8b 7d 90          	mov    -0x70(%rbp),%rdi
    7d4a:	e8 f1 b3 ff ff       	callq  3140 <_ZdlPv@plt>
    7d4f:	48 85 db             	test   %rbx,%rbx
    7d52:	74 0c                	je     7d60 <_ZNSt8_Rb_treeISsSt4pairIKSsN6GetOpt10OptionDataEESt10_Select1stIS4_ESt4lessISsESaIS4_EE8_M_eraseEPSt13_Rb_tree_nodeIS4_E+0x360>
    7d54:	48 89 5d 90          	mov    %rbx,-0x70(%rbp)
    7d58:	48 89 d8             	mov    %rbx,%rax
    7d5b:	e9 35 fd ff ff       	jmpq   7a95 <_ZNSt8_Rb_treeISsSt4pairIKSsN6GetOpt10OptionDataEESt10_Select1stIS4_ESt4lessISsESaIS4_EE8_M_eraseEPSt13_Rb_tree_nodeIS4_E+0x95>
    7d60:	48 8b 45 98          	mov    -0x68(%rbp),%rax
    7d64:	48 8b 50 20          	mov    0x20(%rax),%rdx
    7d68:	48 8b 58 10          	mov    0x10(%rax),%rbx
    7d6c:	48 8d 7a e8          	lea    -0x18(%rdx),%rdi
    7d70:	4c 39 e7             	cmp    %r12,%rdi
    7d73:	75 40                	jne    7db5 <_ZNSt8_Rb_treeISsSt4pairIKSsN6GetOpt10OptionDataEESt10_Select1stIS4_ESt4lessISsESaIS4_EE8_M_eraseEPSt13_Rb_tree_nodeIS4_E+0x3b5>
    7d75:	48 8b 7d 98          	mov    -0x68(%rbp),%rdi
    7d79:	e8 c2 b3 ff ff       	callq  3140 <_ZdlPv@plt>
    7d7e:	48 85 db             	test   %rbx,%rbx
    7d81:	74 67                	je     7dea <_ZNSt8_Rb_treeISsSt4pairIKSsN6GetOpt10OptionDataEESt10_Select1stIS4_ESt4lessISsESaIS4_EE8_M_eraseEPSt13_Rb_tree_nodeIS4_E+0x3ea>
    7d83:	48 89 5d 98          	mov    %rbx,-0x68(%rbp)
    7d87:	48 89 d8             	mov    %rbx,%rax
    7d8a:	e9 f5 fc ff ff       	jmpq   7a84 <_ZNSt8_Rb_treeISsSt4pairIKSsN6GetOpt10OptionDataEESt10_Select1stIS4_ESt4lessISsESaIS4_EE8_M_eraseEPSt13_Rb_tree_nodeIS4_E+0x84>
    7d8f:	48 83 3d 41 c2 20 00 	cmpq   $0x0,0x20c241(%rip)        # 213fd8 <_DYNAMIC+0x240>
    7d96:	00 
    7d97:	48 8d 4f 10          	lea    0x10(%rdi),%rcx
    7d9b:	74 42                	je     7ddf <_ZNSt8_Rb_treeISsSt4pairIKSsN6GetOpt10OptionDataEESt10_Select1stIS4_ESt4lessISsESaIS4_EE8_M_eraseEPSt13_Rb_tree_nodeIS4_E+0x3df>
    7d9d:	b8 ff ff ff ff       	mov    $0xffffffff,%eax
    7da2:	f0 0f c1 01          	lock xadd %eax,(%rcx)
    7da6:	85 c0                	test   %eax,%eax
    7da8:	7f 9c                	jg     7d46 <_ZNSt8_Rb_treeISsSt4pairIKSsN6GetOpt10OptionDataEESt10_Select1stIS4_ESt4lessISsESaIS4_EE8_M_eraseEPSt13_Rb_tree_nodeIS4_E+0x346>
    7daa:	48 8b 75 b0          	mov    -0x50(%rbp),%rsi
    7dae:	e8 2d b3 ff ff       	callq  30e0 <_ZNSs4_Rep10_M_destroyERKSaIcE@plt>
    7db3:	eb 91                	jmp    7d46 <_ZNSt8_Rb_treeISsSt4pairIKSsN6GetOpt10OptionDataEESt10_Select1stIS4_ESt4lessISsESaIS4_EE8_M_eraseEPSt13_Rb_tree_nodeIS4_E+0x346>
    7db5:	48 83 3d 1b c2 20 00 	cmpq   $0x0,0x20c21b(%rip)        # 213fd8 <_DYNAMIC+0x240>
    7dbc:	00 
    7dbd:	48 8d 4f 10          	lea    0x10(%rdi),%rcx
    7dc1:	0f 84 5f 01 00 00    	je     7f26 <_ZNSt8_Rb_treeISsSt4pairIKSsN6GetOpt10OptionDataEESt10_Select1stIS4_ESt4lessISsESaIS4_EE8_M_eraseEPSt13_Rb_tree_nodeIS4_E+0x526>
    7dc7:	b8 ff ff ff ff       	mov    $0xffffffff,%eax
    7dcc:	f0 0f c1 01          	lock xadd %eax,(%rcx)
    7dd0:	85 c0                	test   %eax,%eax
    7dd2:	7f a1                	jg     7d75 <_ZNSt8_Rb_treeISsSt4pairIKSsN6GetOpt10OptionDataEESt10_Select1stIS4_ESt4lessISsESaIS4_EE8_M_eraseEPSt13_Rb_tree_nodeIS4_E+0x375>
    7dd4:	48 8b 75 b0          	mov    -0x50(%rbp),%rsi
    7dd8:	e8 03 b3 ff ff       	callq  30e0 <_ZNSs4_Rep10_M_destroyERKSaIcE@plt>
    7ddd:	eb 96                	jmp    7d75 <_ZNSt8_Rb_treeISsSt4pairIKSsN6GetOpt10OptionDataEESt10_Select1stIS4_ESt4lessISsESaIS4_EE8_M_eraseEPSt13_Rb_tree_nodeIS4_E+0x375>
    7ddf:	8b 42 f8             	mov    -0x8(%rdx),%eax
    7de2:	8d 48 ff             	lea    -0x1(%rax),%ecx
    7de5:	89 4a f8             	mov    %ecx,-0x8(%rdx)
    7de8:	eb bc                	jmp    7da6 <_ZNSt8_Rb_treeISsSt4pairIKSsN6GetOpt10OptionDataEESt10_Select1stIS4_ESt4lessISsESaIS4_EE8_M_eraseEPSt13_Rb_tree_nodeIS4_E+0x3a6>
    7dea:	48 8b 45 a0          	mov    -0x60(%rbp),%rax
    7dee:	48 8b 50 20          	mov    0x20(%rax),%rdx
    7df2:	48 8b 58 10          	mov    0x10(%rax),%rbx
    7df6:	48 8d 7a e8          	lea    -0x18(%rdx),%rdi
    7dfa:	4c 39 e7             	cmp    %r12,%rdi
    7dfd:	75 49                	jne    7e48 <_ZNSt8_Rb_treeISsSt4pairIKSsN6GetOpt10OptionDataEESt10_Select1stIS4_ESt4lessISsESaIS4_EE8_M_eraseEPSt13_Rb_tree_nodeIS4_E+0x448>
    7dff:	48 8b 7d a0          	mov    -0x60(%rbp),%rdi
    7e03:	e8 38 b3 ff ff       	callq  3140 <_ZdlPv@plt>
    7e08:	48 85 db             	test   %rbx,%rbx
    7e0b:	74 0c                	je     7e19 <_ZNSt8_Rb_treeISsSt4pairIKSsN6GetOpt10OptionDataEESt10_Select1stIS4_ESt4lessISsESaIS4_EE8_M_eraseEPSt13_Rb_tree_nodeIS4_E+0x419>
    7e0d:	48 89 5d a0          	mov    %rbx,-0x60(%rbp)
    7e11:	48 89 d8             	mov    %rbx,%rax
    7e14:	e9 5a fc ff ff       	jmpq   7a73 <_ZNSt8_Rb_treeISsSt4pairIKSsN6GetOpt10OptionDataEESt10_Select1stIS4_ESt4lessISsESaIS4_EE8_M_eraseEPSt13_Rb_tree_nodeIS4_E+0x73>
    7e19:	48 8b 45 a8          	mov    -0x58(%rbp),%rax
    7e1d:	48 8b 50 20          	mov    0x20(%rax),%rdx
    7e21:	48 8b 58 10          	mov    0x10(%rax),%rbx
    7e25:	48 8d 7a e8          	lea    -0x18(%rdx),%rdi
    7e29:	4c 39 e7             	cmp    %r12,%rdi
    7e2c:	75 40                	jne    7e6e <_ZNSt8_Rb_treeISsSt4pairIKSsN6GetOpt10OptionDataEESt10_Select1stIS4_ESt4lessISsESaIS4_EE8_M_eraseEPSt13_Rb_tree_nodeIS4_E+0x46e>
    7e2e:	48 8b 7d a8          	mov    -0x58(%rbp),%rdi
    7e32:	e8 09 b3 ff ff       	callq  3140 <_ZdlPv@plt>
    7e37:	48 85 db             	test   %rbx,%rbx
    7e3a:	74 67                	je     7ea3 <_ZNSt8_Rb_treeISsSt4pairIKSsN6GetOpt10OptionDataEESt10_Select1stIS4_ESt4lessISsESaIS4_EE8_M_eraseEPSt13_Rb_tree_nodeIS4_E+0x4a3>
    7e3c:	48 89 5d a8          	mov    %rbx,-0x58(%rbp)
    7e40:	48 89 d8             	mov    %rbx,%rax
    7e43:	e9 1a fc ff ff       	jmpq   7a62 <_ZNSt8_Rb_treeISsSt4pairIKSsN6GetOpt10OptionDataEESt10_Select1stIS4_ESt4lessISsESaIS4_EE8_M_eraseEPSt13_Rb_tree_nodeIS4_E+0x62>
    7e48:	48 83 3d 88 c1 20 00 	cmpq   $0x0,0x20c188(%rip)        # 213fd8 <_DYNAMIC+0x240>
    7e4f:	00 
    7e50:	48 8d 4f 10          	lea    0x10(%rdi),%rcx
    7e54:	74 42                	je     7e98 <_ZNSt8_Rb_treeISsSt4pairIKSsN6GetOpt10OptionDataEESt10_Select1stIS4_ESt4lessISsESaIS4_EE8_M_eraseEPSt13_Rb_tree_nodeIS4_E+0x498>
    7e56:	b8 ff ff ff ff       	mov    $0xffffffff,%eax
    7e5b:	f0 0f c1 01          	lock xadd %eax,(%rcx)
    7e5f:	85 c0                	test   %eax,%eax
    7e61:	7f 9c                	jg     7dff <_ZNSt8_Rb_treeISsSt4pairIKSsN6GetOpt10OptionDataEESt10_Select1stIS4_ESt4lessISsESaIS4_EE8_M_eraseEPSt13_Rb_tree_nodeIS4_E+0x3ff>
    7e63:	48 8b 75 b0          	mov    -0x50(%rbp),%rsi
    7e67:	e8 74 b2 ff ff       	callq  30e0 <_ZNSs4_Rep10_M_destroyERKSaIcE@plt>
    7e6c:	eb 91                	jmp    7dff <_ZNSt8_Rb_treeISsSt4pairIKSsN6GetOpt10OptionDataEESt10_Select1stIS4_ESt4lessISsESaIS4_EE8_M_eraseEPSt13_Rb_tree_nodeIS4_E+0x3ff>
    7e6e:	48 83 3d 62 c1 20 00 	cmpq   $0x0,0x20c162(%rip)        # 213fd8 <_DYNAMIC+0x240>
    7e75:	00 
    7e76:	48 8d 4f 10          	lea    0x10(%rdi),%rcx
    7e7a:	0f 84 c2 00 00 00    	je     7f42 <_ZNSt8_Rb_treeISsSt4pairIKSsN6GetOpt10OptionDataEESt10_Select1stIS4_ESt4lessISsESaIS4_EE8_M_eraseEPSt13_Rb_tree_nodeIS4_E+0x542>
    7e80:	b8 ff ff ff ff       	mov    $0xffffffff,%eax
    7e85:	f0 0f c1 01          	lock xadd %eax,(%rcx)
    7e89:	85 c0                	test   %eax,%eax
    7e8b:	7f a1                	jg     7e2e <_ZNSt8_Rb_treeISsSt4pairIKSsN6GetOpt10OptionDataEESt10_Select1stIS4_ESt4lessISsESaIS4_EE8_M_eraseEPSt13_Rb_tree_nodeIS4_E+0x42e>
    7e8d:	48 8b 75 b0          	mov    -0x50(%rbp),%rsi
    7e91:	e8 4a b2 ff ff       	callq  30e0 <_ZNSs4_Rep10_M_destroyERKSaIcE@plt>
    7e96:	eb 96                	jmp    7e2e <_ZNSt8_Rb_treeISsSt4pairIKSsN6GetOpt10OptionDataEESt10_Select1stIS4_ESt4lessISsESaIS4_EE8_M_eraseEPSt13_Rb_tree_nodeIS4_E+0x42e>
    7e98:	8b 42 f8             	mov    -0x8(%rdx),%eax
    7e9b:	8d 48 ff             	lea    -0x1(%rax),%ecx
    7e9e:	89 4a f8             	mov    %ecx,-0x8(%rdx)
    7ea1:	eb bc                	jmp    7e5f <_ZNSt8_Rb_treeISsSt4pairIKSsN6GetOpt10OptionDataEESt10_Select1stIS4_ESt4lessISsESaIS4_EE8_M_eraseEPSt13_Rb_tree_nodeIS4_E+0x45f>
    7ea3:	48 8b 45 80          	mov    -0x80(%rbp),%rax
    7ea7:	48 8b 50 20          	mov    0x20(%rax),%rdx
    7eab:	48 8b 58 10          	mov    0x10(%rax),%rbx
    7eaf:	48 8d 7a e8          	lea    -0x18(%rdx),%rdi
    7eb3:	4c 39 e7             	cmp    %r12,%rdi
    7eb6:	75 38                	jne    7ef0 <_ZNSt8_Rb_treeISsSt4pairIKSsN6GetOpt10OptionDataEESt10_Select1stIS4_ESt4lessISsESaIS4_EE8_M_eraseEPSt13_Rb_tree_nodeIS4_E+0x4f0>
    7eb8:	48 8b 7d 80          	mov    -0x80(%rbp),%rdi
    7ebc:	e8 7f b2 ff ff       	callq  3140 <_ZdlPv@plt>
    7ec1:	48 85 db             	test   %rbx,%rbx
    7ec4:	74 0c                	je     7ed2 <_ZNSt8_Rb_treeISsSt4pairIKSsN6GetOpt10OptionDataEESt10_Select1stIS4_ESt4lessISsESaIS4_EE8_M_eraseEPSt13_Rb_tree_nodeIS4_E+0x4d2>
    7ec6:	48 89 5d 80          	mov    %rbx,-0x80(%rbp)
    7eca:	48 89 d8             	mov    %rbx,%rax
    7ecd:	e9 7f fb ff ff       	jmpq   7a51 <_ZNSt8_Rb_treeISsSt4pairIKSsN6GetOpt10OptionDataEESt10_Select1stIS4_ESt4lessISsESaIS4_EE8_M_eraseEPSt13_Rb_tree_nodeIS4_E+0x51>
    7ed2:	48 8b 45 c8          	mov    -0x38(%rbp),%rax
    7ed6:	64 48 33 04 25 28 00 	xor    %fs:0x28,%rax
    7edd:	00 00 
    7edf:	75 35                	jne    7f16 <_ZNSt8_Rb_treeISsSt4pairIKSsN6GetOpt10OptionDataEESt10_Select1stIS4_ESt4lessISsESaIS4_EE8_M_eraseEPSt13_Rb_tree_nodeIS4_E+0x516>
    7ee1:	48 83 c4 58          	add    $0x58,%rsp
    7ee5:	5b                   	pop    %rbx
    7ee6:	41 5c                	pop    %r12
    7ee8:	41 5d                	pop    %r13
    7eea:	41 5e                	pop    %r14
    7eec:	41 5f                	pop    %r15
    7eee:	5d                   	pop    %rbp
    7eef:	c3                   	retq   
    7ef0:	48 83 3d e0 c0 20 00 	cmpq   $0x0,0x20c0e0(%rip)        # 213fd8 <_DYNAMIC+0x240>
    7ef7:	00 
    7ef8:	48 8d 4f 10          	lea    0x10(%rdi),%rcx
    7efc:	74 1d                	je     7f1b <_ZNSt8_Rb_treeISsSt4pairIKSsN6GetOpt10OptionDataEESt10_Select1stIS4_ESt4lessISsESaIS4_EE8_M_eraseEPSt13_Rb_tree_nodeIS4_E+0x51b>
    7efe:	b8 ff ff ff ff       	mov    $0xffffffff,%eax
    7f03:	f0 0f c1 01          	lock xadd %eax,(%rcx)
    7f07:	85 c0                	test   %eax,%eax
    7f09:	7f ad                	jg     7eb8 <_ZNSt8_Rb_treeISsSt4pairIKSsN6GetOpt10OptionDataEESt10_Select1stIS4_ESt4lessISsESaIS4_EE8_M_eraseEPSt13_Rb_tree_nodeIS4_E+0x4b8>
    7f0b:	48 8b 75 b0          	mov    -0x50(%rbp),%rsi
    7f0f:	e8 cc b1 ff ff       	callq  30e0 <_ZNSs4_Rep10_M_destroyERKSaIcE@plt>
    7f14:	eb a2                	jmp    7eb8 <_ZNSt8_Rb_treeISsSt4pairIKSsN6GetOpt10OptionDataEESt10_Select1stIS4_ESt4lessISsESaIS4_EE8_M_eraseEPSt13_Rb_tree_nodeIS4_E+0x4b8>
    7f16:	e8 a5 b2 ff ff       	callq  31c0 <__stack_chk_fail@plt>
    7f1b:	8b 42 f8             	mov    -0x8(%rdx),%eax
    7f1e:	8d 48 ff             	lea    -0x1(%rax),%ecx
    7f21:	89 4a f8             	mov    %ecx,-0x8(%rdx)
    7f24:	eb e1                	jmp    7f07 <_ZNSt8_Rb_treeISsSt4pairIKSsN6GetOpt10OptionDataEESt10_Select1stIS4_ESt4lessISsESaIS4_EE8_M_eraseEPSt13_Rb_tree_nodeIS4_E+0x507>
    7f26:	8b 42 f8             	mov    -0x8(%rdx),%eax
    7f29:	8d 48 ff             	lea    -0x1(%rax),%ecx
    7f2c:	89 4a f8             	mov    %ecx,-0x8(%rdx)
    7f2f:	e9 9c fe ff ff       	jmpq   7dd0 <_ZNSt8_Rb_treeISsSt4pairIKSsN6GetOpt10OptionDataEESt10_Select1stIS4_ESt4lessISsESaIS4_EE8_M_eraseEPSt13_Rb_tree_nodeIS4_E+0x3d0>
    7f34:	8b 42 f8             	mov    -0x8(%rdx),%eax
    7f37:	8d 48 ff             	lea    -0x1(%rax),%ecx
    7f3a:	89 4a f8             	mov    %ecx,-0x8(%rdx)
    7f3d:	e9 d4 fd ff ff       	jmpq   7d16 <_ZNSt8_Rb_treeISsSt4pairIKSsN6GetOpt10OptionDataEESt10_Select1stIS4_ESt4lessISsESaIS4_EE8_M_eraseEPSt13_Rb_tree_nodeIS4_E+0x316>
    7f42:	8b 42 f8             	mov    -0x8(%rdx),%eax
    7f45:	8d 48 ff             	lea    -0x1(%rax),%ecx
    7f48:	89 4a f8             	mov    %ecx,-0x8(%rdx)
    7f4b:	e9 39 ff ff ff       	jmpq   7e89 <_ZNSt8_Rb_treeISsSt4pairIKSsN6GetOpt10OptionDataEESt10_Select1stIS4_ESt4lessISsESaIS4_EE8_M_eraseEPSt13_Rb_tree_nodeIS4_E+0x489>

0000000000007f50 <_ZN6GetOpt9GetOpt_ppD1Ev>:
    7f50:	55                   	push   %rbp
    7f51:	48 89 e5             	mov    %rsp,%rbp
    7f54:	41 57                	push   %r15
    7f56:	41 56                	push   %r14
    7f58:	41 55                	push   %r13
    7f5a:	41 54                	push   %r12
    7f5c:	53                   	push   %rbx
    7f5d:	48 81 ec 48 10 00 00 	sub    $0x1048,%rsp
    7f64:	48 83 0c 24 00       	orq    $0x0,(%rsp)
    7f69:	48 81 c4 20 10 00 00 	add    $0x1020,%rsp
    7f70:	4c 8d 2d 69 c3 20 00 	lea    0x20c369(%rip),%r13        # 2142e0 <_ZNSs4_Rep20_S_empty_rep_storageE@@GLIBCXX_3.4>
    7f77:	48 89 fb             	mov    %rdi,%rbx
    7f7a:	48 81 c7 88 00 00 00 	add    $0x88,%rdi
    7f81:	64 48 8b 04 25 28 00 	mov    %fs:0x28,%rax
    7f88:	00 00 
    7f8a:	48 89 45 c8          	mov    %rax,-0x38(%rbp)
    7f8e:	31 c0                	xor    %eax,%eax
    7f90:	e8 db 56 00 00       	callq  d670 <_ZN6GetOpt9GetOpt_pp13TokensDeleterD1Ev>
    7f95:	48 8b 43 70          	mov    0x70(%rbx),%rax
    7f99:	48 8d 78 e8          	lea    -0x18(%rax),%rdi
    7f9d:	4c 39 ef             	cmp    %r13,%rdi
    7fa0:	0f 85 2d 01 00 00    	jne    80d3 <_ZN6GetOpt9GetOpt_ppD1Ev+0x183>
    7fa6:	4c 8b 7b 40          	mov    0x40(%rbx),%r15
    7faa:	4c 8d 73 30          	lea    0x30(%rbx),%r14
    7fae:	4d 85 ff             	test   %r15,%r15
    7fb1:	74 75                	je     8028 <_ZN6GetOpt9GetOpt_ppD1Ev+0xd8>
    7fb3:	48 83 3d 1d c0 20 00 	cmpq   $0x0,0x20c01d(%rip)        # 213fd8 <_DYNAMIC+0x240>
    7fba:	00 
    7fbb:	48 8d 45 c7          	lea    -0x39(%rbp),%rax
    7fbf:	48 89 45 b8          	mov    %rax,-0x48(%rbp)
    7fc3:	75 1b                	jne    7fe0 <_ZN6GetOpt9GetOpt_ppD1Ev+0x90>
    7fc5:	e9 ea 00 00 00       	jmpq   80b4 <_ZN6GetOpt9GetOpt_ppD1Ev+0x164>
    7fca:	66 0f 1f 44 00 00    	nopw   0x0(%rax,%rax,1)
    7fd0:	4c 89 ff             	mov    %r15,%rdi
    7fd3:	4d 89 e7             	mov    %r12,%r15
    7fd6:	e8 65 b1 ff ff       	callq  3140 <_ZdlPv@plt>
    7fdb:	4d 85 e4             	test   %r12,%r12
    7fde:	74 48                	je     8028 <_ZN6GetOpt9GetOpt_ppD1Ev+0xd8>
    7fe0:	49 8b 77 18          	mov    0x18(%r15),%rsi
    7fe4:	4c 89 f7             	mov    %r14,%rdi
    7fe7:	e8 14 fa ff ff       	callq  7a00 <_ZNSt8_Rb_treeISsSt4pairIKSsN6GetOpt10OptionDataEESt10_Select1stIS4_ESt4lessISsESaIS4_EE8_M_eraseEPSt13_Rb_tree_nodeIS4_E>
    7fec:	49 8b 57 20          	mov    0x20(%r15),%rdx
    7ff0:	4d 8b 67 10          	mov    0x10(%r15),%r12
    7ff4:	48 8d 7a e8          	lea    -0x18(%rdx),%rdi
    7ff8:	4c 39 ef             	cmp    %r13,%rdi
    7ffb:	74 d3                	je     7fd0 <_ZN6GetOpt9GetOpt_ppD1Ev+0x80>
    7ffd:	b9 ff ff ff ff       	mov    $0xffffffff,%ecx
    8002:	f0 0f c1 4a f8       	lock xadd %ecx,-0x8(%rdx)
    8007:	85 c9                	test   %ecx,%ecx
    8009:	7f c5                	jg     7fd0 <_ZN6GetOpt9GetOpt_ppD1Ev+0x80>
    800b:	48 8b 75 b8          	mov    -0x48(%rbp),%rsi
    800f:	e8 cc b0 ff ff       	callq  30e0 <_ZNSs4_Rep10_M_destroyERKSaIcE@plt>
    8014:	4c 89 ff             	mov    %r15,%rdi
    8017:	4d 89 e7             	mov    %r12,%r15
    801a:	e8 21 b1 ff ff       	callq  3140 <_ZdlPv@plt>
    801f:	4d 85 e4             	test   %r12,%r12
    8022:	75 bc                	jne    7fe0 <_ZN6GetOpt9GetOpt_ppD1Ev+0x90>
    8024:	0f 1f 40 00          	nopl   0x0(%rax)
    8028:	4c 8b 63 10          	mov    0x10(%rbx),%r12
    802c:	4d 85 e4             	test   %r12,%r12
    802f:	74 29                	je     805a <_ZN6GetOpt9GetOpt_ppD1Ev+0x10a>
    8031:	0f 1f 80 00 00 00 00 	nopl   0x0(%rax)
    8038:	49 8b 74 24 18       	mov    0x18(%r12),%rsi
    803d:	48 89 df             	mov    %rbx,%rdi
    8040:	e8 2b f6 ff ff       	callq  7670 <_ZNSt8_Rb_treeIcSt4pairIKcN6GetOpt10OptionDataEESt10_Select1stIS4_ESt4lessIcESaIS4_EE8_M_eraseEPSt13_Rb_tree_nodeIS4_E>
    8045:	4d 8b 6c 24 10       	mov    0x10(%r12),%r13
    804a:	4c 89 e7             	mov    %r12,%rdi
    804d:	e8 ee b0 ff ff       	callq  3140 <_ZdlPv@plt>
    8052:	4d 85 ed             	test   %r13,%r13
    8055:	4d 89 ec             	mov    %r13,%r12
    8058:	75 de                	jne    8038 <_ZN6GetOpt9GetOpt_ppD1Ev+0xe8>
    805a:	48 8b 45 c8          	mov    -0x38(%rbp),%rax
    805e:	64 48 33 04 25 28 00 	xor    %fs:0x28,%rax
    8065:	00 00 
    8067:	0f 85 9f 00 00 00    	jne    810c <_ZN6GetOpt9GetOpt_ppD1Ev+0x1bc>
    806d:	48 83 c4 28          	add    $0x28,%rsp
    8071:	5b                   	pop    %rbx
    8072:	41 5c                	pop    %r12
    8074:	41 5d                	pop    %r13
    8076:	41 5e                	pop    %r14
    8078:	41 5f                	pop    %r15
    807a:	5d                   	pop    %rbp
    807b:	c3                   	retq   
    807c:	0f 1f 40 00          	nopl   0x0(%rax)
    8080:	8b 4a f8             	mov    -0x8(%rdx),%ecx
    8083:	8d 71 ff             	lea    -0x1(%rcx),%esi
    8086:	85 c9                	test   %ecx,%ecx
    8088:	89 72 f8             	mov    %esi,-0x8(%rdx)
    808b:	7f 13                	jg     80a0 <_ZN6GetOpt9GetOpt_ppD1Ev+0x150>
    808d:	48 8b 75 b8          	mov    -0x48(%rbp),%rsi
    8091:	e8 4a b0 ff ff       	callq  30e0 <_ZNSs4_Rep10_M_destroyERKSaIcE@plt>
    8096:	66 2e 0f 1f 84 00 00 	nopw   %cs:0x0(%rax,%rax,1)
    809d:	00 00 00 
    80a0:	4c 89 ff             	mov    %r15,%rdi
    80a3:	4d 89 e7             	mov    %r12,%r15
    80a6:	e8 95 b0 ff ff       	callq  3140 <_ZdlPv@plt>
    80ab:	4d 85 e4             	test   %r12,%r12
    80ae:	0f 84 74 ff ff ff    	je     8028 <_ZN6GetOpt9GetOpt_ppD1Ev+0xd8>
    80b4:	49 8b 77 18          	mov    0x18(%r15),%rsi
    80b8:	4c 89 f7             	mov    %r14,%rdi
    80bb:	e8 40 f9 ff ff       	callq  7a00 <_ZNSt8_Rb_treeISsSt4pairIKSsN6GetOpt10OptionDataEESt10_Select1stIS4_ESt4lessISsESaIS4_EE8_M_eraseEPSt13_Rb_tree_nodeIS4_E>
    80c0:	49 8b 57 20          	mov    0x20(%r15),%rdx
    80c4:	4d 8b 67 10          	mov    0x10(%r15),%r12
    80c8:	48 8d 7a e8          	lea    -0x18(%rdx),%rdi
    80cc:	4c 39 ef             	cmp    %r13,%rdi
    80cf:	74 cf                	je     80a0 <_ZN6GetOpt9GetOpt_ppD1Ev+0x150>
    80d1:	eb ad                	jmp    8080 <_ZN6GetOpt9GetOpt_ppD1Ev+0x130>
    80d3:	48 83 3d fd be 20 00 	cmpq   $0x0,0x20befd(%rip)        # 213fd8 <_DYNAMIC+0x240>
    80da:	00 
    80db:	74 22                	je     80ff <_ZN6GetOpt9GetOpt_ppD1Ev+0x1af>
    80dd:	ba ff ff ff ff       	mov    $0xffffffff,%edx
    80e2:	f0 0f c1 50 f8       	lock xadd %edx,-0x8(%rax)
    80e7:	89 d0                	mov    %edx,%eax
    80e9:	85 c0                	test   %eax,%eax
    80eb:	0f 8f b5 fe ff ff    	jg     7fa6 <_ZN6GetOpt9GetOpt_ppD1Ev+0x56>
    80f1:	48 8d 75 c7          	lea    -0x39(%rbp),%rsi
    80f5:	e8 e6 af ff ff       	callq  30e0 <_ZNSs4_Rep10_M_destroyERKSaIcE@plt>
    80fa:	e9 a7 fe ff ff       	jmpq   7fa6 <_ZN6GetOpt9GetOpt_ppD1Ev+0x56>
    80ff:	8b 50 f8             	mov    -0x8(%rax),%edx
    8102:	8d 4a ff             	lea    -0x1(%rdx),%ecx
    8105:	89 48 f8             	mov    %ecx,-0x8(%rax)
    8108:	89 d0                	mov    %edx,%eax
    810a:	eb dd                	jmp    80e9 <_ZN6GetOpt9GetOpt_ppD1Ev+0x199>
    810c:	e8 af b0 ff ff       	callq  31c0 <__stack_chk_fail@plt>
    8111:	66 2e 0f 1f 84 00 00 	nopw   %cs:0x0(%rax,%rax,1)
    8118:	00 00 00 
    811b:	0f 1f 44 00 00       	nopl   0x0(%rax,%rax,1)

0000000000008120 <_ZN10RelaxationIfLl100EEC1Effllff>:
    8120:	55                   	push   %rbp
    8121:	48 89 e5             	mov    %rsp,%rbp
    8124:	41 55                	push   %r13
    8126:	41 54                	push   %r12
    8128:	53                   	push   %rbx
    8129:	48 81 ec 48 10 00 00 	sub    $0x1048,%rsp
    8130:	48 83 0c 24 00       	orq    $0x0,(%rsp)
    8135:	48 81 c4 20 10 00 00 	add    $0x1020,%rsp
    813c:	64 48 8b 04 25 28 00 	mov    %fs:0x28,%rax
    8143:	00 00 
    8145:	48 89 45 d8          	mov    %rax,-0x28(%rbp)
    8149:	31 c0                	xor    %eax,%eax
    814b:	f3 48 0f 2c c2       	cvttss2si %xmm2,%rax
    8150:	48 89 fb             	mov    %rdi,%rbx
    8153:	f3 0f 11 03          	movss  %xmm0,(%rbx)
    8157:	49 89 f5             	mov    %rsi,%r13
    815a:	49 89 d4             	mov    %rdx,%r12
    815d:	f3 0f 11 4f 04       	movss  %xmm1,0x4(%rdi)
    8162:	48 89 73 08          	mov    %rsi,0x8(%rbx)
    8166:	48 89 53 10          	mov    %rdx,0x10(%rbx)
    816a:	f3 0f 11 45 c8       	movss  %xmm0,-0x38(%rbp)
    816f:	f3 0f 11 5d c4       	movss  %xmm3,-0x3c(%rbp)
    8174:	f3 0f 11 55 cc       	movss  %xmm2,-0x34(%rbp)
    8179:	48 89 47 18          	mov    %rax,0x18(%rdi)
    817d:	f3 48 0f 2c c3       	cvttss2si %xmm3,%rax
    8182:	48 89 47 20          	mov    %rax,0x20(%rdi)
    8186:	bf 40 9c 00 00       	mov    $0x9c40,%edi
    818b:	e8 e0 af ff ff       	callq  3170 <_Znwm@plt>
    8190:	f3 0f 10 05 38 94 00 	movss  0x9438(%rip),%xmm0        # 115d0 <_ZTSN6GetOpt13_DefValOptionIdNS_8_OptionTIdEEEE+0x30>
    8197:	00 
    8198:	48 89 43 28          	mov    %rax,0x28(%rbx)
    819c:	0f 2e 45 cc          	ucomiss -0x34(%rbp),%xmm0
    81a0:	0f 87 a7 02 00 00    	ja     844d <_ZN10RelaxationIfLl100EEC1Effllff+0x32d>
    81a6:	49 8d 55 ff          	lea    -0x1(%r13),%rdx
    81aa:	48 83 fa 61          	cmp    $0x61,%rdx
    81ae:	0f 87 05 02 00 00    	ja     83b9 <_ZN10RelaxationIfLl100EEC1Effllff+0x299>
    81b4:	49 8d 54 24 ff       	lea    -0x1(%r12),%rdx
    81b9:	48 83 fa 61          	cmp    $0x61,%rdx
    81bd:	0f 87 f6 01 00 00    	ja     83b9 <_ZN10RelaxationIfLl100EEC1Effllff+0x299>
    81c3:	66 0f ef c0          	pxor   %xmm0,%xmm0
    81c7:	f3 0f 10 65 cc       	movss  -0x34(%rbp),%xmm4
    81cc:	66 0f ef c9          	pxor   %xmm1,%xmm1
    81d0:	f3 49 0f 2a c5       	cvtsi2ss %r13,%xmm0
    81d5:	0f 28 d0             	movaps %xmm0,%xmm2
    81d8:	f3 0f 5c d4          	subss  %xmm4,%xmm2
    81dc:	0f 2e ca             	ucomiss %xmm2,%xmm1
    81df:	0f 87 9a 02 00 00    	ja     847f <_ZN10RelaxationIfLl100EEC1Effllff+0x35f>
    81e5:	f3 0f 58 c4          	addss  %xmm4,%xmm0
    81e9:	0f 2e 05 e4 93 00 00 	ucomiss 0x93e4(%rip),%xmm0        # 115d4 <_ZTSN6GetOpt13_DefValOptionIdNS_8_OptionTIdEEEE+0x34>
    81f0:	0f 87 89 02 00 00    	ja     847f <_ZN10RelaxationIfLl100EEC1Effllff+0x35f>
    81f6:	66 0f ef c0          	pxor   %xmm0,%xmm0
    81fa:	f3 49 0f 2a c4       	cvtsi2ss %r12,%xmm0
    81ff:	0f 28 d0             	movaps %xmm0,%xmm2
    8202:	f3 0f 5c d4          	subss  %xmm4,%xmm2
    8206:	0f 2e ca             	ucomiss %xmm2,%xmm1
    8209:	0f 87 70 02 00 00    	ja     847f <_ZN10RelaxationIfLl100EEC1Effllff+0x35f>
    820f:	f3 0f 58 c4          	addss  %xmm4,%xmm0
    8213:	0f 2e 05 ba 93 00 00 	ucomiss 0x93ba(%rip),%xmm0        # 115d4 <_ZTSN6GetOpt13_DefValOptionIdNS_8_OptionTIdEEEE+0x34>
    821a:	0f 87 5f 02 00 00    	ja     847f <_ZN10RelaxationIfLl100EEC1Effllff+0x35f>
    8220:	f3 0f 10 7d c4       	movss  -0x3c(%rbp),%xmm7
    8225:	0f 2e 7d c8          	ucomiss -0x38(%rbp),%xmm7
    8229:	0f 87 e5 01 00 00    	ja     8414 <_ZN10RelaxationIfLl100EEC1Effllff+0x2f4>
    822f:	48 89 c2             	mov    %rax,%rdx
    8232:	83 e2 0f             	and    $0xf,%edx
    8235:	48 c1 ea 02          	shr    $0x2,%rdx
    8239:	48 f7 da             	neg    %rdx
    823c:	83 e2 03             	and    $0x3,%edx
    823f:	0f 84 2b 01 00 00    	je     8370 <_ZN10RelaxationIfLl100EEC1Effllff+0x250>
    8245:	48 83 fa 01          	cmp    $0x1,%rdx
    8249:	f3 0f 11 88 b0 9a 00 	movss  %xmm1,0x9ab0(%rax)
    8250:	00 
    8251:	f3 0f 11 08          	movss  %xmm1,(%rax)
    8255:	0f 84 4d 01 00 00    	je     83a8 <_ZN10RelaxationIfLl100EEC1Effllff+0x288>
    825b:	48 83 fa 02          	cmp    $0x2,%rdx
    825f:	c7 80 b4 9a 00 00 00 	movl   $0x0,0x9ab4(%rax)
    8266:	00 00 00 
    8269:	c7 40 04 00 00 00 00 	movl   $0x0,0x4(%rax)
    8270:	0f 84 1a 01 00 00    	je     8390 <_ZN10RelaxationIfLl100EEC1Effllff+0x270>
    8276:	c7 80 b8 9a 00 00 00 	movl   $0x0,0x9ab8(%rax)
    827d:	00 00 00 
    8280:	c7 40 08 00 00 00 00 	movl   $0x0,0x8(%rax)
    8287:	41 ba 61 00 00 00    	mov    $0x61,%r10d
    828d:	41 b9 03 00 00 00    	mov    $0x3,%r9d
    8293:	41 bb 64 00 00 00    	mov    $0x64,%r11d
    8299:	41 bc 60 00 00 00    	mov    $0x60,%r12d
    829f:	be 18 00 00 00       	mov    $0x18,%esi
    82a4:	49 29 d3             	sub    %rdx,%r11
    82a7:	48 8d 14 95 b0 9a 00 	lea    0x9ab0(,%rdx,4),%rdx
    82ae:	00 
    82af:	66 0f ef c0          	pxor   %xmm0,%xmm0
    82b3:	31 c9                	xor    %ecx,%ecx
    82b5:	4c 8d 04 10          	lea    (%rax,%rdx,1),%r8
    82b9:	48 8d bc 10 50 65 ff 	lea    -0x9ab0(%rax,%rdx,1),%rdi
    82c0:	ff 
    82c1:	31 d2                	xor    %edx,%edx
    82c3:	0f 1f 44 00 00       	nopl   0x0(%rax,%rax,1)
    82c8:	48 83 c1 01          	add    $0x1,%rcx
    82cc:	41 0f 29 04 10       	movaps %xmm0,(%r8,%rdx,1)
    82d1:	0f 11 04 17          	movups %xmm0,(%rdi,%rdx,1)
    82d5:	48 83 c2 10          	add    $0x10,%rdx
    82d9:	48 39 f1             	cmp    %rsi,%rcx
    82dc:	72 ea                	jb     82c8 <_ZN10RelaxationIfLl100EEC1Effllff+0x1a8>
    82de:	4d 29 e2             	sub    %r12,%r10
    82e1:	4d 39 e3             	cmp    %r12,%r11
    82e4:	4b 8d 14 0c          	lea    (%r12,%r9,1),%rdx
    82e8:	74 50                	je     833a <_ZN10RelaxationIfLl100EEC1Effllff+0x21a>
    82ea:	48 8d 0c 90          	lea    (%rax,%rdx,4),%rcx
    82ee:	49 83 fa 01          	cmp    $0x1,%r10
    82f2:	c7 81 b0 9a 00 00 00 	movl   $0x0,0x9ab0(%rcx)
    82f9:	00 00 00 
    82fc:	c7 01 00 00 00 00    	movl   $0x0,(%rcx)
    8302:	48 8d 4a 01          	lea    0x1(%rdx),%rcx
    8306:	74 32                	je     833a <_ZN10RelaxationIfLl100EEC1Effllff+0x21a>
    8308:	48 8d 0c 88          	lea    (%rax,%rcx,4),%rcx
    830c:	48 83 c2 02          	add    $0x2,%rdx
    8310:	49 83 fa 02          	cmp    $0x2,%r10
    8314:	c7 81 b0 9a 00 00 00 	movl   $0x0,0x9ab0(%rcx)
    831b:	00 00 00 
    831e:	c7 01 00 00 00 00    	movl   $0x0,(%rcx)
    8324:	74 14                	je     833a <_ZN10RelaxationIfLl100EEC1Effllff+0x21a>
    8326:	48 8d 04 90          	lea    (%rax,%rdx,4),%rax
    832a:	c7 80 b0 9a 00 00 00 	movl   $0x0,0x9ab0(%rax)
    8331:	00 00 00 
    8334:	c7 00 00 00 00 00    	movl   $0x0,(%rax)
    833a:	48 8d 75 d0          	lea    -0x30(%rbp),%rsi
    833e:	48 8d 3d cb d1 ff ff 	lea    -0x2e35(%rip),%rdi        # 5510 <_ZN10RelaxationIfLl100EEC2Effllff._omp_fn.0>
    8345:	31 c9                	xor    %ecx,%ecx
    8347:	31 d2                	xor    %edx,%edx
    8349:	48 89 5d d0          	mov    %rbx,-0x30(%rbp)
    834d:	e8 7e af ff ff       	callq  32d0 <GOMP_parallel@plt>
    8352:	48 8b 45 d8          	mov    -0x28(%rbp),%rax
    8356:	64 48 33 04 25 28 00 	xor    %fs:0x28,%rax
    835d:	00 00 
    835f:	0f 85 e1 00 00 00    	jne    8446 <_ZN10RelaxationIfLl100EEC1Effllff+0x326>
    8365:	48 83 c4 28          	add    $0x28,%rsp
    8369:	5b                   	pop    %rbx
    836a:	41 5c                	pop    %r12
    836c:	41 5d                	pop    %r13
    836e:	5d                   	pop    %rbp
    836f:	c3                   	retq   
    8370:	41 bc 64 00 00 00    	mov    $0x64,%r12d
    8376:	be 19 00 00 00       	mov    $0x19,%esi
    837b:	41 bb 64 00 00 00    	mov    $0x64,%r11d
    8381:	41 ba 64 00 00 00    	mov    $0x64,%r10d
    8387:	45 31 c9             	xor    %r9d,%r9d
    838a:	e9 18 ff ff ff       	jmpq   82a7 <_ZN10RelaxationIfLl100EEC1Effllff+0x187>
    838f:	90                   	nop
    8390:	41 ba 62 00 00 00    	mov    $0x62,%r10d
    8396:	41 b9 02 00 00 00    	mov    $0x2,%r9d
    839c:	e9 f2 fe ff ff       	jmpq   8293 <_ZN10RelaxationIfLl100EEC1Effllff+0x173>
    83a1:	0f 1f 80 00 00 00 00 	nopl   0x0(%rax)
    83a8:	41 ba 63 00 00 00    	mov    $0x63,%r10d
    83ae:	41 b9 01 00 00 00    	mov    $0x1,%r9d
    83b4:	e9 da fe ff ff       	jmpq   8293 <_ZN10RelaxationIfLl100EEC1Effllff+0x173>
    83b9:	bf 10 00 00 00       	mov    $0x10,%edi
    83be:	e8 7d ac ff ff       	callq  3040 <__cxa_allocate_exception@plt>
    83c3:	48 8d 35 a6 8e 00 00 	lea    0x8ea6(%rip),%rsi        # 11270 <_fini+0x11c>
    83ca:	48 89 c7             	mov    %rax,%rdi
    83cd:	49 89 c5             	mov    %rax,%r13
    83d0:	e8 cb ae ff ff       	callq  32a0 <_ZNSt11logic_errorC1EPKc@plt>
    83d5:	48 8b 15 f4 bb 20 00 	mov    0x20bbf4(%rip),%rdx        # 213fd0 <_DYNAMIC+0x238>
    83dc:	48 8d 35 ed c2 20 00 	lea    0x20c2ed(%rip),%rsi        # 2146d0 <_ZTISt11logic_error@@GLIBCXX_3.4>
    83e3:	4c 89 ef             	mov    %r13,%rdi
    83e6:	e8 a5 af ff ff       	callq  3390 <__cxa_throw@plt>
    83eb:	48 89 c7             	mov    %rax,%rdi
    83ee:	eb 14                	jmp    8404 <_ZN10RelaxationIfLl100EEC1Effllff+0x2e4>
    83f0:	48 89 c3             	mov    %rax,%rbx
    83f3:	49 89 d4             	mov    %rdx,%r12
    83f6:	4c 89 ef             	mov    %r13,%rdi
    83f9:	e8 b2 ac ff ff       	callq  30b0 <__cxa_free_exception@plt>
    83fe:	48 89 df             	mov    %rbx,%rdi
    8401:	4c 89 e2             	mov    %r12,%rdx
    8404:	48 83 fa ff          	cmp    $0xffffffffffffffff,%rdx
    8408:	74 05                	je     840f <_ZN10RelaxationIfLl100EEC1Effllff+0x2ef>
    840a:	e8 a1 af ff ff       	callq  33b0 <_Unwind_Resume@plt>
    840f:	e8 2c ae ff ff       	callq  3240 <__cxa_call_unexpected@plt>
    8414:	bf 10 00 00 00       	mov    $0x10,%edi
    8419:	e8 22 ac ff ff       	callq  3040 <__cxa_allocate_exception@plt>
    841e:	48 8d 35 13 8f 00 00 	lea    0x8f13(%rip),%rsi        # 11338 <_fini+0x1e4>
    8425:	48 89 c7             	mov    %rax,%rdi
    8428:	49 89 c5             	mov    %rax,%r13
    842b:	e8 70 ae ff ff       	callq  32a0 <_ZNSt11logic_errorC1EPKc@plt>
    8430:	48 8b 15 99 bb 20 00 	mov    0x20bb99(%rip),%rdx        # 213fd0 <_DYNAMIC+0x238>
    8437:	48 8d 35 92 c2 20 00 	lea    0x20c292(%rip),%rsi        # 2146d0 <_ZTISt11logic_error@@GLIBCXX_3.4>
    843e:	4c 89 ef             	mov    %r13,%rdi
    8441:	e8 4a af ff ff       	callq  3390 <__cxa_throw@plt>
    8446:	e8 75 ad ff ff       	callq  31c0 <__stack_chk_fail@plt>
    844b:	eb a3                	jmp    83f0 <_ZN10RelaxationIfLl100EEC1Effllff+0x2d0>
    844d:	bf 10 00 00 00       	mov    $0x10,%edi
    8452:	e8 e9 ab ff ff       	callq  3040 <__cxa_allocate_exception@plt>
    8457:	48 8d 35 ea 8d 00 00 	lea    0x8dea(%rip),%rsi        # 11248 <_fini+0xf4>
    845e:	48 89 c7             	mov    %rax,%rdi
    8461:	49 89 c5             	mov    %rax,%r13
    8464:	e8 37 ae ff ff       	callq  32a0 <_ZNSt11logic_errorC1EPKc@plt>
    8469:	48 8b 15 60 bb 20 00 	mov    0x20bb60(%rip),%rdx        # 213fd0 <_DYNAMIC+0x238>
    8470:	48 8d 35 59 c2 20 00 	lea    0x20c259(%rip),%rsi        # 2146d0 <_ZTISt11logic_error@@GLIBCXX_3.4>
    8477:	4c 89 ef             	mov    %r13,%rdi
    847a:	e8 11 af ff ff       	callq  3390 <__cxa_throw@plt>
    847f:	bf 10 00 00 00       	mov    $0x10,%edi
    8484:	e8 b7 ab ff ff       	callq  3040 <__cxa_allocate_exception@plt>
    8489:	48 8d 35 40 8e 00 00 	lea    0x8e40(%rip),%rsi        # 112d0 <_fini+0x17c>
    8490:	48 89 c7             	mov    %rax,%rdi
    8493:	49 89 c5             	mov    %rax,%r13
    8496:	e8 05 ae ff ff       	callq  32a0 <_ZNSt11logic_errorC1EPKc@plt>
    849b:	48 8b 15 2e bb 20 00 	mov    0x20bb2e(%rip),%rdx        # 213fd0 <_DYNAMIC+0x238>
    84a2:	48 8d 35 27 c2 20 00 	lea    0x20c227(%rip),%rsi        # 2146d0 <_ZTISt11logic_error@@GLIBCXX_3.4>
    84a9:	4c 89 ef             	mov    %r13,%rdi
    84ac:	e8 df ae ff ff       	callq  3390 <__cxa_throw@plt>
    84b1:	e9 3a ff ff ff       	jmpq   83f0 <_ZN10RelaxationIfLl100EEC1Effllff+0x2d0>
    84b6:	e9 35 ff ff ff       	jmpq   83f0 <_ZN10RelaxationIfLl100EEC1Effllff+0x2d0>
    84bb:	0f 1f 44 00 00       	nopl   0x0(%rax,%rax,1)

00000000000084c0 <_Z9benchmarkIfLl100EEmi>:
    84c0:	55                   	push   %rbp
    84c1:	48 89 e5             	mov    %rsp,%rbp
    84c4:	41 57                	push   %r15
    84c6:	41 56                	push   %r14
    84c8:	41 55                	push   %r13
    84ca:	41 54                	push   %r12
    84cc:	53                   	push   %rbx
    84cd:	48 81 ec 88 10 00 00 	sub    $0x1088,%rsp
    84d4:	48 83 0c 24 00       	orq    $0x0,(%rsp)
    84d9:	48 81 c4 20 10 00 00 	add    $0x1020,%rsp
    84e0:	64 48 8b 04 25 28 00 	mov    %fs:0x28,%rax
    84e7:	00 00 
    84e9:	48 89 45 c8          	mov    %rax,-0x38(%rbp)
    84ed:	31 c0                	xor    %eax,%eax
    84ef:	e8 dc ac ff ff       	callq  31d0 <omp_set_num_threads@plt>
    84f4:	e8 67 ae ff ff       	callq  3360 <omp_get_max_threads@plt>
    84f9:	48 8d 35 63 8c 00 00 	lea    0x8c63(%rip),%rsi        # 11163 <_fini+0xf>
    8500:	48 8d 3d 59 bf 20 00 	lea    0x20bf59(%rip),%rdi        # 214460 <_ZSt4cout@@GLIBCXX_3.4>
    8507:	ba 12 00 00 00       	mov    $0x12,%edx
    850c:	89 c3                	mov    %eax,%ebx
    850e:	e8 dd ac ff ff       	callq  31f0 <_ZSt16__ostream_insertIcSt11char_traitsIcEERSt13basic_ostreamIT_T0_ES6_PKS3_l@plt>
    8513:	48 8d 3d 46 bf 20 00 	lea    0x20bf46(%rip),%rdi        # 214460 <_ZSt4cout@@GLIBCXX_3.4>
    851a:	89 de                	mov    %ebx,%esi
    851c:	e8 7f ae ff ff       	callq  33a0 <_ZNSolsEi@plt>
    8521:	48 8d 35 4e 8c 00 00 	lea    0x8c4e(%rip),%rsi        # 11176 <_fini+0x22>
    8528:	49 89 c4             	mov    %rax,%r12
    852b:	ba 09 00 00 00       	mov    $0x9,%edx
    8530:	48 89 c7             	mov    %rax,%rdi
    8533:	e8 b8 ac ff ff       	callq  31f0 <_ZSt16__ostream_insertIcSt11char_traitsIcEERSt13basic_ostreamIT_T0_ES6_PKS3_l@plt>
    8538:	49 8b 04 24          	mov    (%r12),%rax
    853c:	48 8b 40 e8          	mov    -0x18(%rax),%rax
    8540:	49 8b 9c 04 f0 00 00 	mov    0xf0(%r12,%rax,1),%rbx
    8547:	00 
    8548:	48 85 db             	test   %rbx,%rbx
    854b:	0f 84 f0 03 00 00    	je     8941 <_Z9benchmarkIfLl100EEmi+0x481>
    8551:	80 7b 38 00          	cmpb   $0x0,0x38(%rbx)
    8555:	0f 84 b5 03 00 00    	je     8910 <_Z9benchmarkIfLl100EEmi+0x450>
    855b:	0f be 73 43          	movsbl 0x43(%rbx),%esi
    855f:	4c 89 e7             	mov    %r12,%rdi
    8562:	e8 f9 a9 ff ff       	callq  2f60 <_ZNSo3putEc@plt>
    8567:	48 89 c7             	mov    %rax,%rdi
    856a:	e8 21 ab ff ff       	callq  3090 <_ZNSo5flushEv@plt>
    856f:	48 8d 35 0a 8c 00 00 	lea    0x8c0a(%rip),%rsi        # 11180 <_fini+0x2c>
    8576:	48 8d 3d e3 be 20 00 	lea    0x20bee3(%rip),%rdi        # 214460 <_ZSt4cout@@GLIBCXX_3.4>
    857d:	ba 0f 00 00 00       	mov    $0xf,%edx
    8582:	44 8b 25 cb c2 20 00 	mov    0x20c2cb(%rip),%r12d        # 214854 <steps>
    8589:	e8 62 ac ff ff       	callq  31f0 <_ZSt16__ostream_insertIcSt11char_traitsIcEERSt13basic_ostreamIT_T0_ES6_PKS3_l@plt>
    858e:	48 8d 3d cb be 20 00 	lea    0x20becb(%rip),%rdi        # 214460 <_ZSt4cout@@GLIBCXX_3.4>
    8595:	be 64 00 00 00       	mov    $0x64,%esi
    859a:	e8 b1 ab ff ff       	callq  3150 <_ZNSo9_M_insertIlEERSoT_@plt>
    859f:	48 8d 35 c9 8b 00 00 	lea    0x8bc9(%rip),%rsi        # 1116f <_fini+0x1b>
    85a6:	48 89 c3             	mov    %rax,%rbx
    85a9:	ba 06 00 00 00       	mov    $0x6,%edx
    85ae:	48 89 c7             	mov    %rax,%rdi
    85b1:	e8 3a ac ff ff       	callq  31f0 <_ZSt16__ostream_insertIcSt11char_traitsIcEERSt13basic_ostreamIT_T0_ES6_PKS3_l@plt>
    85b6:	44 89 e6             	mov    %r12d,%esi
    85b9:	48 89 df             	mov    %rbx,%rdi
    85bc:	e8 df ad ff ff       	callq  33a0 <_ZNSolsEi@plt>
    85c1:	48 8d 35 c8 8b 00 00 	lea    0x8bc8(%rip),%rsi        # 11190 <_fini+0x3c>
    85c8:	48 89 c3             	mov    %rax,%rbx
    85cb:	ba 0f 00 00 00       	mov    $0xf,%edx
    85d0:	48 89 c7             	mov    %rax,%rdi
    85d3:	e8 18 ac ff ff       	callq  31f0 <_ZSt16__ostream_insertIcSt11char_traitsIcEERSt13basic_ostreamIT_T0_ES6_PKS3_l@plt>
    85d8:	48 89 df             	mov    %rbx,%rdi
    85db:	be 01 00 00 00       	mov    $0x1,%esi
    85e0:	e8 bb ad ff ff       	callq  33a0 <_ZNSolsEi@plt>
    85e5:	48 8d 35 b4 8b 00 00 	lea    0x8bb4(%rip),%rsi        # 111a0 <_fini+0x4c>
    85ec:	49 89 c4             	mov    %rax,%r12
    85ef:	ba 06 00 00 00       	mov    $0x6,%edx
    85f4:	48 89 c7             	mov    %rax,%rdi
    85f7:	e8 f4 ab ff ff       	callq  31f0 <_ZSt16__ostream_insertIcSt11char_traitsIcEERSt13basic_ostreamIT_T0_ES6_PKS3_l@plt>
    85fc:	49 8b 04 24          	mov    (%r12),%rax
    8600:	48 8b 40 e8          	mov    -0x18(%rax),%rax
    8604:	49 8b 9c 04 f0 00 00 	mov    0xf0(%r12,%rax,1),%rbx
    860b:	00 
    860c:	48 85 db             	test   %rbx,%rbx
    860f:	0f 84 2c 03 00 00    	je     8941 <_Z9benchmarkIfLl100EEmi+0x481>
    8615:	80 7b 38 00          	cmpb   $0x0,0x38(%rbx)
    8619:	0f 84 ba 02 00 00    	je     88d9 <_Z9benchmarkIfLl100EEmi+0x419>
    861f:	0f be 73 43          	movsbl 0x43(%rbx),%esi
    8623:	4c 89 e7             	mov    %r12,%rdi
    8626:	e8 35 a9 ff ff       	callq  2f60 <_ZNSo3putEc@plt>
    862b:	48 89 c7             	mov    %rax,%rdi
    862e:	e8 5d aa ff ff       	callq  3090 <_ZNSo5flushEv@plt>
    8633:	0f 31                	rdtsc  
    8635:	66 0f ef d2          	pxor   %xmm2,%xmm2
    8639:	48 c1 e2 20          	shl    $0x20,%rdx
    863d:	89 c0                	mov    %eax,%eax
    863f:	4c 8d 65 90          	lea    -0x70(%rbp),%r12
    8643:	be 32 00 00 00       	mov    $0x32,%esi
    8648:	66 0f ef db          	pxor   %xmm3,%xmm3
    864c:	48 09 c2             	or     %rax,%rdx
    864f:	f3 0f 2a 15 f9 c1 20 	cvtsi2ssl 0x20c1f9(%rip),%xmm2        # 214850 <radius>
    8656:	00 
    8657:	48 89 95 78 ff ff ff 	mov    %rdx,-0x88(%rbp)
    865e:	f3 0f 10 0d 72 8f 00 	movss  0x8f72(%rip),%xmm1        # 115d8 <_ZTSN6GetOpt13_DefValOptionIdNS_8_OptionTIdEEEE+0x38>
    8665:	00 
    8666:	ba 32 00 00 00       	mov    $0x32,%edx
    866b:	f3 0f 10 05 69 8f 00 	movss  0x8f69(%rip),%xmm0        # 115dc <_ZTSN6GetOpt13_DefValOptionIdNS_8_OptionTIdEEEE+0x3c>
    8672:	00 
    8673:	4c 89 e7             	mov    %r12,%rdi
    8676:	f2 0f 5a 1d ca c1 20 	cvtsd2ss 0x20c1ca(%rip),%xmm3        # 214848 <heat>
    867d:	00 
    867e:	e8 9d fa ff ff       	callq  8120 <_ZN10RelaxationIfLl100EEC1Effllff>
    8683:	8b 05 cb c1 20 00    	mov    0x20c1cb(%rip),%eax        # 214854 <steps>
    8689:	85 c0                	test   %eax,%eax
    868b:	0f 8e ba 02 00 00    	jle    894b <_Z9benchmarkIfLl100EEmi+0x48b>
    8691:	4c 8d 6d 80          	lea    -0x80(%rbp),%r13
    8695:	bb 01 00 00 00       	mov    $0x1,%ebx
    869a:	66 0f 1f 44 00 00    	nopw   0x0(%rax,%rax,1)
    86a0:	bf 40 9c 00 00       	mov    $0x9c40,%edi
    86a5:	e8 c6 aa ff ff       	callq  3170 <_Znwm@plt>
    86aa:	48 8b 75 b8          	mov    -0x48(%rbp),%rsi
    86ae:	48 8d 48 10          	lea    0x10(%rax),%rcx
    86b2:	48 8d 96 b0 9a 00 00 	lea    0x9ab0(%rsi),%rdx
    86b9:	48 39 ca             	cmp    %rcx,%rdx
    86bc:	73 10                	jae    86ce <_Z9benchmarkIfLl100EEmi+0x20e>
    86be:	48 8d 8e c0 9a 00 00 	lea    0x9ac0(%rsi),%rcx
    86c5:	48 39 c8             	cmp    %rcx,%rax
    86c8:	0f 82 b2 01 00 00    	jb     8880 <_Z9benchmarkIfLl100EEmi+0x3c0>
    86ce:	83 e2 0f             	and    $0xf,%edx
    86d1:	48 c1 ea 02          	shr    $0x2,%rdx
    86d5:	48 f7 da             	neg    %rdx
    86d8:	83 e2 03             	and    $0x3,%edx
    86db:	0f 84 7f 01 00 00    	je     8860 <_Z9benchmarkIfLl100EEmi+0x3a0>
    86e1:	48 83 fa 01          	cmp    $0x1,%rdx
    86e5:	c7 86 b0 9a 00 00 00 	movl   $0x0,0x9ab0(%rsi)
    86ec:	00 00 00 
    86ef:	c7 00 00 00 00 00    	movl   $0x0,(%rax)
    86f5:	0f 84 cd 01 00 00    	je     88c8 <_Z9benchmarkIfLl100EEmi+0x408>
    86fb:	48 83 fa 02          	cmp    $0x2,%rdx
    86ff:	c7 86 b4 9a 00 00 00 	movl   $0x0,0x9ab4(%rsi)
    8706:	00 00 00 
    8709:	c7 40 04 00 00 00 00 	movl   $0x0,0x4(%rax)
    8710:	0f 84 9a 01 00 00    	je     88b0 <_Z9benchmarkIfLl100EEmi+0x3f0>
    8716:	c7 86 b8 9a 00 00 00 	movl   $0x0,0x9ab8(%rsi)
    871d:	00 00 00 
    8720:	41 bb 61 00 00 00    	mov    $0x61,%r11d
    8726:	c7 40 08 00 00 00 00 	movl   $0x0,0x8(%rax)
    872d:	41 ba 03 00 00 00    	mov    $0x3,%r10d
    8733:	41 be 64 00 00 00    	mov    $0x64,%r14d
    8739:	bf 18 00 00 00       	mov    $0x18,%edi
    873e:	41 bf 60 00 00 00    	mov    $0x60,%r15d
    8744:	49 29 d6             	sub    %rdx,%r14
    8747:	48 8d 14 95 b0 9a 00 	lea    0x9ab0(,%rdx,4),%rdx
    874e:	00 
    874f:	31 c9                	xor    %ecx,%ecx
    8751:	4c 8d 0c 16          	lea    (%rsi,%rdx,1),%r9
    8755:	4c 8d 84 10 50 65 ff 	lea    -0x9ab0(%rax,%rdx,1),%r8
    875c:	ff 
    875d:	31 d2                	xor    %edx,%edx
    875f:	90                   	nop
    8760:	66 0f ef e4          	pxor   %xmm4,%xmm4
    8764:	48 83 c1 01          	add    $0x1,%rcx
    8768:	41 0f 29 24 11       	movaps %xmm4,(%r9,%rdx,1)
    876d:	41 0f 11 24 10       	movups %xmm4,(%r8,%rdx,1)
    8772:	48 83 c2 10          	add    $0x10,%rdx
    8776:	48 39 f9             	cmp    %rdi,%rcx
    8779:	72 e5                	jb     8760 <_Z9benchmarkIfLl100EEmi+0x2a0>
    877b:	4d 01 fa             	add    %r15,%r10
    877e:	4d 29 fb             	sub    %r15,%r11
    8781:	4d 39 f7             	cmp    %r14,%r15
    8784:	74 4e                	je     87d4 <_Z9benchmarkIfLl100EEmi+0x314>
    8786:	49 83 fb 01          	cmp    $0x1,%r11
    878a:	42 c7 84 96 b0 9a 00 	movl   $0x0,0x9ab0(%rsi,%r10,4)
    8791:	00 00 00 00 00 
    8796:	49 8d 52 01          	lea    0x1(%r10),%rdx
    879a:	42 c7 04 90 00 00 00 	movl   $0x0,(%rax,%r10,4)
    87a1:	00 
    87a2:	74 30                	je     87d4 <_Z9benchmarkIfLl100EEmi+0x314>
    87a4:	49 83 c2 02          	add    $0x2,%r10
    87a8:	49 83 fb 02          	cmp    $0x2,%r11
    87ac:	c7 84 96 b0 9a 00 00 	movl   $0x0,0x9ab0(%rsi,%rdx,4)
    87b3:	00 00 00 00 
    87b7:	c7 04 90 00 00 00 00 	movl   $0x0,(%rax,%rdx,4)
    87be:	74 14                	je     87d4 <_Z9benchmarkIfLl100EEmi+0x314>
    87c0:	42 c7 84 96 b0 9a 00 	movl   $0x0,0x9ab0(%rsi,%r10,4)
    87c7:	00 00 00 00 00 
    87cc:	42 c7 04 90 00 00 00 	movl   $0x0,(%rax,%r10,4)
    87d3:	00 
    87d4:	48 8d 3d a5 ce ff ff 	lea    -0x315b(%rip),%rdi        # 5680 <_ZN10RelaxationIfLl100EE7iterateEv._omp_fn.1>
    87db:	31 c9                	xor    %ecx,%ecx
    87dd:	31 d2                	xor    %edx,%edx
    87df:	4c 89 ee             	mov    %r13,%rsi
    87e2:	4c 89 65 80          	mov    %r12,-0x80(%rbp)
    87e6:	48 89 45 88          	mov    %rax,-0x78(%rbp)
    87ea:	e8 e1 aa ff ff       	callq  32d0 <GOMP_parallel@plt>
    87ef:	48 8b 7d b8          	mov    -0x48(%rbp),%rdi
    87f3:	4c 8b 75 88          	mov    -0x78(%rbp),%r14
    87f7:	48 85 ff             	test   %rdi,%rdi
    87fa:	74 05                	je     8801 <_Z9benchmarkIfLl100EEmi+0x341>
    87fc:	e8 4f aa ff ff       	callq  3250 <_ZdaPv@plt>
    8801:	83 c3 01             	add    $0x1,%ebx
    8804:	39 1d 4a c0 20 00    	cmp    %ebx,0x20c04a(%rip)        # 214854 <steps>
    880a:	4c 89 75 b8          	mov    %r14,-0x48(%rbp)
    880e:	0f 8d 8c fe ff ff    	jge    86a0 <_Z9benchmarkIfLl100EEmi+0x1e0>
    8814:	4c 89 f7             	mov    %r14,%rdi
    8817:	0f 31                	rdtsc  
    8819:	48 89 d3             	mov    %rdx,%rbx
    881c:	89 c0                	mov    %eax,%eax
    881e:	48 c1 e3 20          	shl    $0x20,%rbx
    8822:	48 09 c3             	or     %rax,%rbx
    8825:	48 2b 9d 78 ff ff ff 	sub    -0x88(%rbp),%rbx
    882c:	48 85 ff             	test   %rdi,%rdi
    882f:	74 05                	je     8836 <_Z9benchmarkIfLl100EEmi+0x376>
    8831:	e8 1a aa ff ff       	callq  3250 <_ZdaPv@plt>
    8836:	48 89 d8             	mov    %rbx,%rax
    8839:	48 8b 5d c8          	mov    -0x38(%rbp),%rbx
    883d:	64 48 33 1c 25 28 00 	xor    %fs:0x28,%rbx
    8844:	00 00 
    8846:	0f 85 18 01 00 00    	jne    8964 <_Z9benchmarkIfLl100EEmi+0x4a4>
    884c:	48 83 c4 68          	add    $0x68,%rsp
    8850:	5b                   	pop    %rbx
    8851:	41 5c                	pop    %r12
    8853:	41 5d                	pop    %r13
    8855:	41 5e                	pop    %r14
    8857:	41 5f                	pop    %r15
    8859:	5d                   	pop    %rbp
    885a:	c3                   	retq   
    885b:	0f 1f 44 00 00       	nopl   0x0(%rax,%rax,1)
    8860:	bf 19 00 00 00       	mov    $0x19,%edi
    8865:	41 bf 64 00 00 00    	mov    $0x64,%r15d
    886b:	41 bb 64 00 00 00    	mov    $0x64,%r11d
    8871:	45 31 d2             	xor    %r10d,%r10d
    8874:	41 be 64 00 00 00    	mov    $0x64,%r14d
    887a:	e9 c8 fe ff ff       	jmpq   8747 <_Z9benchmarkIfLl100EEmi+0x287>
    887f:	90                   	nop
    8880:	31 d2                	xor    %edx,%edx
    8882:	66 0f 1f 44 00 00    	nopw   0x0(%rax,%rax,1)
    8888:	c7 84 96 b0 9a 00 00 	movl   $0x0,0x9ab0(%rsi,%rdx,4)
    888f:	00 00 00 00 
    8893:	c7 04 90 00 00 00 00 	movl   $0x0,(%rax,%rdx,4)
    889a:	48 83 c2 01          	add    $0x1,%rdx
    889e:	48 83 fa 64          	cmp    $0x64,%rdx
    88a2:	75 e4                	jne    8888 <_Z9benchmarkIfLl100EEmi+0x3c8>
    88a4:	e9 2b ff ff ff       	jmpq   87d4 <_Z9benchmarkIfLl100EEmi+0x314>
    88a9:	0f 1f 80 00 00 00 00 	nopl   0x0(%rax)
    88b0:	41 bb 62 00 00 00    	mov    $0x62,%r11d
    88b6:	41 ba 02 00 00 00    	mov    $0x2,%r10d
    88bc:	e9 72 fe ff ff       	jmpq   8733 <_Z9benchmarkIfLl100EEmi+0x273>
    88c1:	0f 1f 80 00 00 00 00 	nopl   0x0(%rax)
    88c8:	41 bb 63 00 00 00    	mov    $0x63,%r11d
    88ce:	41 ba 01 00 00 00    	mov    $0x1,%r10d
    88d4:	e9 5a fe ff ff       	jmpq   8733 <_Z9benchmarkIfLl100EEmi+0x273>
    88d9:	48 89 df             	mov    %rbx,%rdi
    88dc:	e8 1f a9 ff ff       	callq  3200 <_ZNKSt5ctypeIcE13_M_widen_initEv@plt>
    88e1:	48 8b 03             	mov    (%rbx),%rax
    88e4:	48 8d 15 15 cc ff ff 	lea    -0x33eb(%rip),%rdx        # 5500 <_ZNKSt5ctypeIcE8do_widenEc>
    88eb:	be 0a 00 00 00       	mov    $0xa,%esi
    88f0:	48 8b 40 30          	mov    0x30(%rax),%rax
    88f4:	48 39 d0             	cmp    %rdx,%rax
    88f7:	0f 84 26 fd ff ff    	je     8623 <_Z9benchmarkIfLl100EEmi+0x163>
    88fd:	48 89 df             	mov    %rbx,%rdi
    8900:	ff d0                	callq  *%rax
    8902:	0f be f0             	movsbl %al,%esi
    8905:	e9 19 fd ff ff       	jmpq   8623 <_Z9benchmarkIfLl100EEmi+0x163>
    890a:	66 0f 1f 44 00 00    	nopw   0x0(%rax,%rax,1)
    8910:	48 89 df             	mov    %rbx,%rdi
    8913:	e8 e8 a8 ff ff       	callq  3200 <_ZNKSt5ctypeIcE13_M_widen_initEv@plt>
    8918:	48 8b 03             	mov    (%rbx),%rax
    891b:	48 8d 15 de cb ff ff 	lea    -0x3422(%rip),%rdx        # 5500 <_ZNKSt5ctypeIcE8do_widenEc>
    8922:	be 0a 00 00 00       	mov    $0xa,%esi
    8927:	48 8b 40 30          	mov    0x30(%rax),%rax
    892b:	48 39 d0             	cmp    %rdx,%rax
    892e:	0f 84 2b fc ff ff    	je     855f <_Z9benchmarkIfLl100EEmi+0x9f>
    8934:	48 89 df             	mov    %rbx,%rdi
    8937:	ff d0                	callq  *%rax
    8939:	0f be f0             	movsbl %al,%esi
    893c:	e9 1e fc ff ff       	jmpq   855f <_Z9benchmarkIfLl100EEmi+0x9f>
    8941:	e8 ea a8 ff ff       	callq  3230 <_ZSt16__throw_bad_castv@plt>
    8946:	48 89 c7             	mov    %rax,%rdi
    8949:	eb 09                	jmp    8954 <_Z9benchmarkIfLl100EEmi+0x494>
    894b:	48 8b 7d b8          	mov    -0x48(%rbp),%rdi
    894f:	e9 c3 fe ff ff       	jmpq   8817 <_Z9benchmarkIfLl100EEmi+0x357>
    8954:	48 83 fa ff          	cmp    $0xffffffffffffffff,%rdx
    8958:	74 0f                	je     8969 <_Z9benchmarkIfLl100EEmi+0x4a9>
    895a:	e8 51 aa ff ff       	callq  33b0 <_Unwind_Resume@plt>
    895f:	48 89 c3             	mov    %rax,%rbx
    8962:	eb 0a                	jmp    896e <_Z9benchmarkIfLl100EEmi+0x4ae>
    8964:	e8 57 a8 ff ff       	callq  31c0 <__stack_chk_fail@plt>
    8969:	e8 d2 a8 ff ff       	callq  3240 <__cxa_call_unexpected@plt>
    896e:	48 8b 7d b8          	mov    -0x48(%rbp),%rdi
    8972:	48 85 ff             	test   %rdi,%rdi
    8975:	74 05                	je     897c <_Z9benchmarkIfLl100EEmi+0x4bc>
    8977:	e8 d4 a8 ff ff       	callq  3250 <_ZdaPv@plt>
    897c:	48 89 df             	mov    %rbx,%rdi
    897f:	eb d9                	jmp    895a <_Z9benchmarkIfLl100EEmi+0x49a>
    8981:	66 2e 0f 1f 84 00 00 	nopw   %cs:0x0(%rax,%rax,1)
    8988:	00 00 00 
    898b:	0f 1f 44 00 00       	nopl   0x0(%rax,%rax,1)

0000000000008990 <_ZN10RelaxationIfLl500EEC1Effllff>:
    8990:	55                   	push   %rbp
    8991:	48 89 e5             	mov    %rsp,%rbp
    8994:	41 55                	push   %r13
    8996:	41 54                	push   %r12
    8998:	53                   	push   %rbx
    8999:	48 81 ec 48 10 00 00 	sub    $0x1048,%rsp
    89a0:	48 83 0c 24 00       	orq    $0x0,(%rsp)
    89a5:	48 81 c4 20 10 00 00 	add    $0x1020,%rsp
    89ac:	64 48 8b 04 25 28 00 	mov    %fs:0x28,%rax
    89b3:	00 00 
    89b5:	48 89 45 d8          	mov    %rax,-0x28(%rbp)
    89b9:	31 c0                	xor    %eax,%eax
    89bb:	f3 48 0f 2c c2       	cvttss2si %xmm2,%rax
    89c0:	48 89 fb             	mov    %rdi,%rbx
    89c3:	f3 0f 11 03          	movss  %xmm0,(%rbx)
    89c7:	49 89 f5             	mov    %rsi,%r13
    89ca:	49 89 d4             	mov    %rdx,%r12
    89cd:	f3 0f 11 4f 04       	movss  %xmm1,0x4(%rdi)
    89d2:	48 89 73 08          	mov    %rsi,0x8(%rbx)
    89d6:	48 89 53 10          	mov    %rdx,0x10(%rbx)
    89da:	f3 0f 11 45 c8       	movss  %xmm0,-0x38(%rbp)
    89df:	f3 0f 11 5d c4       	movss  %xmm3,-0x3c(%rbp)
    89e4:	f3 0f 11 55 cc       	movss  %xmm2,-0x34(%rbp)
    89e9:	48 89 47 18          	mov    %rax,0x18(%rdi)
    89ed:	f3 48 0f 2c c3       	cvttss2si %xmm3,%rax
    89f2:	48 89 47 20          	mov    %rax,0x20(%rdi)
    89f6:	bf 40 42 0f 00       	mov    $0xf4240,%edi
    89fb:	e8 70 a7 ff ff       	callq  3170 <_Znwm@plt>
    8a00:	f3 0f 10 05 c8 8b 00 	movss  0x8bc8(%rip),%xmm0        # 115d0 <_ZTSN6GetOpt13_DefValOptionIdNS_8_OptionTIdEEEE+0x30>
    8a07:	00 
    8a08:	48 89 43 28          	mov    %rax,0x28(%rbx)
    8a0c:	0f 2e 45 cc          	ucomiss -0x34(%rbp),%xmm0
    8a10:	0f 87 b7 02 00 00    	ja     8ccd <_ZN10RelaxationIfLl500EEC1Effllff+0x33d>
    8a16:	49 8d 55 ff          	lea    -0x1(%r13),%rdx
    8a1a:	48 81 fa f1 01 00 00 	cmp    $0x1f1,%rdx
    8a21:	0f 87 12 02 00 00    	ja     8c39 <_ZN10RelaxationIfLl500EEC1Effllff+0x2a9>
    8a27:	49 8d 54 24 ff       	lea    -0x1(%r12),%rdx
    8a2c:	48 81 fa f1 01 00 00 	cmp    $0x1f1,%rdx
    8a33:	0f 87 00 02 00 00    	ja     8c39 <_ZN10RelaxationIfLl500EEC1Effllff+0x2a9>
    8a39:	66 0f ef c0          	pxor   %xmm0,%xmm0
    8a3d:	f3 0f 10 65 cc       	movss  -0x34(%rbp),%xmm4
    8a42:	66 0f ef c9          	pxor   %xmm1,%xmm1
    8a46:	f3 49 0f 2a c5       	cvtsi2ss %r13,%xmm0
    8a4b:	0f 28 d0             	movaps %xmm0,%xmm2
    8a4e:	f3 0f 5c d4          	subss  %xmm4,%xmm2
    8a52:	0f 2e ca             	ucomiss %xmm2,%xmm1
    8a55:	0f 87 a4 02 00 00    	ja     8cff <_ZN10RelaxationIfLl500EEC1Effllff+0x36f>
    8a5b:	f3 0f 58 c4          	addss  %xmm4,%xmm0
    8a5f:	0f 2e 05 7a 8b 00 00 	ucomiss 0x8b7a(%rip),%xmm0        # 115e0 <_ZTSN6GetOpt13_DefValOptionIdNS_8_OptionTIdEEEE+0x40>
    8a66:	0f 87 93 02 00 00    	ja     8cff <_ZN10RelaxationIfLl500EEC1Effllff+0x36f>
    8a6c:	66 0f ef c0          	pxor   %xmm0,%xmm0
    8a70:	f3 49 0f 2a c4       	cvtsi2ss %r12,%xmm0
    8a75:	0f 28 d0             	movaps %xmm0,%xmm2
    8a78:	f3 0f 5c d4          	subss  %xmm4,%xmm2
    8a7c:	0f 2e ca             	ucomiss %xmm2,%xmm1
    8a7f:	0f 87 7a 02 00 00    	ja     8cff <_ZN10RelaxationIfLl500EEC1Effllff+0x36f>
    8a85:	f3 0f 58 c4          	addss  %xmm4,%xmm0
    8a89:	0f 2e 05 50 8b 00 00 	ucomiss 0x8b50(%rip),%xmm0        # 115e0 <_ZTSN6GetOpt13_DefValOptionIdNS_8_OptionTIdEEEE+0x40>
    8a90:	0f 87 69 02 00 00    	ja     8cff <_ZN10RelaxationIfLl500EEC1Effllff+0x36f>
    8a96:	f3 0f 10 7d c4       	movss  -0x3c(%rbp),%xmm7
    8a9b:	0f 2e 7d c8          	ucomiss -0x38(%rbp),%xmm7
    8a9f:	0f 87 ef 01 00 00    	ja     8c94 <_ZN10RelaxationIfLl500EEC1Effllff+0x304>
    8aa5:	48 89 c2             	mov    %rax,%rdx
    8aa8:	83 e2 0f             	and    $0xf,%edx
    8aab:	48 c1 ea 02          	shr    $0x2,%rdx
    8aaf:	48 f7 da             	neg    %rdx
    8ab2:	83 e2 03             	and    $0x3,%edx
    8ab5:	0f 84 35 01 00 00    	je     8bf0 <_ZN10RelaxationIfLl500EEC1Effllff+0x260>
    8abb:	48 83 fa 01          	cmp    $0x1,%rdx
    8abf:	f3 0f 11 88 70 3a 0f 	movss  %xmm1,0xf3a70(%rax)
    8ac6:	00 
    8ac7:	f3 0f 11 08          	movss  %xmm1,(%rax)
    8acb:	0f 84 57 01 00 00    	je     8c28 <_ZN10RelaxationIfLl500EEC1Effllff+0x298>
    8ad1:	48 83 fa 02          	cmp    $0x2,%rdx
    8ad5:	c7 80 74 3a 0f 00 00 	movl   $0x0,0xf3a74(%rax)
    8adc:	00 00 00 
    8adf:	c7 40 04 00 00 00 00 	movl   $0x0,0x4(%rax)
    8ae6:	0f 84 24 01 00 00    	je     8c10 <_ZN10RelaxationIfLl500EEC1Effllff+0x280>
    8aec:	c7 80 78 3a 0f 00 00 	movl   $0x0,0xf3a78(%rax)
    8af3:	00 00 00 
    8af6:	c7 40 08 00 00 00 00 	movl   $0x0,0x8(%rax)
    8afd:	41 ba f1 01 00 00    	mov    $0x1f1,%r10d
    8b03:	41 b9 03 00 00 00    	mov    $0x3,%r9d
    8b09:	41 bb f4 01 00 00    	mov    $0x1f4,%r11d
    8b0f:	41 bc f0 01 00 00    	mov    $0x1f0,%r12d
    8b15:	be 7c 00 00 00       	mov    $0x7c,%esi
    8b1a:	49 29 d3             	sub    %rdx,%r11
    8b1d:	48 8d 14 95 70 3a 0f 	lea    0xf3a70(,%rdx,4),%rdx
    8b24:	00 
    8b25:	66 0f ef c0          	pxor   %xmm0,%xmm0
    8b29:	31 c9                	xor    %ecx,%ecx
    8b2b:	4c 8d 04 10          	lea    (%rax,%rdx,1),%r8
    8b2f:	48 8d bc 10 90 c5 f0 	lea    -0xf3a70(%rax,%rdx,1),%rdi
    8b36:	ff 
    8b37:	31 d2                	xor    %edx,%edx
    8b39:	0f 1f 80 00 00 00 00 	nopl   0x0(%rax)
    8b40:	48 83 c1 01          	add    $0x1,%rcx
    8b44:	41 0f 29 04 10       	movaps %xmm0,(%r8,%rdx,1)
    8b49:	0f 11 04 17          	movups %xmm0,(%rdi,%rdx,1)
    8b4d:	48 83 c2 10          	add    $0x10,%rdx
    8b51:	48 39 f1             	cmp    %rsi,%rcx
    8b54:	72 ea                	jb     8b40 <_ZN10RelaxationIfLl500EEC1Effllff+0x1b0>
    8b56:	4d 29 e2             	sub    %r12,%r10
    8b59:	4d 39 e3             	cmp    %r12,%r11
    8b5c:	4b 8d 14 0c          	lea    (%r12,%r9,1),%rdx
    8b60:	74 50                	je     8bb2 <_ZN10RelaxationIfLl500EEC1Effllff+0x222>
    8b62:	48 8d 0c 90          	lea    (%rax,%rdx,4),%rcx
    8b66:	49 83 fa 01          	cmp    $0x1,%r10
    8b6a:	c7 81 70 3a 0f 00 00 	movl   $0x0,0xf3a70(%rcx)
    8b71:	00 00 00 
    8b74:	c7 01 00 00 00 00    	movl   $0x0,(%rcx)
    8b7a:	48 8d 4a 01          	lea    0x1(%rdx),%rcx
    8b7e:	74 32                	je     8bb2 <_ZN10RelaxationIfLl500EEC1Effllff+0x222>
    8b80:	48 8d 0c 88          	lea    (%rax,%rcx,4),%rcx
    8b84:	48 83 c2 02          	add    $0x2,%rdx
    8b88:	49 83 fa 02          	cmp    $0x2,%r10
    8b8c:	c7 81 70 3a 0f 00 00 	movl   $0x0,0xf3a70(%rcx)
    8b93:	00 00 00 
    8b96:	c7 01 00 00 00 00    	movl   $0x0,(%rcx)
    8b9c:	74 14                	je     8bb2 <_ZN10RelaxationIfLl500EEC1Effllff+0x222>
    8b9e:	48 8d 04 90          	lea    (%rax,%rdx,4),%rax
    8ba2:	c7 80 70 3a 0f 00 00 	movl   $0x0,0xf3a70(%rax)
    8ba9:	00 00 00 
    8bac:	c7 00 00 00 00 00    	movl   $0x0,(%rax)
    8bb2:	48 8d 75 d0          	lea    -0x30(%rbp),%rsi
    8bb6:	48 8d 3d b3 cc ff ff 	lea    -0x334d(%rip),%rdi        # 5870 <_ZN10RelaxationIfLl500EEC2Effllff._omp_fn.2>
    8bbd:	31 c9                	xor    %ecx,%ecx
    8bbf:	31 d2                	xor    %edx,%edx
    8bc1:	48 89 5d d0          	mov    %rbx,-0x30(%rbp)
    8bc5:	e8 06 a7 ff ff       	callq  32d0 <GOMP_parallel@plt>
    8bca:	48 8b 45 d8          	mov    -0x28(%rbp),%rax
    8bce:	64 48 33 04 25 28 00 	xor    %fs:0x28,%rax
    8bd5:	00 00 
    8bd7:	0f 85 e9 00 00 00    	jne    8cc6 <_ZN10RelaxationIfLl500EEC1Effllff+0x336>
    8bdd:	48 83 c4 28          	add    $0x28,%rsp
    8be1:	5b                   	pop    %rbx
    8be2:	41 5c                	pop    %r12
    8be4:	41 5d                	pop    %r13
    8be6:	5d                   	pop    %rbp
    8be7:	c3                   	retq   
    8be8:	0f 1f 84 00 00 00 00 	nopl   0x0(%rax,%rax,1)
    8bef:	00 
    8bf0:	41 bc f4 01 00 00    	mov    $0x1f4,%r12d
    8bf6:	be 7d 00 00 00       	mov    $0x7d,%esi
    8bfb:	41 bb f4 01 00 00    	mov    $0x1f4,%r11d
    8c01:	41 ba f4 01 00 00    	mov    $0x1f4,%r10d
    8c07:	45 31 c9             	xor    %r9d,%r9d
    8c0a:	e9 0e ff ff ff       	jmpq   8b1d <_ZN10RelaxationIfLl500EEC1Effllff+0x18d>
    8c0f:	90                   	nop
    8c10:	41 ba f2 01 00 00    	mov    $0x1f2,%r10d
    8c16:	41 b9 02 00 00 00    	mov    $0x2,%r9d
    8c1c:	e9 e8 fe ff ff       	jmpq   8b09 <_ZN10RelaxationIfLl500EEC1Effllff+0x179>
    8c21:	0f 1f 80 00 00 00 00 	nopl   0x0(%rax)
    8c28:	41 ba f3 01 00 00    	mov    $0x1f3,%r10d
    8c2e:	41 b9 01 00 00 00    	mov    $0x1,%r9d
    8c34:	e9 d0 fe ff ff       	jmpq   8b09 <_ZN10RelaxationIfLl500EEC1Effllff+0x179>
    8c39:	bf 10 00 00 00       	mov    $0x10,%edi
    8c3e:	e8 fd a3 ff ff       	callq  3040 <__cxa_allocate_exception@plt>
    8c43:	48 8d 35 26 86 00 00 	lea    0x8626(%rip),%rsi        # 11270 <_fini+0x11c>
    8c4a:	48 89 c7             	mov    %rax,%rdi
    8c4d:	49 89 c5             	mov    %rax,%r13
    8c50:	e8 4b a6 ff ff       	callq  32a0 <_ZNSt11logic_errorC1EPKc@plt>
    8c55:	48 8b 15 74 b3 20 00 	mov    0x20b374(%rip),%rdx        # 213fd0 <_DYNAMIC+0x238>
    8c5c:	48 8d 35 6d ba 20 00 	lea    0x20ba6d(%rip),%rsi        # 2146d0 <_ZTISt11logic_error@@GLIBCXX_3.4>
    8c63:	4c 89 ef             	mov    %r13,%rdi
    8c66:	e8 25 a7 ff ff       	callq  3390 <__cxa_throw@plt>
    8c6b:	48 89 c7             	mov    %rax,%rdi
    8c6e:	eb 14                	jmp    8c84 <_ZN10RelaxationIfLl500EEC1Effllff+0x2f4>
    8c70:	48 89 c3             	mov    %rax,%rbx
    8c73:	49 89 d4             	mov    %rdx,%r12
    8c76:	4c 89 ef             	mov    %r13,%rdi
    8c79:	e8 32 a4 ff ff       	callq  30b0 <__cxa_free_exception@plt>
    8c7e:	48 89 df             	mov    %rbx,%rdi
    8c81:	4c 89 e2             	mov    %r12,%rdx
    8c84:	48 83 fa ff          	cmp    $0xffffffffffffffff,%rdx
    8c88:	74 05                	je     8c8f <_ZN10RelaxationIfLl500EEC1Effllff+0x2ff>
    8c8a:	e8 21 a7 ff ff       	callq  33b0 <_Unwind_Resume@plt>
    8c8f:	e8 ac a5 ff ff       	callq  3240 <__cxa_call_unexpected@plt>
    8c94:	bf 10 00 00 00       	mov    $0x10,%edi
    8c99:	e8 a2 a3 ff ff       	callq  3040 <__cxa_allocate_exception@plt>
    8c9e:	48 8d 35 93 86 00 00 	lea    0x8693(%rip),%rsi        # 11338 <_fini+0x1e4>
    8ca5:	48 89 c7             	mov    %rax,%rdi
    8ca8:	49 89 c5             	mov    %rax,%r13
    8cab:	e8 f0 a5 ff ff       	callq  32a0 <_ZNSt11logic_errorC1EPKc@plt>
    8cb0:	48 8b 15 19 b3 20 00 	mov    0x20b319(%rip),%rdx        # 213fd0 <_DYNAMIC+0x238>
    8cb7:	48 8d 35 12 ba 20 00 	lea    0x20ba12(%rip),%rsi        # 2146d0 <_ZTISt11logic_error@@GLIBCXX_3.4>
    8cbe:	4c 89 ef             	mov    %r13,%rdi
    8cc1:	e8 ca a6 ff ff       	callq  3390 <__cxa_throw@plt>
    8cc6:	e8 f5 a4 ff ff       	callq  31c0 <__stack_chk_fail@plt>
    8ccb:	eb a3                	jmp    8c70 <_ZN10RelaxationIfLl500EEC1Effllff+0x2e0>
    8ccd:	bf 10 00 00 00       	mov    $0x10,%edi
    8cd2:	e8 69 a3 ff ff       	callq  3040 <__cxa_allocate_exception@plt>
    8cd7:	48 8d 35 6a 85 00 00 	lea    0x856a(%rip),%rsi        # 11248 <_fini+0xf4>
    8cde:	48 89 c7             	mov    %rax,%rdi
    8ce1:	49 89 c5             	mov    %rax,%r13
    8ce4:	e8 b7 a5 ff ff       	callq  32a0 <_ZNSt11logic_errorC1EPKc@plt>
    8ce9:	48 8b 15 e0 b2 20 00 	mov    0x20b2e0(%rip),%rdx        # 213fd0 <_DYNAMIC+0x238>
    8cf0:	48 8d 35 d9 b9 20 00 	lea    0x20b9d9(%rip),%rsi        # 2146d0 <_ZTISt11logic_error@@GLIBCXX_3.4>
    8cf7:	4c 89 ef             	mov    %r13,%rdi
    8cfa:	e8 91 a6 ff ff       	callq  3390 <__cxa_throw@plt>
    8cff:	bf 10 00 00 00       	mov    $0x10,%edi
    8d04:	e8 37 a3 ff ff       	callq  3040 <__cxa_allocate_exception@plt>
    8d09:	48 8d 35 c0 85 00 00 	lea    0x85c0(%rip),%rsi        # 112d0 <_fini+0x17c>
    8d10:	48 89 c7             	mov    %rax,%rdi
    8d13:	49 89 c5             	mov    %rax,%r13
    8d16:	e8 85 a5 ff ff       	callq  32a0 <_ZNSt11logic_errorC1EPKc@plt>
    8d1b:	48 8b 15 ae b2 20 00 	mov    0x20b2ae(%rip),%rdx        # 213fd0 <_DYNAMIC+0x238>
    8d22:	48 8d 35 a7 b9 20 00 	lea    0x20b9a7(%rip),%rsi        # 2146d0 <_ZTISt11logic_error@@GLIBCXX_3.4>
    8d29:	4c 89 ef             	mov    %r13,%rdi
    8d2c:	e8 5f a6 ff ff       	callq  3390 <__cxa_throw@plt>
    8d31:	e9 3a ff ff ff       	jmpq   8c70 <_ZN10RelaxationIfLl500EEC1Effllff+0x2e0>
    8d36:	e9 35 ff ff ff       	jmpq   8c70 <_ZN10RelaxationIfLl500EEC1Effllff+0x2e0>
    8d3b:	0f 1f 44 00 00       	nopl   0x0(%rax,%rax,1)

0000000000008d40 <_Z9benchmarkIfLl500EEmi>:
    8d40:	55                   	push   %rbp
    8d41:	48 89 e5             	mov    %rsp,%rbp
    8d44:	41 57                	push   %r15
    8d46:	41 56                	push   %r14
    8d48:	41 55                	push   %r13
    8d4a:	41 54                	push   %r12
    8d4c:	53                   	push   %rbx
    8d4d:	48 81 ec 88 10 00 00 	sub    $0x1088,%rsp
    8d54:	48 83 0c 24 00       	orq    $0x0,(%rsp)
    8d59:	48 81 c4 20 10 00 00 	add    $0x1020,%rsp
    8d60:	64 48 8b 04 25 28 00 	mov    %fs:0x28,%rax
    8d67:	00 00 
    8d69:	48 89 45 c8          	mov    %rax,-0x38(%rbp)
    8d6d:	31 c0                	xor    %eax,%eax
    8d6f:	e8 5c a4 ff ff       	callq  31d0 <omp_set_num_threads@plt>
    8d74:	e8 e7 a5 ff ff       	callq  3360 <omp_get_max_threads@plt>
    8d79:	48 8d 35 e3 83 00 00 	lea    0x83e3(%rip),%rsi        # 11163 <_fini+0xf>
    8d80:	48 8d 3d d9 b6 20 00 	lea    0x20b6d9(%rip),%rdi        # 214460 <_ZSt4cout@@GLIBCXX_3.4>
    8d87:	ba 12 00 00 00       	mov    $0x12,%edx
    8d8c:	89 c3                	mov    %eax,%ebx
    8d8e:	e8 5d a4 ff ff       	callq  31f0 <_ZSt16__ostream_insertIcSt11char_traitsIcEERSt13basic_ostreamIT_T0_ES6_PKS3_l@plt>
    8d93:	48 8d 3d c6 b6 20 00 	lea    0x20b6c6(%rip),%rdi        # 214460 <_ZSt4cout@@GLIBCXX_3.4>
    8d9a:	89 de                	mov    %ebx,%esi
    8d9c:	e8 ff a5 ff ff       	callq  33a0 <_ZNSolsEi@plt>
    8da1:	48 8d 35 ce 83 00 00 	lea    0x83ce(%rip),%rsi        # 11176 <_fini+0x22>
    8da8:	49 89 c4             	mov    %rax,%r12
    8dab:	ba 09 00 00 00       	mov    $0x9,%edx
    8db0:	48 89 c7             	mov    %rax,%rdi
    8db3:	e8 38 a4 ff ff       	callq  31f0 <_ZSt16__ostream_insertIcSt11char_traitsIcEERSt13basic_ostreamIT_T0_ES6_PKS3_l@plt>
    8db8:	49 8b 04 24          	mov    (%r12),%rax
    8dbc:	48 8b 40 e8          	mov    -0x18(%rax),%rax
    8dc0:	49 8b 9c 04 f0 00 00 	mov    0xf0(%r12,%rax,1),%rbx
    8dc7:	00 
    8dc8:	48 85 db             	test   %rbx,%rbx
    8dcb:	0f 84 f0 03 00 00    	je     91c1 <_Z9benchmarkIfLl500EEmi+0x481>
    8dd1:	80 7b 38 00          	cmpb   $0x0,0x38(%rbx)
    8dd5:	0f 84 b5 03 00 00    	je     9190 <_Z9benchmarkIfLl500EEmi+0x450>
    8ddb:	0f be 73 43          	movsbl 0x43(%rbx),%esi
    8ddf:	4c 89 e7             	mov    %r12,%rdi
    8de2:	e8 79 a1 ff ff       	callq  2f60 <_ZNSo3putEc@plt>
    8de7:	48 89 c7             	mov    %rax,%rdi
    8dea:	e8 a1 a2 ff ff       	callq  3090 <_ZNSo5flushEv@plt>
    8def:	48 8d 35 8a 83 00 00 	lea    0x838a(%rip),%rsi        # 11180 <_fini+0x2c>
    8df6:	48 8d 3d 63 b6 20 00 	lea    0x20b663(%rip),%rdi        # 214460 <_ZSt4cout@@GLIBCXX_3.4>
    8dfd:	ba 0f 00 00 00       	mov    $0xf,%edx
    8e02:	44 8b 25 4b ba 20 00 	mov    0x20ba4b(%rip),%r12d        # 214854 <steps>
    8e09:	e8 e2 a3 ff ff       	callq  31f0 <_ZSt16__ostream_insertIcSt11char_traitsIcEERSt13basic_ostreamIT_T0_ES6_PKS3_l@plt>
    8e0e:	48 8d 3d 4b b6 20 00 	lea    0x20b64b(%rip),%rdi        # 214460 <_ZSt4cout@@GLIBCXX_3.4>
    8e15:	be f4 01 00 00       	mov    $0x1f4,%esi
    8e1a:	e8 31 a3 ff ff       	callq  3150 <_ZNSo9_M_insertIlEERSoT_@plt>
    8e1f:	48 8d 35 49 83 00 00 	lea    0x8349(%rip),%rsi        # 1116f <_fini+0x1b>
    8e26:	48 89 c3             	mov    %rax,%rbx
    8e29:	ba 06 00 00 00       	mov    $0x6,%edx
    8e2e:	48 89 c7             	mov    %rax,%rdi
    8e31:	e8 ba a3 ff ff       	callq  31f0 <_ZSt16__ostream_insertIcSt11char_traitsIcEERSt13basic_ostreamIT_T0_ES6_PKS3_l@plt>
    8e36:	44 89 e6             	mov    %r12d,%esi
    8e39:	48 89 df             	mov    %rbx,%rdi
    8e3c:	e8 5f a5 ff ff       	callq  33a0 <_ZNSolsEi@plt>
    8e41:	48 8d 35 48 83 00 00 	lea    0x8348(%rip),%rsi        # 11190 <_fini+0x3c>
    8e48:	48 89 c3             	mov    %rax,%rbx
    8e4b:	ba 0f 00 00 00       	mov    $0xf,%edx
    8e50:	48 89 c7             	mov    %rax,%rdi
    8e53:	e8 98 a3 ff ff       	callq  31f0 <_ZSt16__ostream_insertIcSt11char_traitsIcEERSt13basic_ostreamIT_T0_ES6_PKS3_l@plt>
    8e58:	48 89 df             	mov    %rbx,%rdi
    8e5b:	be 01 00 00 00       	mov    $0x1,%esi
    8e60:	e8 3b a5 ff ff       	callq  33a0 <_ZNSolsEi@plt>
    8e65:	48 8d 35 34 83 00 00 	lea    0x8334(%rip),%rsi        # 111a0 <_fini+0x4c>
    8e6c:	49 89 c4             	mov    %rax,%r12
    8e6f:	ba 06 00 00 00       	mov    $0x6,%edx
    8e74:	48 89 c7             	mov    %rax,%rdi
    8e77:	e8 74 a3 ff ff       	callq  31f0 <_ZSt16__ostream_insertIcSt11char_traitsIcEERSt13basic_ostreamIT_T0_ES6_PKS3_l@plt>
    8e7c:	49 8b 04 24          	mov    (%r12),%rax
    8e80:	48 8b 40 e8          	mov    -0x18(%rax),%rax
    8e84:	49 8b 9c 04 f0 00 00 	mov    0xf0(%r12,%rax,1),%rbx
    8e8b:	00 
    8e8c:	48 85 db             	test   %rbx,%rbx
    8e8f:	0f 84 2c 03 00 00    	je     91c1 <_Z9benchmarkIfLl500EEmi+0x481>
    8e95:	80 7b 38 00          	cmpb   $0x0,0x38(%rbx)
    8e99:	0f 84 ba 02 00 00    	je     9159 <_Z9benchmarkIfLl500EEmi+0x419>
    8e9f:	0f be 73 43          	movsbl 0x43(%rbx),%esi
    8ea3:	4c 89 e7             	mov    %r12,%rdi
    8ea6:	e8 b5 a0 ff ff       	callq  2f60 <_ZNSo3putEc@plt>
    8eab:	48 89 c7             	mov    %rax,%rdi
    8eae:	e8 dd a1 ff ff       	callq  3090 <_ZNSo5flushEv@plt>
    8eb3:	0f 31                	rdtsc  
    8eb5:	66 0f ef d2          	pxor   %xmm2,%xmm2
    8eb9:	48 c1 e2 20          	shl    $0x20,%rdx
    8ebd:	89 c0                	mov    %eax,%eax
    8ebf:	4c 8d 65 90          	lea    -0x70(%rbp),%r12
    8ec3:	be fa 00 00 00       	mov    $0xfa,%esi
    8ec8:	66 0f ef db          	pxor   %xmm3,%xmm3
    8ecc:	48 09 c2             	or     %rax,%rdx
    8ecf:	f3 0f 2a 15 79 b9 20 	cvtsi2ssl 0x20b979(%rip),%xmm2        # 214850 <radius>
    8ed6:	00 
    8ed7:	48 89 95 78 ff ff ff 	mov    %rdx,-0x88(%rbp)
    8ede:	f3 0f 10 0d f2 86 00 	movss  0x86f2(%rip),%xmm1        # 115d8 <_ZTSN6GetOpt13_DefValOptionIdNS_8_OptionTIdEEEE+0x38>
    8ee5:	00 
    8ee6:	ba fa 00 00 00       	mov    $0xfa,%edx
    8eeb:	f3 0f 10 05 e9 86 00 	movss  0x86e9(%rip),%xmm0        # 115dc <_ZTSN6GetOpt13_DefValOptionIdNS_8_OptionTIdEEEE+0x3c>
    8ef2:	00 
    8ef3:	4c 89 e7             	mov    %r12,%rdi
    8ef6:	f2 0f 5a 1d 4a b9 20 	cvtsd2ss 0x20b94a(%rip),%xmm3        # 214848 <heat>
    8efd:	00 
    8efe:	e8 8d fa ff ff       	callq  8990 <_ZN10RelaxationIfLl500EEC1Effllff>
    8f03:	8b 05 4b b9 20 00    	mov    0x20b94b(%rip),%eax        # 214854 <steps>
    8f09:	85 c0                	test   %eax,%eax
    8f0b:	0f 8e ba 02 00 00    	jle    91cb <_Z9benchmarkIfLl500EEmi+0x48b>
    8f11:	4c 8d 6d 80          	lea    -0x80(%rbp),%r13
    8f15:	bb 01 00 00 00       	mov    $0x1,%ebx
    8f1a:	66 0f 1f 44 00 00    	nopw   0x0(%rax,%rax,1)
    8f20:	bf 40 42 0f 00       	mov    $0xf4240,%edi
    8f25:	e8 46 a2 ff ff       	callq  3170 <_Znwm@plt>
    8f2a:	48 8b 75 b8          	mov    -0x48(%rbp),%rsi
    8f2e:	48 8d 48 10          	lea    0x10(%rax),%rcx
    8f32:	48 8d 96 70 3a 0f 00 	lea    0xf3a70(%rsi),%rdx
    8f39:	48 39 ca             	cmp    %rcx,%rdx
    8f3c:	73 10                	jae    8f4e <_Z9benchmarkIfLl500EEmi+0x20e>
    8f3e:	48 8d 8e 80 3a 0f 00 	lea    0xf3a80(%rsi),%rcx
    8f45:	48 39 c8             	cmp    %rcx,%rax
    8f48:	0f 82 b2 01 00 00    	jb     9100 <_Z9benchmarkIfLl500EEmi+0x3c0>
    8f4e:	83 e2 0f             	and    $0xf,%edx
    8f51:	48 c1 ea 02          	shr    $0x2,%rdx
    8f55:	48 f7 da             	neg    %rdx
    8f58:	83 e2 03             	and    $0x3,%edx
    8f5b:	0f 84 7f 01 00 00    	je     90e0 <_Z9benchmarkIfLl500EEmi+0x3a0>
    8f61:	48 83 fa 01          	cmp    $0x1,%rdx
    8f65:	c7 86 70 3a 0f 00 00 	movl   $0x0,0xf3a70(%rsi)
    8f6c:	00 00 00 
    8f6f:	c7 00 00 00 00 00    	movl   $0x0,(%rax)
    8f75:	0f 84 cd 01 00 00    	je     9148 <_Z9benchmarkIfLl500EEmi+0x408>
    8f7b:	48 83 fa 02          	cmp    $0x2,%rdx
    8f7f:	c7 86 74 3a 0f 00 00 	movl   $0x0,0xf3a74(%rsi)
    8f86:	00 00 00 
    8f89:	c7 40 04 00 00 00 00 	movl   $0x0,0x4(%rax)
    8f90:	0f 84 9a 01 00 00    	je     9130 <_Z9benchmarkIfLl500EEmi+0x3f0>
    8f96:	c7 86 78 3a 0f 00 00 	movl   $0x0,0xf3a78(%rsi)
    8f9d:	00 00 00 
    8fa0:	41 bb f1 01 00 00    	mov    $0x1f1,%r11d
    8fa6:	c7 40 08 00 00 00 00 	movl   $0x0,0x8(%rax)
    8fad:	41 ba 03 00 00 00    	mov    $0x3,%r10d
    8fb3:	41 be f4 01 00 00    	mov    $0x1f4,%r14d
    8fb9:	bf 7c 00 00 00       	mov    $0x7c,%edi
    8fbe:	41 bf f0 01 00 00    	mov    $0x1f0,%r15d
    8fc4:	49 29 d6             	sub    %rdx,%r14
    8fc7:	48 8d 14 95 70 3a 0f 	lea    0xf3a70(,%rdx,4),%rdx
    8fce:	00 
    8fcf:	31 c9                	xor    %ecx,%ecx
    8fd1:	4c 8d 0c 16          	lea    (%rsi,%rdx,1),%r9
    8fd5:	4c 8d 84 10 90 c5 f0 	lea    -0xf3a70(%rax,%rdx,1),%r8
    8fdc:	ff 
    8fdd:	31 d2                	xor    %edx,%edx
    8fdf:	90                   	nop
    8fe0:	66 0f ef e4          	pxor   %xmm4,%xmm4
    8fe4:	48 83 c1 01          	add    $0x1,%rcx
    8fe8:	41 0f 29 24 11       	movaps %xmm4,(%r9,%rdx,1)
    8fed:	41 0f 11 24 10       	movups %xmm4,(%r8,%rdx,1)
    8ff2:	48 83 c2 10          	add    $0x10,%rdx
    8ff6:	48 39 f9             	cmp    %rdi,%rcx
    8ff9:	72 e5                	jb     8fe0 <_Z9benchmarkIfLl500EEmi+0x2a0>
    8ffb:	4d 01 fa             	add    %r15,%r10
    8ffe:	4d 29 fb             	sub    %r15,%r11
    9001:	4d 39 f7             	cmp    %r14,%r15
    9004:	74 4e                	je     9054 <_Z9benchmarkIfLl500EEmi+0x314>
    9006:	49 83 fb 01          	cmp    $0x1,%r11
    900a:	42 c7 84 96 70 3a 0f 	movl   $0x0,0xf3a70(%rsi,%r10,4)
    9011:	00 00 00 00 00 
    9016:	49 8d 52 01          	lea    0x1(%r10),%rdx
    901a:	42 c7 04 90 00 00 00 	movl   $0x0,(%rax,%r10,4)
    9021:	00 
    9022:	74 30                	je     9054 <_Z9benchmarkIfLl500EEmi+0x314>
    9024:	49 83 c2 02          	add    $0x2,%r10
    9028:	49 83 fb 02          	cmp    $0x2,%r11
    902c:	c7 84 96 70 3a 0f 00 	movl   $0x0,0xf3a70(%rsi,%rdx,4)
    9033:	00 00 00 00 
    9037:	c7 04 90 00 00 00 00 	movl   $0x0,(%rax,%rdx,4)
    903e:	74 14                	je     9054 <_Z9benchmarkIfLl500EEmi+0x314>
    9040:	42 c7 84 96 70 3a 0f 	movl   $0x0,0xf3a70(%rsi,%r10,4)
    9047:	00 00 00 00 00 
    904c:	42 c7 04 90 00 00 00 	movl   $0x0,(%rax,%r10,4)
    9053:	00 
    9054:	48 8d 3d 65 c9 ff ff 	lea    -0x369b(%rip),%rdi        # 59c0 <_ZN10RelaxationIfLl500EE7iterateEv._omp_fn.3>
    905b:	31 c9                	xor    %ecx,%ecx
    905d:	31 d2                	xor    %edx,%edx
    905f:	4c 89 ee             	mov    %r13,%rsi
    9062:	4c 89 65 80          	mov    %r12,-0x80(%rbp)
    9066:	48 89 45 88          	mov    %rax,-0x78(%rbp)
    906a:	e8 61 a2 ff ff       	callq  32d0 <GOMP_parallel@plt>
    906f:	48 8b 7d b8          	mov    -0x48(%rbp),%rdi
    9073:	4c 8b 75 88          	mov    -0x78(%rbp),%r14
    9077:	48 85 ff             	test   %rdi,%rdi
    907a:	74 05                	je     9081 <_Z9benchmarkIfLl500EEmi+0x341>
    907c:	e8 cf a1 ff ff       	callq  3250 <_ZdaPv@plt>
    9081:	83 c3 01             	add    $0x1,%ebx
    9084:	39 1d ca b7 20 00    	cmp    %ebx,0x20b7ca(%rip)        # 214854 <steps>
    908a:	4c 89 75 b8          	mov    %r14,-0x48(%rbp)
    908e:	0f 8d 8c fe ff ff    	jge    8f20 <_Z9benchmarkIfLl500EEmi+0x1e0>
    9094:	4c 89 f7             	mov    %r14,%rdi
    9097:	0f 31                	rdtsc  
    9099:	48 89 d3             	mov    %rdx,%rbx
    909c:	89 c0                	mov    %eax,%eax
    909e:	48 c1 e3 20          	shl    $0x20,%rbx
    90a2:	48 09 c3             	or     %rax,%rbx
    90a5:	48 2b 9d 78 ff ff ff 	sub    -0x88(%rbp),%rbx
    90ac:	48 85 ff             	test   %rdi,%rdi
    90af:	74 05                	je     90b6 <_Z9benchmarkIfLl500EEmi+0x376>
    90b1:	e8 9a a1 ff ff       	callq  3250 <_ZdaPv@plt>
    90b6:	48 89 d8             	mov    %rbx,%rax
    90b9:	48 8b 5d c8          	mov    -0x38(%rbp),%rbx
    90bd:	64 48 33 1c 25 28 00 	xor    %fs:0x28,%rbx
    90c4:	00 00 
    90c6:	0f 85 18 01 00 00    	jne    91e4 <_Z9benchmarkIfLl500EEmi+0x4a4>
    90cc:	48 83 c4 68          	add    $0x68,%rsp
    90d0:	5b                   	pop    %rbx
    90d1:	41 5c                	pop    %r12
    90d3:	41 5d                	pop    %r13
    90d5:	41 5e                	pop    %r14
    90d7:	41 5f                	pop    %r15
    90d9:	5d                   	pop    %rbp
    90da:	c3                   	retq   
    90db:	0f 1f 44 00 00       	nopl   0x0(%rax,%rax,1)
    90e0:	bf 7d 00 00 00       	mov    $0x7d,%edi
    90e5:	41 bf f4 01 00 00    	mov    $0x1f4,%r15d
    90eb:	41 bb f4 01 00 00    	mov    $0x1f4,%r11d
    90f1:	45 31 d2             	xor    %r10d,%r10d
    90f4:	41 be f4 01 00 00    	mov    $0x1f4,%r14d
    90fa:	e9 c8 fe ff ff       	jmpq   8fc7 <_Z9benchmarkIfLl500EEmi+0x287>
    90ff:	90                   	nop
    9100:	31 d2                	xor    %edx,%edx
    9102:	66 0f 1f 44 00 00    	nopw   0x0(%rax,%rax,1)
    9108:	c7 84 96 70 3a 0f 00 	movl   $0x0,0xf3a70(%rsi,%rdx,4)
    910f:	00 00 00 00 
    9113:	c7 04 90 00 00 00 00 	movl   $0x0,(%rax,%rdx,4)
    911a:	48 83 c2 01          	add    $0x1,%rdx
    911e:	48 81 fa f4 01 00 00 	cmp    $0x1f4,%rdx
    9125:	75 e1                	jne    9108 <_Z9benchmarkIfLl500EEmi+0x3c8>
    9127:	e9 28 ff ff ff       	jmpq   9054 <_Z9benchmarkIfLl500EEmi+0x314>
    912c:	0f 1f 40 00          	nopl   0x0(%rax)
    9130:	41 bb f2 01 00 00    	mov    $0x1f2,%r11d
    9136:	41 ba 02 00 00 00    	mov    $0x2,%r10d
    913c:	e9 72 fe ff ff       	jmpq   8fb3 <_Z9benchmarkIfLl500EEmi+0x273>
    9141:	0f 1f 80 00 00 00 00 	nopl   0x0(%rax)
    9148:	41 bb f3 01 00 00    	mov    $0x1f3,%r11d
    914e:	41 ba 01 00 00 00    	mov    $0x1,%r10d
    9154:	e9 5a fe ff ff       	jmpq   8fb3 <_Z9benchmarkIfLl500EEmi+0x273>
    9159:	48 89 df             	mov    %rbx,%rdi
    915c:	e8 9f a0 ff ff       	callq  3200 <_ZNKSt5ctypeIcE13_M_widen_initEv@plt>
    9161:	48 8b 03             	mov    (%rbx),%rax
    9164:	48 8d 15 95 c3 ff ff 	lea    -0x3c6b(%rip),%rdx        # 5500 <_ZNKSt5ctypeIcE8do_widenEc>
    916b:	be 0a 00 00 00       	mov    $0xa,%esi
    9170:	48 8b 40 30          	mov    0x30(%rax),%rax
    9174:	48 39 d0             	cmp    %rdx,%rax
    9177:	0f 84 26 fd ff ff    	je     8ea3 <_Z9benchmarkIfLl500EEmi+0x163>
    917d:	48 89 df             	mov    %rbx,%rdi
    9180:	ff d0                	callq  *%rax
    9182:	0f be f0             	movsbl %al,%esi
    9185:	e9 19 fd ff ff       	jmpq   8ea3 <_Z9benchmarkIfLl500EEmi+0x163>
    918a:	66 0f 1f 44 00 00    	nopw   0x0(%rax,%rax,1)
    9190:	48 89 df             	mov    %rbx,%rdi
    9193:	e8 68 a0 ff ff       	callq  3200 <_ZNKSt5ctypeIcE13_M_widen_initEv@plt>
    9198:	48 8b 03             	mov    (%rbx),%rax
    919b:	48 8d 15 5e c3 ff ff 	lea    -0x3ca2(%rip),%rdx        # 5500 <_ZNKSt5ctypeIcE8do_widenEc>
    91a2:	be 0a 00 00 00       	mov    $0xa,%esi
    91a7:	48 8b 40 30          	mov    0x30(%rax),%rax
    91ab:	48 39 d0             	cmp    %rdx,%rax
    91ae:	0f 84 2b fc ff ff    	je     8ddf <_Z9benchmarkIfLl500EEmi+0x9f>
    91b4:	48 89 df             	mov    %rbx,%rdi
    91b7:	ff d0                	callq  *%rax
    91b9:	0f be f0             	movsbl %al,%esi
    91bc:	e9 1e fc ff ff       	jmpq   8ddf <_Z9benchmarkIfLl500EEmi+0x9f>
    91c1:	e8 6a a0 ff ff       	callq  3230 <_ZSt16__throw_bad_castv@plt>
    91c6:	48 89 c7             	mov    %rax,%rdi
    91c9:	eb 09                	jmp    91d4 <_Z9benchmarkIfLl500EEmi+0x494>
    91cb:	48 8b 7d b8          	mov    -0x48(%rbp),%rdi
    91cf:	e9 c3 fe ff ff       	jmpq   9097 <_Z9benchmarkIfLl500EEmi+0x357>
    91d4:	48 83 fa ff          	cmp    $0xffffffffffffffff,%rdx
    91d8:	74 0f                	je     91e9 <_Z9benchmarkIfLl500EEmi+0x4a9>
    91da:	e8 d1 a1 ff ff       	callq  33b0 <_Unwind_Resume@plt>
    91df:	48 89 c3             	mov    %rax,%rbx
    91e2:	eb 0a                	jmp    91ee <_Z9benchmarkIfLl500EEmi+0x4ae>
    91e4:	e8 d7 9f ff ff       	callq  31c0 <__stack_chk_fail@plt>
    91e9:	e8 52 a0 ff ff       	callq  3240 <__cxa_call_unexpected@plt>
    91ee:	48 8b 7d b8          	mov    -0x48(%rbp),%rdi
    91f2:	48 85 ff             	test   %rdi,%rdi
    91f5:	74 05                	je     91fc <_Z9benchmarkIfLl500EEmi+0x4bc>
    91f7:	e8 54 a0 ff ff       	callq  3250 <_ZdaPv@plt>
    91fc:	48 89 df             	mov    %rbx,%rdi
    91ff:	eb d9                	jmp    91da <_Z9benchmarkIfLl500EEmi+0x49a>
    9201:	66 2e 0f 1f 84 00 00 	nopw   %cs:0x0(%rax,%rax,1)
    9208:	00 00 00 
    920b:	0f 1f 44 00 00       	nopl   0x0(%rax,%rax,1)

0000000000009210 <_ZN10RelaxationIfLl1000EEC1Effllff>:
    9210:	55                   	push   %rbp
    9211:	48 89 e5             	mov    %rsp,%rbp
    9214:	41 55                	push   %r13
    9216:	41 54                	push   %r12
    9218:	53                   	push   %rbx
    9219:	48 81 ec 48 10 00 00 	sub    $0x1048,%rsp
    9220:	48 83 0c 24 00       	orq    $0x0,(%rsp)
    9225:	48 81 c4 20 10 00 00 	add    $0x1020,%rsp
    922c:	64 48 8b 04 25 28 00 	mov    %fs:0x28,%rax
    9233:	00 00 
    9235:	48 89 45 d8          	mov    %rax,-0x28(%rbp)
    9239:	31 c0                	xor    %eax,%eax
    923b:	f3 48 0f 2c c2       	cvttss2si %xmm2,%rax
    9240:	48 89 fb             	mov    %rdi,%rbx
    9243:	f3 0f 11 03          	movss  %xmm0,(%rbx)
    9247:	49 89 f5             	mov    %rsi,%r13
    924a:	49 89 d4             	mov    %rdx,%r12
    924d:	f3 0f 11 4f 04       	movss  %xmm1,0x4(%rdi)
    9252:	48 89 73 08          	mov    %rsi,0x8(%rbx)
    9256:	48 89 53 10          	mov    %rdx,0x10(%rbx)
    925a:	f3 0f 11 45 c8       	movss  %xmm0,-0x38(%rbp)
    925f:	f3 0f 11 5d c4       	movss  %xmm3,-0x3c(%rbp)
    9264:	f3 0f 11 55 cc       	movss  %xmm2,-0x34(%rbp)
    9269:	48 89 47 18          	mov    %rax,0x18(%rdi)
    926d:	f3 48 0f 2c c3       	cvttss2si %xmm3,%rax
    9272:	48 89 47 20          	mov    %rax,0x20(%rdi)
    9276:	bf 00 09 3d 00       	mov    $0x3d0900,%edi
    927b:	e8 f0 9e ff ff       	callq  3170 <_Znwm@plt>
    9280:	f3 0f 10 05 48 83 00 	movss  0x8348(%rip),%xmm0        # 115d0 <_ZTSN6GetOpt13_DefValOptionIdNS_8_OptionTIdEEEE+0x30>
    9287:	00 
    9288:	48 89 43 28          	mov    %rax,0x28(%rbx)
    928c:	0f 2e 45 cc          	ucomiss -0x34(%rbp),%xmm0
    9290:	0f 87 b7 02 00 00    	ja     954d <_ZN10RelaxationIfLl1000EEC1Effllff+0x33d>
    9296:	49 8d 55 ff          	lea    -0x1(%r13),%rdx
    929a:	48 81 fa e5 03 00 00 	cmp    $0x3e5,%rdx
    92a1:	0f 87 12 02 00 00    	ja     94b9 <_ZN10RelaxationIfLl1000EEC1Effllff+0x2a9>
    92a7:	49 8d 54 24 ff       	lea    -0x1(%r12),%rdx
    92ac:	48 81 fa e5 03 00 00 	cmp    $0x3e5,%rdx
    92b3:	0f 87 00 02 00 00    	ja     94b9 <_ZN10RelaxationIfLl1000EEC1Effllff+0x2a9>
    92b9:	66 0f ef c0          	pxor   %xmm0,%xmm0
    92bd:	f3 0f 10 65 cc       	movss  -0x34(%rbp),%xmm4
    92c2:	66 0f ef c9          	pxor   %xmm1,%xmm1
    92c6:	f3 49 0f 2a c5       	cvtsi2ss %r13,%xmm0
    92cb:	0f 28 d0             	movaps %xmm0,%xmm2
    92ce:	f3 0f 5c d4          	subss  %xmm4,%xmm2
    92d2:	0f 2e ca             	ucomiss %xmm2,%xmm1
    92d5:	0f 87 a4 02 00 00    	ja     957f <_ZN10RelaxationIfLl1000EEC1Effllff+0x36f>
    92db:	f3 0f 58 c4          	addss  %xmm4,%xmm0
    92df:	0f 2e 05 fe 82 00 00 	ucomiss 0x82fe(%rip),%xmm0        # 115e4 <_ZTSN6GetOpt13_DefValOptionIdNS_8_OptionTIdEEEE+0x44>
    92e6:	0f 87 93 02 00 00    	ja     957f <_ZN10RelaxationIfLl1000EEC1Effllff+0x36f>
    92ec:	66 0f ef c0          	pxor   %xmm0,%xmm0
    92f0:	f3 49 0f 2a c4       	cvtsi2ss %r12,%xmm0
    92f5:	0f 28 d0             	movaps %xmm0,%xmm2
    92f8:	f3 0f 5c d4          	subss  %xmm4,%xmm2
    92fc:	0f 2e ca             	ucomiss %xmm2,%xmm1
    92ff:	0f 87 7a 02 00 00    	ja     957f <_ZN10RelaxationIfLl1000EEC1Effllff+0x36f>
    9305:	f3 0f 58 c4          	addss  %xmm4,%xmm0
    9309:	0f 2e 05 d4 82 00 00 	ucomiss 0x82d4(%rip),%xmm0        # 115e4 <_ZTSN6GetOpt13_DefValOptionIdNS_8_OptionTIdEEEE+0x44>
    9310:	0f 87 69 02 00 00    	ja     957f <_ZN10RelaxationIfLl1000EEC1Effllff+0x36f>
    9316:	f3 0f 10 7d c4       	movss  -0x3c(%rbp),%xmm7
    931b:	0f 2e 7d c8          	ucomiss -0x38(%rbp),%xmm7
    931f:	0f 87 ef 01 00 00    	ja     9514 <_ZN10RelaxationIfLl1000EEC1Effllff+0x304>
    9325:	48 89 c2             	mov    %rax,%rdx
    9328:	83 e2 0f             	and    $0xf,%edx
    932b:	48 c1 ea 02          	shr    $0x2,%rdx
    932f:	48 f7 da             	neg    %rdx
    9332:	83 e2 03             	and    $0x3,%edx
    9335:	0f 84 35 01 00 00    	je     9470 <_ZN10RelaxationIfLl1000EEC1Effllff+0x260>
    933b:	48 83 fa 01          	cmp    $0x1,%rdx
    933f:	f3 0f 11 88 60 f9 3c 	movss  %xmm1,0x3cf960(%rax)
    9346:	00 
    9347:	f3 0f 11 08          	movss  %xmm1,(%rax)
    934b:	0f 84 57 01 00 00    	je     94a8 <_ZN10RelaxationIfLl1000EEC1Effllff+0x298>
    9351:	48 83 fa 02          	cmp    $0x2,%rdx
    9355:	c7 80 64 f9 3c 00 00 	movl   $0x0,0x3cf964(%rax)
    935c:	00 00 00 
    935f:	c7 40 04 00 00 00 00 	movl   $0x0,0x4(%rax)
    9366:	0f 84 24 01 00 00    	je     9490 <_ZN10RelaxationIfLl1000EEC1Effllff+0x280>
    936c:	c7 80 68 f9 3c 00 00 	movl   $0x0,0x3cf968(%rax)
    9373:	00 00 00 
    9376:	c7 40 08 00 00 00 00 	movl   $0x0,0x8(%rax)
    937d:	41 ba e5 03 00 00    	mov    $0x3e5,%r10d
    9383:	41 b9 03 00 00 00    	mov    $0x3,%r9d
    9389:	41 bb e8 03 00 00    	mov    $0x3e8,%r11d
    938f:	41 bc e4 03 00 00    	mov    $0x3e4,%r12d
    9395:	be f9 00 00 00       	mov    $0xf9,%esi
    939a:	49 29 d3             	sub    %rdx,%r11
    939d:	48 8d 14 95 60 f9 3c 	lea    0x3cf960(,%rdx,4),%rdx
    93a4:	00 
    93a5:	66 0f ef c0          	pxor   %xmm0,%xmm0
    93a9:	31 c9                	xor    %ecx,%ecx
    93ab:	4c 8d 04 10          	lea    (%rax,%rdx,1),%r8
    93af:	48 8d bc 10 a0 06 c3 	lea    -0x3cf960(%rax,%rdx,1),%rdi
    93b6:	ff 
    93b7:	31 d2                	xor    %edx,%edx
    93b9:	0f 1f 80 00 00 00 00 	nopl   0x0(%rax)
    93c0:	48 83 c1 01          	add    $0x1,%rcx
    93c4:	41 0f 29 04 10       	movaps %xmm0,(%r8,%rdx,1)
    93c9:	0f 11 04 17          	movups %xmm0,(%rdi,%rdx,1)
    93cd:	48 83 c2 10          	add    $0x10,%rdx
    93d1:	48 39 f1             	cmp    %rsi,%rcx
    93d4:	72 ea                	jb     93c0 <_ZN10RelaxationIfLl1000EEC1Effllff+0x1b0>
    93d6:	4d 29 e2             	sub    %r12,%r10
    93d9:	4d 39 e3             	cmp    %r12,%r11
    93dc:	4b 8d 14 0c          	lea    (%r12,%r9,1),%rdx
    93e0:	74 50                	je     9432 <_ZN10RelaxationIfLl1000EEC1Effllff+0x222>
    93e2:	48 8d 0c 90          	lea    (%rax,%rdx,4),%rcx
    93e6:	49 83 fa 01          	cmp    $0x1,%r10
    93ea:	c7 81 60 f9 3c 00 00 	movl   $0x0,0x3cf960(%rcx)
    93f1:	00 00 00 
    93f4:	c7 01 00 00 00 00    	movl   $0x0,(%rcx)
    93fa:	48 8d 4a 01          	lea    0x1(%rdx),%rcx
    93fe:	74 32                	je     9432 <_ZN10RelaxationIfLl1000EEC1Effllff+0x222>
    9400:	48 8d 0c 88          	lea    (%rax,%rcx,4),%rcx
    9404:	48 83 c2 02          	add    $0x2,%rdx
    9408:	49 83 fa 02          	cmp    $0x2,%r10
    940c:	c7 81 60 f9 3c 00 00 	movl   $0x0,0x3cf960(%rcx)
    9413:	00 00 00 
    9416:	c7 01 00 00 00 00    	movl   $0x0,(%rcx)
    941c:	74 14                	je     9432 <_ZN10RelaxationIfLl1000EEC1Effllff+0x222>
    941e:	48 8d 04 90          	lea    (%rax,%rdx,4),%rax
    9422:	c7 80 60 f9 3c 00 00 	movl   $0x0,0x3cf960(%rax)
    9429:	00 00 00 
    942c:	c7 00 00 00 00 00    	movl   $0x0,(%rax)
    9432:	48 8d 75 d0          	lea    -0x30(%rbp),%rsi
    9436:	48 8d 3d 73 c7 ff ff 	lea    -0x388d(%rip),%rdi        # 5bb0 <_ZN10RelaxationIfLl1000EEC2Effllff._omp_fn.4>
    943d:	31 c9                	xor    %ecx,%ecx
    943f:	31 d2                	xor    %edx,%edx
    9441:	48 89 5d d0          	mov    %rbx,-0x30(%rbp)
    9445:	e8 86 9e ff ff       	callq  32d0 <GOMP_parallel@plt>
    944a:	48 8b 45 d8          	mov    -0x28(%rbp),%rax
    944e:	64 48 33 04 25 28 00 	xor    %fs:0x28,%rax
    9455:	00 00 
    9457:	0f 85 e9 00 00 00    	jne    9546 <_ZN10RelaxationIfLl1000EEC1Effllff+0x336>
    945d:	48 83 c4 28          	add    $0x28,%rsp
    9461:	5b                   	pop    %rbx
    9462:	41 5c                	pop    %r12
    9464:	41 5d                	pop    %r13
    9466:	5d                   	pop    %rbp
    9467:	c3                   	retq   
    9468:	0f 1f 84 00 00 00 00 	nopl   0x0(%rax,%rax,1)
    946f:	00 
    9470:	41 bc e8 03 00 00    	mov    $0x3e8,%r12d
    9476:	be fa 00 00 00       	mov    $0xfa,%esi
    947b:	41 bb e8 03 00 00    	mov    $0x3e8,%r11d
    9481:	41 ba e8 03 00 00    	mov    $0x3e8,%r10d
    9487:	45 31 c9             	xor    %r9d,%r9d
    948a:	e9 0e ff ff ff       	jmpq   939d <_ZN10RelaxationIfLl1000EEC1Effllff+0x18d>
    948f:	90                   	nop
    9490:	41 ba e6 03 00 00    	mov    $0x3e6,%r10d
    9496:	41 b9 02 00 00 00    	mov    $0x2,%r9d
    949c:	e9 e8 fe ff ff       	jmpq   9389 <_ZN10RelaxationIfLl1000EEC1Effllff+0x179>
    94a1:	0f 1f 80 00 00 00 00 	nopl   0x0(%rax)
    94a8:	41 ba e7 03 00 00    	mov    $0x3e7,%r10d
    94ae:	41 b9 01 00 00 00    	mov    $0x1,%r9d
    94b4:	e9 d0 fe ff ff       	jmpq   9389 <_ZN10RelaxationIfLl1000EEC1Effllff+0x179>
    94b9:	bf 10 00 00 00       	mov    $0x10,%edi
    94be:	e8 7d 9b ff ff       	callq  3040 <__cxa_allocate_exception@plt>
    94c3:	48 8d 35 a6 7d 00 00 	lea    0x7da6(%rip),%rsi        # 11270 <_fini+0x11c>
    94ca:	48 89 c7             	mov    %rax,%rdi
    94cd:	49 89 c5             	mov    %rax,%r13
    94d0:	e8 cb 9d ff ff       	callq  32a0 <_ZNSt11logic_errorC1EPKc@plt>
    94d5:	48 8b 15 f4 aa 20 00 	mov    0x20aaf4(%rip),%rdx        # 213fd0 <_DYNAMIC+0x238>
    94dc:	48 8d 35 ed b1 20 00 	lea    0x20b1ed(%rip),%rsi        # 2146d0 <_ZTISt11logic_error@@GLIBCXX_3.4>
    94e3:	4c 89 ef             	mov    %r13,%rdi
    94e6:	e8 a5 9e ff ff       	callq  3390 <__cxa_throw@plt>
    94eb:	48 89 c7             	mov    %rax,%rdi
    94ee:	eb 14                	jmp    9504 <_ZN10RelaxationIfLl1000EEC1Effllff+0x2f4>
    94f0:	48 89 c3             	mov    %rax,%rbx
    94f3:	49 89 d4             	mov    %rdx,%r12
    94f6:	4c 89 ef             	mov    %r13,%rdi
    94f9:	e8 b2 9b ff ff       	callq  30b0 <__cxa_free_exception@plt>
    94fe:	48 89 df             	mov    %rbx,%rdi
    9501:	4c 89 e2             	mov    %r12,%rdx
    9504:	48 83 fa ff          	cmp    $0xffffffffffffffff,%rdx
    9508:	74 05                	je     950f <_ZN10RelaxationIfLl1000EEC1Effllff+0x2ff>
    950a:	e8 a1 9e ff ff       	callq  33b0 <_Unwind_Resume@plt>
    950f:	e8 2c 9d ff ff       	callq  3240 <__cxa_call_unexpected@plt>
    9514:	bf 10 00 00 00       	mov    $0x10,%edi
    9519:	e8 22 9b ff ff       	callq  3040 <__cxa_allocate_exception@plt>
    951e:	48 8d 35 13 7e 00 00 	lea    0x7e13(%rip),%rsi        # 11338 <_fini+0x1e4>
    9525:	48 89 c7             	mov    %rax,%rdi
    9528:	49 89 c5             	mov    %rax,%r13
    952b:	e8 70 9d ff ff       	callq  32a0 <_ZNSt11logic_errorC1EPKc@plt>
    9530:	48 8b 15 99 aa 20 00 	mov    0x20aa99(%rip),%rdx        # 213fd0 <_DYNAMIC+0x238>
    9537:	48 8d 35 92 b1 20 00 	lea    0x20b192(%rip),%rsi        # 2146d0 <_ZTISt11logic_error@@GLIBCXX_3.4>
    953e:	4c 89 ef             	mov    %r13,%rdi
    9541:	e8 4a 9e ff ff       	callq  3390 <__cxa_throw@plt>
    9546:	e8 75 9c ff ff       	callq  31c0 <__stack_chk_fail@plt>
    954b:	eb a3                	jmp    94f0 <_ZN10RelaxationIfLl1000EEC1Effllff+0x2e0>
    954d:	bf 10 00 00 00       	mov    $0x10,%edi
    9552:	e8 e9 9a ff ff       	callq  3040 <__cxa_allocate_exception@plt>
    9557:	48 8d 35 ea 7c 00 00 	lea    0x7cea(%rip),%rsi        # 11248 <_fini+0xf4>
    955e:	48 89 c7             	mov    %rax,%rdi
    9561:	49 89 c5             	mov    %rax,%r13
    9564:	e8 37 9d ff ff       	callq  32a0 <_ZNSt11logic_errorC1EPKc@plt>
    9569:	48 8b 15 60 aa 20 00 	mov    0x20aa60(%rip),%rdx        # 213fd0 <_DYNAMIC+0x238>
    9570:	48 8d 35 59 b1 20 00 	lea    0x20b159(%rip),%rsi        # 2146d0 <_ZTISt11logic_error@@GLIBCXX_3.4>
    9577:	4c 89 ef             	mov    %r13,%rdi
    957a:	e8 11 9e ff ff       	callq  3390 <__cxa_throw@plt>
    957f:	bf 10 00 00 00       	mov    $0x10,%edi
    9584:	e8 b7 9a ff ff       	callq  3040 <__cxa_allocate_exception@plt>
    9589:	48 8d 35 40 7d 00 00 	lea    0x7d40(%rip),%rsi        # 112d0 <_fini+0x17c>
    9590:	48 89 c7             	mov    %rax,%rdi
    9593:	49 89 c5             	mov    %rax,%r13
    9596:	e8 05 9d ff ff       	callq  32a0 <_ZNSt11logic_errorC1EPKc@plt>
    959b:	48 8b 15 2e aa 20 00 	mov    0x20aa2e(%rip),%rdx        # 213fd0 <_DYNAMIC+0x238>
    95a2:	48 8d 35 27 b1 20 00 	lea    0x20b127(%rip),%rsi        # 2146d0 <_ZTISt11logic_error@@GLIBCXX_3.4>
    95a9:	4c 89 ef             	mov    %r13,%rdi
    95ac:	e8 df 9d ff ff       	callq  3390 <__cxa_throw@plt>
    95b1:	e9 3a ff ff ff       	jmpq   94f0 <_ZN10RelaxationIfLl1000EEC1Effllff+0x2e0>
    95b6:	e9 35 ff ff ff       	jmpq   94f0 <_ZN10RelaxationIfLl1000EEC1Effllff+0x2e0>
    95bb:	0f 1f 44 00 00       	nopl   0x0(%rax,%rax,1)

00000000000095c0 <_Z9benchmarkIfLl1000EEmi>:
    95c0:	55                   	push   %rbp
    95c1:	48 89 e5             	mov    %rsp,%rbp
    95c4:	41 57                	push   %r15
    95c6:	41 56                	push   %r14
    95c8:	41 55                	push   %r13
    95ca:	41 54                	push   %r12
    95cc:	53                   	push   %rbx
    95cd:	48 81 ec 88 10 00 00 	sub    $0x1088,%rsp
    95d4:	48 83 0c 24 00       	orq    $0x0,(%rsp)
    95d9:	48 81 c4 20 10 00 00 	add    $0x1020,%rsp
    95e0:	64 48 8b 04 25 28 00 	mov    %fs:0x28,%rax
    95e7:	00 00 
    95e9:	48 89 45 c8          	mov    %rax,-0x38(%rbp)
    95ed:	31 c0                	xor    %eax,%eax
    95ef:	e8 dc 9b ff ff       	callq  31d0 <omp_set_num_threads@plt>
    95f4:	e8 67 9d ff ff       	callq  3360 <omp_get_max_threads@plt>
    95f9:	48 8d 35 63 7b 00 00 	lea    0x7b63(%rip),%rsi        # 11163 <_fini+0xf>
    9600:	48 8d 3d 59 ae 20 00 	lea    0x20ae59(%rip),%rdi        # 214460 <_ZSt4cout@@GLIBCXX_3.4>
    9607:	ba 12 00 00 00       	mov    $0x12,%edx
    960c:	89 c3                	mov    %eax,%ebx
    960e:	e8 dd 9b ff ff       	callq  31f0 <_ZSt16__ostream_insertIcSt11char_traitsIcEERSt13basic_ostreamIT_T0_ES6_PKS3_l@plt>
    9613:	48 8d 3d 46 ae 20 00 	lea    0x20ae46(%rip),%rdi        # 214460 <_ZSt4cout@@GLIBCXX_3.4>
    961a:	89 de                	mov    %ebx,%esi
    961c:	e8 7f 9d ff ff       	callq  33a0 <_ZNSolsEi@plt>
    9621:	48 8d 35 4e 7b 00 00 	lea    0x7b4e(%rip),%rsi        # 11176 <_fini+0x22>
    9628:	49 89 c4             	mov    %rax,%r12
    962b:	ba 09 00 00 00       	mov    $0x9,%edx
    9630:	48 89 c7             	mov    %rax,%rdi
    9633:	e8 b8 9b ff ff       	callq  31f0 <_ZSt16__ostream_insertIcSt11char_traitsIcEERSt13basic_ostreamIT_T0_ES6_PKS3_l@plt>
    9638:	49 8b 04 24          	mov    (%r12),%rax
    963c:	48 8b 40 e8          	mov    -0x18(%rax),%rax
    9640:	49 8b 9c 04 f0 00 00 	mov    0xf0(%r12,%rax,1),%rbx
    9647:	00 
    9648:	48 85 db             	test   %rbx,%rbx
    964b:	0f 84 f0 03 00 00    	je     9a41 <_Z9benchmarkIfLl1000EEmi+0x481>
    9651:	80 7b 38 00          	cmpb   $0x0,0x38(%rbx)
    9655:	0f 84 b5 03 00 00    	je     9a10 <_Z9benchmarkIfLl1000EEmi+0x450>
    965b:	0f be 73 43          	movsbl 0x43(%rbx),%esi
    965f:	4c 89 e7             	mov    %r12,%rdi
    9662:	e8 f9 98 ff ff       	callq  2f60 <_ZNSo3putEc@plt>
    9667:	48 89 c7             	mov    %rax,%rdi
    966a:	e8 21 9a ff ff       	callq  3090 <_ZNSo5flushEv@plt>
    966f:	48 8d 35 0a 7b 00 00 	lea    0x7b0a(%rip),%rsi        # 11180 <_fini+0x2c>
    9676:	48 8d 3d e3 ad 20 00 	lea    0x20ade3(%rip),%rdi        # 214460 <_ZSt4cout@@GLIBCXX_3.4>
    967d:	ba 0f 00 00 00       	mov    $0xf,%edx
    9682:	44 8b 25 cb b1 20 00 	mov    0x20b1cb(%rip),%r12d        # 214854 <steps>
    9689:	e8 62 9b ff ff       	callq  31f0 <_ZSt16__ostream_insertIcSt11char_traitsIcEERSt13basic_ostreamIT_T0_ES6_PKS3_l@plt>
    968e:	48 8d 3d cb ad 20 00 	lea    0x20adcb(%rip),%rdi        # 214460 <_ZSt4cout@@GLIBCXX_3.4>
    9695:	be e8 03 00 00       	mov    $0x3e8,%esi
    969a:	e8 b1 9a ff ff       	callq  3150 <_ZNSo9_M_insertIlEERSoT_@plt>
    969f:	48 8d 35 c9 7a 00 00 	lea    0x7ac9(%rip),%rsi        # 1116f <_fini+0x1b>
    96a6:	48 89 c3             	mov    %rax,%rbx
    96a9:	ba 06 00 00 00       	mov    $0x6,%edx
    96ae:	48 89 c7             	mov    %rax,%rdi
    96b1:	e8 3a 9b ff ff       	callq  31f0 <_ZSt16__ostream_insertIcSt11char_traitsIcEERSt13basic_ostreamIT_T0_ES6_PKS3_l@plt>
    96b6:	44 89 e6             	mov    %r12d,%esi
    96b9:	48 89 df             	mov    %rbx,%rdi
    96bc:	e8 df 9c ff ff       	callq  33a0 <_ZNSolsEi@plt>
    96c1:	48 8d 35 c8 7a 00 00 	lea    0x7ac8(%rip),%rsi        # 11190 <_fini+0x3c>
    96c8:	48 89 c3             	mov    %rax,%rbx
    96cb:	ba 0f 00 00 00       	mov    $0xf,%edx
    96d0:	48 89 c7             	mov    %rax,%rdi
    96d3:	e8 18 9b ff ff       	callq  31f0 <_ZSt16__ostream_insertIcSt11char_traitsIcEERSt13basic_ostreamIT_T0_ES6_PKS3_l@plt>
    96d8:	48 89 df             	mov    %rbx,%rdi
    96db:	be 01 00 00 00       	mov    $0x1,%esi
    96e0:	e8 bb 9c ff ff       	callq  33a0 <_ZNSolsEi@plt>
    96e5:	48 8d 35 b4 7a 00 00 	lea    0x7ab4(%rip),%rsi        # 111a0 <_fini+0x4c>
    96ec:	49 89 c4             	mov    %rax,%r12
    96ef:	ba 06 00 00 00       	mov    $0x6,%edx
    96f4:	48 89 c7             	mov    %rax,%rdi
    96f7:	e8 f4 9a ff ff       	callq  31f0 <_ZSt16__ostream_insertIcSt11char_traitsIcEERSt13basic_ostreamIT_T0_ES6_PKS3_l@plt>
    96fc:	49 8b 04 24          	mov    (%r12),%rax
    9700:	48 8b 40 e8          	mov    -0x18(%rax),%rax
    9704:	49 8b 9c 04 f0 00 00 	mov    0xf0(%r12,%rax,1),%rbx
    970b:	00 
    970c:	48 85 db             	test   %rbx,%rbx
    970f:	0f 84 2c 03 00 00    	je     9a41 <_Z9benchmarkIfLl1000EEmi+0x481>
    9715:	80 7b 38 00          	cmpb   $0x0,0x38(%rbx)
    9719:	0f 84 ba 02 00 00    	je     99d9 <_Z9benchmarkIfLl1000EEmi+0x419>
    971f:	0f be 73 43          	movsbl 0x43(%rbx),%esi
    9723:	4c 89 e7             	mov    %r12,%rdi
    9726:	e8 35 98 ff ff       	callq  2f60 <_ZNSo3putEc@plt>
    972b:	48 89 c7             	mov    %rax,%rdi
    972e:	e8 5d 99 ff ff       	callq  3090 <_ZNSo5flushEv@plt>
    9733:	0f 31                	rdtsc  
    9735:	66 0f ef d2          	pxor   %xmm2,%xmm2
    9739:	48 c1 e2 20          	shl    $0x20,%rdx
    973d:	89 c0                	mov    %eax,%eax
    973f:	4c 8d 65 90          	lea    -0x70(%rbp),%r12
    9743:	be f4 01 00 00       	mov    $0x1f4,%esi
    9748:	66 0f ef db          	pxor   %xmm3,%xmm3
    974c:	48 09 c2             	or     %rax,%rdx
    974f:	f3 0f 2a 15 f9 b0 20 	cvtsi2ssl 0x20b0f9(%rip),%xmm2        # 214850 <radius>
    9756:	00 
    9757:	48 89 95 78 ff ff ff 	mov    %rdx,-0x88(%rbp)
    975e:	f3 0f 10 0d 72 7e 00 	movss  0x7e72(%rip),%xmm1        # 115d8 <_ZTSN6GetOpt13_DefValOptionIdNS_8_OptionTIdEEEE+0x38>
    9765:	00 
    9766:	ba f4 01 00 00       	mov    $0x1f4,%edx
    976b:	f3 0f 10 05 69 7e 00 	movss  0x7e69(%rip),%xmm0        # 115dc <_ZTSN6GetOpt13_DefValOptionIdNS_8_OptionTIdEEEE+0x3c>
    9772:	00 
    9773:	4c 89 e7             	mov    %r12,%rdi
    9776:	f2 0f 5a 1d ca b0 20 	cvtsd2ss 0x20b0ca(%rip),%xmm3        # 214848 <heat>
    977d:	00 
    977e:	e8 8d fa ff ff       	callq  9210 <_ZN10RelaxationIfLl1000EEC1Effllff>
    9783:	8b 05 cb b0 20 00    	mov    0x20b0cb(%rip),%eax        # 214854 <steps>
    9789:	85 c0                	test   %eax,%eax
    978b:	0f 8e ba 02 00 00    	jle    9a4b <_Z9benchmarkIfLl1000EEmi+0x48b>
    9791:	4c 8d 6d 80          	lea    -0x80(%rbp),%r13
    9795:	bb 01 00 00 00       	mov    $0x1,%ebx
    979a:	66 0f 1f 44 00 00    	nopw   0x0(%rax,%rax,1)
    97a0:	bf 00 09 3d 00       	mov    $0x3d0900,%edi
    97a5:	e8 c6 99 ff ff       	callq  3170 <_Znwm@plt>
    97aa:	48 8b 75 b8          	mov    -0x48(%rbp),%rsi
    97ae:	48 8d 48 10          	lea    0x10(%rax),%rcx
    97b2:	48 8d 96 60 f9 3c 00 	lea    0x3cf960(%rsi),%rdx
    97b9:	48 39 ca             	cmp    %rcx,%rdx
    97bc:	73 10                	jae    97ce <_Z9benchmarkIfLl1000EEmi+0x20e>
    97be:	48 8d 8e 70 f9 3c 00 	lea    0x3cf970(%rsi),%rcx
    97c5:	48 39 c8             	cmp    %rcx,%rax
    97c8:	0f 82 b2 01 00 00    	jb     9980 <_Z9benchmarkIfLl1000EEmi+0x3c0>
    97ce:	83 e2 0f             	and    $0xf,%edx
    97d1:	48 c1 ea 02          	shr    $0x2,%rdx
    97d5:	48 f7 da             	neg    %rdx
    97d8:	83 e2 03             	and    $0x3,%edx
    97db:	0f 84 7f 01 00 00    	je     9960 <_Z9benchmarkIfLl1000EEmi+0x3a0>
    97e1:	48 83 fa 01          	cmp    $0x1,%rdx
    97e5:	c7 86 60 f9 3c 00 00 	movl   $0x0,0x3cf960(%rsi)
    97ec:	00 00 00 
    97ef:	c7 00 00 00 00 00    	movl   $0x0,(%rax)
    97f5:	0f 84 cd 01 00 00    	je     99c8 <_Z9benchmarkIfLl1000EEmi+0x408>
    97fb:	48 83 fa 02          	cmp    $0x2,%rdx
    97ff:	c7 86 64 f9 3c 00 00 	movl   $0x0,0x3cf964(%rsi)
    9806:	00 00 00 
    9809:	c7 40 04 00 00 00 00 	movl   $0x0,0x4(%rax)
    9810:	0f 84 9a 01 00 00    	je     99b0 <_Z9benchmarkIfLl1000EEmi+0x3f0>
    9816:	c7 86 68 f9 3c 00 00 	movl   $0x0,0x3cf968(%rsi)
    981d:	00 00 00 
    9820:	41 bb e5 03 00 00    	mov    $0x3e5,%r11d
    9826:	c7 40 08 00 00 00 00 	movl   $0x0,0x8(%rax)
    982d:	41 ba 03 00 00 00    	mov    $0x3,%r10d
    9833:	41 be e8 03 00 00    	mov    $0x3e8,%r14d
    9839:	bf f9 00 00 00       	mov    $0xf9,%edi
    983e:	41 bf e4 03 00 00    	mov    $0x3e4,%r15d
    9844:	49 29 d6             	sub    %rdx,%r14
    9847:	48 8d 14 95 60 f9 3c 	lea    0x3cf960(,%rdx,4),%rdx
    984e:	00 
    984f:	31 c9                	xor    %ecx,%ecx
    9851:	4c 8d 0c 16          	lea    (%rsi,%rdx,1),%r9
    9855:	4c 8d 84 10 a0 06 c3 	lea    -0x3cf960(%rax,%rdx,1),%r8
    985c:	ff 
    985d:	31 d2                	xor    %edx,%edx
    985f:	90                   	nop
    9860:	66 0f ef e4          	pxor   %xmm4,%xmm4
    9864:	48 83 c1 01          	add    $0x1,%rcx
    9868:	41 0f 29 24 11       	movaps %xmm4,(%r9,%rdx,1)
    986d:	41 0f 11 24 10       	movups %xmm4,(%r8,%rdx,1)
    9872:	48 83 c2 10          	add    $0x10,%rdx
    9876:	48 39 f9             	cmp    %rdi,%rcx
    9879:	72 e5                	jb     9860 <_Z9benchmarkIfLl1000EEmi+0x2a0>
    987b:	4d 01 fa             	add    %r15,%r10
    987e:	4d 29 fb             	sub    %r15,%r11
    9881:	4d 39 f7             	cmp    %r14,%r15
    9884:	74 4e                	je     98d4 <_Z9benchmarkIfLl1000EEmi+0x314>
    9886:	49 83 fb 01          	cmp    $0x1,%r11
    988a:	42 c7 84 96 60 f9 3c 	movl   $0x0,0x3cf960(%rsi,%r10,4)
    9891:	00 00 00 00 00 
    9896:	49 8d 52 01          	lea    0x1(%r10),%rdx
    989a:	42 c7 04 90 00 00 00 	movl   $0x0,(%rax,%r10,4)
    98a1:	00 
    98a2:	74 30                	je     98d4 <_Z9benchmarkIfLl1000EEmi+0x314>
    98a4:	49 83 c2 02          	add    $0x2,%r10
    98a8:	49 83 fb 02          	cmp    $0x2,%r11
    98ac:	c7 84 96 60 f9 3c 00 	movl   $0x0,0x3cf960(%rsi,%rdx,4)
    98b3:	00 00 00 00 
    98b7:	c7 04 90 00 00 00 00 	movl   $0x0,(%rax,%rdx,4)
    98be:	74 14                	je     98d4 <_Z9benchmarkIfLl1000EEmi+0x314>
    98c0:	42 c7 84 96 60 f9 3c 	movl   $0x0,0x3cf960(%rsi,%r10,4)
    98c7:	00 00 00 00 00 
    98cc:	42 c7 04 90 00 00 00 	movl   $0x0,(%rax,%r10,4)
    98d3:	00 
    98d4:	48 8d 3d 25 c4 ff ff 	lea    -0x3bdb(%rip),%rdi        # 5d00 <_ZN10RelaxationIfLl1000EE7iterateEv._omp_fn.5>
    98db:	31 c9                	xor    %ecx,%ecx
    98dd:	31 d2                	xor    %edx,%edx
    98df:	4c 89 ee             	mov    %r13,%rsi
    98e2:	4c 89 65 80          	mov    %r12,-0x80(%rbp)
    98e6:	48 89 45 88          	mov    %rax,-0x78(%rbp)
    98ea:	e8 e1 99 ff ff       	callq  32d0 <GOMP_parallel@plt>
    98ef:	48 8b 7d b8          	mov    -0x48(%rbp),%rdi
    98f3:	4c 8b 75 88          	mov    -0x78(%rbp),%r14
    98f7:	48 85 ff             	test   %rdi,%rdi
    98fa:	74 05                	je     9901 <_Z9benchmarkIfLl1000EEmi+0x341>
    98fc:	e8 4f 99 ff ff       	callq  3250 <_ZdaPv@plt>
    9901:	83 c3 01             	add    $0x1,%ebx
    9904:	39 1d 4a af 20 00    	cmp    %ebx,0x20af4a(%rip)        # 214854 <steps>
    990a:	4c 89 75 b8          	mov    %r14,-0x48(%rbp)
    990e:	0f 8d 8c fe ff ff    	jge    97a0 <_Z9benchmarkIfLl1000EEmi+0x1e0>
    9914:	4c 89 f7             	mov    %r14,%rdi
    9917:	0f 31                	rdtsc  
    9919:	48 89 d3             	mov    %rdx,%rbx
    991c:	89 c0                	mov    %eax,%eax
    991e:	48 c1 e3 20          	shl    $0x20,%rbx
    9922:	48 09 c3             	or     %rax,%rbx
    9925:	48 2b 9d 78 ff ff ff 	sub    -0x88(%rbp),%rbx
    992c:	48 85 ff             	test   %rdi,%rdi
    992f:	74 05                	je     9936 <_Z9benchmarkIfLl1000EEmi+0x376>
    9931:	e8 1a 99 ff ff       	callq  3250 <_ZdaPv@plt>
    9936:	48 89 d8             	mov    %rbx,%rax
    9939:	48 8b 5d c8          	mov    -0x38(%rbp),%rbx
    993d:	64 48 33 1c 25 28 00 	xor    %fs:0x28,%rbx
    9944:	00 00 
    9946:	0f 85 18 01 00 00    	jne    9a64 <_Z9benchmarkIfLl1000EEmi+0x4a4>
    994c:	48 83 c4 68          	add    $0x68,%rsp
    9950:	5b                   	pop    %rbx
    9951:	41 5c                	pop    %r12
    9953:	41 5d                	pop    %r13
    9955:	41 5e                	pop    %r14
    9957:	41 5f                	pop    %r15
    9959:	5d                   	pop    %rbp
    995a:	c3                   	retq   
    995b:	0f 1f 44 00 00       	nopl   0x0(%rax,%rax,1)
    9960:	bf fa 00 00 00       	mov    $0xfa,%edi
    9965:	41 bf e8 03 00 00    	mov    $0x3e8,%r15d
    996b:	41 bb e8 03 00 00    	mov    $0x3e8,%r11d
    9971:	45 31 d2             	xor    %r10d,%r10d
    9974:	41 be e8 03 00 00    	mov    $0x3e8,%r14d
    997a:	e9 c8 fe ff ff       	jmpq   9847 <_Z9benchmarkIfLl1000EEmi+0x287>
    997f:	90                   	nop
    9980:	31 d2                	xor    %edx,%edx
    9982:	66 0f 1f 44 00 00    	nopw   0x0(%rax,%rax,1)
    9988:	c7 84 96 60 f9 3c 00 	movl   $0x0,0x3cf960(%rsi,%rdx,4)
    998f:	00 00 00 00 
    9993:	c7 04 90 00 00 00 00 	movl   $0x0,(%rax,%rdx,4)
    999a:	48 83 c2 01          	add    $0x1,%rdx
    999e:	48 81 fa e8 03 00 00 	cmp    $0x3e8,%rdx
    99a5:	75 e1                	jne    9988 <_Z9benchmarkIfLl1000EEmi+0x3c8>
    99a7:	e9 28 ff ff ff       	jmpq   98d4 <_Z9benchmarkIfLl1000EEmi+0x314>
    99ac:	0f 1f 40 00          	nopl   0x0(%rax)
    99b0:	41 bb e6 03 00 00    	mov    $0x3e6,%r11d
    99b6:	41 ba 02 00 00 00    	mov    $0x2,%r10d
    99bc:	e9 72 fe ff ff       	jmpq   9833 <_Z9benchmarkIfLl1000EEmi+0x273>
    99c1:	0f 1f 80 00 00 00 00 	nopl   0x0(%rax)
    99c8:	41 bb e7 03 00 00    	mov    $0x3e7,%r11d
    99ce:	41 ba 01 00 00 00    	mov    $0x1,%r10d
    99d4:	e9 5a fe ff ff       	jmpq   9833 <_Z9benchmarkIfLl1000EEmi+0x273>
    99d9:	48 89 df             	mov    %rbx,%rdi
    99dc:	e8 1f 98 ff ff       	callq  3200 <_ZNKSt5ctypeIcE13_M_widen_initEv@plt>
    99e1:	48 8b 03             	mov    (%rbx),%rax
    99e4:	48 8d 15 15 bb ff ff 	lea    -0x44eb(%rip),%rdx        # 5500 <_ZNKSt5ctypeIcE8do_widenEc>
    99eb:	be 0a 00 00 00       	mov    $0xa,%esi
    99f0:	48 8b 40 30          	mov    0x30(%rax),%rax
    99f4:	48 39 d0             	cmp    %rdx,%rax
    99f7:	0f 84 26 fd ff ff    	je     9723 <_Z9benchmarkIfLl1000EEmi+0x163>
    99fd:	48 89 df             	mov    %rbx,%rdi
    9a00:	ff d0                	callq  *%rax
    9a02:	0f be f0             	movsbl %al,%esi
    9a05:	e9 19 fd ff ff       	jmpq   9723 <_Z9benchmarkIfLl1000EEmi+0x163>
    9a0a:	66 0f 1f 44 00 00    	nopw   0x0(%rax,%rax,1)
    9a10:	48 89 df             	mov    %rbx,%rdi
    9a13:	e8 e8 97 ff ff       	callq  3200 <_ZNKSt5ctypeIcE13_M_widen_initEv@plt>
    9a18:	48 8b 03             	mov    (%rbx),%rax
    9a1b:	48 8d 15 de ba ff ff 	lea    -0x4522(%rip),%rdx        # 5500 <_ZNKSt5ctypeIcE8do_widenEc>
    9a22:	be 0a 00 00 00       	mov    $0xa,%esi
    9a27:	48 8b 40 30          	mov    0x30(%rax),%rax
    9a2b:	48 39 d0             	cmp    %rdx,%rax
    9a2e:	0f 84 2b fc ff ff    	je     965f <_Z9benchmarkIfLl1000EEmi+0x9f>
    9a34:	48 89 df             	mov    %rbx,%rdi
    9a37:	ff d0                	callq  *%rax
    9a39:	0f be f0             	movsbl %al,%esi
    9a3c:	e9 1e fc ff ff       	jmpq   965f <_Z9benchmarkIfLl1000EEmi+0x9f>
    9a41:	e8 ea 97 ff ff       	callq  3230 <_ZSt16__throw_bad_castv@plt>
    9a46:	48 89 c7             	mov    %rax,%rdi
    9a49:	eb 09                	jmp    9a54 <_Z9benchmarkIfLl1000EEmi+0x494>
    9a4b:	48 8b 7d b8          	mov    -0x48(%rbp),%rdi
    9a4f:	e9 c3 fe ff ff       	jmpq   9917 <_Z9benchmarkIfLl1000EEmi+0x357>
    9a54:	48 83 fa ff          	cmp    $0xffffffffffffffff,%rdx
    9a58:	74 0f                	je     9a69 <_Z9benchmarkIfLl1000EEmi+0x4a9>
    9a5a:	e8 51 99 ff ff       	callq  33b0 <_Unwind_Resume@plt>
    9a5f:	48 89 c3             	mov    %rax,%rbx
    9a62:	eb 0a                	jmp    9a6e <_Z9benchmarkIfLl1000EEmi+0x4ae>
    9a64:	e8 57 97 ff ff       	callq  31c0 <__stack_chk_fail@plt>
    9a69:	e8 d2 97 ff ff       	callq  3240 <__cxa_call_unexpected@plt>
    9a6e:	48 8b 7d b8          	mov    -0x48(%rbp),%rdi
    9a72:	48 85 ff             	test   %rdi,%rdi
    9a75:	74 05                	je     9a7c <_Z9benchmarkIfLl1000EEmi+0x4bc>
    9a77:	e8 d4 97 ff ff       	callq  3250 <_ZdaPv@plt>
    9a7c:	48 89 df             	mov    %rbx,%rdi
    9a7f:	eb d9                	jmp    9a5a <_Z9benchmarkIfLl1000EEmi+0x49a>
    9a81:	66 2e 0f 1f 84 00 00 	nopw   %cs:0x0(%rax,%rax,1)
    9a88:	00 00 00 
    9a8b:	0f 1f 44 00 00       	nopl   0x0(%rax,%rax,1)

0000000000009a90 <_ZN10RelaxationIfLl10000EEC1Effllff>:
    9a90:	55                   	push   %rbp
    9a91:	48 89 e5             	mov    %rsp,%rbp
    9a94:	41 55                	push   %r13
    9a96:	41 54                	push   %r12
    9a98:	53                   	push   %rbx
    9a99:	48 81 ec 48 10 00 00 	sub    $0x1048,%rsp
    9aa0:	48 83 0c 24 00       	orq    $0x0,(%rsp)
    9aa5:	48 81 c4 20 10 00 00 	add    $0x1020,%rsp
    9aac:	64 48 8b 04 25 28 00 	mov    %fs:0x28,%rax
    9ab3:	00 00 
    9ab5:	48 89 45 d8          	mov    %rax,-0x28(%rbp)
    9ab9:	31 c0                	xor    %eax,%eax
    9abb:	f3 48 0f 2c c2       	cvttss2si %xmm2,%rax
    9ac0:	48 89 fb             	mov    %rdi,%rbx
    9ac3:	f3 0f 11 03          	movss  %xmm0,(%rbx)
    9ac7:	49 89 f5             	mov    %rsi,%r13
    9aca:	49 89 d4             	mov    %rdx,%r12
    9acd:	f3 0f 11 4f 04       	movss  %xmm1,0x4(%rdi)
    9ad2:	48 89 73 08          	mov    %rsi,0x8(%rbx)
    9ad6:	48 89 53 10          	mov    %rdx,0x10(%rbx)
    9ada:	f3 0f 11 45 c8       	movss  %xmm0,-0x38(%rbp)
    9adf:	f3 0f 11 5d c4       	movss  %xmm3,-0x3c(%rbp)
    9ae4:	f3 0f 11 55 cc       	movss  %xmm2,-0x34(%rbp)
    9ae9:	48 89 47 18          	mov    %rax,0x18(%rdi)
    9aed:	f3 48 0f 2c c3       	cvttss2si %xmm3,%rax
    9af2:	48 89 47 20          	mov    %rax,0x20(%rdi)
    9af6:	bf 00 84 d7 17       	mov    $0x17d78400,%edi
    9afb:	e8 70 96 ff ff       	callq  3170 <_Znwm@plt>
    9b00:	f3 0f 10 05 c8 7a 00 	movss  0x7ac8(%rip),%xmm0        # 115d0 <_ZTSN6GetOpt13_DefValOptionIdNS_8_OptionTIdEEEE+0x30>
    9b07:	00 
    9b08:	48 89 43 28          	mov    %rax,0x28(%rbx)
    9b0c:	0f 2e 45 cc          	ucomiss -0x34(%rbp),%xmm0
    9b10:	0f 87 b7 02 00 00    	ja     9dcd <_ZN10RelaxationIfLl10000EEC1Effllff+0x33d>
    9b16:	49 8d 55 ff          	lea    -0x1(%r13),%rdx
    9b1a:	48 81 fa 0d 27 00 00 	cmp    $0x270d,%rdx
    9b21:	0f 87 12 02 00 00    	ja     9d39 <_ZN10RelaxationIfLl10000EEC1Effllff+0x2a9>
    9b27:	49 8d 54 24 ff       	lea    -0x1(%r12),%rdx
    9b2c:	48 81 fa 0d 27 00 00 	cmp    $0x270d,%rdx
    9b33:	0f 87 00 02 00 00    	ja     9d39 <_ZN10RelaxationIfLl10000EEC1Effllff+0x2a9>
    9b39:	66 0f ef c0          	pxor   %xmm0,%xmm0
    9b3d:	f3 0f 10 65 cc       	movss  -0x34(%rbp),%xmm4
    9b42:	66 0f ef c9          	pxor   %xmm1,%xmm1
    9b46:	f3 49 0f 2a c5       	cvtsi2ss %r13,%xmm0
    9b4b:	0f 28 d0             	movaps %xmm0,%xmm2
    9b4e:	f3 0f 5c d4          	subss  %xmm4,%xmm2
    9b52:	0f 2e ca             	ucomiss %xmm2,%xmm1
    9b55:	0f 87 a4 02 00 00    	ja     9dff <_ZN10RelaxationIfLl10000EEC1Effllff+0x36f>
    9b5b:	f3 0f 58 c4          	addss  %xmm4,%xmm0
    9b5f:	0f 2e 05 82 7a 00 00 	ucomiss 0x7a82(%rip),%xmm0        # 115e8 <_ZTSN6GetOpt13_DefValOptionIdNS_8_OptionTIdEEEE+0x48>
    9b66:	0f 87 93 02 00 00    	ja     9dff <_ZN10RelaxationIfLl10000EEC1Effllff+0x36f>
    9b6c:	66 0f ef c0          	pxor   %xmm0,%xmm0
    9b70:	f3 49 0f 2a c4       	cvtsi2ss %r12,%xmm0
    9b75:	0f 28 d0             	movaps %xmm0,%xmm2
    9b78:	f3 0f 5c d4          	subss  %xmm4,%xmm2
    9b7c:	0f 2e ca             	ucomiss %xmm2,%xmm1
    9b7f:	0f 87 7a 02 00 00    	ja     9dff <_ZN10RelaxationIfLl10000EEC1Effllff+0x36f>
    9b85:	f3 0f 58 c4          	addss  %xmm4,%xmm0
    9b89:	0f 2e 05 58 7a 00 00 	ucomiss 0x7a58(%rip),%xmm0        # 115e8 <_ZTSN6GetOpt13_DefValOptionIdNS_8_OptionTIdEEEE+0x48>
    9b90:	0f 87 69 02 00 00    	ja     9dff <_ZN10RelaxationIfLl10000EEC1Effllff+0x36f>
    9b96:	f3 0f 10 7d c4       	movss  -0x3c(%rbp),%xmm7
    9b9b:	0f 2e 7d c8          	ucomiss -0x38(%rbp),%xmm7
    9b9f:	0f 87 ef 01 00 00    	ja     9d94 <_ZN10RelaxationIfLl10000EEC1Effllff+0x304>
    9ba5:	48 89 c2             	mov    %rax,%rdx
    9ba8:	83 e2 0f             	and    $0xf,%edx
    9bab:	48 c1 ea 02          	shr    $0x2,%rdx
    9baf:	48 f7 da             	neg    %rdx
    9bb2:	83 e2 03             	and    $0x3,%edx
    9bb5:	0f 84 35 01 00 00    	je     9cf0 <_ZN10RelaxationIfLl10000EEC1Effllff+0x260>
    9bbb:	48 83 fa 01          	cmp    $0x1,%rdx
    9bbf:	f3 0f 11 88 c0 e7 d6 	movss  %xmm1,0x17d6e7c0(%rax)
    9bc6:	17 
    9bc7:	f3 0f 11 08          	movss  %xmm1,(%rax)
    9bcb:	0f 84 57 01 00 00    	je     9d28 <_ZN10RelaxationIfLl10000EEC1Effllff+0x298>
    9bd1:	48 83 fa 02          	cmp    $0x2,%rdx
    9bd5:	c7 80 c4 e7 d6 17 00 	movl   $0x0,0x17d6e7c4(%rax)
    9bdc:	00 00 00 
    9bdf:	c7 40 04 00 00 00 00 	movl   $0x0,0x4(%rax)
    9be6:	0f 84 24 01 00 00    	je     9d10 <_ZN10RelaxationIfLl10000EEC1Effllff+0x280>
    9bec:	c7 80 c8 e7 d6 17 00 	movl   $0x0,0x17d6e7c8(%rax)
    9bf3:	00 00 00 
    9bf6:	c7 40 08 00 00 00 00 	movl   $0x0,0x8(%rax)
    9bfd:	41 ba 0d 27 00 00    	mov    $0x270d,%r10d
    9c03:	41 b9 03 00 00 00    	mov    $0x3,%r9d
    9c09:	41 bb 10 27 00 00    	mov    $0x2710,%r11d
    9c0f:	41 bc 0c 27 00 00    	mov    $0x270c,%r12d
    9c15:	be c3 09 00 00       	mov    $0x9c3,%esi
    9c1a:	49 29 d3             	sub    %rdx,%r11
    9c1d:	48 8d 14 95 c0 e7 d6 	lea    0x17d6e7c0(,%rdx,4),%rdx
    9c24:	17 
    9c25:	66 0f ef c0          	pxor   %xmm0,%xmm0
    9c29:	31 c9                	xor    %ecx,%ecx
    9c2b:	4c 8d 04 10          	lea    (%rax,%rdx,1),%r8
    9c2f:	48 8d bc 10 40 18 29 	lea    -0x17d6e7c0(%rax,%rdx,1),%rdi
    9c36:	e8 
    9c37:	31 d2                	xor    %edx,%edx
    9c39:	0f 1f 80 00 00 00 00 	nopl   0x0(%rax)
    9c40:	48 83 c1 01          	add    $0x1,%rcx
    9c44:	41 0f 29 04 10       	movaps %xmm0,(%r8,%rdx,1)
    9c49:	0f 11 04 17          	movups %xmm0,(%rdi,%rdx,1)
    9c4d:	48 83 c2 10          	add    $0x10,%rdx
    9c51:	48 39 f1             	cmp    %rsi,%rcx
    9c54:	72 ea                	jb     9c40 <_ZN10RelaxationIfLl10000EEC1Effllff+0x1b0>
    9c56:	4d 29 e2             	sub    %r12,%r10
    9c59:	4d 39 e3             	cmp    %r12,%r11
    9c5c:	4b 8d 14 0c          	lea    (%r12,%r9,1),%rdx
    9c60:	74 50                	je     9cb2 <_ZN10RelaxationIfLl10000EEC1Effllff+0x222>
    9c62:	48 8d 0c 90          	lea    (%rax,%rdx,4),%rcx
    9c66:	49 83 fa 01          	cmp    $0x1,%r10
    9c6a:	c7 81 c0 e7 d6 17 00 	movl   $0x0,0x17d6e7c0(%rcx)
    9c71:	00 00 00 
    9c74:	c7 01 00 00 00 00    	movl   $0x0,(%rcx)
    9c7a:	48 8d 4a 01          	lea    0x1(%rdx),%rcx
    9c7e:	74 32                	je     9cb2 <_ZN10RelaxationIfLl10000EEC1Effllff+0x222>
    9c80:	48 8d 0c 88          	lea    (%rax,%rcx,4),%rcx
    9c84:	48 83 c2 02          	add    $0x2,%rdx
    9c88:	49 83 fa 02          	cmp    $0x2,%r10
    9c8c:	c7 81 c0 e7 d6 17 00 	movl   $0x0,0x17d6e7c0(%rcx)
    9c93:	00 00 00 
    9c96:	c7 01 00 00 00 00    	movl   $0x0,(%rcx)
    9c9c:	74 14                	je     9cb2 <_ZN10RelaxationIfLl10000EEC1Effllff+0x222>
    9c9e:	48 8d 04 90          	lea    (%rax,%rdx,4),%rax
    9ca2:	c7 80 c0 e7 d6 17 00 	movl   $0x0,0x17d6e7c0(%rax)
    9ca9:	00 00 00 
    9cac:	c7 00 00 00 00 00    	movl   $0x0,(%rax)
    9cb2:	48 8d 75 d0          	lea    -0x30(%rbp),%rsi
    9cb6:	48 8d 3d 33 c2 ff ff 	lea    -0x3dcd(%rip),%rdi        # 5ef0 <_ZN10RelaxationIfLl10000EEC2Effllff._omp_fn.6>
    9cbd:	31 c9                	xor    %ecx,%ecx
    9cbf:	31 d2                	xor    %edx,%edx
    9cc1:	48 89 5d d0          	mov    %rbx,-0x30(%rbp)
    9cc5:	e8 06 96 ff ff       	callq  32d0 <GOMP_parallel@plt>
    9cca:	48 8b 45 d8          	mov    -0x28(%rbp),%rax
    9cce:	64 48 33 04 25 28 00 	xor    %fs:0x28,%rax
    9cd5:	00 00 
    9cd7:	0f 85 e9 00 00 00    	jne    9dc6 <_ZN10RelaxationIfLl10000EEC1Effllff+0x336>
    9cdd:	48 83 c4 28          	add    $0x28,%rsp
    9ce1:	5b                   	pop    %rbx
    9ce2:	41 5c                	pop    %r12
    9ce4:	41 5d                	pop    %r13
    9ce6:	5d                   	pop    %rbp
    9ce7:	c3                   	retq   
    9ce8:	0f 1f 84 00 00 00 00 	nopl   0x0(%rax,%rax,1)
    9cef:	00 
    9cf0:	41 bc 10 27 00 00    	mov    $0x2710,%r12d
    9cf6:	be c4 09 00 00       	mov    $0x9c4,%esi
    9cfb:	41 bb 10 27 00 00    	mov    $0x2710,%r11d
    9d01:	41 ba 10 27 00 00    	mov    $0x2710,%r10d
    9d07:	45 31 c9             	xor    %r9d,%r9d
    9d0a:	e9 0e ff ff ff       	jmpq   9c1d <_ZN10RelaxationIfLl10000EEC1Effllff+0x18d>
    9d0f:	90                   	nop
    9d10:	41 ba 0e 27 00 00    	mov    $0x270e,%r10d
    9d16:	41 b9 02 00 00 00    	mov    $0x2,%r9d
    9d1c:	e9 e8 fe ff ff       	jmpq   9c09 <_ZN10RelaxationIfLl10000EEC1Effllff+0x179>
    9d21:	0f 1f 80 00 00 00 00 	nopl   0x0(%rax)
    9d28:	41 ba 0f 27 00 00    	mov    $0x270f,%r10d
    9d2e:	41 b9 01 00 00 00    	mov    $0x1,%r9d
    9d34:	e9 d0 fe ff ff       	jmpq   9c09 <_ZN10RelaxationIfLl10000EEC1Effllff+0x179>
    9d39:	bf 10 00 00 00       	mov    $0x10,%edi
    9d3e:	e8 fd 92 ff ff       	callq  3040 <__cxa_allocate_exception@plt>
    9d43:	48 8d 35 26 75 00 00 	lea    0x7526(%rip),%rsi        # 11270 <_fini+0x11c>
    9d4a:	48 89 c7             	mov    %rax,%rdi
    9d4d:	49 89 c5             	mov    %rax,%r13
    9d50:	e8 4b 95 ff ff       	callq  32a0 <_ZNSt11logic_errorC1EPKc@plt>
    9d55:	48 8b 15 74 a2 20 00 	mov    0x20a274(%rip),%rdx        # 213fd0 <_DYNAMIC+0x238>
    9d5c:	48 8d 35 6d a9 20 00 	lea    0x20a96d(%rip),%rsi        # 2146d0 <_ZTISt11logic_error@@GLIBCXX_3.4>
    9d63:	4c 89 ef             	mov    %r13,%rdi
    9d66:	e8 25 96 ff ff       	callq  3390 <__cxa_throw@plt>
    9d6b:	48 89 c7             	mov    %rax,%rdi
    9d6e:	eb 14                	jmp    9d84 <_ZN10RelaxationIfLl10000EEC1Effllff+0x2f4>
    9d70:	48 89 c3             	mov    %rax,%rbx
    9d73:	49 89 d4             	mov    %rdx,%r12
    9d76:	4c 89 ef             	mov    %r13,%rdi
    9d79:	e8 32 93 ff ff       	callq  30b0 <__cxa_free_exception@plt>
    9d7e:	48 89 df             	mov    %rbx,%rdi
    9d81:	4c 89 e2             	mov    %r12,%rdx
    9d84:	48 83 fa ff          	cmp    $0xffffffffffffffff,%rdx
    9d88:	74 05                	je     9d8f <_ZN10RelaxationIfLl10000EEC1Effllff+0x2ff>
    9d8a:	e8 21 96 ff ff       	callq  33b0 <_Unwind_Resume@plt>
    9d8f:	e8 ac 94 ff ff       	callq  3240 <__cxa_call_unexpected@plt>
    9d94:	bf 10 00 00 00       	mov    $0x10,%edi
    9d99:	e8 a2 92 ff ff       	callq  3040 <__cxa_allocate_exception@plt>
    9d9e:	48 8d 35 93 75 00 00 	lea    0x7593(%rip),%rsi        # 11338 <_fini+0x1e4>
    9da5:	48 89 c7             	mov    %rax,%rdi
    9da8:	49 89 c5             	mov    %rax,%r13
    9dab:	e8 f0 94 ff ff       	callq  32a0 <_ZNSt11logic_errorC1EPKc@plt>
    9db0:	48 8b 15 19 a2 20 00 	mov    0x20a219(%rip),%rdx        # 213fd0 <_DYNAMIC+0x238>
    9db7:	48 8d 35 12 a9 20 00 	lea    0x20a912(%rip),%rsi        # 2146d0 <_ZTISt11logic_error@@GLIBCXX_3.4>
    9dbe:	4c 89 ef             	mov    %r13,%rdi
    9dc1:	e8 ca 95 ff ff       	callq  3390 <__cxa_throw@plt>
    9dc6:	e8 f5 93 ff ff       	callq  31c0 <__stack_chk_fail@plt>
    9dcb:	eb a3                	jmp    9d70 <_ZN10RelaxationIfLl10000EEC1Effllff+0x2e0>
    9dcd:	bf 10 00 00 00       	mov    $0x10,%edi
    9dd2:	e8 69 92 ff ff       	callq  3040 <__cxa_allocate_exception@plt>
    9dd7:	48 8d 35 6a 74 00 00 	lea    0x746a(%rip),%rsi        # 11248 <_fini+0xf4>
    9dde:	48 89 c7             	mov    %rax,%rdi
    9de1:	49 89 c5             	mov    %rax,%r13
    9de4:	e8 b7 94 ff ff       	callq  32a0 <_ZNSt11logic_errorC1EPKc@plt>
    9de9:	48 8b 15 e0 a1 20 00 	mov    0x20a1e0(%rip),%rdx        # 213fd0 <_DYNAMIC+0x238>
    9df0:	48 8d 35 d9 a8 20 00 	lea    0x20a8d9(%rip),%rsi        # 2146d0 <_ZTISt11logic_error@@GLIBCXX_3.4>
    9df7:	4c 89 ef             	mov    %r13,%rdi
    9dfa:	e8 91 95 ff ff       	callq  3390 <__cxa_throw@plt>
    9dff:	bf 10 00 00 00       	mov    $0x10,%edi
    9e04:	e8 37 92 ff ff       	callq  3040 <__cxa_allocate_exception@plt>
    9e09:	48 8d 35 c0 74 00 00 	lea    0x74c0(%rip),%rsi        # 112d0 <_fini+0x17c>
    9e10:	48 89 c7             	mov    %rax,%rdi
    9e13:	49 89 c5             	mov    %rax,%r13
    9e16:	e8 85 94 ff ff       	callq  32a0 <_ZNSt11logic_errorC1EPKc@plt>
    9e1b:	48 8b 15 ae a1 20 00 	mov    0x20a1ae(%rip),%rdx        # 213fd0 <_DYNAMIC+0x238>
    9e22:	48 8d 35 a7 a8 20 00 	lea    0x20a8a7(%rip),%rsi        # 2146d0 <_ZTISt11logic_error@@GLIBCXX_3.4>
    9e29:	4c 89 ef             	mov    %r13,%rdi
    9e2c:	e8 5f 95 ff ff       	callq  3390 <__cxa_throw@plt>
    9e31:	e9 3a ff ff ff       	jmpq   9d70 <_ZN10RelaxationIfLl10000EEC1Effllff+0x2e0>
    9e36:	e9 35 ff ff ff       	jmpq   9d70 <_ZN10RelaxationIfLl10000EEC1Effllff+0x2e0>
    9e3b:	0f 1f 44 00 00       	nopl   0x0(%rax,%rax,1)

0000000000009e40 <_Z9benchmarkIfLl10000EEmi>:
    9e40:	55                   	push   %rbp
    9e41:	48 89 e5             	mov    %rsp,%rbp
    9e44:	41 57                	push   %r15
    9e46:	41 56                	push   %r14
    9e48:	41 55                	push   %r13
    9e4a:	41 54                	push   %r12
    9e4c:	53                   	push   %rbx
    9e4d:	48 81 ec 88 10 00 00 	sub    $0x1088,%rsp
    9e54:	48 83 0c 24 00       	orq    $0x0,(%rsp)
    9e59:	48 81 c4 20 10 00 00 	add    $0x1020,%rsp
    9e60:	64 48 8b 04 25 28 00 	mov    %fs:0x28,%rax
    9e67:	00 00 
    9e69:	48 89 45 c8          	mov    %rax,-0x38(%rbp)
    9e6d:	31 c0                	xor    %eax,%eax
    9e6f:	e8 5c 93 ff ff       	callq  31d0 <omp_set_num_threads@plt>
    9e74:	e8 e7 94 ff ff       	callq  3360 <omp_get_max_threads@plt>
    9e79:	48 8d 35 e3 72 00 00 	lea    0x72e3(%rip),%rsi        # 11163 <_fini+0xf>
    9e80:	48 8d 3d d9 a5 20 00 	lea    0x20a5d9(%rip),%rdi        # 214460 <_ZSt4cout@@GLIBCXX_3.4>
    9e87:	ba 12 00 00 00       	mov    $0x12,%edx
    9e8c:	89 c3                	mov    %eax,%ebx
    9e8e:	e8 5d 93 ff ff       	callq  31f0 <_ZSt16__ostream_insertIcSt11char_traitsIcEERSt13basic_ostreamIT_T0_ES6_PKS3_l@plt>
    9e93:	48 8d 3d c6 a5 20 00 	lea    0x20a5c6(%rip),%rdi        # 214460 <_ZSt4cout@@GLIBCXX_3.4>
    9e9a:	89 de                	mov    %ebx,%esi
    9e9c:	e8 ff 94 ff ff       	callq  33a0 <_ZNSolsEi@plt>
    9ea1:	48 8d 35 ce 72 00 00 	lea    0x72ce(%rip),%rsi        # 11176 <_fini+0x22>
    9ea8:	49 89 c4             	mov    %rax,%r12
    9eab:	ba 09 00 00 00       	mov    $0x9,%edx
    9eb0:	48 89 c7             	mov    %rax,%rdi
    9eb3:	e8 38 93 ff ff       	callq  31f0 <_ZSt16__ostream_insertIcSt11char_traitsIcEERSt13basic_ostreamIT_T0_ES6_PKS3_l@plt>
    9eb8:	49 8b 04 24          	mov    (%r12),%rax
    9ebc:	48 8b 40 e8          	mov    -0x18(%rax),%rax
    9ec0:	49 8b 9c 04 f0 00 00 	mov    0xf0(%r12,%rax,1),%rbx
    9ec7:	00 
    9ec8:	48 85 db             	test   %rbx,%rbx
    9ecb:	0f 84 f0 03 00 00    	je     a2c1 <_Z9benchmarkIfLl10000EEmi+0x481>
    9ed1:	80 7b 38 00          	cmpb   $0x0,0x38(%rbx)
    9ed5:	0f 84 b5 03 00 00    	je     a290 <_Z9benchmarkIfLl10000EEmi+0x450>
    9edb:	0f be 73 43          	movsbl 0x43(%rbx),%esi
    9edf:	4c 89 e7             	mov    %r12,%rdi
    9ee2:	e8 79 90 ff ff       	callq  2f60 <_ZNSo3putEc@plt>
    9ee7:	48 89 c7             	mov    %rax,%rdi
    9eea:	e8 a1 91 ff ff       	callq  3090 <_ZNSo5flushEv@plt>
    9eef:	48 8d 35 8a 72 00 00 	lea    0x728a(%rip),%rsi        # 11180 <_fini+0x2c>
    9ef6:	48 8d 3d 63 a5 20 00 	lea    0x20a563(%rip),%rdi        # 214460 <_ZSt4cout@@GLIBCXX_3.4>
    9efd:	ba 0f 00 00 00       	mov    $0xf,%edx
    9f02:	44 8b 25 4b a9 20 00 	mov    0x20a94b(%rip),%r12d        # 214854 <steps>
    9f09:	e8 e2 92 ff ff       	callq  31f0 <_ZSt16__ostream_insertIcSt11char_traitsIcEERSt13basic_ostreamIT_T0_ES6_PKS3_l@plt>
    9f0e:	48 8d 3d 4b a5 20 00 	lea    0x20a54b(%rip),%rdi        # 214460 <_ZSt4cout@@GLIBCXX_3.4>
    9f15:	be 10 27 00 00       	mov    $0x2710,%esi
    9f1a:	e8 31 92 ff ff       	callq  3150 <_ZNSo9_M_insertIlEERSoT_@plt>
    9f1f:	48 8d 35 49 72 00 00 	lea    0x7249(%rip),%rsi        # 1116f <_fini+0x1b>
    9f26:	48 89 c3             	mov    %rax,%rbx
    9f29:	ba 06 00 00 00       	mov    $0x6,%edx
    9f2e:	48 89 c7             	mov    %rax,%rdi
    9f31:	e8 ba 92 ff ff       	callq  31f0 <_ZSt16__ostream_insertIcSt11char_traitsIcEERSt13basic_ostreamIT_T0_ES6_PKS3_l@plt>
    9f36:	44 89 e6             	mov    %r12d,%esi
    9f39:	48 89 df             	mov    %rbx,%rdi
    9f3c:	e8 5f 94 ff ff       	callq  33a0 <_ZNSolsEi@plt>
    9f41:	48 8d 35 48 72 00 00 	lea    0x7248(%rip),%rsi        # 11190 <_fini+0x3c>
    9f48:	48 89 c3             	mov    %rax,%rbx
    9f4b:	ba 0f 00 00 00       	mov    $0xf,%edx
    9f50:	48 89 c7             	mov    %rax,%rdi
    9f53:	e8 98 92 ff ff       	callq  31f0 <_ZSt16__ostream_insertIcSt11char_traitsIcEERSt13basic_ostreamIT_T0_ES6_PKS3_l@plt>
    9f58:	48 89 df             	mov    %rbx,%rdi
    9f5b:	be 01 00 00 00       	mov    $0x1,%esi
    9f60:	e8 3b 94 ff ff       	callq  33a0 <_ZNSolsEi@plt>
    9f65:	48 8d 35 34 72 00 00 	lea    0x7234(%rip),%rsi        # 111a0 <_fini+0x4c>
    9f6c:	49 89 c4             	mov    %rax,%r12
    9f6f:	ba 06 00 00 00       	mov    $0x6,%edx
    9f74:	48 89 c7             	mov    %rax,%rdi
    9f77:	e8 74 92 ff ff       	callq  31f0 <_ZSt16__ostream_insertIcSt11char_traitsIcEERSt13basic_ostreamIT_T0_ES6_PKS3_l@plt>
    9f7c:	49 8b 04 24          	mov    (%r12),%rax
    9f80:	48 8b 40 e8          	mov    -0x18(%rax),%rax
    9f84:	49 8b 9c 04 f0 00 00 	mov    0xf0(%r12,%rax,1),%rbx
    9f8b:	00 
    9f8c:	48 85 db             	test   %rbx,%rbx
    9f8f:	0f 84 2c 03 00 00    	je     a2c1 <_Z9benchmarkIfLl10000EEmi+0x481>
    9f95:	80 7b 38 00          	cmpb   $0x0,0x38(%rbx)
    9f99:	0f 84 ba 02 00 00    	je     a259 <_Z9benchmarkIfLl10000EEmi+0x419>
    9f9f:	0f be 73 43          	movsbl 0x43(%rbx),%esi
    9fa3:	4c 89 e7             	mov    %r12,%rdi
    9fa6:	e8 b5 8f ff ff       	callq  2f60 <_ZNSo3putEc@plt>
    9fab:	48 89 c7             	mov    %rax,%rdi
    9fae:	e8 dd 90 ff ff       	callq  3090 <_ZNSo5flushEv@plt>
    9fb3:	0f 31                	rdtsc  
    9fb5:	66 0f ef d2          	pxor   %xmm2,%xmm2
    9fb9:	48 c1 e2 20          	shl    $0x20,%rdx
    9fbd:	89 c0                	mov    %eax,%eax
    9fbf:	4c 8d 65 90          	lea    -0x70(%rbp),%r12
    9fc3:	be 88 13 00 00       	mov    $0x1388,%esi
    9fc8:	66 0f ef db          	pxor   %xmm3,%xmm3
    9fcc:	48 09 c2             	or     %rax,%rdx
    9fcf:	f3 0f 2a 15 79 a8 20 	cvtsi2ssl 0x20a879(%rip),%xmm2        # 214850 <radius>
    9fd6:	00 
    9fd7:	48 89 95 78 ff ff ff 	mov    %rdx,-0x88(%rbp)
    9fde:	f3 0f 10 0d f2 75 00 	movss  0x75f2(%rip),%xmm1        # 115d8 <_ZTSN6GetOpt13_DefValOptionIdNS_8_OptionTIdEEEE+0x38>
    9fe5:	00 
    9fe6:	ba 88 13 00 00       	mov    $0x1388,%edx
    9feb:	f3 0f 10 05 e9 75 00 	movss  0x75e9(%rip),%xmm0        # 115dc <_ZTSN6GetOpt13_DefValOptionIdNS_8_OptionTIdEEEE+0x3c>
    9ff2:	00 
    9ff3:	4c 89 e7             	mov    %r12,%rdi
    9ff6:	f2 0f 5a 1d 4a a8 20 	cvtsd2ss 0x20a84a(%rip),%xmm3        # 214848 <heat>
    9ffd:	00 
    9ffe:	e8 8d fa ff ff       	callq  9a90 <_ZN10RelaxationIfLl10000EEC1Effllff>
    a003:	8b 05 4b a8 20 00    	mov    0x20a84b(%rip),%eax        # 214854 <steps>
    a009:	85 c0                	test   %eax,%eax
    a00b:	0f 8e ba 02 00 00    	jle    a2cb <_Z9benchmarkIfLl10000EEmi+0x48b>
    a011:	4c 8d 6d 80          	lea    -0x80(%rbp),%r13
    a015:	bb 01 00 00 00       	mov    $0x1,%ebx
    a01a:	66 0f 1f 44 00 00    	nopw   0x0(%rax,%rax,1)
    a020:	bf 00 84 d7 17       	mov    $0x17d78400,%edi
    a025:	e8 46 91 ff ff       	callq  3170 <_Znwm@plt>
    a02a:	48 8b 75 b8          	mov    -0x48(%rbp),%rsi
    a02e:	48 8d 48 10          	lea    0x10(%rax),%rcx
    a032:	48 8d 96 c0 e7 d6 17 	lea    0x17d6e7c0(%rsi),%rdx
    a039:	48 39 ca             	cmp    %rcx,%rdx
    a03c:	73 10                	jae    a04e <_Z9benchmarkIfLl10000EEmi+0x20e>
    a03e:	48 8d 8e d0 e7 d6 17 	lea    0x17d6e7d0(%rsi),%rcx
    a045:	48 39 c8             	cmp    %rcx,%rax
    a048:	0f 82 b2 01 00 00    	jb     a200 <_Z9benchmarkIfLl10000EEmi+0x3c0>
    a04e:	83 e2 0f             	and    $0xf,%edx
    a051:	48 c1 ea 02          	shr    $0x2,%rdx
    a055:	48 f7 da             	neg    %rdx
    a058:	83 e2 03             	and    $0x3,%edx
    a05b:	0f 84 7f 01 00 00    	je     a1e0 <_Z9benchmarkIfLl10000EEmi+0x3a0>
    a061:	48 83 fa 01          	cmp    $0x1,%rdx
    a065:	c7 86 c0 e7 d6 17 00 	movl   $0x0,0x17d6e7c0(%rsi)
    a06c:	00 00 00 
    a06f:	c7 00 00 00 00 00    	movl   $0x0,(%rax)
    a075:	0f 84 cd 01 00 00    	je     a248 <_Z9benchmarkIfLl10000EEmi+0x408>
    a07b:	48 83 fa 02          	cmp    $0x2,%rdx
    a07f:	c7 86 c4 e7 d6 17 00 	movl   $0x0,0x17d6e7c4(%rsi)
    a086:	00 00 00 
    a089:	c7 40 04 00 00 00 00 	movl   $0x0,0x4(%rax)
    a090:	0f 84 9a 01 00 00    	je     a230 <_Z9benchmarkIfLl10000EEmi+0x3f0>
    a096:	c7 86 c8 e7 d6 17 00 	movl   $0x0,0x17d6e7c8(%rsi)
    a09d:	00 00 00 
    a0a0:	41 bb 0d 27 00 00    	mov    $0x270d,%r11d
    a0a6:	c7 40 08 00 00 00 00 	movl   $0x0,0x8(%rax)
    a0ad:	41 ba 03 00 00 00    	mov    $0x3,%r10d
    a0b3:	41 be 10 27 00 00    	mov    $0x2710,%r14d
    a0b9:	bf c3 09 00 00       	mov    $0x9c3,%edi
    a0be:	41 bf 0c 27 00 00    	mov    $0x270c,%r15d
    a0c4:	49 29 d6             	sub    %rdx,%r14
    a0c7:	48 8d 14 95 c0 e7 d6 	lea    0x17d6e7c0(,%rdx,4),%rdx
    a0ce:	17 
    a0cf:	31 c9                	xor    %ecx,%ecx
    a0d1:	4c 8d 0c 16          	lea    (%rsi,%rdx,1),%r9
    a0d5:	4c 8d 84 10 40 18 29 	lea    -0x17d6e7c0(%rax,%rdx,1),%r8
    a0dc:	e8 
    a0dd:	31 d2                	xor    %edx,%edx
    a0df:	90                   	nop
    a0e0:	66 0f ef e4          	pxor   %xmm4,%xmm4
    a0e4:	48 83 c1 01          	add    $0x1,%rcx
    a0e8:	41 0f 29 24 11       	movaps %xmm4,(%r9,%rdx,1)
    a0ed:	41 0f 11 24 10       	movups %xmm4,(%r8,%rdx,1)
    a0f2:	48 83 c2 10          	add    $0x10,%rdx
    a0f6:	48 39 f9             	cmp    %rdi,%rcx
    a0f9:	72 e5                	jb     a0e0 <_Z9benchmarkIfLl10000EEmi+0x2a0>
    a0fb:	4d 01 fa             	add    %r15,%r10
    a0fe:	4d 29 fb             	sub    %r15,%r11
    a101:	4d 39 f7             	cmp    %r14,%r15
    a104:	74 4e                	je     a154 <_Z9benchmarkIfLl10000EEmi+0x314>
    a106:	49 83 fb 01          	cmp    $0x1,%r11
    a10a:	42 c7 84 96 c0 e7 d6 	movl   $0x0,0x17d6e7c0(%rsi,%r10,4)
    a111:	17 00 00 00 00 
    a116:	49 8d 52 01          	lea    0x1(%r10),%rdx
    a11a:	42 c7 04 90 00 00 00 	movl   $0x0,(%rax,%r10,4)
    a121:	00 
    a122:	74 30                	je     a154 <_Z9benchmarkIfLl10000EEmi+0x314>
    a124:	49 83 c2 02          	add    $0x2,%r10
    a128:	49 83 fb 02          	cmp    $0x2,%r11
    a12c:	c7 84 96 c0 e7 d6 17 	movl   $0x0,0x17d6e7c0(%rsi,%rdx,4)
    a133:	00 00 00 00 
    a137:	c7 04 90 00 00 00 00 	movl   $0x0,(%rax,%rdx,4)
    a13e:	74 14                	je     a154 <_Z9benchmarkIfLl10000EEmi+0x314>
    a140:	42 c7 84 96 c0 e7 d6 	movl   $0x0,0x17d6e7c0(%rsi,%r10,4)
    a147:	17 00 00 00 00 
    a14c:	42 c7 04 90 00 00 00 	movl   $0x0,(%rax,%r10,4)
    a153:	00 
    a154:	48 8d 3d e5 be ff ff 	lea    -0x411b(%rip),%rdi        # 6040 <_ZN10RelaxationIfLl10000EE7iterateEv._omp_fn.7>
    a15b:	31 c9                	xor    %ecx,%ecx
    a15d:	31 d2                	xor    %edx,%edx
    a15f:	4c 89 ee             	mov    %r13,%rsi
    a162:	4c 89 65 80          	mov    %r12,-0x80(%rbp)
    a166:	48 89 45 88          	mov    %rax,-0x78(%rbp)
    a16a:	e8 61 91 ff ff       	callq  32d0 <GOMP_parallel@plt>
    a16f:	48 8b 7d b8          	mov    -0x48(%rbp),%rdi
    a173:	4c 8b 75 88          	mov    -0x78(%rbp),%r14
    a177:	48 85 ff             	test   %rdi,%rdi
    a17a:	74 05                	je     a181 <_Z9benchmarkIfLl10000EEmi+0x341>
    a17c:	e8 cf 90 ff ff       	callq  3250 <_ZdaPv@plt>
    a181:	83 c3 01             	add    $0x1,%ebx
    a184:	39 1d ca a6 20 00    	cmp    %ebx,0x20a6ca(%rip)        # 214854 <steps>
    a18a:	4c 89 75 b8          	mov    %r14,-0x48(%rbp)
    a18e:	0f 8d 8c fe ff ff    	jge    a020 <_Z9benchmarkIfLl10000EEmi+0x1e0>
    a194:	4c 89 f7             	mov    %r14,%rdi
    a197:	0f 31                	rdtsc  
    a199:	48 89 d3             	mov    %rdx,%rbx
    a19c:	89 c0                	mov    %eax,%eax
    a19e:	48 c1 e3 20          	shl    $0x20,%rbx
    a1a2:	48 09 c3             	or     %rax,%rbx
    a1a5:	48 2b 9d 78 ff ff ff 	sub    -0x88(%rbp),%rbx
    a1ac:	48 85 ff             	test   %rdi,%rdi
    a1af:	74 05                	je     a1b6 <_Z9benchmarkIfLl10000EEmi+0x376>
    a1b1:	e8 9a 90 ff ff       	callq  3250 <_ZdaPv@plt>
    a1b6:	48 89 d8             	mov    %rbx,%rax
    a1b9:	48 8b 5d c8          	mov    -0x38(%rbp),%rbx
    a1bd:	64 48 33 1c 25 28 00 	xor    %fs:0x28,%rbx
    a1c4:	00 00 
    a1c6:	0f 85 18 01 00 00    	jne    a2e4 <_Z9benchmarkIfLl10000EEmi+0x4a4>
    a1cc:	48 83 c4 68          	add    $0x68,%rsp
    a1d0:	5b                   	pop    %rbx
    a1d1:	41 5c                	pop    %r12
    a1d3:	41 5d                	pop    %r13
    a1d5:	41 5e                	pop    %r14
    a1d7:	41 5f                	pop    %r15
    a1d9:	5d                   	pop    %rbp
    a1da:	c3                   	retq   
    a1db:	0f 1f 44 00 00       	nopl   0x0(%rax,%rax,1)
    a1e0:	bf c4 09 00 00       	mov    $0x9c4,%edi
    a1e5:	41 bf 10 27 00 00    	mov    $0x2710,%r15d
    a1eb:	41 bb 10 27 00 00    	mov    $0x2710,%r11d
    a1f1:	45 31 d2             	xor    %r10d,%r10d
    a1f4:	41 be 10 27 00 00    	mov    $0x2710,%r14d
    a1fa:	e9 c8 fe ff ff       	jmpq   a0c7 <_Z9benchmarkIfLl10000EEmi+0x287>
    a1ff:	90                   	nop
    a200:	31 d2                	xor    %edx,%edx
    a202:	66 0f 1f 44 00 00    	nopw   0x0(%rax,%rax,1)
    a208:	c7 84 96 c0 e7 d6 17 	movl   $0x0,0x17d6e7c0(%rsi,%rdx,4)
    a20f:	00 00 00 00 
    a213:	c7 04 90 00 00 00 00 	movl   $0x0,(%rax,%rdx,4)
    a21a:	48 83 c2 01          	add    $0x1,%rdx
    a21e:	48 81 fa 10 27 00 00 	cmp    $0x2710,%rdx
    a225:	75 e1                	jne    a208 <_Z9benchmarkIfLl10000EEmi+0x3c8>
    a227:	e9 28 ff ff ff       	jmpq   a154 <_Z9benchmarkIfLl10000EEmi+0x314>
    a22c:	0f 1f 40 00          	nopl   0x0(%rax)
    a230:	41 bb 0e 27 00 00    	mov    $0x270e,%r11d
    a236:	41 ba 02 00 00 00    	mov    $0x2,%r10d
    a23c:	e9 72 fe ff ff       	jmpq   a0b3 <_Z9benchmarkIfLl10000EEmi+0x273>
    a241:	0f 1f 80 00 00 00 00 	nopl   0x0(%rax)
    a248:	41 bb 0f 27 00 00    	mov    $0x270f,%r11d
    a24e:	41 ba 01 00 00 00    	mov    $0x1,%r10d
    a254:	e9 5a fe ff ff       	jmpq   a0b3 <_Z9benchmarkIfLl10000EEmi+0x273>
    a259:	48 89 df             	mov    %rbx,%rdi
    a25c:	e8 9f 8f ff ff       	callq  3200 <_ZNKSt5ctypeIcE13_M_widen_initEv@plt>
    a261:	48 8b 03             	mov    (%rbx),%rax
    a264:	48 8d 15 95 b2 ff ff 	lea    -0x4d6b(%rip),%rdx        # 5500 <_ZNKSt5ctypeIcE8do_widenEc>
    a26b:	be 0a 00 00 00       	mov    $0xa,%esi
    a270:	48 8b 40 30          	mov    0x30(%rax),%rax
    a274:	48 39 d0             	cmp    %rdx,%rax
    a277:	0f 84 26 fd ff ff    	je     9fa3 <_Z9benchmarkIfLl10000EEmi+0x163>
    a27d:	48 89 df             	mov    %rbx,%rdi
    a280:	ff d0                	callq  *%rax
    a282:	0f be f0             	movsbl %al,%esi
    a285:	e9 19 fd ff ff       	jmpq   9fa3 <_Z9benchmarkIfLl10000EEmi+0x163>
    a28a:	66 0f 1f 44 00 00    	nopw   0x0(%rax,%rax,1)
    a290:	48 89 df             	mov    %rbx,%rdi
    a293:	e8 68 8f ff ff       	callq  3200 <_ZNKSt5ctypeIcE13_M_widen_initEv@plt>
    a298:	48 8b 03             	mov    (%rbx),%rax
    a29b:	48 8d 15 5e b2 ff ff 	lea    -0x4da2(%rip),%rdx        # 5500 <_ZNKSt5ctypeIcE8do_widenEc>
    a2a2:	be 0a 00 00 00       	mov    $0xa,%esi
    a2a7:	48 8b 40 30          	mov    0x30(%rax),%rax
    a2ab:	48 39 d0             	cmp    %rdx,%rax
    a2ae:	0f 84 2b fc ff ff    	je     9edf <_Z9benchmarkIfLl10000EEmi+0x9f>
    a2b4:	48 89 df             	mov    %rbx,%rdi
    a2b7:	ff d0                	callq  *%rax
    a2b9:	0f be f0             	movsbl %al,%esi
    a2bc:	e9 1e fc ff ff       	jmpq   9edf <_Z9benchmarkIfLl10000EEmi+0x9f>
    a2c1:	e8 6a 8f ff ff       	callq  3230 <_ZSt16__throw_bad_castv@plt>
    a2c6:	48 89 c7             	mov    %rax,%rdi
    a2c9:	eb 09                	jmp    a2d4 <_Z9benchmarkIfLl10000EEmi+0x494>
    a2cb:	48 8b 7d b8          	mov    -0x48(%rbp),%rdi
    a2cf:	e9 c3 fe ff ff       	jmpq   a197 <_Z9benchmarkIfLl10000EEmi+0x357>
    a2d4:	48 83 fa ff          	cmp    $0xffffffffffffffff,%rdx
    a2d8:	74 0f                	je     a2e9 <_Z9benchmarkIfLl10000EEmi+0x4a9>
    a2da:	e8 d1 90 ff ff       	callq  33b0 <_Unwind_Resume@plt>
    a2df:	48 89 c3             	mov    %rax,%rbx
    a2e2:	eb 0a                	jmp    a2ee <_Z9benchmarkIfLl10000EEmi+0x4ae>
    a2e4:	e8 d7 8e ff ff       	callq  31c0 <__stack_chk_fail@plt>
    a2e9:	e8 52 8f ff ff       	callq  3240 <__cxa_call_unexpected@plt>
    a2ee:	48 8b 7d b8          	mov    -0x48(%rbp),%rdi
    a2f2:	48 85 ff             	test   %rdi,%rdi
    a2f5:	74 05                	je     a2fc <_Z9benchmarkIfLl10000EEmi+0x4bc>
    a2f7:	e8 54 8f ff ff       	callq  3250 <_ZdaPv@plt>
    a2fc:	48 89 df             	mov    %rbx,%rdi
    a2ff:	eb d9                	jmp    a2da <_Z9benchmarkIfLl10000EEmi+0x49a>
    a301:	66 2e 0f 1f 84 00 00 	nopw   %cs:0x0(%rax,%rax,1)
    a308:	00 00 00 
    a30b:	0f 1f 44 00 00       	nopl   0x0(%rax,%rax,1)

000000000000a310 <_ZN10RelaxationIdLl100EEC1Eddlldd>:
    a310:	55                   	push   %rbp
    a311:	48 89 e5             	mov    %rsp,%rbp
    a314:	41 55                	push   %r13
    a316:	41 54                	push   %r12
    a318:	53                   	push   %rbx
    a319:	48 81 ec 58 10 00 00 	sub    $0x1058,%rsp
    a320:	48 83 0c 24 00       	orq    $0x0,(%rsp)
    a325:	48 81 c4 20 10 00 00 	add    $0x1020,%rsp
    a32c:	64 48 8b 04 25 28 00 	mov    %fs:0x28,%rax
    a333:	00 00 
    a335:	48 89 45 d8          	mov    %rax,-0x28(%rbp)
    a339:	31 c0                	xor    %eax,%eax
    a33b:	f2 48 0f 2c c2       	cvttsd2si %xmm2,%rax
    a340:	48 89 fb             	mov    %rdi,%rbx
    a343:	f2 0f 11 03          	movsd  %xmm0,(%rbx)
    a347:	49 89 f5             	mov    %rsi,%r13
    a34a:	49 89 d4             	mov    %rdx,%r12
    a34d:	f2 0f 11 4f 08       	movsd  %xmm1,0x8(%rdi)
    a352:	48 89 73 10          	mov    %rsi,0x10(%rbx)
    a356:	48 89 53 18          	mov    %rdx,0x18(%rbx)
    a35a:	f2 0f 11 45 c0       	movsd  %xmm0,-0x40(%rbp)
    a35f:	f2 0f 11 5d b8       	movsd  %xmm3,-0x48(%rbp)
    a364:	f2 0f 11 55 c8       	movsd  %xmm2,-0x38(%rbp)
    a369:	48 89 47 20          	mov    %rax,0x20(%rdi)
    a36d:	f2 48 0f 2c c3       	cvttsd2si %xmm3,%rax
    a372:	48 89 47 28          	mov    %rax,0x28(%rdi)
    a376:	bf 80 38 01 00       	mov    $0x13880,%edi
    a37b:	e8 f0 8d ff ff       	callq  3170 <_Znwm@plt>
    a380:	f2 0f 10 05 70 72 00 	movsd  0x7270(%rip),%xmm0        # 115f8 <_ZTSN6GetOpt13_DefValOptionIdNS_8_OptionTIdEEEE+0x58>
    a387:	00 
    a388:	48 89 43 30          	mov    %rax,0x30(%rbx)
    a38c:	66 0f 2e 45 c8       	ucomisd -0x38(%rbp),%xmm0
    a391:	0f 87 db 01 00 00    	ja     a572 <_ZN10RelaxationIdLl100EEC1Eddlldd+0x262>
    a397:	49 8d 55 ff          	lea    -0x1(%r13),%rdx
    a39b:	48 83 fa 61          	cmp    $0x61,%rdx
    a39f:	0f 87 ff 01 00 00    	ja     a5a4 <_ZN10RelaxationIdLl100EEC1Eddlldd+0x294>
    a3a5:	49 8d 54 24 ff       	lea    -0x1(%r12),%rdx
    a3aa:	48 83 fa 61          	cmp    $0x61,%rdx
    a3ae:	0f 87 f0 01 00 00    	ja     a5a4 <_ZN10RelaxationIdLl100EEC1Eddlldd+0x294>
    a3b4:	66 0f ef c0          	pxor   %xmm0,%xmm0
    a3b8:	f2 0f 10 65 c8       	movsd  -0x38(%rbp),%xmm4
    a3bd:	66 0f ef c9          	pxor   %xmm1,%xmm1
    a3c1:	f2 49 0f 2a c5       	cvtsi2sd %r13,%xmm0
    a3c6:	66 0f 28 d0          	movapd %xmm0,%xmm2
    a3ca:	f2 0f 5c d4          	subsd  %xmm4,%xmm2
    a3ce:	66 0f 2e ca          	ucomisd %xmm2,%xmm1
    a3d2:	0f 87 68 01 00 00    	ja     a540 <_ZN10RelaxationIdLl100EEC1Eddlldd+0x230>
    a3d8:	f2 0f 58 c4          	addsd  %xmm4,%xmm0
    a3dc:	f2 0f 10 15 1c 72 00 	movsd  0x721c(%rip),%xmm2        # 11600 <_ZTSN6GetOpt13_DefValOptionIdNS_8_OptionTIdEEEE+0x60>
    a3e3:	00 
    a3e4:	66 0f 2e c2          	ucomisd %xmm2,%xmm0
    a3e8:	0f 87 52 01 00 00    	ja     a540 <_ZN10RelaxationIdLl100EEC1Eddlldd+0x230>
    a3ee:	66 0f ef c0          	pxor   %xmm0,%xmm0
    a3f2:	f2 49 0f 2a c4       	cvtsi2sd %r12,%xmm0
    a3f7:	66 0f 28 d8          	movapd %xmm0,%xmm3
    a3fb:	f2 0f 5c dc          	subsd  %xmm4,%xmm3
    a3ff:	66 0f 2e cb          	ucomisd %xmm3,%xmm1
    a403:	0f 87 37 01 00 00    	ja     a540 <_ZN10RelaxationIdLl100EEC1Eddlldd+0x230>
    a409:	f2 0f 58 c4          	addsd  %xmm4,%xmm0
    a40d:	66 0f 2e c2          	ucomisd %xmm2,%xmm0
    a411:	0f 87 29 01 00 00    	ja     a540 <_ZN10RelaxationIdLl100EEC1Eddlldd+0x230>
    a417:	f2 0f 10 7d b8       	movsd  -0x48(%rbp),%xmm7
    a41c:	66 0f 2e 7d c0       	ucomisd -0x40(%rbp),%xmm7
    a421:	0f 87 e7 00 00 00    	ja     a50e <_ZN10RelaxationIdLl100EEC1Eddlldd+0x1fe>
    a427:	48 89 c2             	mov    %rax,%rdx
    a42a:	48 c1 e2 3c          	shl    $0x3c,%rdx
    a42e:	48 c1 ea 3f          	shr    $0x3f,%rdx
    a432:	48 85 d2             	test   %rdx,%rdx
    a435:	0f 84 b5 00 00 00    	je     a4f0 <_ZN10RelaxationIdLl100EEC1Eddlldd+0x1e0>
    a43b:	f2 0f 11 88 60 35 01 	movsd  %xmm1,0x13560(%rax)
    a442:	00 
    a443:	41 ba 62 00 00 00    	mov    $0x62,%r10d
    a449:	be 31 00 00 00       	mov    $0x31,%esi
    a44e:	f2 0f 11 08          	movsd  %xmm1,(%rax)
    a452:	41 bb 63 00 00 00    	mov    $0x63,%r11d
    a458:	41 b9 01 00 00 00    	mov    $0x1,%r9d
    a45e:	48 81 c2 ac 26 00 00 	add    $0x26ac,%rdx
    a465:	66 0f ef c0          	pxor   %xmm0,%xmm0
    a469:	48 c1 e2 03          	shl    $0x3,%rdx
    a46d:	31 c9                	xor    %ecx,%ecx
    a46f:	4c 8d 04 10          	lea    (%rax,%rdx,1),%r8
    a473:	48 8d bc 10 a0 ca fe 	lea    -0x13560(%rax,%rdx,1),%rdi
    a47a:	ff 
    a47b:	31 d2                	xor    %edx,%edx
    a47d:	0f 1f 00             	nopl   (%rax)
    a480:	48 83 c1 01          	add    $0x1,%rcx
    a484:	41 0f 29 04 10       	movaps %xmm0,(%r8,%rdx,1)
    a489:	0f 11 04 17          	movups %xmm0,(%rdi,%rdx,1)
    a48d:	48 83 c2 10          	add    $0x10,%rdx
    a491:	48 39 ce             	cmp    %rcx,%rsi
    a494:	77 ea                	ja     a480 <_ZN10RelaxationIdLl100EEC1Eddlldd+0x170>
    a496:	4d 01 d1             	add    %r10,%r9
    a499:	4d 39 d3             	cmp    %r10,%r11
    a49c:	74 16                	je     a4b4 <_ZN10RelaxationIdLl100EEC1Eddlldd+0x1a4>
    a49e:	4a 8d 04 c8          	lea    (%rax,%r9,8),%rax
    a4a2:	48 c7 80 60 35 01 00 	movq   $0x0,0x13560(%rax)
    a4a9:	00 00 00 00 
    a4ad:	48 c7 00 00 00 00 00 	movq   $0x0,(%rax)
    a4b4:	48 8d 75 d0          	lea    -0x30(%rbp),%rsi
    a4b8:	48 8d 3d 71 bd ff ff 	lea    -0x428f(%rip),%rdi        # 6230 <_ZN10RelaxationIdLl100EEC2Eddlldd._omp_fn.8>
    a4bf:	31 c9                	xor    %ecx,%ecx
    a4c1:	31 d2                	xor    %edx,%edx
    a4c3:	48 89 5d d0          	mov    %rbx,-0x30(%rbp)
    a4c7:	e8 04 8e ff ff       	callq  32d0 <GOMP_parallel@plt>
    a4cc:	48 8b 45 d8          	mov    -0x28(%rbp),%rax
    a4d0:	64 48 33 04 25 28 00 	xor    %fs:0x28,%rax
    a4d7:	00 00 
    a4d9:	75 2e                	jne    a509 <_ZN10RelaxationIdLl100EEC1Eddlldd+0x1f9>
    a4db:	48 83 c4 38          	add    $0x38,%rsp
    a4df:	5b                   	pop    %rbx
    a4e0:	41 5c                	pop    %r12
    a4e2:	41 5d                	pop    %r13
    a4e4:	5d                   	pop    %rbp
    a4e5:	c3                   	retq   
    a4e6:	66 2e 0f 1f 84 00 00 	nopw   %cs:0x0(%rax,%rax,1)
    a4ed:	00 00 00 
    a4f0:	41 ba 64 00 00 00    	mov    $0x64,%r10d
    a4f6:	be 32 00 00 00       	mov    $0x32,%esi
    a4fb:	41 bb 64 00 00 00    	mov    $0x64,%r11d
    a501:	45 31 c9             	xor    %r9d,%r9d
    a504:	e9 55 ff ff ff       	jmpq   a45e <_ZN10RelaxationIdLl100EEC1Eddlldd+0x14e>
    a509:	e8 b2 8c ff ff       	callq  31c0 <__stack_chk_fail@plt>
    a50e:	bf 10 00 00 00       	mov    $0x10,%edi
    a513:	e8 28 8b ff ff       	callq  3040 <__cxa_allocate_exception@plt>
    a518:	48 8d 35 19 6e 00 00 	lea    0x6e19(%rip),%rsi        # 11338 <_fini+0x1e4>
    a51f:	48 89 c7             	mov    %rax,%rdi
    a522:	49 89 c5             	mov    %rax,%r13
    a525:	e8 76 8d ff ff       	callq  32a0 <_ZNSt11logic_errorC1EPKc@plt>
    a52a:	48 8b 15 9f 9a 20 00 	mov    0x209a9f(%rip),%rdx        # 213fd0 <_DYNAMIC+0x238>
    a531:	48 8d 35 98 a1 20 00 	lea    0x20a198(%rip),%rsi        # 2146d0 <_ZTISt11logic_error@@GLIBCXX_3.4>
    a538:	4c 89 ef             	mov    %r13,%rdi
    a53b:	e8 50 8e ff ff       	callq  3390 <__cxa_throw@plt>
    a540:	bf 10 00 00 00       	mov    $0x10,%edi
    a545:	e8 f6 8a ff ff       	callq  3040 <__cxa_allocate_exception@plt>
    a54a:	48 8d 35 7f 6d 00 00 	lea    0x6d7f(%rip),%rsi        # 112d0 <_fini+0x17c>
    a551:	48 89 c7             	mov    %rax,%rdi
    a554:	49 89 c5             	mov    %rax,%r13
    a557:	e8 44 8d ff ff       	callq  32a0 <_ZNSt11logic_errorC1EPKc@plt>
    a55c:	48 8b 15 6d 9a 20 00 	mov    0x209a6d(%rip),%rdx        # 213fd0 <_DYNAMIC+0x238>
    a563:	48 8d 35 66 a1 20 00 	lea    0x20a166(%rip),%rsi        # 2146d0 <_ZTISt11logic_error@@GLIBCXX_3.4>
    a56a:	4c 89 ef             	mov    %r13,%rdi
    a56d:	e8 1e 8e ff ff       	callq  3390 <__cxa_throw@plt>
    a572:	bf 10 00 00 00       	mov    $0x10,%edi
    a577:	e8 c4 8a ff ff       	callq  3040 <__cxa_allocate_exception@plt>
    a57c:	48 8d 35 c5 6c 00 00 	lea    0x6cc5(%rip),%rsi        # 11248 <_fini+0xf4>
    a583:	48 89 c7             	mov    %rax,%rdi
    a586:	49 89 c5             	mov    %rax,%r13
    a589:	e8 12 8d ff ff       	callq  32a0 <_ZNSt11logic_errorC1EPKc@plt>
    a58e:	48 8b 15 3b 9a 20 00 	mov    0x209a3b(%rip),%rdx        # 213fd0 <_DYNAMIC+0x238>
    a595:	48 8d 35 34 a1 20 00 	lea    0x20a134(%rip),%rsi        # 2146d0 <_ZTISt11logic_error@@GLIBCXX_3.4>
    a59c:	4c 89 ef             	mov    %r13,%rdi
    a59f:	e8 ec 8d ff ff       	callq  3390 <__cxa_throw@plt>
    a5a4:	bf 10 00 00 00       	mov    $0x10,%edi
    a5a9:	e8 92 8a ff ff       	callq  3040 <__cxa_allocate_exception@plt>
    a5ae:	48 8d 35 bb 6c 00 00 	lea    0x6cbb(%rip),%rsi        # 11270 <_fini+0x11c>
    a5b5:	48 89 c7             	mov    %rax,%rdi
    a5b8:	49 89 c5             	mov    %rax,%r13
    a5bb:	e8 e0 8c ff ff       	callq  32a0 <_ZNSt11logic_errorC1EPKc@plt>
    a5c0:	48 8b 15 09 9a 20 00 	mov    0x209a09(%rip),%rdx        # 213fd0 <_DYNAMIC+0x238>
    a5c7:	48 8d 35 02 a1 20 00 	lea    0x20a102(%rip),%rsi        # 2146d0 <_ZTISt11logic_error@@GLIBCXX_3.4>
    a5ce:	4c 89 ef             	mov    %r13,%rdi
    a5d1:	e8 ba 8d ff ff       	callq  3390 <__cxa_throw@plt>
    a5d6:	48 89 c7             	mov    %rax,%rdi
    a5d9:	eb 1a                	jmp    a5f5 <_ZN10RelaxationIdLl100EEC1Eddlldd+0x2e5>
    a5db:	48 89 c3             	mov    %rax,%rbx
    a5de:	49 89 d4             	mov    %rdx,%r12
    a5e1:	eb 04                	jmp    a5e7 <_ZN10RelaxationIdLl100EEC1Eddlldd+0x2d7>
    a5e3:	eb f6                	jmp    a5db <_ZN10RelaxationIdLl100EEC1Eddlldd+0x2cb>
    a5e5:	eb f4                	jmp    a5db <_ZN10RelaxationIdLl100EEC1Eddlldd+0x2cb>
    a5e7:	4c 89 ef             	mov    %r13,%rdi
    a5ea:	e8 c1 8a ff ff       	callq  30b0 <__cxa_free_exception@plt>
    a5ef:	48 89 df             	mov    %rbx,%rdi
    a5f2:	4c 89 e2             	mov    %r12,%rdx
    a5f5:	48 83 fa ff          	cmp    $0xffffffffffffffff,%rdx
    a5f9:	74 07                	je     a602 <_ZN10RelaxationIdLl100EEC1Eddlldd+0x2f2>
    a5fb:	e8 b0 8d ff ff       	callq  33b0 <_Unwind_Resume@plt>
    a600:	eb d9                	jmp    a5db <_ZN10RelaxationIdLl100EEC1Eddlldd+0x2cb>
    a602:	e8 39 8c ff ff       	callq  3240 <__cxa_call_unexpected@plt>
    a607:	66 0f 1f 84 00 00 00 	nopw   0x0(%rax,%rax,1)
    a60e:	00 00 

000000000000a610 <_Z9benchmarkIdLl100EEmi>:
    a610:	55                   	push   %rbp
    a611:	48 89 e5             	mov    %rsp,%rbp
    a614:	41 57                	push   %r15
    a616:	41 56                	push   %r14
    a618:	41 55                	push   %r13
    a61a:	41 54                	push   %r12
    a61c:	53                   	push   %rbx
    a61d:	48 81 ec 78 10 00 00 	sub    $0x1078,%rsp
    a624:	48 83 0c 24 00       	orq    $0x0,(%rsp)
    a629:	48 81 c4 20 10 00 00 	add    $0x1020,%rsp
    a630:	64 48 8b 04 25 28 00 	mov    %fs:0x28,%rax
    a637:	00 00 
    a639:	48 89 45 c8          	mov    %rax,-0x38(%rbp)
    a63d:	31 c0                	xor    %eax,%eax
    a63f:	e8 8c 8b ff ff       	callq  31d0 <omp_set_num_threads@plt>
    a644:	e8 17 8d ff ff       	callq  3360 <omp_get_max_threads@plt>
    a649:	48 8d 35 13 6b 00 00 	lea    0x6b13(%rip),%rsi        # 11163 <_fini+0xf>
    a650:	48 8d 3d 09 9e 20 00 	lea    0x209e09(%rip),%rdi        # 214460 <_ZSt4cout@@GLIBCXX_3.4>
    a657:	ba 12 00 00 00       	mov    $0x12,%edx
    a65c:	89 c3                	mov    %eax,%ebx
    a65e:	e8 8d 8b ff ff       	callq  31f0 <_ZSt16__ostream_insertIcSt11char_traitsIcEERSt13basic_ostreamIT_T0_ES6_PKS3_l@plt>
    a663:	48 8d 3d f6 9d 20 00 	lea    0x209df6(%rip),%rdi        # 214460 <_ZSt4cout@@GLIBCXX_3.4>
    a66a:	89 de                	mov    %ebx,%esi
    a66c:	e8 2f 8d ff ff       	callq  33a0 <_ZNSolsEi@plt>
    a671:	48 8d 35 fe 6a 00 00 	lea    0x6afe(%rip),%rsi        # 11176 <_fini+0x22>
    a678:	49 89 c4             	mov    %rax,%r12
    a67b:	ba 09 00 00 00       	mov    $0x9,%edx
    a680:	48 89 c7             	mov    %rax,%rdi
    a683:	e8 68 8b ff ff       	callq  31f0 <_ZSt16__ostream_insertIcSt11char_traitsIcEERSt13basic_ostreamIT_T0_ES6_PKS3_l@plt>
    a688:	49 8b 04 24          	mov    (%r12),%rax
    a68c:	48 8b 40 e8          	mov    -0x18(%rax),%rax
    a690:	49 8b 9c 04 f0 00 00 	mov    0xf0(%r12,%rax,1),%rbx
    a697:	00 
    a698:	48 85 db             	test   %rbx,%rbx
    a69b:	0f 84 40 03 00 00    	je     a9e1 <_Z9benchmarkIdLl100EEmi+0x3d1>
    a6a1:	80 7b 38 00          	cmpb   $0x0,0x38(%rbx)
    a6a5:	0f 84 05 03 00 00    	je     a9b0 <_Z9benchmarkIdLl100EEmi+0x3a0>
    a6ab:	0f be 73 43          	movsbl 0x43(%rbx),%esi
    a6af:	4c 89 e7             	mov    %r12,%rdi
    a6b2:	e8 a9 88 ff ff       	callq  2f60 <_ZNSo3putEc@plt>
    a6b7:	48 89 c7             	mov    %rax,%rdi
    a6ba:	e8 d1 89 ff ff       	callq  3090 <_ZNSo5flushEv@plt>
    a6bf:	48 8d 35 ba 6a 00 00 	lea    0x6aba(%rip),%rsi        # 11180 <_fini+0x2c>
    a6c6:	48 8d 3d 93 9d 20 00 	lea    0x209d93(%rip),%rdi        # 214460 <_ZSt4cout@@GLIBCXX_3.4>
    a6cd:	ba 0f 00 00 00       	mov    $0xf,%edx
    a6d2:	44 8b 25 7b a1 20 00 	mov    0x20a17b(%rip),%r12d        # 214854 <steps>
    a6d9:	e8 12 8b ff ff       	callq  31f0 <_ZSt16__ostream_insertIcSt11char_traitsIcEERSt13basic_ostreamIT_T0_ES6_PKS3_l@plt>
    a6de:	48 8d 3d 7b 9d 20 00 	lea    0x209d7b(%rip),%rdi        # 214460 <_ZSt4cout@@GLIBCXX_3.4>
    a6e5:	be 64 00 00 00       	mov    $0x64,%esi
    a6ea:	e8 61 8a ff ff       	callq  3150 <_ZNSo9_M_insertIlEERSoT_@plt>
    a6ef:	48 8d 35 79 6a 00 00 	lea    0x6a79(%rip),%rsi        # 1116f <_fini+0x1b>
    a6f6:	48 89 c3             	mov    %rax,%rbx
    a6f9:	ba 06 00 00 00       	mov    $0x6,%edx
    a6fe:	48 89 c7             	mov    %rax,%rdi
    a701:	e8 ea 8a ff ff       	callq  31f0 <_ZSt16__ostream_insertIcSt11char_traitsIcEERSt13basic_ostreamIT_T0_ES6_PKS3_l@plt>
    a706:	44 89 e6             	mov    %r12d,%esi
    a709:	48 89 df             	mov    %rbx,%rdi
    a70c:	e8 8f 8c ff ff       	callq  33a0 <_ZNSolsEi@plt>
    a711:	48 8d 35 78 6a 00 00 	lea    0x6a78(%rip),%rsi        # 11190 <_fini+0x3c>
    a718:	48 89 c3             	mov    %rax,%rbx
    a71b:	ba 0f 00 00 00       	mov    $0xf,%edx
    a720:	48 89 c7             	mov    %rax,%rdi
    a723:	e8 c8 8a ff ff       	callq  31f0 <_ZSt16__ostream_insertIcSt11char_traitsIcEERSt13basic_ostreamIT_T0_ES6_PKS3_l@plt>
    a728:	48 89 df             	mov    %rbx,%rdi
    a72b:	be 01 00 00 00       	mov    $0x1,%esi
    a730:	e8 6b 8c ff ff       	callq  33a0 <_ZNSolsEi@plt>
    a735:	48 8d 35 64 6a 00 00 	lea    0x6a64(%rip),%rsi        # 111a0 <_fini+0x4c>
    a73c:	49 89 c4             	mov    %rax,%r12
    a73f:	ba 06 00 00 00       	mov    $0x6,%edx
    a744:	48 89 c7             	mov    %rax,%rdi
    a747:	e8 a4 8a ff ff       	callq  31f0 <_ZSt16__ostream_insertIcSt11char_traitsIcEERSt13basic_ostreamIT_T0_ES6_PKS3_l@plt>
    a74c:	49 8b 04 24          	mov    (%r12),%rax
    a750:	48 8b 40 e8          	mov    -0x18(%rax),%rax
    a754:	49 8b 9c 04 f0 00 00 	mov    0xf0(%r12,%rax,1),%rbx
    a75b:	00 
    a75c:	48 85 db             	test   %rbx,%rbx
    a75f:	0f 84 7c 02 00 00    	je     a9e1 <_Z9benchmarkIdLl100EEmi+0x3d1>
    a765:	80 7b 38 00          	cmpb   $0x0,0x38(%rbx)
    a769:	0f 84 0c 02 00 00    	je     a97b <_Z9benchmarkIdLl100EEmi+0x36b>
    a76f:	0f be 73 43          	movsbl 0x43(%rbx),%esi
    a773:	4c 89 e7             	mov    %r12,%rdi
    a776:	e8 e5 87 ff ff       	callq  2f60 <_ZNSo3putEc@plt>
    a77b:	48 89 c7             	mov    %rax,%rdi
    a77e:	e8 0d 89 ff ff       	callq  3090 <_ZNSo5flushEv@plt>
    a783:	0f 31                	rdtsc  
    a785:	66 0f ef d2          	pxor   %xmm2,%xmm2
    a789:	48 c1 e2 20          	shl    $0x20,%rdx
    a78d:	89 c0                	mov    %eax,%eax
    a78f:	4c 8d 65 90          	lea    -0x70(%rbp),%r12
    a793:	be 32 00 00 00       	mov    $0x32,%esi
    a798:	48 09 c2             	or     %rax,%rdx
    a79b:	f2 0f 10 1d a5 a0 20 	movsd  0x20a0a5(%rip),%xmm3        # 214848 <heat>
    a7a2:	00 
    a7a3:	f2 0f 10 0d 5d 6e 00 	movsd  0x6e5d(%rip),%xmm1        # 11608 <_ZTSN6GetOpt13_DefValOptionIdNS_8_OptionTIdEEEE+0x68>
    a7aa:	00 
    a7ab:	49 89 d7             	mov    %rdx,%r15
    a7ae:	f2 0f 2a 15 9a a0 20 	cvtsi2sdl 0x20a09a(%rip),%xmm2        # 214850 <radius>
    a7b5:	00 
    a7b6:	f2 0f 10 05 52 6e 00 	movsd  0x6e52(%rip),%xmm0        # 11610 <_ZTSN6GetOpt13_DefValOptionIdNS_8_OptionTIdEEEE+0x70>
    a7bd:	00 
    a7be:	ba 32 00 00 00       	mov    $0x32,%edx
    a7c3:	4c 89 e7             	mov    %r12,%rdi
    a7c6:	e8 45 fb ff ff       	callq  a310 <_ZN10RelaxationIdLl100EEC1Eddlldd>
    a7cb:	8b 05 83 a0 20 00    	mov    0x20a083(%rip),%eax        # 214854 <steps>
    a7d1:	85 c0                	test   %eax,%eax
    a7d3:	0f 8e 12 02 00 00    	jle    a9eb <_Z9benchmarkIdLl100EEmi+0x3db>
    a7d9:	4c 8d 6d 80          	lea    -0x80(%rbp),%r13
    a7dd:	bb 01 00 00 00       	mov    $0x1,%ebx
    a7e2:	66 0f 1f 44 00 00    	nopw   0x0(%rax,%rax,1)
    a7e8:	bf 80 38 01 00       	mov    $0x13880,%edi
    a7ed:	e8 7e 89 ff ff       	callq  3170 <_Znwm@plt>
    a7f2:	48 8b 75 c0          	mov    -0x40(%rbp),%rsi
    a7f6:	48 8d 48 10          	lea    0x10(%rax),%rcx
    a7fa:	48 8d 96 60 35 01 00 	lea    0x13560(%rsi),%rdx
    a801:	48 39 ca             	cmp    %rcx,%rdx
    a804:	73 10                	jae    a816 <_Z9benchmarkIdLl100EEmi+0x206>
    a806:	48 8d 8e 70 35 01 00 	lea    0x13570(%rsi),%rcx
    a80d:	48 39 c8             	cmp    %rcx,%rax
    a810:	0f 82 3a 01 00 00    	jb     a950 <_Z9benchmarkIdLl100EEmi+0x340>
    a816:	48 c1 e2 3c          	shl    $0x3c,%rdx
    a81a:	48 c1 ea 3f          	shr    $0x3f,%rdx
    a81e:	48 85 d2             	test   %rdx,%rdx
    a821:	0f 84 09 01 00 00    	je     a930 <_Z9benchmarkIdLl100EEmi+0x320>
    a827:	48 c7 86 60 35 01 00 	movq   $0x0,0x13560(%rsi)
    a82e:	00 00 00 00 
    a832:	41 bb 62 00 00 00    	mov    $0x62,%r11d
    a838:	48 c7 00 00 00 00 00 	movq   $0x0,(%rax)
    a83f:	41 be 63 00 00 00    	mov    $0x63,%r14d
    a845:	bf 31 00 00 00       	mov    $0x31,%edi
    a84a:	41 ba 01 00 00 00    	mov    $0x1,%r10d
    a850:	48 81 c2 ac 26 00 00 	add    $0x26ac,%rdx
    a857:	31 c9                	xor    %ecx,%ecx
    a859:	48 c1 e2 03          	shl    $0x3,%rdx
    a85d:	4c 8d 0c 16          	lea    (%rsi,%rdx,1),%r9
    a861:	4c 8d 84 10 a0 ca fe 	lea    -0x13560(%rax,%rdx,1),%r8
    a868:	ff 
    a869:	31 d2                	xor    %edx,%edx
    a86b:	0f 1f 44 00 00       	nopl   0x0(%rax,%rax,1)
    a870:	66 0f ef e4          	pxor   %xmm4,%xmm4
    a874:	48 83 c1 01          	add    $0x1,%rcx
    a878:	41 0f 29 24 11       	movaps %xmm4,(%r9,%rdx,1)
    a87d:	41 0f 11 24 10       	movups %xmm4,(%r8,%rdx,1)
    a882:	48 83 c2 10          	add    $0x10,%rdx
    a886:	48 39 f9             	cmp    %rdi,%rcx
    a889:	72 e5                	jb     a870 <_Z9benchmarkIdLl100EEmi+0x260>
    a88b:	4d 01 da             	add    %r11,%r10
    a88e:	4d 39 f3             	cmp    %r14,%r11
    a891:	74 14                	je     a8a7 <_Z9benchmarkIdLl100EEmi+0x297>
    a893:	4a c7 84 d6 60 35 01 	movq   $0x0,0x13560(%rsi,%r10,8)
    a89a:	00 00 00 00 00 
    a89f:	4a c7 04 d0 00 00 00 	movq   $0x0,(%rax,%r10,8)
    a8a6:	00 
    a8a7:	48 8d 3d f2 ba ff ff 	lea    -0x450e(%rip),%rdi        # 63a0 <_ZN10RelaxationIdLl100EE7iterateEv._omp_fn.9>
    a8ae:	31 c9                	xor    %ecx,%ecx
    a8b0:	31 d2                	xor    %edx,%edx
    a8b2:	4c 89 ee             	mov    %r13,%rsi
    a8b5:	4c 89 65 80          	mov    %r12,-0x80(%rbp)
    a8b9:	48 89 45 88          	mov    %rax,-0x78(%rbp)
    a8bd:	e8 0e 8a ff ff       	callq  32d0 <GOMP_parallel@plt>
    a8c2:	48 8b 7d c0          	mov    -0x40(%rbp),%rdi
    a8c6:	4c 8b 75 88          	mov    -0x78(%rbp),%r14
    a8ca:	48 85 ff             	test   %rdi,%rdi
    a8cd:	74 05                	je     a8d4 <_Z9benchmarkIdLl100EEmi+0x2c4>
    a8cf:	e8 7c 89 ff ff       	callq  3250 <_ZdaPv@plt>
    a8d4:	83 c3 01             	add    $0x1,%ebx
    a8d7:	39 1d 77 9f 20 00    	cmp    %ebx,0x209f77(%rip)        # 214854 <steps>
    a8dd:	4c 89 75 c0          	mov    %r14,-0x40(%rbp)
    a8e1:	0f 8d 01 ff ff ff    	jge    a7e8 <_Z9benchmarkIdLl100EEmi+0x1d8>
    a8e7:	4c 89 f7             	mov    %r14,%rdi
    a8ea:	0f 31                	rdtsc  
    a8ec:	48 89 d3             	mov    %rdx,%rbx
    a8ef:	89 c0                	mov    %eax,%eax
    a8f1:	48 c1 e3 20          	shl    $0x20,%rbx
    a8f5:	48 09 c3             	or     %rax,%rbx
    a8f8:	4c 29 fb             	sub    %r15,%rbx
    a8fb:	48 85 ff             	test   %rdi,%rdi
    a8fe:	74 05                	je     a905 <_Z9benchmarkIdLl100EEmi+0x2f5>
    a900:	e8 4b 89 ff ff       	callq  3250 <_ZdaPv@plt>
    a905:	48 89 d8             	mov    %rbx,%rax
    a908:	48 8b 5d c8          	mov    -0x38(%rbp),%rbx
    a90c:	64 48 33 1c 25 28 00 	xor    %fs:0x28,%rbx
    a913:	00 00 
    a915:	0f 85 e9 00 00 00    	jne    aa04 <_Z9benchmarkIdLl100EEmi+0x3f4>
    a91b:	48 83 c4 58          	add    $0x58,%rsp
    a91f:	5b                   	pop    %rbx
    a920:	41 5c                	pop    %r12
    a922:	41 5d                	pop    %r13
    a924:	41 5e                	pop    %r14
    a926:	41 5f                	pop    %r15
    a928:	5d                   	pop    %rbp
    a929:	c3                   	retq   
    a92a:	66 0f 1f 44 00 00    	nopw   0x0(%rax,%rax,1)
    a930:	41 bb 64 00 00 00    	mov    $0x64,%r11d
    a936:	41 be 64 00 00 00    	mov    $0x64,%r14d
    a93c:	bf 32 00 00 00       	mov    $0x32,%edi
    a941:	45 31 d2             	xor    %r10d,%r10d
    a944:	e9 07 ff ff ff       	jmpq   a850 <_Z9benchmarkIdLl100EEmi+0x240>
    a949:	0f 1f 80 00 00 00 00 	nopl   0x0(%rax)
    a950:	31 d2                	xor    %edx,%edx
    a952:	66 0f 1f 44 00 00    	nopw   0x0(%rax,%rax,1)
    a958:	48 c7 84 d6 60 35 01 	movq   $0x0,0x13560(%rsi,%rdx,8)
    a95f:	00 00 00 00 00 
    a964:	48 c7 04 d0 00 00 00 	movq   $0x0,(%rax,%rdx,8)
    a96b:	00 
    a96c:	48 83 c2 01          	add    $0x1,%rdx
    a970:	48 83 fa 64          	cmp    $0x64,%rdx
    a974:	75 e2                	jne    a958 <_Z9benchmarkIdLl100EEmi+0x348>
    a976:	e9 2c ff ff ff       	jmpq   a8a7 <_Z9benchmarkIdLl100EEmi+0x297>
    a97b:	48 89 df             	mov    %rbx,%rdi
    a97e:	e8 7d 88 ff ff       	callq  3200 <_ZNKSt5ctypeIcE13_M_widen_initEv@plt>
    a983:	48 8b 03             	mov    (%rbx),%rax
    a986:	48 8d 15 73 ab ff ff 	lea    -0x548d(%rip),%rdx        # 5500 <_ZNKSt5ctypeIcE8do_widenEc>
    a98d:	be 0a 00 00 00       	mov    $0xa,%esi
    a992:	48 8b 40 30          	mov    0x30(%rax),%rax
    a996:	48 39 d0             	cmp    %rdx,%rax
    a999:	0f 84 d4 fd ff ff    	je     a773 <_Z9benchmarkIdLl100EEmi+0x163>
    a99f:	48 89 df             	mov    %rbx,%rdi
    a9a2:	ff d0                	callq  *%rax
    a9a4:	0f be f0             	movsbl %al,%esi
    a9a7:	e9 c7 fd ff ff       	jmpq   a773 <_Z9benchmarkIdLl100EEmi+0x163>
    a9ac:	0f 1f 40 00          	nopl   0x0(%rax)
    a9b0:	48 89 df             	mov    %rbx,%rdi
    a9b3:	e8 48 88 ff ff       	callq  3200 <_ZNKSt5ctypeIcE13_M_widen_initEv@plt>
    a9b8:	48 8b 03             	mov    (%rbx),%rax
    a9bb:	48 8d 15 3e ab ff ff 	lea    -0x54c2(%rip),%rdx        # 5500 <_ZNKSt5ctypeIcE8do_widenEc>
    a9c2:	be 0a 00 00 00       	mov    $0xa,%esi
    a9c7:	48 8b 40 30          	mov    0x30(%rax),%rax
    a9cb:	48 39 d0             	cmp    %rdx,%rax
    a9ce:	0f 84 db fc ff ff    	je     a6af <_Z9benchmarkIdLl100EEmi+0x9f>
    a9d4:	48 89 df             	mov    %rbx,%rdi
    a9d7:	ff d0                	callq  *%rax
    a9d9:	0f be f0             	movsbl %al,%esi
    a9dc:	e9 ce fc ff ff       	jmpq   a6af <_Z9benchmarkIdLl100EEmi+0x9f>
    a9e1:	e8 4a 88 ff ff       	callq  3230 <_ZSt16__throw_bad_castv@plt>
    a9e6:	48 89 c7             	mov    %rax,%rdi
    a9e9:	eb 09                	jmp    a9f4 <_Z9benchmarkIdLl100EEmi+0x3e4>
    a9eb:	48 8b 7d c0          	mov    -0x40(%rbp),%rdi
    a9ef:	e9 f6 fe ff ff       	jmpq   a8ea <_Z9benchmarkIdLl100EEmi+0x2da>
    a9f4:	48 83 fa ff          	cmp    $0xffffffffffffffff,%rdx
    a9f8:	74 0f                	je     aa09 <_Z9benchmarkIdLl100EEmi+0x3f9>
    a9fa:	e8 b1 89 ff ff       	callq  33b0 <_Unwind_Resume@plt>
    a9ff:	48 89 c3             	mov    %rax,%rbx
    aa02:	eb 0a                	jmp    aa0e <_Z9benchmarkIdLl100EEmi+0x3fe>
    aa04:	e8 b7 87 ff ff       	callq  31c0 <__stack_chk_fail@plt>
    aa09:	e8 32 88 ff ff       	callq  3240 <__cxa_call_unexpected@plt>
    aa0e:	48 8b 7d c0          	mov    -0x40(%rbp),%rdi
    aa12:	48 85 ff             	test   %rdi,%rdi
    aa15:	74 05                	je     aa1c <_Z9benchmarkIdLl100EEmi+0x40c>
    aa17:	e8 34 88 ff ff       	callq  3250 <_ZdaPv@plt>
    aa1c:	48 89 df             	mov    %rbx,%rdi
    aa1f:	eb d9                	jmp    a9fa <_Z9benchmarkIdLl100EEmi+0x3ea>
    aa21:	66 2e 0f 1f 84 00 00 	nopw   %cs:0x0(%rax,%rax,1)
    aa28:	00 00 00 
    aa2b:	0f 1f 44 00 00       	nopl   0x0(%rax,%rax,1)

000000000000aa30 <_ZN10RelaxationIdLl500EEC1Eddlldd>:
    aa30:	55                   	push   %rbp
    aa31:	48 89 e5             	mov    %rsp,%rbp
    aa34:	41 55                	push   %r13
    aa36:	41 54                	push   %r12
    aa38:	53                   	push   %rbx
    aa39:	48 81 ec 58 10 00 00 	sub    $0x1058,%rsp
    aa40:	48 83 0c 24 00       	orq    $0x0,(%rsp)
    aa45:	48 81 c4 20 10 00 00 	add    $0x1020,%rsp
    aa4c:	64 48 8b 04 25 28 00 	mov    %fs:0x28,%rax
    aa53:	00 00 
    aa55:	48 89 45 d8          	mov    %rax,-0x28(%rbp)
    aa59:	31 c0                	xor    %eax,%eax
    aa5b:	f2 48 0f 2c c2       	cvttsd2si %xmm2,%rax
    aa60:	48 89 fb             	mov    %rdi,%rbx
    aa63:	f2 0f 11 03          	movsd  %xmm0,(%rbx)
    aa67:	49 89 f5             	mov    %rsi,%r13
    aa6a:	49 89 d4             	mov    %rdx,%r12
    aa6d:	f2 0f 11 4f 08       	movsd  %xmm1,0x8(%rdi)
    aa72:	48 89 73 10          	mov    %rsi,0x10(%rbx)
    aa76:	48 89 53 18          	mov    %rdx,0x18(%rbx)
    aa7a:	f2 0f 11 45 c0       	movsd  %xmm0,-0x40(%rbp)
    aa7f:	f2 0f 11 5d b8       	movsd  %xmm3,-0x48(%rbp)
    aa84:	f2 0f 11 55 c8       	movsd  %xmm2,-0x38(%rbp)
    aa89:	48 89 47 20          	mov    %rax,0x20(%rdi)
    aa8d:	f2 48 0f 2c c3       	cvttsd2si %xmm3,%rax
    aa92:	48 89 47 28          	mov    %rax,0x28(%rdi)
    aa96:	bf 80 84 1e 00       	mov    $0x1e8480,%edi
    aa9b:	e8 d0 86 ff ff       	callq  3170 <_Znwm@plt>
    aaa0:	f2 0f 10 05 50 6b 00 	movsd  0x6b50(%rip),%xmm0        # 115f8 <_ZTSN6GetOpt13_DefValOptionIdNS_8_OptionTIdEEEE+0x58>
    aaa7:	00 
    aaa8:	48 89 43 30          	mov    %rax,0x30(%rbx)
    aaac:	66 0f 2e 45 c8       	ucomisd -0x38(%rbp),%xmm0
    aab1:	0f 87 db 01 00 00    	ja     ac92 <_ZN10RelaxationIdLl500EEC1Eddlldd+0x262>
    aab7:	49 8d 55 ff          	lea    -0x1(%r13),%rdx
    aabb:	48 81 fa f1 01 00 00 	cmp    $0x1f1,%rdx
    aac2:	0f 87 fc 01 00 00    	ja     acc4 <_ZN10RelaxationIdLl500EEC1Eddlldd+0x294>
    aac8:	49 8d 54 24 ff       	lea    -0x1(%r12),%rdx
    aacd:	48 81 fa f1 01 00 00 	cmp    $0x1f1,%rdx
    aad4:	0f 87 ea 01 00 00    	ja     acc4 <_ZN10RelaxationIdLl500EEC1Eddlldd+0x294>
    aada:	66 0f ef c0          	pxor   %xmm0,%xmm0
    aade:	f2 0f 10 65 c8       	movsd  -0x38(%rbp),%xmm4
    aae3:	66 0f ef c9          	pxor   %xmm1,%xmm1
    aae7:	f2 49 0f 2a c5       	cvtsi2sd %r13,%xmm0
    aaec:	66 0f 28 d0          	movapd %xmm0,%xmm2
    aaf0:	f2 0f 5c d4          	subsd  %xmm4,%xmm2
    aaf4:	66 0f 2e ca          	ucomisd %xmm2,%xmm1
    aaf8:	0f 87 62 01 00 00    	ja     ac60 <_ZN10RelaxationIdLl500EEC1Eddlldd+0x230>
    aafe:	f2 0f 58 c4          	addsd  %xmm4,%xmm0
    ab02:	f2 0f 10 15 0e 6b 00 	movsd  0x6b0e(%rip),%xmm2        # 11618 <_ZTSN6GetOpt13_DefValOptionIdNS_8_OptionTIdEEEE+0x78>
    ab09:	00 
    ab0a:	66 0f 2e c2          	ucomisd %xmm2,%xmm0
    ab0e:	0f 87 4c 01 00 00    	ja     ac60 <_ZN10RelaxationIdLl500EEC1Eddlldd+0x230>
    ab14:	66 0f ef c0          	pxor   %xmm0,%xmm0
    ab18:	f2 49 0f 2a c4       	cvtsi2sd %r12,%xmm0
    ab1d:	66 0f 28 d8          	movapd %xmm0,%xmm3
    ab21:	f2 0f 5c dc          	subsd  %xmm4,%xmm3
    ab25:	66 0f 2e cb          	ucomisd %xmm3,%xmm1
    ab29:	0f 87 31 01 00 00    	ja     ac60 <_ZN10RelaxationIdLl500EEC1Eddlldd+0x230>
    ab2f:	f2 0f 58 c4          	addsd  %xmm4,%xmm0
    ab33:	66 0f 2e c2          	ucomisd %xmm2,%xmm0
    ab37:	0f 87 23 01 00 00    	ja     ac60 <_ZN10RelaxationIdLl500EEC1Eddlldd+0x230>
    ab3d:	f2 0f 10 7d b8       	movsd  -0x48(%rbp),%xmm7
    ab42:	66 0f 2e 7d c0       	ucomisd -0x40(%rbp),%xmm7
    ab47:	0f 87 e1 00 00 00    	ja     ac2e <_ZN10RelaxationIdLl500EEC1Eddlldd+0x1fe>
    ab4d:	48 89 c2             	mov    %rax,%rdx
    ab50:	48 c1 e2 3c          	shl    $0x3c,%rdx
    ab54:	48 c1 ea 3f          	shr    $0x3f,%rdx
    ab58:	48 85 d2             	test   %rdx,%rdx
    ab5b:	0f 84 af 00 00 00    	je     ac10 <_ZN10RelaxationIdLl500EEC1Eddlldd+0x1e0>
    ab61:	f2 0f 11 88 e0 74 1e 	movsd  %xmm1,0x1e74e0(%rax)
    ab68:	00 
    ab69:	41 ba f2 01 00 00    	mov    $0x1f2,%r10d
    ab6f:	be f9 00 00 00       	mov    $0xf9,%esi
    ab74:	f2 0f 11 08          	movsd  %xmm1,(%rax)
    ab78:	41 bb f3 01 00 00    	mov    $0x1f3,%r11d
    ab7e:	41 b9 01 00 00 00    	mov    $0x1,%r9d
    ab84:	48 81 c2 9c ce 03 00 	add    $0x3ce9c,%rdx
    ab8b:	66 0f ef c0          	pxor   %xmm0,%xmm0
    ab8f:	48 c1 e2 03          	shl    $0x3,%rdx
    ab93:	31 c9                	xor    %ecx,%ecx
    ab95:	4c 8d 04 10          	lea    (%rax,%rdx,1),%r8
    ab99:	48 8d bc 10 20 8b e1 	lea    -0x1e74e0(%rax,%rdx,1),%rdi
    aba0:	ff 
    aba1:	31 d2                	xor    %edx,%edx
    aba3:	0f 1f 44 00 00       	nopl   0x0(%rax,%rax,1)
    aba8:	48 83 c1 01          	add    $0x1,%rcx
    abac:	41 0f 29 04 10       	movaps %xmm0,(%r8,%rdx,1)
    abb1:	0f 11 04 17          	movups %xmm0,(%rdi,%rdx,1)
    abb5:	48 83 c2 10          	add    $0x10,%rdx
    abb9:	48 39 ce             	cmp    %rcx,%rsi
    abbc:	77 ea                	ja     aba8 <_ZN10RelaxationIdLl500EEC1Eddlldd+0x178>
    abbe:	4d 01 d1             	add    %r10,%r9
    abc1:	4d 39 d3             	cmp    %r10,%r11
    abc4:	74 16                	je     abdc <_ZN10RelaxationIdLl500EEC1Eddlldd+0x1ac>
    abc6:	4a 8d 04 c8          	lea    (%rax,%r9,8),%rax
    abca:	48 c7 80 e0 74 1e 00 	movq   $0x0,0x1e74e0(%rax)
    abd1:	00 00 00 00 
    abd5:	48 c7 00 00 00 00 00 	movq   $0x0,(%rax)
    abdc:	48 8d 75 d0          	lea    -0x30(%rbp),%rsi
    abe0:	48 8d 3d a9 b9 ff ff 	lea    -0x4657(%rip),%rdi        # 6590 <_ZN10RelaxationIdLl500EEC2Eddlldd._omp_fn.10>
    abe7:	31 c9                	xor    %ecx,%ecx
    abe9:	31 d2                	xor    %edx,%edx
    abeb:	48 89 5d d0          	mov    %rbx,-0x30(%rbp)
    abef:	e8 dc 86 ff ff       	callq  32d0 <GOMP_parallel@plt>
    abf4:	48 8b 45 d8          	mov    -0x28(%rbp),%rax
    abf8:	64 48 33 04 25 28 00 	xor    %fs:0x28,%rax
    abff:	00 00 
    ac01:	75 26                	jne    ac29 <_ZN10RelaxationIdLl500EEC1Eddlldd+0x1f9>
    ac03:	48 83 c4 38          	add    $0x38,%rsp
    ac07:	5b                   	pop    %rbx
    ac08:	41 5c                	pop    %r12
    ac0a:	41 5d                	pop    %r13
    ac0c:	5d                   	pop    %rbp
    ac0d:	c3                   	retq   
    ac0e:	66 90                	xchg   %ax,%ax
    ac10:	41 ba f4 01 00 00    	mov    $0x1f4,%r10d
    ac16:	be fa 00 00 00       	mov    $0xfa,%esi
    ac1b:	41 bb f4 01 00 00    	mov    $0x1f4,%r11d
    ac21:	45 31 c9             	xor    %r9d,%r9d
    ac24:	e9 5b ff ff ff       	jmpq   ab84 <_ZN10RelaxationIdLl500EEC1Eddlldd+0x154>
    ac29:	e8 92 85 ff ff       	callq  31c0 <__stack_chk_fail@plt>
    ac2e:	bf 10 00 00 00       	mov    $0x10,%edi
    ac33:	e8 08 84 ff ff       	callq  3040 <__cxa_allocate_exception@plt>
    ac38:	48 8d 35 f9 66 00 00 	lea    0x66f9(%rip),%rsi        # 11338 <_fini+0x1e4>
    ac3f:	48 89 c7             	mov    %rax,%rdi
    ac42:	49 89 c5             	mov    %rax,%r13
    ac45:	e8 56 86 ff ff       	callq  32a0 <_ZNSt11logic_errorC1EPKc@plt>
    ac4a:	48 8b 15 7f 93 20 00 	mov    0x20937f(%rip),%rdx        # 213fd0 <_DYNAMIC+0x238>
    ac51:	48 8d 35 78 9a 20 00 	lea    0x209a78(%rip),%rsi        # 2146d0 <_ZTISt11logic_error@@GLIBCXX_3.4>
    ac58:	4c 89 ef             	mov    %r13,%rdi
    ac5b:	e8 30 87 ff ff       	callq  3390 <__cxa_throw@plt>
    ac60:	bf 10 00 00 00       	mov    $0x10,%edi
    ac65:	e8 d6 83 ff ff       	callq  3040 <__cxa_allocate_exception@plt>
    ac6a:	48 8d 35 5f 66 00 00 	lea    0x665f(%rip),%rsi        # 112d0 <_fini+0x17c>
    ac71:	48 89 c7             	mov    %rax,%rdi
    ac74:	49 89 c5             	mov    %rax,%r13
    ac77:	e8 24 86 ff ff       	callq  32a0 <_ZNSt11logic_errorC1EPKc@plt>
    ac7c:	48 8b 15 4d 93 20 00 	mov    0x20934d(%rip),%rdx        # 213fd0 <_DYNAMIC+0x238>
    ac83:	48 8d 35 46 9a 20 00 	lea    0x209a46(%rip),%rsi        # 2146d0 <_ZTISt11logic_error@@GLIBCXX_3.4>
    ac8a:	4c 89 ef             	mov    %r13,%rdi
    ac8d:	e8 fe 86 ff ff       	callq  3390 <__cxa_throw@plt>
    ac92:	bf 10 00 00 00       	mov    $0x10,%edi
    ac97:	e8 a4 83 ff ff       	callq  3040 <__cxa_allocate_exception@plt>
    ac9c:	48 8d 35 a5 65 00 00 	lea    0x65a5(%rip),%rsi        # 11248 <_fini+0xf4>
    aca3:	48 89 c7             	mov    %rax,%rdi
    aca6:	49 89 c5             	mov    %rax,%r13
    aca9:	e8 f2 85 ff ff       	callq  32a0 <_ZNSt11logic_errorC1EPKc@plt>
    acae:	48 8b 15 1b 93 20 00 	mov    0x20931b(%rip),%rdx        # 213fd0 <_DYNAMIC+0x238>
    acb5:	48 8d 35 14 9a 20 00 	lea    0x209a14(%rip),%rsi        # 2146d0 <_ZTISt11logic_error@@GLIBCXX_3.4>
    acbc:	4c 89 ef             	mov    %r13,%rdi
    acbf:	e8 cc 86 ff ff       	callq  3390 <__cxa_throw@plt>
    acc4:	bf 10 00 00 00       	mov    $0x10,%edi
    acc9:	e8 72 83 ff ff       	callq  3040 <__cxa_allocate_exception@plt>
    acce:	48 8d 35 9b 65 00 00 	lea    0x659b(%rip),%rsi        # 11270 <_fini+0x11c>
    acd5:	48 89 c7             	mov    %rax,%rdi
    acd8:	49 89 c5             	mov    %rax,%r13
    acdb:	e8 c0 85 ff ff       	callq  32a0 <_ZNSt11logic_errorC1EPKc@plt>
    ace0:	48 8b 15 e9 92 20 00 	mov    0x2092e9(%rip),%rdx        # 213fd0 <_DYNAMIC+0x238>
    ace7:	48 8d 35 e2 99 20 00 	lea    0x2099e2(%rip),%rsi        # 2146d0 <_ZTISt11logic_error@@GLIBCXX_3.4>
    acee:	4c 89 ef             	mov    %r13,%rdi
    acf1:	e8 9a 86 ff ff       	callq  3390 <__cxa_throw@plt>
    acf6:	48 89 c7             	mov    %rax,%rdi
    acf9:	eb 1a                	jmp    ad15 <_ZN10RelaxationIdLl500EEC1Eddlldd+0x2e5>
    acfb:	48 89 c3             	mov    %rax,%rbx
    acfe:	49 89 d4             	mov    %rdx,%r12
    ad01:	eb 04                	jmp    ad07 <_ZN10RelaxationIdLl500EEC1Eddlldd+0x2d7>
    ad03:	eb f6                	jmp    acfb <_ZN10RelaxationIdLl500EEC1Eddlldd+0x2cb>
    ad05:	eb f4                	jmp    acfb <_ZN10RelaxationIdLl500EEC1Eddlldd+0x2cb>
    ad07:	4c 89 ef             	mov    %r13,%rdi
    ad0a:	e8 a1 83 ff ff       	callq  30b0 <__cxa_free_exception@plt>
    ad0f:	48 89 df             	mov    %rbx,%rdi
    ad12:	4c 89 e2             	mov    %r12,%rdx
    ad15:	48 83 fa ff          	cmp    $0xffffffffffffffff,%rdx
    ad19:	74 07                	je     ad22 <_ZN10RelaxationIdLl500EEC1Eddlldd+0x2f2>
    ad1b:	e8 90 86 ff ff       	callq  33b0 <_Unwind_Resume@plt>
    ad20:	eb d9                	jmp    acfb <_ZN10RelaxationIdLl500EEC1Eddlldd+0x2cb>
    ad22:	e8 19 85 ff ff       	callq  3240 <__cxa_call_unexpected@plt>
    ad27:	66 0f 1f 84 00 00 00 	nopw   0x0(%rax,%rax,1)
    ad2e:	00 00 

000000000000ad30 <_Z9benchmarkIdLl500EEmi>:
    ad30:	55                   	push   %rbp
    ad31:	48 89 e5             	mov    %rsp,%rbp
    ad34:	41 57                	push   %r15
    ad36:	41 56                	push   %r14
    ad38:	41 55                	push   %r13
    ad3a:	41 54                	push   %r12
    ad3c:	53                   	push   %rbx
    ad3d:	48 81 ec 78 10 00 00 	sub    $0x1078,%rsp
    ad44:	48 83 0c 24 00       	orq    $0x0,(%rsp)
    ad49:	48 81 c4 20 10 00 00 	add    $0x1020,%rsp
    ad50:	64 48 8b 04 25 28 00 	mov    %fs:0x28,%rax
    ad57:	00 00 
    ad59:	48 89 45 c8          	mov    %rax,-0x38(%rbp)
    ad5d:	31 c0                	xor    %eax,%eax
    ad5f:	e8 6c 84 ff ff       	callq  31d0 <omp_set_num_threads@plt>
    ad64:	e8 f7 85 ff ff       	callq  3360 <omp_get_max_threads@plt>
    ad69:	48 8d 35 f3 63 00 00 	lea    0x63f3(%rip),%rsi        # 11163 <_fini+0xf>
    ad70:	48 8d 3d e9 96 20 00 	lea    0x2096e9(%rip),%rdi        # 214460 <_ZSt4cout@@GLIBCXX_3.4>
    ad77:	ba 12 00 00 00       	mov    $0x12,%edx
    ad7c:	89 c3                	mov    %eax,%ebx
    ad7e:	e8 6d 84 ff ff       	callq  31f0 <_ZSt16__ostream_insertIcSt11char_traitsIcEERSt13basic_ostreamIT_T0_ES6_PKS3_l@plt>
    ad83:	48 8d 3d d6 96 20 00 	lea    0x2096d6(%rip),%rdi        # 214460 <_ZSt4cout@@GLIBCXX_3.4>
    ad8a:	89 de                	mov    %ebx,%esi
    ad8c:	e8 0f 86 ff ff       	callq  33a0 <_ZNSolsEi@plt>
    ad91:	48 8d 35 de 63 00 00 	lea    0x63de(%rip),%rsi        # 11176 <_fini+0x22>
    ad98:	49 89 c4             	mov    %rax,%r12
    ad9b:	ba 09 00 00 00       	mov    $0x9,%edx
    ada0:	48 89 c7             	mov    %rax,%rdi
    ada3:	e8 48 84 ff ff       	callq  31f0 <_ZSt16__ostream_insertIcSt11char_traitsIcEERSt13basic_ostreamIT_T0_ES6_PKS3_l@plt>
    ada8:	49 8b 04 24          	mov    (%r12),%rax
    adac:	48 8b 40 e8          	mov    -0x18(%rax),%rax
    adb0:	49 8b 9c 04 f0 00 00 	mov    0xf0(%r12,%rax,1),%rbx
    adb7:	00 
    adb8:	48 85 db             	test   %rbx,%rbx
    adbb:	0f 84 40 03 00 00    	je     b101 <_Z9benchmarkIdLl500EEmi+0x3d1>
    adc1:	80 7b 38 00          	cmpb   $0x0,0x38(%rbx)
    adc5:	0f 84 05 03 00 00    	je     b0d0 <_Z9benchmarkIdLl500EEmi+0x3a0>
    adcb:	0f be 73 43          	movsbl 0x43(%rbx),%esi
    adcf:	4c 89 e7             	mov    %r12,%rdi
    add2:	e8 89 81 ff ff       	callq  2f60 <_ZNSo3putEc@plt>
    add7:	48 89 c7             	mov    %rax,%rdi
    adda:	e8 b1 82 ff ff       	callq  3090 <_ZNSo5flushEv@plt>
    addf:	48 8d 35 9a 63 00 00 	lea    0x639a(%rip),%rsi        # 11180 <_fini+0x2c>
    ade6:	48 8d 3d 73 96 20 00 	lea    0x209673(%rip),%rdi        # 214460 <_ZSt4cout@@GLIBCXX_3.4>
    aded:	ba 0f 00 00 00       	mov    $0xf,%edx
    adf2:	44 8b 25 5b 9a 20 00 	mov    0x209a5b(%rip),%r12d        # 214854 <steps>
    adf9:	e8 f2 83 ff ff       	callq  31f0 <_ZSt16__ostream_insertIcSt11char_traitsIcEERSt13basic_ostreamIT_T0_ES6_PKS3_l@plt>
    adfe:	48 8d 3d 5b 96 20 00 	lea    0x20965b(%rip),%rdi        # 214460 <_ZSt4cout@@GLIBCXX_3.4>
    ae05:	be f4 01 00 00       	mov    $0x1f4,%esi
    ae0a:	e8 41 83 ff ff       	callq  3150 <_ZNSo9_M_insertIlEERSoT_@plt>
    ae0f:	48 8d 35 59 63 00 00 	lea    0x6359(%rip),%rsi        # 1116f <_fini+0x1b>
    ae16:	48 89 c3             	mov    %rax,%rbx
    ae19:	ba 06 00 00 00       	mov    $0x6,%edx
    ae1e:	48 89 c7             	mov    %rax,%rdi
    ae21:	e8 ca 83 ff ff       	callq  31f0 <_ZSt16__ostream_insertIcSt11char_traitsIcEERSt13basic_ostreamIT_T0_ES6_PKS3_l@plt>
    ae26:	44 89 e6             	mov    %r12d,%esi
    ae29:	48 89 df             	mov    %rbx,%rdi
    ae2c:	e8 6f 85 ff ff       	callq  33a0 <_ZNSolsEi@plt>
    ae31:	48 8d 35 58 63 00 00 	lea    0x6358(%rip),%rsi        # 11190 <_fini+0x3c>
    ae38:	48 89 c3             	mov    %rax,%rbx
    ae3b:	ba 0f 00 00 00       	mov    $0xf,%edx
    ae40:	48 89 c7             	mov    %rax,%rdi
    ae43:	e8 a8 83 ff ff       	callq  31f0 <_ZSt16__ostream_insertIcSt11char_traitsIcEERSt13basic_ostreamIT_T0_ES6_PKS3_l@plt>
    ae48:	48 89 df             	mov    %rbx,%rdi
    ae4b:	be 01 00 00 00       	mov    $0x1,%esi
    ae50:	e8 4b 85 ff ff       	callq  33a0 <_ZNSolsEi@plt>
    ae55:	48 8d 35 44 63 00 00 	lea    0x6344(%rip),%rsi        # 111a0 <_fini+0x4c>
    ae5c:	49 89 c4             	mov    %rax,%r12
    ae5f:	ba 06 00 00 00       	mov    $0x6,%edx
    ae64:	48 89 c7             	mov    %rax,%rdi
    ae67:	e8 84 83 ff ff       	callq  31f0 <_ZSt16__ostream_insertIcSt11char_traitsIcEERSt13basic_ostreamIT_T0_ES6_PKS3_l@plt>
    ae6c:	49 8b 04 24          	mov    (%r12),%rax
    ae70:	48 8b 40 e8          	mov    -0x18(%rax),%rax
    ae74:	49 8b 9c 04 f0 00 00 	mov    0xf0(%r12,%rax,1),%rbx
    ae7b:	00 
    ae7c:	48 85 db             	test   %rbx,%rbx
    ae7f:	0f 84 7c 02 00 00    	je     b101 <_Z9benchmarkIdLl500EEmi+0x3d1>
    ae85:	80 7b 38 00          	cmpb   $0x0,0x38(%rbx)
    ae89:	0f 84 0f 02 00 00    	je     b09e <_Z9benchmarkIdLl500EEmi+0x36e>
    ae8f:	0f be 73 43          	movsbl 0x43(%rbx),%esi
    ae93:	4c 89 e7             	mov    %r12,%rdi
    ae96:	e8 c5 80 ff ff       	callq  2f60 <_ZNSo3putEc@plt>
    ae9b:	48 89 c7             	mov    %rax,%rdi
    ae9e:	e8 ed 81 ff ff       	callq  3090 <_ZNSo5flushEv@plt>
    aea3:	0f 31                	rdtsc  
    aea5:	66 0f ef d2          	pxor   %xmm2,%xmm2
    aea9:	48 c1 e2 20          	shl    $0x20,%rdx
    aead:	89 c0                	mov    %eax,%eax
    aeaf:	4c 8d 65 90          	lea    -0x70(%rbp),%r12
    aeb3:	be fa 00 00 00       	mov    $0xfa,%esi
    aeb8:	48 09 c2             	or     %rax,%rdx
    aebb:	f2 0f 10 1d 85 99 20 	movsd  0x209985(%rip),%xmm3        # 214848 <heat>
    aec2:	00 
    aec3:	f2 0f 10 0d 3d 67 00 	movsd  0x673d(%rip),%xmm1        # 11608 <_ZTSN6GetOpt13_DefValOptionIdNS_8_OptionTIdEEEE+0x68>
    aeca:	00 
    aecb:	49 89 d7             	mov    %rdx,%r15
    aece:	f2 0f 2a 15 7a 99 20 	cvtsi2sdl 0x20997a(%rip),%xmm2        # 214850 <radius>
    aed5:	00 
    aed6:	f2 0f 10 05 32 67 00 	movsd  0x6732(%rip),%xmm0        # 11610 <_ZTSN6GetOpt13_DefValOptionIdNS_8_OptionTIdEEEE+0x70>
    aedd:	00 
    aede:	ba fa 00 00 00       	mov    $0xfa,%edx
    aee3:	4c 89 e7             	mov    %r12,%rdi
    aee6:	e8 45 fb ff ff       	callq  aa30 <_ZN10RelaxationIdLl500EEC1Eddlldd>
    aeeb:	8b 05 63 99 20 00    	mov    0x209963(%rip),%eax        # 214854 <steps>
    aef1:	85 c0                	test   %eax,%eax
    aef3:	0f 8e 12 02 00 00    	jle    b10b <_Z9benchmarkIdLl500EEmi+0x3db>
    aef9:	4c 8d 6d 80          	lea    -0x80(%rbp),%r13
    aefd:	bb 01 00 00 00       	mov    $0x1,%ebx
    af02:	66 0f 1f 44 00 00    	nopw   0x0(%rax,%rax,1)
    af08:	bf 80 84 1e 00       	mov    $0x1e8480,%edi
    af0d:	e8 5e 82 ff ff       	callq  3170 <_Znwm@plt>
    af12:	48 8b 75 c0          	mov    -0x40(%rbp),%rsi
    af16:	48 8d 48 10          	lea    0x10(%rax),%rcx
    af1a:	48 8d 96 e0 74 1e 00 	lea    0x1e74e0(%rsi),%rdx
    af21:	48 39 ca             	cmp    %rcx,%rdx
    af24:	73 10                	jae    af36 <_Z9benchmarkIdLl500EEmi+0x206>
    af26:	48 8d 8e f0 74 1e 00 	lea    0x1e74f0(%rsi),%rcx
    af2d:	48 39 c8             	cmp    %rcx,%rax
    af30:	0f 82 3a 01 00 00    	jb     b070 <_Z9benchmarkIdLl500EEmi+0x340>
    af36:	48 c1 e2 3c          	shl    $0x3c,%rdx
    af3a:	48 c1 ea 3f          	shr    $0x3f,%rdx
    af3e:	48 85 d2             	test   %rdx,%rdx
    af41:	0f 84 09 01 00 00    	je     b050 <_Z9benchmarkIdLl500EEmi+0x320>
    af47:	48 c7 86 e0 74 1e 00 	movq   $0x0,0x1e74e0(%rsi)
    af4e:	00 00 00 00 
    af52:	41 bb f2 01 00 00    	mov    $0x1f2,%r11d
    af58:	48 c7 00 00 00 00 00 	movq   $0x0,(%rax)
    af5f:	41 be f3 01 00 00    	mov    $0x1f3,%r14d
    af65:	bf f9 00 00 00       	mov    $0xf9,%edi
    af6a:	41 ba 01 00 00 00    	mov    $0x1,%r10d
    af70:	48 81 c2 9c ce 03 00 	add    $0x3ce9c,%rdx
    af77:	31 c9                	xor    %ecx,%ecx
    af79:	48 c1 e2 03          	shl    $0x3,%rdx
    af7d:	4c 8d 0c 16          	lea    (%rsi,%rdx,1),%r9
    af81:	4c 8d 84 10 20 8b e1 	lea    -0x1e74e0(%rax,%rdx,1),%r8
    af88:	ff 
    af89:	31 d2                	xor    %edx,%edx
    af8b:	0f 1f 44 00 00       	nopl   0x0(%rax,%rax,1)
    af90:	66 0f ef e4          	pxor   %xmm4,%xmm4
    af94:	48 83 c1 01          	add    $0x1,%rcx
    af98:	41 0f 29 24 11       	movaps %xmm4,(%r9,%rdx,1)
    af9d:	41 0f 11 24 10       	movups %xmm4,(%r8,%rdx,1)
    afa2:	48 83 c2 10          	add    $0x10,%rdx
    afa6:	48 39 f9             	cmp    %rdi,%rcx
    afa9:	72 e5                	jb     af90 <_Z9benchmarkIdLl500EEmi+0x260>
    afab:	4d 01 da             	add    %r11,%r10
    afae:	4d 39 f3             	cmp    %r14,%r11
    afb1:	74 14                	je     afc7 <_Z9benchmarkIdLl500EEmi+0x297>
    afb3:	4a c7 84 d6 e0 74 1e 	movq   $0x0,0x1e74e0(%rsi,%r10,8)
    afba:	00 00 00 00 00 
    afbf:	4a c7 04 d0 00 00 00 	movq   $0x0,(%rax,%r10,8)
    afc6:	00 
    afc7:	48 8d 3d 12 b7 ff ff 	lea    -0x48ee(%rip),%rdi        # 66e0 <_ZN10RelaxationIdLl500EE7iterateEv._omp_fn.11>
    afce:	31 c9                	xor    %ecx,%ecx
    afd0:	31 d2                	xor    %edx,%edx
    afd2:	4c 89 ee             	mov    %r13,%rsi
    afd5:	4c 89 65 80          	mov    %r12,-0x80(%rbp)
    afd9:	48 89 45 88          	mov    %rax,-0x78(%rbp)
    afdd:	e8 ee 82 ff ff       	callq  32d0 <GOMP_parallel@plt>
    afe2:	48 8b 7d c0          	mov    -0x40(%rbp),%rdi
    afe6:	4c 8b 75 88          	mov    -0x78(%rbp),%r14
    afea:	48 85 ff             	test   %rdi,%rdi
    afed:	74 05                	je     aff4 <_Z9benchmarkIdLl500EEmi+0x2c4>
    afef:	e8 5c 82 ff ff       	callq  3250 <_ZdaPv@plt>
    aff4:	83 c3 01             	add    $0x1,%ebx
    aff7:	39 1d 57 98 20 00    	cmp    %ebx,0x209857(%rip)        # 214854 <steps>
    affd:	4c 89 75 c0          	mov    %r14,-0x40(%rbp)
    b001:	0f 8d 01 ff ff ff    	jge    af08 <_Z9benchmarkIdLl500EEmi+0x1d8>
    b007:	4c 89 f7             	mov    %r14,%rdi
    b00a:	0f 31                	rdtsc  
    b00c:	48 89 d3             	mov    %rdx,%rbx
    b00f:	89 c0                	mov    %eax,%eax
    b011:	48 c1 e3 20          	shl    $0x20,%rbx
    b015:	48 09 c3             	or     %rax,%rbx
    b018:	4c 29 fb             	sub    %r15,%rbx
    b01b:	48 85 ff             	test   %rdi,%rdi
    b01e:	74 05                	je     b025 <_Z9benchmarkIdLl500EEmi+0x2f5>
    b020:	e8 2b 82 ff ff       	callq  3250 <_ZdaPv@plt>
    b025:	48 89 d8             	mov    %rbx,%rax
    b028:	48 8b 5d c8          	mov    -0x38(%rbp),%rbx
    b02c:	64 48 33 1c 25 28 00 	xor    %fs:0x28,%rbx
    b033:	00 00 
    b035:	0f 85 e9 00 00 00    	jne    b124 <_Z9benchmarkIdLl500EEmi+0x3f4>
    b03b:	48 83 c4 58          	add    $0x58,%rsp
    b03f:	5b                   	pop    %rbx
    b040:	41 5c                	pop    %r12
    b042:	41 5d                	pop    %r13
    b044:	41 5e                	pop    %r14
    b046:	41 5f                	pop    %r15
    b048:	5d                   	pop    %rbp
    b049:	c3                   	retq   
    b04a:	66 0f 1f 44 00 00    	nopw   0x0(%rax,%rax,1)
    b050:	41 bb f4 01 00 00    	mov    $0x1f4,%r11d
    b056:	41 be f4 01 00 00    	mov    $0x1f4,%r14d
    b05c:	bf fa 00 00 00       	mov    $0xfa,%edi
    b061:	45 31 d2             	xor    %r10d,%r10d
    b064:	e9 07 ff ff ff       	jmpq   af70 <_Z9benchmarkIdLl500EEmi+0x240>
    b069:	0f 1f 80 00 00 00 00 	nopl   0x0(%rax)
    b070:	31 d2                	xor    %edx,%edx
    b072:	66 0f 1f 44 00 00    	nopw   0x0(%rax,%rax,1)
    b078:	48 c7 84 d6 e0 74 1e 	movq   $0x0,0x1e74e0(%rsi,%rdx,8)
    b07f:	00 00 00 00 00 
    b084:	48 c7 04 d0 00 00 00 	movq   $0x0,(%rax,%rdx,8)
    b08b:	00 
    b08c:	48 83 c2 01          	add    $0x1,%rdx
    b090:	48 81 fa f4 01 00 00 	cmp    $0x1f4,%rdx
    b097:	75 df                	jne    b078 <_Z9benchmarkIdLl500EEmi+0x348>
    b099:	e9 29 ff ff ff       	jmpq   afc7 <_Z9benchmarkIdLl500EEmi+0x297>
    b09e:	48 89 df             	mov    %rbx,%rdi
    b0a1:	e8 5a 81 ff ff       	callq  3200 <_ZNKSt5ctypeIcE13_M_widen_initEv@plt>
    b0a6:	48 8b 03             	mov    (%rbx),%rax
    b0a9:	48 8d 15 50 a4 ff ff 	lea    -0x5bb0(%rip),%rdx        # 5500 <_ZNKSt5ctypeIcE8do_widenEc>
    b0b0:	be 0a 00 00 00       	mov    $0xa,%esi
    b0b5:	48 8b 40 30          	mov    0x30(%rax),%rax
    b0b9:	48 39 d0             	cmp    %rdx,%rax
    b0bc:	0f 84 d1 fd ff ff    	je     ae93 <_Z9benchmarkIdLl500EEmi+0x163>
    b0c2:	48 89 df             	mov    %rbx,%rdi
    b0c5:	ff d0                	callq  *%rax
    b0c7:	0f be f0             	movsbl %al,%esi
    b0ca:	e9 c4 fd ff ff       	jmpq   ae93 <_Z9benchmarkIdLl500EEmi+0x163>
    b0cf:	90                   	nop
    b0d0:	48 89 df             	mov    %rbx,%rdi
    b0d3:	e8 28 81 ff ff       	callq  3200 <_ZNKSt5ctypeIcE13_M_widen_initEv@plt>
    b0d8:	48 8b 03             	mov    (%rbx),%rax
    b0db:	48 8d 15 1e a4 ff ff 	lea    -0x5be2(%rip),%rdx        # 5500 <_ZNKSt5ctypeIcE8do_widenEc>
    b0e2:	be 0a 00 00 00       	mov    $0xa,%esi
    b0e7:	48 8b 40 30          	mov    0x30(%rax),%rax
    b0eb:	48 39 d0             	cmp    %rdx,%rax
    b0ee:	0f 84 db fc ff ff    	je     adcf <_Z9benchmarkIdLl500EEmi+0x9f>
    b0f4:	48 89 df             	mov    %rbx,%rdi
    b0f7:	ff d0                	callq  *%rax
    b0f9:	0f be f0             	movsbl %al,%esi
    b0fc:	e9 ce fc ff ff       	jmpq   adcf <_Z9benchmarkIdLl500EEmi+0x9f>
    b101:	e8 2a 81 ff ff       	callq  3230 <_ZSt16__throw_bad_castv@plt>
    b106:	48 89 c7             	mov    %rax,%rdi
    b109:	eb 09                	jmp    b114 <_Z9benchmarkIdLl500EEmi+0x3e4>
    b10b:	48 8b 7d c0          	mov    -0x40(%rbp),%rdi
    b10f:	e9 f6 fe ff ff       	jmpq   b00a <_Z9benchmarkIdLl500EEmi+0x2da>
    b114:	48 83 fa ff          	cmp    $0xffffffffffffffff,%rdx
    b118:	74 0f                	je     b129 <_Z9benchmarkIdLl500EEmi+0x3f9>
    b11a:	e8 91 82 ff ff       	callq  33b0 <_Unwind_Resume@plt>
    b11f:	48 89 c3             	mov    %rax,%rbx
    b122:	eb 0a                	jmp    b12e <_Z9benchmarkIdLl500EEmi+0x3fe>
    b124:	e8 97 80 ff ff       	callq  31c0 <__stack_chk_fail@plt>
    b129:	e8 12 81 ff ff       	callq  3240 <__cxa_call_unexpected@plt>
    b12e:	48 8b 7d c0          	mov    -0x40(%rbp),%rdi
    b132:	48 85 ff             	test   %rdi,%rdi
    b135:	74 05                	je     b13c <_Z9benchmarkIdLl500EEmi+0x40c>
    b137:	e8 14 81 ff ff       	callq  3250 <_ZdaPv@plt>
    b13c:	48 89 df             	mov    %rbx,%rdi
    b13f:	eb d9                	jmp    b11a <_Z9benchmarkIdLl500EEmi+0x3ea>
    b141:	66 2e 0f 1f 84 00 00 	nopw   %cs:0x0(%rax,%rax,1)
    b148:	00 00 00 
    b14b:	0f 1f 44 00 00       	nopl   0x0(%rax,%rax,1)

000000000000b150 <_ZN10RelaxationIdLl1000EEC1Eddlldd>:
    b150:	55                   	push   %rbp
    b151:	48 89 e5             	mov    %rsp,%rbp
    b154:	41 55                	push   %r13
    b156:	41 54                	push   %r12
    b158:	53                   	push   %rbx
    b159:	48 81 ec 58 10 00 00 	sub    $0x1058,%rsp
    b160:	48 83 0c 24 00       	orq    $0x0,(%rsp)
    b165:	48 81 c4 20 10 00 00 	add    $0x1020,%rsp
    b16c:	64 48 8b 04 25 28 00 	mov    %fs:0x28,%rax
    b173:	00 00 
    b175:	48 89 45 d8          	mov    %rax,-0x28(%rbp)
    b179:	31 c0                	xor    %eax,%eax
    b17b:	f2 48 0f 2c c2       	cvttsd2si %xmm2,%rax
    b180:	48 89 fb             	mov    %rdi,%rbx
    b183:	f2 0f 11 03          	movsd  %xmm0,(%rbx)
    b187:	49 89 f5             	mov    %rsi,%r13
    b18a:	49 89 d4             	mov    %rdx,%r12
    b18d:	f2 0f 11 4f 08       	movsd  %xmm1,0x8(%rdi)
    b192:	48 89 73 10          	mov    %rsi,0x10(%rbx)
    b196:	48 89 53 18          	mov    %rdx,0x18(%rbx)
    b19a:	f2 0f 11 45 c0       	movsd  %xmm0,-0x40(%rbp)
    b19f:	f2 0f 11 5d b8       	movsd  %xmm3,-0x48(%rbp)
    b1a4:	f2 0f 11 55 c8       	movsd  %xmm2,-0x38(%rbp)
    b1a9:	48 89 47 20          	mov    %rax,0x20(%rdi)
    b1ad:	f2 48 0f 2c c3       	cvttsd2si %xmm3,%rax
    b1b2:	48 89 47 28          	mov    %rax,0x28(%rdi)
    b1b6:	bf 00 12 7a 00       	mov    $0x7a1200,%edi
    b1bb:	e8 b0 7f ff ff       	callq  3170 <_Znwm@plt>
    b1c0:	f2 0f 10 05 30 64 00 	movsd  0x6430(%rip),%xmm0        # 115f8 <_ZTSN6GetOpt13_DefValOptionIdNS_8_OptionTIdEEEE+0x58>
    b1c7:	00 
    b1c8:	48 89 43 30          	mov    %rax,0x30(%rbx)
    b1cc:	66 0f 2e 45 c8       	ucomisd -0x38(%rbp),%xmm0
    b1d1:	0f 87 db 01 00 00    	ja     b3b2 <_ZN10RelaxationIdLl1000EEC1Eddlldd+0x262>
    b1d7:	49 8d 55 ff          	lea    -0x1(%r13),%rdx
    b1db:	48 81 fa e5 03 00 00 	cmp    $0x3e5,%rdx
    b1e2:	0f 87 fc 01 00 00    	ja     b3e4 <_ZN10RelaxationIdLl1000EEC1Eddlldd+0x294>
    b1e8:	49 8d 54 24 ff       	lea    -0x1(%r12),%rdx
    b1ed:	48 81 fa e5 03 00 00 	cmp    $0x3e5,%rdx
    b1f4:	0f 87 ea 01 00 00    	ja     b3e4 <_ZN10RelaxationIdLl1000EEC1Eddlldd+0x294>
    b1fa:	66 0f ef c0          	pxor   %xmm0,%xmm0
    b1fe:	f2 0f 10 65 c8       	movsd  -0x38(%rbp),%xmm4
    b203:	66 0f ef c9          	pxor   %xmm1,%xmm1
    b207:	f2 49 0f 2a c5       	cvtsi2sd %r13,%xmm0
    b20c:	66 0f 28 d0          	movapd %xmm0,%xmm2
    b210:	f2 0f 5c d4          	subsd  %xmm4,%xmm2
    b214:	66 0f 2e ca          	ucomisd %xmm2,%xmm1
    b218:	0f 87 62 01 00 00    	ja     b380 <_ZN10RelaxationIdLl1000EEC1Eddlldd+0x230>
    b21e:	f2 0f 58 c4          	addsd  %xmm4,%xmm0
    b222:	f2 0f 10 15 f6 63 00 	movsd  0x63f6(%rip),%xmm2        # 11620 <_ZTSN6GetOpt13_DefValOptionIdNS_8_OptionTIdEEEE+0x80>
    b229:	00 
    b22a:	66 0f 2e c2          	ucomisd %xmm2,%xmm0
    b22e:	0f 87 4c 01 00 00    	ja     b380 <_ZN10RelaxationIdLl1000EEC1Eddlldd+0x230>
    b234:	66 0f ef c0          	pxor   %xmm0,%xmm0
    b238:	f2 49 0f 2a c4       	cvtsi2sd %r12,%xmm0
    b23d:	66 0f 28 d8          	movapd %xmm0,%xmm3
    b241:	f2 0f 5c dc          	subsd  %xmm4,%xmm3
    b245:	66 0f 2e cb          	ucomisd %xmm3,%xmm1
    b249:	0f 87 31 01 00 00    	ja     b380 <_ZN10RelaxationIdLl1000EEC1Eddlldd+0x230>
    b24f:	f2 0f 58 c4          	addsd  %xmm4,%xmm0
    b253:	66 0f 2e c2          	ucomisd %xmm2,%xmm0
    b257:	0f 87 23 01 00 00    	ja     b380 <_ZN10RelaxationIdLl1000EEC1Eddlldd+0x230>
    b25d:	f2 0f 10 7d b8       	movsd  -0x48(%rbp),%xmm7
    b262:	66 0f 2e 7d c0       	ucomisd -0x40(%rbp),%xmm7
    b267:	0f 87 e1 00 00 00    	ja     b34e <_ZN10RelaxationIdLl1000EEC1Eddlldd+0x1fe>
    b26d:	48 89 c2             	mov    %rax,%rdx
    b270:	48 c1 e2 3c          	shl    $0x3c,%rdx
    b274:	48 c1 ea 3f          	shr    $0x3f,%rdx
    b278:	48 85 d2             	test   %rdx,%rdx
    b27b:	0f 84 af 00 00 00    	je     b330 <_ZN10RelaxationIdLl1000EEC1Eddlldd+0x1e0>
    b281:	f2 0f 11 88 c0 f2 79 	movsd  %xmm1,0x79f2c0(%rax)
    b288:	00 
    b289:	41 ba e6 03 00 00    	mov    $0x3e6,%r10d
    b28f:	be f3 01 00 00       	mov    $0x1f3,%esi
    b294:	f2 0f 11 08          	movsd  %xmm1,(%rax)
    b298:	41 bb e7 03 00 00    	mov    $0x3e7,%r11d
    b29e:	41 b9 01 00 00 00    	mov    $0x1,%r9d
    b2a4:	48 81 c2 58 3e 0f 00 	add    $0xf3e58,%rdx
    b2ab:	66 0f ef c0          	pxor   %xmm0,%xmm0
    b2af:	48 c1 e2 03          	shl    $0x3,%rdx
    b2b3:	31 c9                	xor    %ecx,%ecx
    b2b5:	4c 8d 04 10          	lea    (%rax,%rdx,1),%r8
    b2b9:	48 8d bc 10 40 0d 86 	lea    -0x79f2c0(%rax,%rdx,1),%rdi
    b2c0:	ff 
    b2c1:	31 d2                	xor    %edx,%edx
    b2c3:	0f 1f 44 00 00       	nopl   0x0(%rax,%rax,1)
    b2c8:	48 83 c1 01          	add    $0x1,%rcx
    b2cc:	41 0f 29 04 10       	movaps %xmm0,(%r8,%rdx,1)
    b2d1:	0f 11 04 17          	movups %xmm0,(%rdi,%rdx,1)
    b2d5:	48 83 c2 10          	add    $0x10,%rdx
    b2d9:	48 39 ce             	cmp    %rcx,%rsi
    b2dc:	77 ea                	ja     b2c8 <_ZN10RelaxationIdLl1000EEC1Eddlldd+0x178>
    b2de:	4d 01 d1             	add    %r10,%r9
    b2e1:	4d 39 d3             	cmp    %r10,%r11
    b2e4:	74 16                	je     b2fc <_ZN10RelaxationIdLl1000EEC1Eddlldd+0x1ac>
    b2e6:	4a 8d 04 c8          	lea    (%rax,%r9,8),%rax
    b2ea:	48 c7 80 c0 f2 79 00 	movq   $0x0,0x79f2c0(%rax)
    b2f1:	00 00 00 00 
    b2f5:	48 c7 00 00 00 00 00 	movq   $0x0,(%rax)
    b2fc:	48 8d 75 d0          	lea    -0x30(%rbp),%rsi
    b300:	48 8d 3d c9 b5 ff ff 	lea    -0x4a37(%rip),%rdi        # 68d0 <_ZN10RelaxationIdLl1000EEC2Eddlldd._omp_fn.12>
    b307:	31 c9                	xor    %ecx,%ecx
    b309:	31 d2                	xor    %edx,%edx
    b30b:	48 89 5d d0          	mov    %rbx,-0x30(%rbp)
    b30f:	e8 bc 7f ff ff       	callq  32d0 <GOMP_parallel@plt>
    b314:	48 8b 45 d8          	mov    -0x28(%rbp),%rax
    b318:	64 48 33 04 25 28 00 	xor    %fs:0x28,%rax
    b31f:	00 00 
    b321:	75 26                	jne    b349 <_ZN10RelaxationIdLl1000EEC1Eddlldd+0x1f9>
    b323:	48 83 c4 38          	add    $0x38,%rsp
    b327:	5b                   	pop    %rbx
    b328:	41 5c                	pop    %r12
    b32a:	41 5d                	pop    %r13
    b32c:	5d                   	pop    %rbp
    b32d:	c3                   	retq   
    b32e:	66 90                	xchg   %ax,%ax
    b330:	41 ba e8 03 00 00    	mov    $0x3e8,%r10d
    b336:	be f4 01 00 00       	mov    $0x1f4,%esi
    b33b:	41 bb e8 03 00 00    	mov    $0x3e8,%r11d
    b341:	45 31 c9             	xor    %r9d,%r9d
    b344:	e9 5b ff ff ff       	jmpq   b2a4 <_ZN10RelaxationIdLl1000EEC1Eddlldd+0x154>
    b349:	e8 72 7e ff ff       	callq  31c0 <__stack_chk_fail@plt>
    b34e:	bf 10 00 00 00       	mov    $0x10,%edi
    b353:	e8 e8 7c ff ff       	callq  3040 <__cxa_allocate_exception@plt>
    b358:	48 8d 35 d9 5f 00 00 	lea    0x5fd9(%rip),%rsi        # 11338 <_fini+0x1e4>
    b35f:	48 89 c7             	mov    %rax,%rdi
    b362:	49 89 c5             	mov    %rax,%r13
    b365:	e8 36 7f ff ff       	callq  32a0 <_ZNSt11logic_errorC1EPKc@plt>
    b36a:	48 8b 15 5f 8c 20 00 	mov    0x208c5f(%rip),%rdx        # 213fd0 <_DYNAMIC+0x238>
    b371:	48 8d 35 58 93 20 00 	lea    0x209358(%rip),%rsi        # 2146d0 <_ZTISt11logic_error@@GLIBCXX_3.4>
    b378:	4c 89 ef             	mov    %r13,%rdi
    b37b:	e8 10 80 ff ff       	callq  3390 <__cxa_throw@plt>
    b380:	bf 10 00 00 00       	mov    $0x10,%edi
    b385:	e8 b6 7c ff ff       	callq  3040 <__cxa_allocate_exception@plt>
    b38a:	48 8d 35 3f 5f 00 00 	lea    0x5f3f(%rip),%rsi        # 112d0 <_fini+0x17c>
    b391:	48 89 c7             	mov    %rax,%rdi
    b394:	49 89 c5             	mov    %rax,%r13
    b397:	e8 04 7f ff ff       	callq  32a0 <_ZNSt11logic_errorC1EPKc@plt>
    b39c:	48 8b 15 2d 8c 20 00 	mov    0x208c2d(%rip),%rdx        # 213fd0 <_DYNAMIC+0x238>
    b3a3:	48 8d 35 26 93 20 00 	lea    0x209326(%rip),%rsi        # 2146d0 <_ZTISt11logic_error@@GLIBCXX_3.4>
    b3aa:	4c 89 ef             	mov    %r13,%rdi
    b3ad:	e8 de 7f ff ff       	callq  3390 <__cxa_throw@plt>
    b3b2:	bf 10 00 00 00       	mov    $0x10,%edi
    b3b7:	e8 84 7c ff ff       	callq  3040 <__cxa_allocate_exception@plt>
    b3bc:	48 8d 35 85 5e 00 00 	lea    0x5e85(%rip),%rsi        # 11248 <_fini+0xf4>
    b3c3:	48 89 c7             	mov    %rax,%rdi
    b3c6:	49 89 c5             	mov    %rax,%r13
    b3c9:	e8 d2 7e ff ff       	callq  32a0 <_ZNSt11logic_errorC1EPKc@plt>
    b3ce:	48 8b 15 fb 8b 20 00 	mov    0x208bfb(%rip),%rdx        # 213fd0 <_DYNAMIC+0x238>
    b3d5:	48 8d 35 f4 92 20 00 	lea    0x2092f4(%rip),%rsi        # 2146d0 <_ZTISt11logic_error@@GLIBCXX_3.4>
    b3dc:	4c 89 ef             	mov    %r13,%rdi
    b3df:	e8 ac 7f ff ff       	callq  3390 <__cxa_throw@plt>
    b3e4:	bf 10 00 00 00       	mov    $0x10,%edi
    b3e9:	e8 52 7c ff ff       	callq  3040 <__cxa_allocate_exception@plt>
    b3ee:	48 8d 35 7b 5e 00 00 	lea    0x5e7b(%rip),%rsi        # 11270 <_fini+0x11c>
    b3f5:	48 89 c7             	mov    %rax,%rdi
    b3f8:	49 89 c5             	mov    %rax,%r13
    b3fb:	e8 a0 7e ff ff       	callq  32a0 <_ZNSt11logic_errorC1EPKc@plt>
    b400:	48 8b 15 c9 8b 20 00 	mov    0x208bc9(%rip),%rdx        # 213fd0 <_DYNAMIC+0x238>
    b407:	48 8d 35 c2 92 20 00 	lea    0x2092c2(%rip),%rsi        # 2146d0 <_ZTISt11logic_error@@GLIBCXX_3.4>
    b40e:	4c 89 ef             	mov    %r13,%rdi
    b411:	e8 7a 7f ff ff       	callq  3390 <__cxa_throw@plt>
    b416:	48 89 c7             	mov    %rax,%rdi
    b419:	eb 1a                	jmp    b435 <_ZN10RelaxationIdLl1000EEC1Eddlldd+0x2e5>
    b41b:	48 89 c3             	mov    %rax,%rbx
    b41e:	49 89 d4             	mov    %rdx,%r12
    b421:	eb 04                	jmp    b427 <_ZN10RelaxationIdLl1000EEC1Eddlldd+0x2d7>
    b423:	eb f6                	jmp    b41b <_ZN10RelaxationIdLl1000EEC1Eddlldd+0x2cb>
    b425:	eb f4                	jmp    b41b <_ZN10RelaxationIdLl1000EEC1Eddlldd+0x2cb>
    b427:	4c 89 ef             	mov    %r13,%rdi
    b42a:	e8 81 7c ff ff       	callq  30b0 <__cxa_free_exception@plt>
    b42f:	48 89 df             	mov    %rbx,%rdi
    b432:	4c 89 e2             	mov    %r12,%rdx
    b435:	48 83 fa ff          	cmp    $0xffffffffffffffff,%rdx
    b439:	74 07                	je     b442 <_ZN10RelaxationIdLl1000EEC1Eddlldd+0x2f2>
    b43b:	e8 70 7f ff ff       	callq  33b0 <_Unwind_Resume@plt>
    b440:	eb d9                	jmp    b41b <_ZN10RelaxationIdLl1000EEC1Eddlldd+0x2cb>
    b442:	e8 f9 7d ff ff       	callq  3240 <__cxa_call_unexpected@plt>
    b447:	66 0f 1f 84 00 00 00 	nopw   0x0(%rax,%rax,1)
    b44e:	00 00 

000000000000b450 <_Z9benchmarkIdLl1000EEmi>:
    b450:	55                   	push   %rbp
    b451:	48 89 e5             	mov    %rsp,%rbp
    b454:	41 57                	push   %r15
    b456:	41 56                	push   %r14
    b458:	41 55                	push   %r13
    b45a:	41 54                	push   %r12
    b45c:	53                   	push   %rbx
    b45d:	48 81 ec 78 10 00 00 	sub    $0x1078,%rsp
    b464:	48 83 0c 24 00       	orq    $0x0,(%rsp)
    b469:	48 81 c4 20 10 00 00 	add    $0x1020,%rsp
    b470:	64 48 8b 04 25 28 00 	mov    %fs:0x28,%rax
    b477:	00 00 
    b479:	48 89 45 c8          	mov    %rax,-0x38(%rbp)
    b47d:	31 c0                	xor    %eax,%eax
    b47f:	e8 4c 7d ff ff       	callq  31d0 <omp_set_num_threads@plt>
    b484:	e8 d7 7e ff ff       	callq  3360 <omp_get_max_threads@plt>
    b489:	48 8d 35 d3 5c 00 00 	lea    0x5cd3(%rip),%rsi        # 11163 <_fini+0xf>
    b490:	48 8d 3d c9 8f 20 00 	lea    0x208fc9(%rip),%rdi        # 214460 <_ZSt4cout@@GLIBCXX_3.4>
    b497:	ba 12 00 00 00       	mov    $0x12,%edx
    b49c:	89 c3                	mov    %eax,%ebx
    b49e:	e8 4d 7d ff ff       	callq  31f0 <_ZSt16__ostream_insertIcSt11char_traitsIcEERSt13basic_ostreamIT_T0_ES6_PKS3_l@plt>
    b4a3:	48 8d 3d b6 8f 20 00 	lea    0x208fb6(%rip),%rdi        # 214460 <_ZSt4cout@@GLIBCXX_3.4>
    b4aa:	89 de                	mov    %ebx,%esi
    b4ac:	e8 ef 7e ff ff       	callq  33a0 <_ZNSolsEi@plt>
    b4b1:	48 8d 35 be 5c 00 00 	lea    0x5cbe(%rip),%rsi        # 11176 <_fini+0x22>
    b4b8:	49 89 c4             	mov    %rax,%r12
    b4bb:	ba 09 00 00 00       	mov    $0x9,%edx
    b4c0:	48 89 c7             	mov    %rax,%rdi
    b4c3:	e8 28 7d ff ff       	callq  31f0 <_ZSt16__ostream_insertIcSt11char_traitsIcEERSt13basic_ostreamIT_T0_ES6_PKS3_l@plt>
    b4c8:	49 8b 04 24          	mov    (%r12),%rax
    b4cc:	48 8b 40 e8          	mov    -0x18(%rax),%rax
    b4d0:	49 8b 9c 04 f0 00 00 	mov    0xf0(%r12,%rax,1),%rbx
    b4d7:	00 
    b4d8:	48 85 db             	test   %rbx,%rbx
    b4db:	0f 84 40 03 00 00    	je     b821 <_Z9benchmarkIdLl1000EEmi+0x3d1>
    b4e1:	80 7b 38 00          	cmpb   $0x0,0x38(%rbx)
    b4e5:	0f 84 05 03 00 00    	je     b7f0 <_Z9benchmarkIdLl1000EEmi+0x3a0>
    b4eb:	0f be 73 43          	movsbl 0x43(%rbx),%esi
    b4ef:	4c 89 e7             	mov    %r12,%rdi
    b4f2:	e8 69 7a ff ff       	callq  2f60 <_ZNSo3putEc@plt>
    b4f7:	48 89 c7             	mov    %rax,%rdi
    b4fa:	e8 91 7b ff ff       	callq  3090 <_ZNSo5flushEv@plt>
    b4ff:	48 8d 35 7a 5c 00 00 	lea    0x5c7a(%rip),%rsi        # 11180 <_fini+0x2c>
    b506:	48 8d 3d 53 8f 20 00 	lea    0x208f53(%rip),%rdi        # 214460 <_ZSt4cout@@GLIBCXX_3.4>
    b50d:	ba 0f 00 00 00       	mov    $0xf,%edx
    b512:	44 8b 25 3b 93 20 00 	mov    0x20933b(%rip),%r12d        # 214854 <steps>
    b519:	e8 d2 7c ff ff       	callq  31f0 <_ZSt16__ostream_insertIcSt11char_traitsIcEERSt13basic_ostreamIT_T0_ES6_PKS3_l@plt>
    b51e:	48 8d 3d 3b 8f 20 00 	lea    0x208f3b(%rip),%rdi        # 214460 <_ZSt4cout@@GLIBCXX_3.4>
    b525:	be e8 03 00 00       	mov    $0x3e8,%esi
    b52a:	e8 21 7c ff ff       	callq  3150 <_ZNSo9_M_insertIlEERSoT_@plt>
    b52f:	48 8d 35 39 5c 00 00 	lea    0x5c39(%rip),%rsi        # 1116f <_fini+0x1b>
    b536:	48 89 c3             	mov    %rax,%rbx
    b539:	ba 06 00 00 00       	mov    $0x6,%edx
    b53e:	48 89 c7             	mov    %rax,%rdi
    b541:	e8 aa 7c ff ff       	callq  31f0 <_ZSt16__ostream_insertIcSt11char_traitsIcEERSt13basic_ostreamIT_T0_ES6_PKS3_l@plt>
    b546:	44 89 e6             	mov    %r12d,%esi
    b549:	48 89 df             	mov    %rbx,%rdi
    b54c:	e8 4f 7e ff ff       	callq  33a0 <_ZNSolsEi@plt>
    b551:	48 8d 35 38 5c 00 00 	lea    0x5c38(%rip),%rsi        # 11190 <_fini+0x3c>
    b558:	48 89 c3             	mov    %rax,%rbx
    b55b:	ba 0f 00 00 00       	mov    $0xf,%edx
    b560:	48 89 c7             	mov    %rax,%rdi
    b563:	e8 88 7c ff ff       	callq  31f0 <_ZSt16__ostream_insertIcSt11char_traitsIcEERSt13basic_ostreamIT_T0_ES6_PKS3_l@plt>
    b568:	48 89 df             	mov    %rbx,%rdi
    b56b:	be 01 00 00 00       	mov    $0x1,%esi
    b570:	e8 2b 7e ff ff       	callq  33a0 <_ZNSolsEi@plt>
    b575:	48 8d 35 24 5c 00 00 	lea    0x5c24(%rip),%rsi        # 111a0 <_fini+0x4c>
    b57c:	49 89 c4             	mov    %rax,%r12
    b57f:	ba 06 00 00 00       	mov    $0x6,%edx
    b584:	48 89 c7             	mov    %rax,%rdi
    b587:	e8 64 7c ff ff       	callq  31f0 <_ZSt16__ostream_insertIcSt11char_traitsIcEERSt13basic_ostreamIT_T0_ES6_PKS3_l@plt>
    b58c:	49 8b 04 24          	mov    (%r12),%rax
    b590:	48 8b 40 e8          	mov    -0x18(%rax),%rax
    b594:	49 8b 9c 04 f0 00 00 	mov    0xf0(%r12,%rax,1),%rbx
    b59b:	00 
    b59c:	48 85 db             	test   %rbx,%rbx
    b59f:	0f 84 7c 02 00 00    	je     b821 <_Z9benchmarkIdLl1000EEmi+0x3d1>
    b5a5:	80 7b 38 00          	cmpb   $0x0,0x38(%rbx)
    b5a9:	0f 84 0f 02 00 00    	je     b7be <_Z9benchmarkIdLl1000EEmi+0x36e>
    b5af:	0f be 73 43          	movsbl 0x43(%rbx),%esi
    b5b3:	4c 89 e7             	mov    %r12,%rdi
    b5b6:	e8 a5 79 ff ff       	callq  2f60 <_ZNSo3putEc@plt>
    b5bb:	48 89 c7             	mov    %rax,%rdi
    b5be:	e8 cd 7a ff ff       	callq  3090 <_ZNSo5flushEv@plt>
    b5c3:	0f 31                	rdtsc  
    b5c5:	66 0f ef d2          	pxor   %xmm2,%xmm2
    b5c9:	48 c1 e2 20          	shl    $0x20,%rdx
    b5cd:	89 c0                	mov    %eax,%eax
    b5cf:	4c 8d 65 90          	lea    -0x70(%rbp),%r12
    b5d3:	be f4 01 00 00       	mov    $0x1f4,%esi
    b5d8:	48 09 c2             	or     %rax,%rdx
    b5db:	f2 0f 10 1d 65 92 20 	movsd  0x209265(%rip),%xmm3        # 214848 <heat>
    b5e2:	00 
    b5e3:	f2 0f 10 0d 1d 60 00 	movsd  0x601d(%rip),%xmm1        # 11608 <_ZTSN6GetOpt13_DefValOptionIdNS_8_OptionTIdEEEE+0x68>
    b5ea:	00 
    b5eb:	49 89 d7             	mov    %rdx,%r15
    b5ee:	f2 0f 2a 15 5a 92 20 	cvtsi2sdl 0x20925a(%rip),%xmm2        # 214850 <radius>
    b5f5:	00 
    b5f6:	f2 0f 10 05 12 60 00 	movsd  0x6012(%rip),%xmm0        # 11610 <_ZTSN6GetOpt13_DefValOptionIdNS_8_OptionTIdEEEE+0x70>
    b5fd:	00 
    b5fe:	ba f4 01 00 00       	mov    $0x1f4,%edx
    b603:	4c 89 e7             	mov    %r12,%rdi
    b606:	e8 45 fb ff ff       	callq  b150 <_ZN10RelaxationIdLl1000EEC1Eddlldd>
    b60b:	8b 05 43 92 20 00    	mov    0x209243(%rip),%eax        # 214854 <steps>
    b611:	85 c0                	test   %eax,%eax
    b613:	0f 8e 12 02 00 00    	jle    b82b <_Z9benchmarkIdLl1000EEmi+0x3db>
    b619:	4c 8d 6d 80          	lea    -0x80(%rbp),%r13
    b61d:	bb 01 00 00 00       	mov    $0x1,%ebx
    b622:	66 0f 1f 44 00 00    	nopw   0x0(%rax,%rax,1)
    b628:	bf 00 12 7a 00       	mov    $0x7a1200,%edi
    b62d:	e8 3e 7b ff ff       	callq  3170 <_Znwm@plt>
    b632:	48 8b 75 c0          	mov    -0x40(%rbp),%rsi
    b636:	48 8d 48 10          	lea    0x10(%rax),%rcx
    b63a:	48 8d 96 c0 f2 79 00 	lea    0x79f2c0(%rsi),%rdx
    b641:	48 39 ca             	cmp    %rcx,%rdx
    b644:	73 10                	jae    b656 <_Z9benchmarkIdLl1000EEmi+0x206>
    b646:	48 8d 8e d0 f2 79 00 	lea    0x79f2d0(%rsi),%rcx
    b64d:	48 39 c8             	cmp    %rcx,%rax
    b650:	0f 82 3a 01 00 00    	jb     b790 <_Z9benchmarkIdLl1000EEmi+0x340>
    b656:	48 c1 e2 3c          	shl    $0x3c,%rdx
    b65a:	48 c1 ea 3f          	shr    $0x3f,%rdx
    b65e:	48 85 d2             	test   %rdx,%rdx
    b661:	0f 84 09 01 00 00    	je     b770 <_Z9benchmarkIdLl1000EEmi+0x320>
    b667:	48 c7 86 c0 f2 79 00 	movq   $0x0,0x79f2c0(%rsi)
    b66e:	00 00 00 00 
    b672:	41 bb e6 03 00 00    	mov    $0x3e6,%r11d
    b678:	48 c7 00 00 00 00 00 	movq   $0x0,(%rax)
    b67f:	41 be e7 03 00 00    	mov    $0x3e7,%r14d
    b685:	bf f3 01 00 00       	mov    $0x1f3,%edi
    b68a:	41 ba 01 00 00 00    	mov    $0x1,%r10d
    b690:	48 81 c2 58 3e 0f 00 	add    $0xf3e58,%rdx
    b697:	31 c9                	xor    %ecx,%ecx
    b699:	48 c1 e2 03          	shl    $0x3,%rdx
    b69d:	4c 8d 0c 16          	lea    (%rsi,%rdx,1),%r9
    b6a1:	4c 8d 84 10 40 0d 86 	lea    -0x79f2c0(%rax,%rdx,1),%r8
    b6a8:	ff 
    b6a9:	31 d2                	xor    %edx,%edx
    b6ab:	0f 1f 44 00 00       	nopl   0x0(%rax,%rax,1)
    b6b0:	66 0f ef e4          	pxor   %xmm4,%xmm4
    b6b4:	48 83 c1 01          	add    $0x1,%rcx
    b6b8:	41 0f 29 24 11       	movaps %xmm4,(%r9,%rdx,1)
    b6bd:	41 0f 11 24 10       	movups %xmm4,(%r8,%rdx,1)
    b6c2:	48 83 c2 10          	add    $0x10,%rdx
    b6c6:	48 39 f9             	cmp    %rdi,%rcx
    b6c9:	72 e5                	jb     b6b0 <_Z9benchmarkIdLl1000EEmi+0x260>
    b6cb:	4d 01 da             	add    %r11,%r10
    b6ce:	4d 39 f3             	cmp    %r14,%r11
    b6d1:	74 14                	je     b6e7 <_Z9benchmarkIdLl1000EEmi+0x297>
    b6d3:	4a c7 84 d6 c0 f2 79 	movq   $0x0,0x79f2c0(%rsi,%r10,8)
    b6da:	00 00 00 00 00 
    b6df:	4a c7 04 d0 00 00 00 	movq   $0x0,(%rax,%r10,8)
    b6e6:	00 
    b6e7:	48 8d 3d 32 b3 ff ff 	lea    -0x4cce(%rip),%rdi        # 6a20 <_ZN10RelaxationIdLl1000EE7iterateEv._omp_fn.13>
    b6ee:	31 c9                	xor    %ecx,%ecx
    b6f0:	31 d2                	xor    %edx,%edx
    b6f2:	4c 89 ee             	mov    %r13,%rsi
    b6f5:	4c 89 65 80          	mov    %r12,-0x80(%rbp)
    b6f9:	48 89 45 88          	mov    %rax,-0x78(%rbp)
    b6fd:	e8 ce 7b ff ff       	callq  32d0 <GOMP_parallel@plt>
    b702:	48 8b 7d c0          	mov    -0x40(%rbp),%rdi
    b706:	4c 8b 75 88          	mov    -0x78(%rbp),%r14
    b70a:	48 85 ff             	test   %rdi,%rdi
    b70d:	74 05                	je     b714 <_Z9benchmarkIdLl1000EEmi+0x2c4>
    b70f:	e8 3c 7b ff ff       	callq  3250 <_ZdaPv@plt>
    b714:	83 c3 01             	add    $0x1,%ebx
    b717:	39 1d 37 91 20 00    	cmp    %ebx,0x209137(%rip)        # 214854 <steps>
    b71d:	4c 89 75 c0          	mov    %r14,-0x40(%rbp)
    b721:	0f 8d 01 ff ff ff    	jge    b628 <_Z9benchmarkIdLl1000EEmi+0x1d8>
    b727:	4c 89 f7             	mov    %r14,%rdi
    b72a:	0f 31                	rdtsc  
    b72c:	48 89 d3             	mov    %rdx,%rbx
    b72f:	89 c0                	mov    %eax,%eax
    b731:	48 c1 e3 20          	shl    $0x20,%rbx
    b735:	48 09 c3             	or     %rax,%rbx
    b738:	4c 29 fb             	sub    %r15,%rbx
    b73b:	48 85 ff             	test   %rdi,%rdi
    b73e:	74 05                	je     b745 <_Z9benchmarkIdLl1000EEmi+0x2f5>
    b740:	e8 0b 7b ff ff       	callq  3250 <_ZdaPv@plt>
    b745:	48 89 d8             	mov    %rbx,%rax
    b748:	48 8b 5d c8          	mov    -0x38(%rbp),%rbx
    b74c:	64 48 33 1c 25 28 00 	xor    %fs:0x28,%rbx
    b753:	00 00 
    b755:	0f 85 e9 00 00 00    	jne    b844 <_Z9benchmarkIdLl1000EEmi+0x3f4>
    b75b:	48 83 c4 58          	add    $0x58,%rsp
    b75f:	5b                   	pop    %rbx
    b760:	41 5c                	pop    %r12
    b762:	41 5d                	pop    %r13
    b764:	41 5e                	pop    %r14
    b766:	41 5f                	pop    %r15
    b768:	5d                   	pop    %rbp
    b769:	c3                   	retq   
    b76a:	66 0f 1f 44 00 00    	nopw   0x0(%rax,%rax,1)
    b770:	41 bb e8 03 00 00    	mov    $0x3e8,%r11d
    b776:	41 be e8 03 00 00    	mov    $0x3e8,%r14d
    b77c:	bf f4 01 00 00       	mov    $0x1f4,%edi
    b781:	45 31 d2             	xor    %r10d,%r10d
    b784:	e9 07 ff ff ff       	jmpq   b690 <_Z9benchmarkIdLl1000EEmi+0x240>
    b789:	0f 1f 80 00 00 00 00 	nopl   0x0(%rax)
    b790:	31 d2                	xor    %edx,%edx
    b792:	66 0f 1f 44 00 00    	nopw   0x0(%rax,%rax,1)
    b798:	48 c7 84 d6 c0 f2 79 	movq   $0x0,0x79f2c0(%rsi,%rdx,8)
    b79f:	00 00 00 00 00 
    b7a4:	48 c7 04 d0 00 00 00 	movq   $0x0,(%rax,%rdx,8)
    b7ab:	00 
    b7ac:	48 83 c2 01          	add    $0x1,%rdx
    b7b0:	48 81 fa e8 03 00 00 	cmp    $0x3e8,%rdx
    b7b7:	75 df                	jne    b798 <_Z9benchmarkIdLl1000EEmi+0x348>
    b7b9:	e9 29 ff ff ff       	jmpq   b6e7 <_Z9benchmarkIdLl1000EEmi+0x297>
    b7be:	48 89 df             	mov    %rbx,%rdi
    b7c1:	e8 3a 7a ff ff       	callq  3200 <_ZNKSt5ctypeIcE13_M_widen_initEv@plt>
    b7c6:	48 8b 03             	mov    (%rbx),%rax
    b7c9:	48 8d 15 30 9d ff ff 	lea    -0x62d0(%rip),%rdx        # 5500 <_ZNKSt5ctypeIcE8do_widenEc>
    b7d0:	be 0a 00 00 00       	mov    $0xa,%esi
    b7d5:	48 8b 40 30          	mov    0x30(%rax),%rax
    b7d9:	48 39 d0             	cmp    %rdx,%rax
    b7dc:	0f 84 d1 fd ff ff    	je     b5b3 <_Z9benchmarkIdLl1000EEmi+0x163>
    b7e2:	48 89 df             	mov    %rbx,%rdi
    b7e5:	ff d0                	callq  *%rax
    b7e7:	0f be f0             	movsbl %al,%esi
    b7ea:	e9 c4 fd ff ff       	jmpq   b5b3 <_Z9benchmarkIdLl1000EEmi+0x163>
    b7ef:	90                   	nop
    b7f0:	48 89 df             	mov    %rbx,%rdi
    b7f3:	e8 08 7a ff ff       	callq  3200 <_ZNKSt5ctypeIcE13_M_widen_initEv@plt>
    b7f8:	48 8b 03             	mov    (%rbx),%rax
    b7fb:	48 8d 15 fe 9c ff ff 	lea    -0x6302(%rip),%rdx        # 5500 <_ZNKSt5ctypeIcE8do_widenEc>
    b802:	be 0a 00 00 00       	mov    $0xa,%esi
    b807:	48 8b 40 30          	mov    0x30(%rax),%rax
    b80b:	48 39 d0             	cmp    %rdx,%rax
    b80e:	0f 84 db fc ff ff    	je     b4ef <_Z9benchmarkIdLl1000EEmi+0x9f>
    b814:	48 89 df             	mov    %rbx,%rdi
    b817:	ff d0                	callq  *%rax
    b819:	0f be f0             	movsbl %al,%esi
    b81c:	e9 ce fc ff ff       	jmpq   b4ef <_Z9benchmarkIdLl1000EEmi+0x9f>
    b821:	e8 0a 7a ff ff       	callq  3230 <_ZSt16__throw_bad_castv@plt>
    b826:	48 89 c7             	mov    %rax,%rdi
    b829:	eb 09                	jmp    b834 <_Z9benchmarkIdLl1000EEmi+0x3e4>
    b82b:	48 8b 7d c0          	mov    -0x40(%rbp),%rdi
    b82f:	e9 f6 fe ff ff       	jmpq   b72a <_Z9benchmarkIdLl1000EEmi+0x2da>
    b834:	48 83 fa ff          	cmp    $0xffffffffffffffff,%rdx
    b838:	74 0f                	je     b849 <_Z9benchmarkIdLl1000EEmi+0x3f9>
    b83a:	e8 71 7b ff ff       	callq  33b0 <_Unwind_Resume@plt>
    b83f:	48 89 c3             	mov    %rax,%rbx
    b842:	eb 0a                	jmp    b84e <_Z9benchmarkIdLl1000EEmi+0x3fe>
    b844:	e8 77 79 ff ff       	callq  31c0 <__stack_chk_fail@plt>
    b849:	e8 f2 79 ff ff       	callq  3240 <__cxa_call_unexpected@plt>
    b84e:	48 8b 7d c0          	mov    -0x40(%rbp),%rdi
    b852:	48 85 ff             	test   %rdi,%rdi
    b855:	74 05                	je     b85c <_Z9benchmarkIdLl1000EEmi+0x40c>
    b857:	e8 f4 79 ff ff       	callq  3250 <_ZdaPv@plt>
    b85c:	48 89 df             	mov    %rbx,%rdi
    b85f:	eb d9                	jmp    b83a <_Z9benchmarkIdLl1000EEmi+0x3ea>
    b861:	66 2e 0f 1f 84 00 00 	nopw   %cs:0x0(%rax,%rax,1)
    b868:	00 00 00 
    b86b:	0f 1f 44 00 00       	nopl   0x0(%rax,%rax,1)

000000000000b870 <_ZN10RelaxationIdLl10000EEC1Eddlldd>:
    b870:	55                   	push   %rbp
    b871:	48 89 e5             	mov    %rsp,%rbp
    b874:	41 55                	push   %r13
    b876:	41 54                	push   %r12
    b878:	53                   	push   %rbx
    b879:	48 81 ec 58 10 00 00 	sub    $0x1058,%rsp
    b880:	48 83 0c 24 00       	orq    $0x0,(%rsp)
    b885:	48 81 c4 20 10 00 00 	add    $0x1020,%rsp
    b88c:	64 48 8b 04 25 28 00 	mov    %fs:0x28,%rax
    b893:	00 00 
    b895:	48 89 45 d8          	mov    %rax,-0x28(%rbp)
    b899:	31 c0                	xor    %eax,%eax
    b89b:	f2 48 0f 2c c2       	cvttsd2si %xmm2,%rax
    b8a0:	48 89 fb             	mov    %rdi,%rbx
    b8a3:	f2 0f 11 03          	movsd  %xmm0,(%rbx)
    b8a7:	49 89 f5             	mov    %rsi,%r13
    b8aa:	49 89 d4             	mov    %rdx,%r12
    b8ad:	f2 0f 11 4f 08       	movsd  %xmm1,0x8(%rdi)
    b8b2:	48 89 73 10          	mov    %rsi,0x10(%rbx)
    b8b6:	48 89 53 18          	mov    %rdx,0x18(%rbx)
    b8ba:	f2 0f 11 45 c0       	movsd  %xmm0,-0x40(%rbp)
    b8bf:	f2 0f 11 5d b8       	movsd  %xmm3,-0x48(%rbp)
    b8c4:	f2 0f 11 55 c8       	movsd  %xmm2,-0x38(%rbp)
    b8c9:	48 89 47 20          	mov    %rax,0x20(%rdi)
    b8cd:	f2 48 0f 2c c3       	cvttsd2si %xmm3,%rax
    b8d2:	48 89 47 28          	mov    %rax,0x28(%rdi)
    b8d6:	bf 00 08 af 2f       	mov    $0x2faf0800,%edi
    b8db:	e8 90 78 ff ff       	callq  3170 <_Znwm@plt>
    b8e0:	f2 0f 10 05 10 5d 00 	movsd  0x5d10(%rip),%xmm0        # 115f8 <_ZTSN6GetOpt13_DefValOptionIdNS_8_OptionTIdEEEE+0x58>
    b8e7:	00 
    b8e8:	48 89 43 30          	mov    %rax,0x30(%rbx)
    b8ec:	66 0f 2e 45 c8       	ucomisd -0x38(%rbp),%xmm0
    b8f1:	0f 87 db 01 00 00    	ja     bad2 <_ZN10RelaxationIdLl10000EEC1Eddlldd+0x262>
    b8f7:	49 8d 55 ff          	lea    -0x1(%r13),%rdx
    b8fb:	48 81 fa 0d 27 00 00 	cmp    $0x270d,%rdx
    b902:	0f 87 fc 01 00 00    	ja     bb04 <_ZN10RelaxationIdLl10000EEC1Eddlldd+0x294>
    b908:	49 8d 54 24 ff       	lea    -0x1(%r12),%rdx
    b90d:	48 81 fa 0d 27 00 00 	cmp    $0x270d,%rdx
    b914:	0f 87 ea 01 00 00    	ja     bb04 <_ZN10RelaxationIdLl10000EEC1Eddlldd+0x294>
    b91a:	66 0f ef c0          	pxor   %xmm0,%xmm0
    b91e:	f2 0f 10 65 c8       	movsd  -0x38(%rbp),%xmm4
    b923:	66 0f ef c9          	pxor   %xmm1,%xmm1
    b927:	f2 49 0f 2a c5       	cvtsi2sd %r13,%xmm0
    b92c:	66 0f 28 d0          	movapd %xmm0,%xmm2
    b930:	f2 0f 5c d4          	subsd  %xmm4,%xmm2
    b934:	66 0f 2e ca          	ucomisd %xmm2,%xmm1
    b938:	0f 87 62 01 00 00    	ja     baa0 <_ZN10RelaxationIdLl10000EEC1Eddlldd+0x230>
    b93e:	f2 0f 58 c4          	addsd  %xmm4,%xmm0
    b942:	f2 0f 10 15 de 5c 00 	movsd  0x5cde(%rip),%xmm2        # 11628 <_ZTSN6GetOpt13_DefValOptionIdNS_8_OptionTIdEEEE+0x88>
    b949:	00 
    b94a:	66 0f 2e c2          	ucomisd %xmm2,%xmm0
    b94e:	0f 87 4c 01 00 00    	ja     baa0 <_ZN10RelaxationIdLl10000EEC1Eddlldd+0x230>
    b954:	66 0f ef c0          	pxor   %xmm0,%xmm0
    b958:	f2 49 0f 2a c4       	cvtsi2sd %r12,%xmm0
    b95d:	66 0f 28 d8          	movapd %xmm0,%xmm3
    b961:	f2 0f 5c dc          	subsd  %xmm4,%xmm3
    b965:	66 0f 2e cb          	ucomisd %xmm3,%xmm1
    b969:	0f 87 31 01 00 00    	ja     baa0 <_ZN10RelaxationIdLl10000EEC1Eddlldd+0x230>
    b96f:	f2 0f 58 c4          	addsd  %xmm4,%xmm0
    b973:	66 0f 2e c2          	ucomisd %xmm2,%xmm0
    b977:	0f 87 23 01 00 00    	ja     baa0 <_ZN10RelaxationIdLl10000EEC1Eddlldd+0x230>
    b97d:	f2 0f 10 7d b8       	movsd  -0x48(%rbp),%xmm7
    b982:	66 0f 2e 7d c0       	ucomisd -0x40(%rbp),%xmm7
    b987:	0f 87 e1 00 00 00    	ja     ba6e <_ZN10RelaxationIdLl10000EEC1Eddlldd+0x1fe>
    b98d:	48 89 c2             	mov    %rax,%rdx
    b990:	48 c1 e2 3c          	shl    $0x3c,%rdx
    b994:	48 c1 ea 3f          	shr    $0x3f,%rdx
    b998:	48 85 d2             	test   %rdx,%rdx
    b99b:	0f 84 af 00 00 00    	je     ba50 <_ZN10RelaxationIdLl10000EEC1Eddlldd+0x1e0>
    b9a1:	f2 0f 11 88 80 cf ad 	movsd  %xmm1,0x2fadcf80(%rax)
    b9a8:	2f 
    b9a9:	41 ba 0e 27 00 00    	mov    $0x270e,%r10d
    b9af:	be 87 13 00 00       	mov    $0x1387,%esi
    b9b4:	f2 0f 11 08          	movsd  %xmm1,(%rax)
    b9b8:	41 bb 0f 27 00 00    	mov    $0x270f,%r11d
    b9be:	41 b9 01 00 00 00    	mov    $0x1,%r9d
    b9c4:	48 81 c2 f0 b9 f5 05 	add    $0x5f5b9f0,%rdx
    b9cb:	66 0f ef c0          	pxor   %xmm0,%xmm0
    b9cf:	48 c1 e2 03          	shl    $0x3,%rdx
    b9d3:	31 c9                	xor    %ecx,%ecx
    b9d5:	4c 8d 04 10          	lea    (%rax,%rdx,1),%r8
    b9d9:	48 8d bc 10 80 30 52 	lea    -0x2fadcf80(%rax,%rdx,1),%rdi
    b9e0:	d0 
    b9e1:	31 d2                	xor    %edx,%edx
    b9e3:	0f 1f 44 00 00       	nopl   0x0(%rax,%rax,1)
    b9e8:	48 83 c1 01          	add    $0x1,%rcx
    b9ec:	41 0f 29 04 10       	movaps %xmm0,(%r8,%rdx,1)
    b9f1:	0f 11 04 17          	movups %xmm0,(%rdi,%rdx,1)
    b9f5:	48 83 c2 10          	add    $0x10,%rdx
    b9f9:	48 39 ce             	cmp    %rcx,%rsi
    b9fc:	77 ea                	ja     b9e8 <_ZN10RelaxationIdLl10000EEC1Eddlldd+0x178>
    b9fe:	4d 01 d1             	add    %r10,%r9
    ba01:	4d 39 d3             	cmp    %r10,%r11
    ba04:	74 16                	je     ba1c <_ZN10RelaxationIdLl10000EEC1Eddlldd+0x1ac>
    ba06:	4a 8d 04 c8          	lea    (%rax,%r9,8),%rax
    ba0a:	48 c7 80 80 cf ad 2f 	movq   $0x0,0x2fadcf80(%rax)
    ba11:	00 00 00 00 
    ba15:	48 c7 00 00 00 00 00 	movq   $0x0,(%rax)
    ba1c:	48 8d 75 d0          	lea    -0x30(%rbp),%rsi
    ba20:	48 8d 3d e9 b1 ff ff 	lea    -0x4e17(%rip),%rdi        # 6c10 <_ZN10RelaxationIdLl10000EEC2Eddlldd._omp_fn.14>
    ba27:	31 c9                	xor    %ecx,%ecx
    ba29:	31 d2                	xor    %edx,%edx
    ba2b:	48 89 5d d0          	mov    %rbx,-0x30(%rbp)
    ba2f:	e8 9c 78 ff ff       	callq  32d0 <GOMP_parallel@plt>
    ba34:	48 8b 45 d8          	mov    -0x28(%rbp),%rax
    ba38:	64 48 33 04 25 28 00 	xor    %fs:0x28,%rax
    ba3f:	00 00 
    ba41:	75 26                	jne    ba69 <_ZN10RelaxationIdLl10000EEC1Eddlldd+0x1f9>
    ba43:	48 83 c4 38          	add    $0x38,%rsp
    ba47:	5b                   	pop    %rbx
    ba48:	41 5c                	pop    %r12
    ba4a:	41 5d                	pop    %r13
    ba4c:	5d                   	pop    %rbp
    ba4d:	c3                   	retq   
    ba4e:	66 90                	xchg   %ax,%ax
    ba50:	41 ba 10 27 00 00    	mov    $0x2710,%r10d
    ba56:	be 88 13 00 00       	mov    $0x1388,%esi
    ba5b:	41 bb 10 27 00 00    	mov    $0x2710,%r11d
    ba61:	45 31 c9             	xor    %r9d,%r9d
    ba64:	e9 5b ff ff ff       	jmpq   b9c4 <_ZN10RelaxationIdLl10000EEC1Eddlldd+0x154>
    ba69:	e8 52 77 ff ff       	callq  31c0 <__stack_chk_fail@plt>
    ba6e:	bf 10 00 00 00       	mov    $0x10,%edi
    ba73:	e8 c8 75 ff ff       	callq  3040 <__cxa_allocate_exception@plt>
    ba78:	48 8d 35 b9 58 00 00 	lea    0x58b9(%rip),%rsi        # 11338 <_fini+0x1e4>
    ba7f:	48 89 c7             	mov    %rax,%rdi
    ba82:	49 89 c5             	mov    %rax,%r13
    ba85:	e8 16 78 ff ff       	callq  32a0 <_ZNSt11logic_errorC1EPKc@plt>
    ba8a:	48 8b 15 3f 85 20 00 	mov    0x20853f(%rip),%rdx        # 213fd0 <_DYNAMIC+0x238>
    ba91:	48 8d 35 38 8c 20 00 	lea    0x208c38(%rip),%rsi        # 2146d0 <_ZTISt11logic_error@@GLIBCXX_3.4>
    ba98:	4c 89 ef             	mov    %r13,%rdi
    ba9b:	e8 f0 78 ff ff       	callq  3390 <__cxa_throw@plt>
    baa0:	bf 10 00 00 00       	mov    $0x10,%edi
    baa5:	e8 96 75 ff ff       	callq  3040 <__cxa_allocate_exception@plt>
    baaa:	48 8d 35 1f 58 00 00 	lea    0x581f(%rip),%rsi        # 112d0 <_fini+0x17c>
    bab1:	48 89 c7             	mov    %rax,%rdi
    bab4:	49 89 c5             	mov    %rax,%r13
    bab7:	e8 e4 77 ff ff       	callq  32a0 <_ZNSt11logic_errorC1EPKc@plt>
    babc:	48 8b 15 0d 85 20 00 	mov    0x20850d(%rip),%rdx        # 213fd0 <_DYNAMIC+0x238>
    bac3:	48 8d 35 06 8c 20 00 	lea    0x208c06(%rip),%rsi        # 2146d0 <_ZTISt11logic_error@@GLIBCXX_3.4>
    baca:	4c 89 ef             	mov    %r13,%rdi
    bacd:	e8 be 78 ff ff       	callq  3390 <__cxa_throw@plt>
    bad2:	bf 10 00 00 00       	mov    $0x10,%edi
    bad7:	e8 64 75 ff ff       	callq  3040 <__cxa_allocate_exception@plt>
    badc:	48 8d 35 65 57 00 00 	lea    0x5765(%rip),%rsi        # 11248 <_fini+0xf4>
    bae3:	48 89 c7             	mov    %rax,%rdi
    bae6:	49 89 c5             	mov    %rax,%r13
    bae9:	e8 b2 77 ff ff       	callq  32a0 <_ZNSt11logic_errorC1EPKc@plt>
    baee:	48 8b 15 db 84 20 00 	mov    0x2084db(%rip),%rdx        # 213fd0 <_DYNAMIC+0x238>
    baf5:	48 8d 35 d4 8b 20 00 	lea    0x208bd4(%rip),%rsi        # 2146d0 <_ZTISt11logic_error@@GLIBCXX_3.4>
    bafc:	4c 89 ef             	mov    %r13,%rdi
    baff:	e8 8c 78 ff ff       	callq  3390 <__cxa_throw@plt>
    bb04:	bf 10 00 00 00       	mov    $0x10,%edi
    bb09:	e8 32 75 ff ff       	callq  3040 <__cxa_allocate_exception@plt>
    bb0e:	48 8d 35 5b 57 00 00 	lea    0x575b(%rip),%rsi        # 11270 <_fini+0x11c>
    bb15:	48 89 c7             	mov    %rax,%rdi
    bb18:	49 89 c5             	mov    %rax,%r13
    bb1b:	e8 80 77 ff ff       	callq  32a0 <_ZNSt11logic_errorC1EPKc@plt>
    bb20:	48 8b 15 a9 84 20 00 	mov    0x2084a9(%rip),%rdx        # 213fd0 <_DYNAMIC+0x238>
    bb27:	48 8d 35 a2 8b 20 00 	lea    0x208ba2(%rip),%rsi        # 2146d0 <_ZTISt11logic_error@@GLIBCXX_3.4>
    bb2e:	4c 89 ef             	mov    %r13,%rdi
    bb31:	e8 5a 78 ff ff       	callq  3390 <__cxa_throw@plt>
    bb36:	48 89 c7             	mov    %rax,%rdi
    bb39:	eb 1a                	jmp    bb55 <_ZN10RelaxationIdLl10000EEC1Eddlldd+0x2e5>
    bb3b:	48 89 c3             	mov    %rax,%rbx
    bb3e:	49 89 d4             	mov    %rdx,%r12
    bb41:	eb 04                	jmp    bb47 <_ZN10RelaxationIdLl10000EEC1Eddlldd+0x2d7>
    bb43:	eb f6                	jmp    bb3b <_ZN10RelaxationIdLl10000EEC1Eddlldd+0x2cb>
    bb45:	eb f4                	jmp    bb3b <_ZN10RelaxationIdLl10000EEC1Eddlldd+0x2cb>
    bb47:	4c 89 ef             	mov    %r13,%rdi
    bb4a:	e8 61 75 ff ff       	callq  30b0 <__cxa_free_exception@plt>
    bb4f:	48 89 df             	mov    %rbx,%rdi
    bb52:	4c 89 e2             	mov    %r12,%rdx
    bb55:	48 83 fa ff          	cmp    $0xffffffffffffffff,%rdx
    bb59:	74 07                	je     bb62 <_ZN10RelaxationIdLl10000EEC1Eddlldd+0x2f2>
    bb5b:	e8 50 78 ff ff       	callq  33b0 <_Unwind_Resume@plt>
    bb60:	eb d9                	jmp    bb3b <_ZN10RelaxationIdLl10000EEC1Eddlldd+0x2cb>
    bb62:	e8 d9 76 ff ff       	callq  3240 <__cxa_call_unexpected@plt>
    bb67:	66 0f 1f 84 00 00 00 	nopw   0x0(%rax,%rax,1)
    bb6e:	00 00 

000000000000bb70 <_Z9benchmarkIdLl10000EEmi>:
    bb70:	55                   	push   %rbp
    bb71:	48 89 e5             	mov    %rsp,%rbp
    bb74:	41 57                	push   %r15
    bb76:	41 56                	push   %r14
    bb78:	41 55                	push   %r13
    bb7a:	41 54                	push   %r12
    bb7c:	53                   	push   %rbx
    bb7d:	48 81 ec 78 10 00 00 	sub    $0x1078,%rsp
    bb84:	48 83 0c 24 00       	orq    $0x0,(%rsp)
    bb89:	48 81 c4 20 10 00 00 	add    $0x1020,%rsp
    bb90:	64 48 8b 04 25 28 00 	mov    %fs:0x28,%rax
    bb97:	00 00 
    bb99:	48 89 45 c8          	mov    %rax,-0x38(%rbp)
    bb9d:	31 c0                	xor    %eax,%eax
    bb9f:	e8 2c 76 ff ff       	callq  31d0 <omp_set_num_threads@plt>
    bba4:	e8 b7 77 ff ff       	callq  3360 <omp_get_max_threads@plt>
    bba9:	48 8d 35 b3 55 00 00 	lea    0x55b3(%rip),%rsi        # 11163 <_fini+0xf>
    bbb0:	48 8d 3d a9 88 20 00 	lea    0x2088a9(%rip),%rdi        # 214460 <_ZSt4cout@@GLIBCXX_3.4>
    bbb7:	ba 12 00 00 00       	mov    $0x12,%edx
    bbbc:	89 c3                	mov    %eax,%ebx
    bbbe:	e8 2d 76 ff ff       	callq  31f0 <_ZSt16__ostream_insertIcSt11char_traitsIcEERSt13basic_ostreamIT_T0_ES6_PKS3_l@plt>
    bbc3:	48 8d 3d 96 88 20 00 	lea    0x208896(%rip),%rdi        # 214460 <_ZSt4cout@@GLIBCXX_3.4>
    bbca:	89 de                	mov    %ebx,%esi
    bbcc:	e8 cf 77 ff ff       	callq  33a0 <_ZNSolsEi@plt>
    bbd1:	48 8d 35 9e 55 00 00 	lea    0x559e(%rip),%rsi        # 11176 <_fini+0x22>
    bbd8:	49 89 c4             	mov    %rax,%r12
    bbdb:	ba 09 00 00 00       	mov    $0x9,%edx
    bbe0:	48 89 c7             	mov    %rax,%rdi
    bbe3:	e8 08 76 ff ff       	callq  31f0 <_ZSt16__ostream_insertIcSt11char_traitsIcEERSt13basic_ostreamIT_T0_ES6_PKS3_l@plt>
    bbe8:	49 8b 04 24          	mov    (%r12),%rax
    bbec:	48 8b 40 e8          	mov    -0x18(%rax),%rax
    bbf0:	49 8b 9c 04 f0 00 00 	mov    0xf0(%r12,%rax,1),%rbx
    bbf7:	00 
    bbf8:	48 85 db             	test   %rbx,%rbx
    bbfb:	0f 84 40 03 00 00    	je     bf41 <_Z9benchmarkIdLl10000EEmi+0x3d1>
    bc01:	80 7b 38 00          	cmpb   $0x0,0x38(%rbx)
    bc05:	0f 84 05 03 00 00    	je     bf10 <_Z9benchmarkIdLl10000EEmi+0x3a0>
    bc0b:	0f be 73 43          	movsbl 0x43(%rbx),%esi
    bc0f:	4c 89 e7             	mov    %r12,%rdi
    bc12:	e8 49 73 ff ff       	callq  2f60 <_ZNSo3putEc@plt>
    bc17:	48 89 c7             	mov    %rax,%rdi
    bc1a:	e8 71 74 ff ff       	callq  3090 <_ZNSo5flushEv@plt>
    bc1f:	48 8d 35 5a 55 00 00 	lea    0x555a(%rip),%rsi        # 11180 <_fini+0x2c>
    bc26:	48 8d 3d 33 88 20 00 	lea    0x208833(%rip),%rdi        # 214460 <_ZSt4cout@@GLIBCXX_3.4>
    bc2d:	ba 0f 00 00 00       	mov    $0xf,%edx
    bc32:	44 8b 25 1b 8c 20 00 	mov    0x208c1b(%rip),%r12d        # 214854 <steps>
    bc39:	e8 b2 75 ff ff       	callq  31f0 <_ZSt16__ostream_insertIcSt11char_traitsIcEERSt13basic_ostreamIT_T0_ES6_PKS3_l@plt>
    bc3e:	48 8d 3d 1b 88 20 00 	lea    0x20881b(%rip),%rdi        # 214460 <_ZSt4cout@@GLIBCXX_3.4>
    bc45:	be 10 27 00 00       	mov    $0x2710,%esi
    bc4a:	e8 01 75 ff ff       	callq  3150 <_ZNSo9_M_insertIlEERSoT_@plt>
    bc4f:	48 8d 35 19 55 00 00 	lea    0x5519(%rip),%rsi        # 1116f <_fini+0x1b>
    bc56:	48 89 c3             	mov    %rax,%rbx
    bc59:	ba 06 00 00 00       	mov    $0x6,%edx
    bc5e:	48 89 c7             	mov    %rax,%rdi
    bc61:	e8 8a 75 ff ff       	callq  31f0 <_ZSt16__ostream_insertIcSt11char_traitsIcEERSt13basic_ostreamIT_T0_ES6_PKS3_l@plt>
    bc66:	44 89 e6             	mov    %r12d,%esi
    bc69:	48 89 df             	mov    %rbx,%rdi
    bc6c:	e8 2f 77 ff ff       	callq  33a0 <_ZNSolsEi@plt>
    bc71:	48 8d 35 18 55 00 00 	lea    0x5518(%rip),%rsi        # 11190 <_fini+0x3c>
    bc78:	48 89 c3             	mov    %rax,%rbx
    bc7b:	ba 0f 00 00 00       	mov    $0xf,%edx
    bc80:	48 89 c7             	mov    %rax,%rdi
    bc83:	e8 68 75 ff ff       	callq  31f0 <_ZSt16__ostream_insertIcSt11char_traitsIcEERSt13basic_ostreamIT_T0_ES6_PKS3_l@plt>
    bc88:	48 89 df             	mov    %rbx,%rdi
    bc8b:	be 01 00 00 00       	mov    $0x1,%esi
    bc90:	e8 0b 77 ff ff       	callq  33a0 <_ZNSolsEi@plt>
    bc95:	48 8d 35 04 55 00 00 	lea    0x5504(%rip),%rsi        # 111a0 <_fini+0x4c>
    bc9c:	49 89 c4             	mov    %rax,%r12
    bc9f:	ba 06 00 00 00       	mov    $0x6,%edx
    bca4:	48 89 c7             	mov    %rax,%rdi
    bca7:	e8 44 75 ff ff       	callq  31f0 <_ZSt16__ostream_insertIcSt11char_traitsIcEERSt13basic_ostreamIT_T0_ES6_PKS3_l@plt>
    bcac:	49 8b 04 24          	mov    (%r12),%rax
    bcb0:	48 8b 40 e8          	mov    -0x18(%rax),%rax
    bcb4:	49 8b 9c 04 f0 00 00 	mov    0xf0(%r12,%rax,1),%rbx
    bcbb:	00 
    bcbc:	48 85 db             	test   %rbx,%rbx
    bcbf:	0f 84 7c 02 00 00    	je     bf41 <_Z9benchmarkIdLl10000EEmi+0x3d1>
    bcc5:	80 7b 38 00          	cmpb   $0x0,0x38(%rbx)
    bcc9:	0f 84 0f 02 00 00    	je     bede <_Z9benchmarkIdLl10000EEmi+0x36e>
    bccf:	0f be 73 43          	movsbl 0x43(%rbx),%esi
    bcd3:	4c 89 e7             	mov    %r12,%rdi
    bcd6:	e8 85 72 ff ff       	callq  2f60 <_ZNSo3putEc@plt>
    bcdb:	48 89 c7             	mov    %rax,%rdi
    bcde:	e8 ad 73 ff ff       	callq  3090 <_ZNSo5flushEv@plt>
    bce3:	0f 31                	rdtsc  
    bce5:	66 0f ef d2          	pxor   %xmm2,%xmm2
    bce9:	48 c1 e2 20          	shl    $0x20,%rdx
    bced:	89 c0                	mov    %eax,%eax
    bcef:	4c 8d 65 90          	lea    -0x70(%rbp),%r12
    bcf3:	be 88 13 00 00       	mov    $0x1388,%esi
    bcf8:	48 09 c2             	or     %rax,%rdx
    bcfb:	f2 0f 10 1d 45 8b 20 	movsd  0x208b45(%rip),%xmm3        # 214848 <heat>
    bd02:	00 
    bd03:	f2 0f 10 0d fd 58 00 	movsd  0x58fd(%rip),%xmm1        # 11608 <_ZTSN6GetOpt13_DefValOptionIdNS_8_OptionTIdEEEE+0x68>
    bd0a:	00 
    bd0b:	49 89 d7             	mov    %rdx,%r15
    bd0e:	f2 0f 2a 15 3a 8b 20 	cvtsi2sdl 0x208b3a(%rip),%xmm2        # 214850 <radius>
    bd15:	00 
    bd16:	f2 0f 10 05 f2 58 00 	movsd  0x58f2(%rip),%xmm0        # 11610 <_ZTSN6GetOpt13_DefValOptionIdNS_8_OptionTIdEEEE+0x70>
    bd1d:	00 
    bd1e:	ba 88 13 00 00       	mov    $0x1388,%edx
    bd23:	4c 89 e7             	mov    %r12,%rdi
    bd26:	e8 45 fb ff ff       	callq  b870 <_ZN10RelaxationIdLl10000EEC1Eddlldd>
    bd2b:	8b 05 23 8b 20 00    	mov    0x208b23(%rip),%eax        # 214854 <steps>
    bd31:	85 c0                	test   %eax,%eax
    bd33:	0f 8e 12 02 00 00    	jle    bf4b <_Z9benchmarkIdLl10000EEmi+0x3db>
    bd39:	4c 8d 6d 80          	lea    -0x80(%rbp),%r13
    bd3d:	bb 01 00 00 00       	mov    $0x1,%ebx
    bd42:	66 0f 1f 44 00 00    	nopw   0x0(%rax,%rax,1)
    bd48:	bf 00 08 af 2f       	mov    $0x2faf0800,%edi
    bd4d:	e8 1e 74 ff ff       	callq  3170 <_Znwm@plt>
    bd52:	48 8b 75 c0          	mov    -0x40(%rbp),%rsi
    bd56:	48 8d 48 10          	lea    0x10(%rax),%rcx
    bd5a:	48 8d 96 80 cf ad 2f 	lea    0x2fadcf80(%rsi),%rdx
    bd61:	48 39 ca             	cmp    %rcx,%rdx
    bd64:	73 10                	jae    bd76 <_Z9benchmarkIdLl10000EEmi+0x206>
    bd66:	48 8d 8e 90 cf ad 2f 	lea    0x2fadcf90(%rsi),%rcx
    bd6d:	48 39 c8             	cmp    %rcx,%rax
    bd70:	0f 82 3a 01 00 00    	jb     beb0 <_Z9benchmarkIdLl10000EEmi+0x340>
    bd76:	48 c1 e2 3c          	shl    $0x3c,%rdx
    bd7a:	48 c1 ea 3f          	shr    $0x3f,%rdx
    bd7e:	48 85 d2             	test   %rdx,%rdx
    bd81:	0f 84 09 01 00 00    	je     be90 <_Z9benchmarkIdLl10000EEmi+0x320>
    bd87:	48 c7 86 80 cf ad 2f 	movq   $0x0,0x2fadcf80(%rsi)
    bd8e:	00 00 00 00 
    bd92:	41 bb 0e 27 00 00    	mov    $0x270e,%r11d
    bd98:	48 c7 00 00 00 00 00 	movq   $0x0,(%rax)
    bd9f:	41 be 0f 27 00 00    	mov    $0x270f,%r14d
    bda5:	bf 87 13 00 00       	mov    $0x1387,%edi
    bdaa:	41 ba 01 00 00 00    	mov    $0x1,%r10d
    bdb0:	48 81 c2 f0 b9 f5 05 	add    $0x5f5b9f0,%rdx
    bdb7:	31 c9                	xor    %ecx,%ecx
    bdb9:	48 c1 e2 03          	shl    $0x3,%rdx
    bdbd:	4c 8d 0c 16          	lea    (%rsi,%rdx,1),%r9
    bdc1:	4c 8d 84 10 80 30 52 	lea    -0x2fadcf80(%rax,%rdx,1),%r8
    bdc8:	d0 
    bdc9:	31 d2                	xor    %edx,%edx
    bdcb:	0f 1f 44 00 00       	nopl   0x0(%rax,%rax,1)
    bdd0:	66 0f ef e4          	pxor   %xmm4,%xmm4
    bdd4:	48 83 c1 01          	add    $0x1,%rcx
    bdd8:	41 0f 29 24 11       	movaps %xmm4,(%r9,%rdx,1)
    bddd:	41 0f 11 24 10       	movups %xmm4,(%r8,%rdx,1)
    bde2:	48 83 c2 10          	add    $0x10,%rdx
    bde6:	48 39 f9             	cmp    %rdi,%rcx
    bde9:	72 e5                	jb     bdd0 <_Z9benchmarkIdLl10000EEmi+0x260>
    bdeb:	4d 01 da             	add    %r11,%r10
    bdee:	4d 39 f3             	cmp    %r14,%r11
    bdf1:	74 14                	je     be07 <_Z9benchmarkIdLl10000EEmi+0x297>
    bdf3:	4a c7 84 d6 80 cf ad 	movq   $0x0,0x2fadcf80(%rsi,%r10,8)
    bdfa:	2f 00 00 00 00 
    bdff:	4a c7 04 d0 00 00 00 	movq   $0x0,(%rax,%r10,8)
    be06:	00 
    be07:	48 8d 3d 52 af ff ff 	lea    -0x50ae(%rip),%rdi        # 6d60 <_ZN10RelaxationIdLl10000EE7iterateEv._omp_fn.15>
    be0e:	31 c9                	xor    %ecx,%ecx
    be10:	31 d2                	xor    %edx,%edx
    be12:	4c 89 ee             	mov    %r13,%rsi
    be15:	4c 89 65 80          	mov    %r12,-0x80(%rbp)
    be19:	48 89 45 88          	mov    %rax,-0x78(%rbp)
    be1d:	e8 ae 74 ff ff       	callq  32d0 <GOMP_parallel@plt>
    be22:	48 8b 7d c0          	mov    -0x40(%rbp),%rdi
    be26:	4c 8b 75 88          	mov    -0x78(%rbp),%r14
    be2a:	48 85 ff             	test   %rdi,%rdi
    be2d:	74 05                	je     be34 <_Z9benchmarkIdLl10000EEmi+0x2c4>
    be2f:	e8 1c 74 ff ff       	callq  3250 <_ZdaPv@plt>
    be34:	83 c3 01             	add    $0x1,%ebx
    be37:	39 1d 17 8a 20 00    	cmp    %ebx,0x208a17(%rip)        # 214854 <steps>
    be3d:	4c 89 75 c0          	mov    %r14,-0x40(%rbp)
    be41:	0f 8d 01 ff ff ff    	jge    bd48 <_Z9benchmarkIdLl10000EEmi+0x1d8>
    be47:	4c 89 f7             	mov    %r14,%rdi
    be4a:	0f 31                	rdtsc  
    be4c:	48 89 d3             	mov    %rdx,%rbx
    be4f:	89 c0                	mov    %eax,%eax
    be51:	48 c1 e3 20          	shl    $0x20,%rbx
    be55:	48 09 c3             	or     %rax,%rbx
    be58:	4c 29 fb             	sub    %r15,%rbx
    be5b:	48 85 ff             	test   %rdi,%rdi
    be5e:	74 05                	je     be65 <_Z9benchmarkIdLl10000EEmi+0x2f5>
    be60:	e8 eb 73 ff ff       	callq  3250 <_ZdaPv@plt>
    be65:	48 89 d8             	mov    %rbx,%rax
    be68:	48 8b 5d c8          	mov    -0x38(%rbp),%rbx
    be6c:	64 48 33 1c 25 28 00 	xor    %fs:0x28,%rbx
    be73:	00 00 
    be75:	0f 85 e9 00 00 00    	jne    bf64 <_Z9benchmarkIdLl10000EEmi+0x3f4>
    be7b:	48 83 c4 58          	add    $0x58,%rsp
    be7f:	5b                   	pop    %rbx
    be80:	41 5c                	pop    %r12
    be82:	41 5d                	pop    %r13
    be84:	41 5e                	pop    %r14
    be86:	41 5f                	pop    %r15
    be88:	5d                   	pop    %rbp
    be89:	c3                   	retq   
    be8a:	66 0f 1f 44 00 00    	nopw   0x0(%rax,%rax,1)
    be90:	41 bb 10 27 00 00    	mov    $0x2710,%r11d
    be96:	41 be 10 27 00 00    	mov    $0x2710,%r14d
    be9c:	bf 88 13 00 00       	mov    $0x1388,%edi
    bea1:	45 31 d2             	xor    %r10d,%r10d
    bea4:	e9 07 ff ff ff       	jmpq   bdb0 <_Z9benchmarkIdLl10000EEmi+0x240>
    bea9:	0f 1f 80 00 00 00 00 	nopl   0x0(%rax)
    beb0:	31 d2                	xor    %edx,%edx
    beb2:	66 0f 1f 44 00 00    	nopw   0x0(%rax,%rax,1)
    beb8:	48 c7 84 d6 80 cf ad 	movq   $0x0,0x2fadcf80(%rsi,%rdx,8)
    bebf:	2f 00 00 00 00 
    bec4:	48 c7 04 d0 00 00 00 	movq   $0x0,(%rax,%rdx,8)
    becb:	00 
    becc:	48 83 c2 01          	add    $0x1,%rdx
    bed0:	48 81 fa 10 27 00 00 	cmp    $0x2710,%rdx
    bed7:	75 df                	jne    beb8 <_Z9benchmarkIdLl10000EEmi+0x348>
    bed9:	e9 29 ff ff ff       	jmpq   be07 <_Z9benchmarkIdLl10000EEmi+0x297>
    bede:	48 89 df             	mov    %rbx,%rdi
    bee1:	e8 1a 73 ff ff       	callq  3200 <_ZNKSt5ctypeIcE13_M_widen_initEv@plt>
    bee6:	48 8b 03             	mov    (%rbx),%rax
    bee9:	48 8d 15 10 96 ff ff 	lea    -0x69f0(%rip),%rdx        # 5500 <_ZNKSt5ctypeIcE8do_widenEc>
    bef0:	be 0a 00 00 00       	mov    $0xa,%esi
    bef5:	48 8b 40 30          	mov    0x30(%rax),%rax
    bef9:	48 39 d0             	cmp    %rdx,%rax
    befc:	0f 84 d1 fd ff ff    	je     bcd3 <_Z9benchmarkIdLl10000EEmi+0x163>
    bf02:	48 89 df             	mov    %rbx,%rdi
    bf05:	ff d0                	callq  *%rax
    bf07:	0f be f0             	movsbl %al,%esi
    bf0a:	e9 c4 fd ff ff       	jmpq   bcd3 <_Z9benchmarkIdLl10000EEmi+0x163>
    bf0f:	90                   	nop
    bf10:	48 89 df             	mov    %rbx,%rdi
    bf13:	e8 e8 72 ff ff       	callq  3200 <_ZNKSt5ctypeIcE13_M_widen_initEv@plt>
    bf18:	48 8b 03             	mov    (%rbx),%rax
    bf1b:	48 8d 15 de 95 ff ff 	lea    -0x6a22(%rip),%rdx        # 5500 <_ZNKSt5ctypeIcE8do_widenEc>
    bf22:	be 0a 00 00 00       	mov    $0xa,%esi
    bf27:	48 8b 40 30          	mov    0x30(%rax),%rax
    bf2b:	48 39 d0             	cmp    %rdx,%rax
    bf2e:	0f 84 db fc ff ff    	je     bc0f <_Z9benchmarkIdLl10000EEmi+0x9f>
    bf34:	48 89 df             	mov    %rbx,%rdi
    bf37:	ff d0                	callq  *%rax
    bf39:	0f be f0             	movsbl %al,%esi
    bf3c:	e9 ce fc ff ff       	jmpq   bc0f <_Z9benchmarkIdLl10000EEmi+0x9f>
    bf41:	e8 ea 72 ff ff       	callq  3230 <_ZSt16__throw_bad_castv@plt>
    bf46:	48 89 c7             	mov    %rax,%rdi
    bf49:	eb 09                	jmp    bf54 <_Z9benchmarkIdLl10000EEmi+0x3e4>
    bf4b:	48 8b 7d c0          	mov    -0x40(%rbp),%rdi
    bf4f:	e9 f6 fe ff ff       	jmpq   be4a <_Z9benchmarkIdLl10000EEmi+0x2da>
    bf54:	48 83 fa ff          	cmp    $0xffffffffffffffff,%rdx
    bf58:	74 0f                	je     bf69 <_Z9benchmarkIdLl10000EEmi+0x3f9>
    bf5a:	e8 51 74 ff ff       	callq  33b0 <_Unwind_Resume@plt>
    bf5f:	48 89 c3             	mov    %rax,%rbx
    bf62:	eb 0a                	jmp    bf6e <_Z9benchmarkIdLl10000EEmi+0x3fe>
    bf64:	e8 57 72 ff ff       	callq  31c0 <__stack_chk_fail@plt>
    bf69:	e8 d2 72 ff ff       	callq  3240 <__cxa_call_unexpected@plt>
    bf6e:	48 8b 7d c0          	mov    -0x40(%rbp),%rdi
    bf72:	48 85 ff             	test   %rdi,%rdi
    bf75:	74 05                	je     bf7c <_Z9benchmarkIdLl10000EEmi+0x40c>
    bf77:	e8 d4 72 ff ff       	callq  3250 <_ZdaPv@plt>
    bf7c:	48 89 df             	mov    %rbx,%rdi
    bf7f:	eb d9                	jmp    bf5a <_Z9benchmarkIdLl10000EEmi+0x3ea>
    bf81:	66 2e 0f 1f 84 00 00 	nopw   %cs:0x0(%rax,%rax,1)
    bf88:	00 00 00 
    bf8b:	0f 1f 44 00 00       	nopl   0x0(%rax,%rax,1)

000000000000bf90 <_ZNSt15basic_stringbufIcSt11char_traitsIcESaIcEED1Ev>:
    bf90:	55                   	push   %rbp
    bf91:	48 89 e5             	mov    %rsp,%rbp
    bf94:	53                   	push   %rbx
    bf95:	48 81 ec 38 10 00 00 	sub    $0x1038,%rsp
    bf9c:	48 83 0c 24 00       	orq    $0x0,(%rsp)
    bfa1:	48 81 c4 20 10 00 00 	add    $0x1020,%rsp
    bfa8:	48 8d 15 31 83 20 00 	lea    0x208331(%rip),%rdx        # 2142e0 <_ZNSs4_Rep20_S_empty_rep_storageE@@GLIBCXX_3.4>
    bfaf:	64 48 8b 04 25 28 00 	mov    %fs:0x28,%rax
    bfb6:	00 00 
    bfb8:	48 89 45 e8          	mov    %rax,-0x18(%rbp)
    bfbc:	31 c0                	xor    %eax,%eax
    bfbe:	48 8d 05 cb 85 20 00 	lea    0x2085cb(%rip),%rax        # 214590 <_ZTVSt15basic_stringbufIcSt11char_traitsIcESaIcEE@@GLIBCXX_3.4+0x10>
    bfc5:	48 89 fb             	mov    %rdi,%rbx
    bfc8:	48 89 07             	mov    %rax,(%rdi)
    bfcb:	48 8b 47 48          	mov    0x48(%rdi),%rax
    bfcf:	48 8d 78 e8          	lea    -0x18(%rax),%rdi
    bfd3:	48 39 d7             	cmp    %rdx,%rdi
    bfd6:	75 30                	jne    c008 <_ZNSt15basic_stringbufIcSt11char_traitsIcESaIcEED1Ev+0x78>
    bfd8:	48 8d 05 b1 83 20 00 	lea    0x2083b1(%rip),%rax        # 214390 <_ZTVSt15basic_streambufIcSt11char_traitsIcEE@@GLIBCXX_3.4+0x10>
    bfdf:	48 8d 7b 38          	lea    0x38(%rbx),%rdi
    bfe3:	48 89 03             	mov    %rax,(%rbx)
    bfe6:	e8 95 72 ff ff       	callq  3280 <_ZNSt6localeD1Ev@plt>
    bfeb:	48 8b 45 e8          	mov    -0x18(%rbp),%rax
    bfef:	64 48 33 04 25 28 00 	xor    %fs:0x28,%rax
    bff6:	00 00 
    bff8:	75 43                	jne    c03d <_ZNSt15basic_stringbufIcSt11char_traitsIcESaIcEED1Ev+0xad>
    bffa:	48 83 c4 18          	add    $0x18,%rsp
    bffe:	5b                   	pop    %rbx
    bfff:	5d                   	pop    %rbp
    c000:	c3                   	retq   
    c001:	0f 1f 80 00 00 00 00 	nopl   0x0(%rax)
    c008:	48 83 3d c8 7f 20 00 	cmpq   $0x0,0x207fc8(%rip)        # 213fd8 <_DYNAMIC+0x240>
    c00f:	00 
    c010:	74 1e                	je     c030 <_ZNSt15basic_stringbufIcSt11char_traitsIcESaIcEED1Ev+0xa0>
    c012:	ba ff ff ff ff       	mov    $0xffffffff,%edx
    c017:	f0 0f c1 50 f8       	lock xadd %edx,-0x8(%rax)
    c01c:	89 d0                	mov    %edx,%eax
    c01e:	85 c0                	test   %eax,%eax
    c020:	7f b6                	jg     bfd8 <_ZNSt15basic_stringbufIcSt11char_traitsIcESaIcEED1Ev+0x48>
    c022:	48 8d 75 e7          	lea    -0x19(%rbp),%rsi
    c026:	e8 b5 70 ff ff       	callq  30e0 <_ZNSs4_Rep10_M_destroyERKSaIcE@plt>
    c02b:	eb ab                	jmp    bfd8 <_ZNSt15basic_stringbufIcSt11char_traitsIcESaIcEED1Ev+0x48>
    c02d:	0f 1f 00             	nopl   (%rax)
    c030:	8b 50 f8             	mov    -0x8(%rax),%edx
    c033:	8d 4a ff             	lea    -0x1(%rdx),%ecx
    c036:	89 48 f8             	mov    %ecx,-0x8(%rax)
    c039:	89 d0                	mov    %edx,%eax
    c03b:	eb e1                	jmp    c01e <_ZNSt15basic_stringbufIcSt11char_traitsIcESaIcEED1Ev+0x8e>
    c03d:	e8 7e 71 ff ff       	callq  31c0 <__stack_chk_fail@plt>
    c042:	66 2e 0f 1f 84 00 00 	nopw   %cs:0x0(%rax,%rax,1)
    c049:	00 00 00 
    c04c:	0f 1f 40 00          	nopl   0x0(%rax)

000000000000c050 <_ZN6GetOpt7convertIdEENS_7_Option6ResultERKSsRT_St13_Ios_Fmtflags>:
    c050:	55                   	push   %rbp
    c051:	48 89 e5             	mov    %rsp,%rbp
    c054:	41 57                	push   %r15
    c056:	41 56                	push   %r14
    c058:	41 55                	push   %r13
    c05a:	41 54                	push   %r12
    c05c:	53                   	push   %rbx
    c05d:	48 81 ec c8 11 00 00 	sub    $0x11c8,%rsp
    c064:	48 83 0c 24 00       	orq    $0x0,(%rsp)
    c069:	48 81 c4 20 10 00 00 	add    $0x1020,%rsp
    c070:	48 8d 9d 50 fe ff ff 	lea    -0x1b0(%rbp),%rbx
    c077:	48 89 bd 38 fe ff ff 	mov    %rdi,-0x1c8(%rbp)
    c07e:	48 89 b5 30 fe ff ff 	mov    %rsi,-0x1d0(%rbp)
    c085:	64 48 8b 04 25 28 00 	mov    %fs:0x28,%rax
    c08c:	00 00 
    c08e:	48 89 45 c8          	mov    %rax,-0x38(%rbp)
    c092:	31 c0                	xor    %eax,%eax
    c094:	48 8d 7b 68          	lea    0x68(%rbx),%rdi
    c098:	41 89 d7             	mov    %edx,%r15d
    c09b:	e8 20 6f ff ff       	callq  2fc0 <_ZNSt8ios_baseC2Ev@plt>
    c0a0:	4c 8b 25 e9 85 20 00 	mov    0x2085e9(%rip),%r12        # 214690 <_ZTTSt18basic_stringstreamIcSt11char_traitsIcESaIcEE@@GLIBCXX_3.4+0x10>
    c0a7:	48 8d 05 22 82 20 00 	lea    0x208222(%rip),%rax        # 2142d0 <_ZTVSt9basic_iosIcSt11char_traitsIcEE@@GLIBCXX_3.4+0x10>
    c0ae:	c6 45 98 00          	movb   $0x0,-0x68(%rbp)
    c0b2:	48 8b 0d df 85 20 00 	mov    0x2085df(%rip),%rcx        # 214698 <_ZTTSt18basic_stringstreamIcSt11char_traitsIcESaIcEE@@GLIBCXX_3.4+0x18>
    c0b9:	48 c7 45 90 00 00 00 	movq   $0x0,-0x70(%rbp)
    c0c0:	00 
    c0c1:	48 89 df             	mov    %rbx,%rdi
    c0c4:	48 89 85 b8 fe ff ff 	mov    %rax,-0x148(%rbp)
    c0cb:	c6 45 99 00          	movb   $0x0,-0x67(%rbp)
    c0cf:	31 f6                	xor    %esi,%esi
    c0d1:	49 8b 44 24 e8       	mov    -0x18(%r12),%rax
    c0d6:	48 c7 45 a0 00 00 00 	movq   $0x0,-0x60(%rbp)
    c0dd:	00 
    c0de:	48 c7 45 a8 00 00 00 	movq   $0x0,-0x58(%rbp)
    c0e5:	00 
    c0e6:	48 c7 45 b0 00 00 00 	movq   $0x0,-0x50(%rbp)
    c0ed:	00 
    c0ee:	48 c7 45 b8 00 00 00 	movq   $0x0,-0x48(%rbp)
    c0f5:	00 
    c0f6:	4c 89 a5 50 fe ff ff 	mov    %r12,-0x1b0(%rbp)
    c0fd:	48 89 8c 05 50 fe ff 	mov    %rcx,-0x1b0(%rbp,%rax,1)
    c104:	ff 
    c105:	48 c7 85 58 fe ff ff 	movq   $0x0,-0x1a8(%rbp)
    c10c:	00 00 00 00 
    c110:	49 03 7c 24 e8       	add    -0x18(%r12),%rdi
    c115:	e8 56 71 ff ff       	callq  3270 <_ZNSt9basic_iosIcSt11char_traitsIcEE4initEPSt15basic_streambufIcS1_E@plt>
    c11a:	4c 8b 2d 7f 85 20 00 	mov    0x20857f(%rip),%r13        # 2146a0 <_ZTTSt18basic_stringstreamIcSt11char_traitsIcESaIcEE@@GLIBCXX_3.4+0x20>
    c121:	31 f6                	xor    %esi,%esi
    c123:	49 8b 45 e8          	mov    -0x18(%r13),%rax
    c127:	4c 89 ad 60 fe ff ff 	mov    %r13,-0x1a0(%rbp)
    c12e:	48 8d 7c 03 10       	lea    0x10(%rbx,%rax,1),%rdi
    c133:	48 8b 05 6e 85 20 00 	mov    0x20856e(%rip),%rax        # 2146a8 <_ZTTSt18basic_stringstreamIcSt11char_traitsIcESaIcEE@@GLIBCXX_3.4+0x28>
    c13a:	48 89 07             	mov    %rax,(%rdi)
    c13d:	e8 2e 71 ff ff       	callq  3270 <_ZNSt9basic_iosIcSt11char_traitsIcEE4initEPSt15basic_streambufIcS1_E@plt>
    c142:	4c 8b 35 3f 85 20 00 	mov    0x20853f(%rip),%r14        # 214688 <_ZTTSt18basic_stringstreamIcSt11char_traitsIcESaIcEE@@GLIBCXX_3.4+0x8>
    c149:	48 8b 0d 60 85 20 00 	mov    0x208560(%rip),%rcx        # 2146b0 <_ZTTSt18basic_stringstreamIcSt11char_traitsIcESaIcEE@@GLIBCXX_3.4+0x30>
    c150:	48 8d 7b 50          	lea    0x50(%rbx),%rdi
    c154:	49 8b 46 e8          	mov    -0x18(%r14),%rax
    c158:	48 89 8c 05 50 fe ff 	mov    %rcx,-0x1b0(%rbp,%rax,1)
    c15f:	ff 
    c160:	48 8d 05 b1 81 20 00 	lea    0x2081b1(%rip),%rax        # 214318 <_ZTVSt18basic_stringstreamIcSt11char_traitsIcESaIcEE@@GLIBCXX_3.4+0x18>
    c167:	48 c7 85 70 fe ff ff 	movq   $0x0,-0x190(%rbp)
    c16e:	00 00 00 00 
    c172:	48 c7 85 78 fe ff ff 	movq   $0x0,-0x188(%rbp)
    c179:	00 00 00 00 
    c17d:	48 c7 85 80 fe ff ff 	movq   $0x0,-0x180(%rbp)
    c184:	00 00 00 00 
    c188:	48 89 85 50 fe ff ff 	mov    %rax,-0x1b0(%rbp)
    c18f:	48 8d 05 d2 81 20 00 	lea    0x2081d2(%rip),%rax        # 214368 <_ZTVSt18basic_stringstreamIcSt11char_traitsIcESaIcEE@@GLIBCXX_3.4+0x68>
    c196:	48 c7 85 88 fe ff ff 	movq   $0x0,-0x178(%rbp)
    c19d:	00 00 00 00 
    c1a1:	48 c7 85 90 fe ff ff 	movq   $0x0,-0x170(%rbp)
    c1a8:	00 00 00 00 
    c1ac:	48 c7 85 98 fe ff ff 	movq   $0x0,-0x168(%rbp)
    c1b3:	00 00 00 00 
    c1b7:	48 89 85 b8 fe ff ff 	mov    %rax,-0x148(%rbp)
    c1be:	48 8d 05 7b 81 20 00 	lea    0x20817b(%rip),%rax        # 214340 <_ZTVSt18basic_stringstreamIcSt11char_traitsIcESaIcEE@@GLIBCXX_3.4+0x40>
    c1c5:	48 89 85 60 fe ff ff 	mov    %rax,-0x1a0(%rbp)
    c1cc:	48 8d 05 bd 81 20 00 	lea    0x2081bd(%rip),%rax        # 214390 <_ZTVSt15basic_streambufIcSt11char_traitsIcEE@@GLIBCXX_3.4+0x10>
    c1d3:	48 89 85 68 fe ff ff 	mov    %rax,-0x198(%rbp)
    c1da:	e8 71 72 ff ff       	callq  3450 <_ZNSt6localeC1Ev@plt>
    c1df:	48 8d 05 aa 83 20 00 	lea    0x2083aa(%rip),%rax        # 214590 <_ZTVSt15basic_stringbufIcSt11char_traitsIcESaIcEE@@GLIBCXX_3.4+0x10>
    c1e6:	48 8d 73 18          	lea    0x18(%rbx),%rsi
    c1ea:	48 8d 7b 68          	lea    0x68(%rbx),%rdi
    c1ee:	c7 85 a8 fe ff ff 18 	movl   $0x18,-0x158(%rbp)
    c1f5:	00 00 00 
    c1f8:	48 89 85 68 fe ff ff 	mov    %rax,-0x198(%rbp)
    c1ff:	48 8d 05 f2 80 20 00 	lea    0x2080f2(%rip),%rax        # 2142f8 <_ZNSs4_Rep20_S_empty_rep_storageE@@GLIBCXX_3.4+0x18>
    c206:	48 89 85 b0 fe ff ff 	mov    %rax,-0x150(%rbp)
    c20d:	e8 5e 70 ff ff       	callq  3270 <_ZNSt9basic_iosIcSt11char_traitsIcEE4initEPSt15basic_streambufIcS1_E@plt>
    c212:	48 8d 7b 68          	lea    0x68(%rbx),%rdi
    c216:	31 f6                	xor    %esi,%esi
    c218:	e8 53 71 ff ff       	callq  3370 <_ZNSt9basic_iosIcSt11char_traitsIcEE5clearESt12_Ios_Iostate@plt>
    c21d:	48 8b 85 38 fe ff ff 	mov    -0x1c8(%rbp),%rax
    c224:	48 8d 7b 10          	lea    0x10(%rbx),%rdi
    c228:	44 89 bd d0 fe ff ff 	mov    %r15d,-0x130(%rbp)
    c22f:	48 8b 30             	mov    (%rax),%rsi
    c232:	48 8b 56 e8          	mov    -0x18(%rsi),%rdx
    c236:	e8 b5 6f ff ff       	callq  31f0 <_ZSt16__ostream_insertIcSt11char_traitsIcEERSt13basic_ostreamIT_T0_ES6_PKS3_l@plt>
    c23b:	48 8b b5 30 fe ff ff 	mov    -0x1d0(%rbp),%rsi
    c242:	48 89 df             	mov    %rbx,%rdi
    c245:	e8 36 6e ff ff       	callq  3080 <_ZNSi10_M_extractIdEERSiRT_@plt>
    c24a:	8b 85 d8 fe ff ff    	mov    -0x128(%rbp),%eax
    c250:	41 bf 03 00 00 00    	mov    $0x3,%r15d
    c256:	a8 05                	test   $0x5,%al
    c258:	75 0d                	jne    c267 <_ZN6GetOpt7convertIdEENS_7_Option6ResultERKSsRT_St13_Ios_Fmtflags+0x217>
    c25a:	83 e0 02             	and    $0x2,%eax
    c25d:	83 f8 01             	cmp    $0x1,%eax
    c260:	45 19 ff             	sbb    %r15d,%r15d
    c263:	41 83 e7 03          	and    $0x3,%r15d
    c267:	48 8d 05 aa 80 20 00 	lea    0x2080aa(%rip),%rax        # 214318 <_ZTVSt18basic_stringstreamIcSt11char_traitsIcESaIcEE@@GLIBCXX_3.4+0x18>
    c26e:	48 8d 15 6b 80 20 00 	lea    0x20806b(%rip),%rdx        # 2142e0 <_ZNSs4_Rep20_S_empty_rep_storageE@@GLIBCXX_3.4>
    c275:	48 89 85 50 fe ff ff 	mov    %rax,-0x1b0(%rbp)
    c27c:	48 8d 05 e5 80 20 00 	lea    0x2080e5(%rip),%rax        # 214368 <_ZTVSt18basic_stringstreamIcSt11char_traitsIcESaIcEE@@GLIBCXX_3.4+0x68>
    c283:	48 89 85 b8 fe ff ff 	mov    %rax,-0x148(%rbp)
    c28a:	48 8d 05 af 80 20 00 	lea    0x2080af(%rip),%rax        # 214340 <_ZTVSt18basic_stringstreamIcSt11char_traitsIcESaIcEE@@GLIBCXX_3.4+0x40>
    c291:	48 89 85 60 fe ff ff 	mov    %rax,-0x1a0(%rbp)
    c298:	48 8d 05 f1 82 20 00 	lea    0x2082f1(%rip),%rax        # 214590 <_ZTVSt15basic_stringbufIcSt11char_traitsIcESaIcEE@@GLIBCXX_3.4+0x10>
    c29f:	48 89 85 68 fe ff ff 	mov    %rax,-0x198(%rbp)
    c2a6:	48 8b 85 b0 fe ff ff 	mov    -0x150(%rbp),%rax
    c2ad:	48 8d 78 e8          	lea    -0x18(%rax),%rdi
    c2b1:	48 39 d7             	cmp    %rdx,%rdi
    c2b4:	0f 85 96 00 00 00    	jne    c350 <_ZN6GetOpt7convertIdEENS_7_Option6ResultERKSsRT_St13_Ios_Fmtflags+0x300>
    c2ba:	48 8d 05 cf 80 20 00 	lea    0x2080cf(%rip),%rax        # 214390 <_ZTVSt15basic_streambufIcSt11char_traitsIcEE@@GLIBCXX_3.4+0x10>
    c2c1:	48 8d 7b 50          	lea    0x50(%rbx),%rdi
    c2c5:	48 89 85 68 fe ff ff 	mov    %rax,-0x198(%rbp)
    c2cc:	e8 af 6f ff ff       	callq  3280 <_ZNSt6localeD1Ev@plt>
    c2d1:	49 8b 46 e8          	mov    -0x18(%r14),%rax
    c2d5:	48 8b 0d d4 83 20 00 	mov    0x2083d4(%rip),%rcx        # 2146b0 <_ZTTSt18basic_stringstreamIcSt11char_traitsIcESaIcEE@@GLIBCXX_3.4+0x30>
    c2dc:	48 8d 7b 68          	lea    0x68(%rbx),%rdi
    c2e0:	48 8b 15 b1 83 20 00 	mov    0x2083b1(%rip),%rdx        # 214698 <_ZTTSt18basic_stringstreamIcSt11char_traitsIcESaIcEE@@GLIBCXX_3.4+0x18>
    c2e7:	48 89 8c 05 50 fe ff 	mov    %rcx,-0x1b0(%rbp,%rax,1)
    c2ee:	ff 
    c2ef:	49 8b 45 e8          	mov    -0x18(%r13),%rax
    c2f3:	48 8b 0d ae 83 20 00 	mov    0x2083ae(%rip),%rcx        # 2146a8 <_ZTTSt18basic_stringstreamIcSt11char_traitsIcESaIcEE@@GLIBCXX_3.4+0x28>
    c2fa:	48 89 8c 05 60 fe ff 	mov    %rcx,-0x1a0(%rbp,%rax,1)
    c301:	ff 
    c302:	49 8b 44 24 e8       	mov    -0x18(%r12),%rax
    c307:	48 89 94 05 50 fe ff 	mov    %rdx,-0x1b0(%rbp,%rax,1)
    c30e:	ff 
    c30f:	48 8d 05 ba 7f 20 00 	lea    0x207fba(%rip),%rax        # 2142d0 <_ZTVSt9basic_iosIcSt11char_traitsIcEE@@GLIBCXX_3.4+0x10>
    c316:	48 89 85 b8 fe ff ff 	mov    %rax,-0x148(%rbp)
    c31d:	e8 ae 6c ff ff       	callq  2fd0 <_ZNSt8ios_baseD2Ev@plt>
    c322:	48 8b 4d c8          	mov    -0x38(%rbp),%rcx
    c326:	64 48 33 0c 25 28 00 	xor    %fs:0x28,%rcx
    c32d:	00 00 
    c32f:	44 89 f8             	mov    %r15d,%eax
    c332:	75 59                	jne    c38d <_ZN6GetOpt7convertIdEENS_7_Option6ResultERKSsRT_St13_Ios_Fmtflags+0x33d>
    c334:	48 81 c4 a8 01 00 00 	add    $0x1a8,%rsp
    c33b:	5b                   	pop    %rbx
    c33c:	41 5c                	pop    %r12
    c33e:	41 5d                	pop    %r13
    c340:	41 5e                	pop    %r14
    c342:	41 5f                	pop    %r15
    c344:	5d                   	pop    %rbp
    c345:	c3                   	retq   
    c346:	66 2e 0f 1f 84 00 00 	nopw   %cs:0x0(%rax,%rax,1)
    c34d:	00 00 00 
    c350:	48 83 3d 80 7c 20 00 	cmpq   $0x0,0x207c80(%rip)        # 213fd8 <_DYNAMIC+0x240>
    c357:	00 
    c358:	74 26                	je     c380 <_ZN6GetOpt7convertIdEENS_7_Option6ResultERKSsRT_St13_Ios_Fmtflags+0x330>
    c35a:	ba ff ff ff ff       	mov    $0xffffffff,%edx
    c35f:	f0 0f c1 50 f8       	lock xadd %edx,-0x8(%rax)
    c364:	89 d0                	mov    %edx,%eax
    c366:	85 c0                	test   %eax,%eax
    c368:	0f 8f 4c ff ff ff    	jg     c2ba <_ZN6GetOpt7convertIdEENS_7_Option6ResultERKSsRT_St13_Ios_Fmtflags+0x26a>
    c36e:	48 8d b5 4f fe ff ff 	lea    -0x1b1(%rbp),%rsi
    c375:	e8 66 6d ff ff       	callq  30e0 <_ZNSs4_Rep10_M_destroyERKSaIcE@plt>
    c37a:	e9 3b ff ff ff       	jmpq   c2ba <_ZN6GetOpt7convertIdEENS_7_Option6ResultERKSsRT_St13_Ios_Fmtflags+0x26a>
    c37f:	90                   	nop
    c380:	8b 50 f8             	mov    -0x8(%rax),%edx
    c383:	8d 4a ff             	lea    -0x1(%rdx),%ecx
    c386:	89 48 f8             	mov    %ecx,-0x8(%rax)
    c389:	89 d0                	mov    %edx,%eax
    c38b:	eb d9                	jmp    c366 <_ZN6GetOpt7convertIdEENS_7_Option6ResultERKSsRT_St13_Ios_Fmtflags+0x316>
    c38d:	e8 2e 6e ff ff       	callq  31c0 <__stack_chk_fail@plt>
    c392:	49 89 c4             	mov    %rax,%r12
    c395:	eb 17                	jmp    c3ae <_ZN6GetOpt7convertIdEENS_7_Option6ResultERKSsRT_St13_Ios_Fmtflags+0x35e>
    c397:	49 8b 54 24 e8       	mov    -0x18(%r12),%rdx
    c39c:	48 8b 0d f5 82 20 00 	mov    0x2082f5(%rip),%rcx        # 214698 <_ZTTSt18basic_stringstreamIcSt11char_traitsIcESaIcEE@@GLIBCXX_3.4+0x18>
    c3a3:	49 89 c4             	mov    %rax,%r12
    c3a6:	48 89 8c 15 50 fe ff 	mov    %rcx,-0x1b0(%rbp,%rdx,1)
    c3ad:	ff 
    c3ae:	48 8d 05 1b 7f 20 00 	lea    0x207f1b(%rip),%rax        # 2142d0 <_ZTVSt9basic_iosIcSt11char_traitsIcEE@@GLIBCXX_3.4+0x10>
    c3b5:	48 8d 7b 68          	lea    0x68(%rbx),%rdi
    c3b9:	48 89 85 b8 fe ff ff 	mov    %rax,-0x148(%rbp)
    c3c0:	e8 0b 6c ff ff       	callq  2fd0 <_ZNSt8ios_baseD2Ev@plt>
    c3c5:	4c 89 e7             	mov    %r12,%rdi
    c3c8:	e8 e3 6f ff ff       	callq  33b0 <_Unwind_Resume@plt>
    c3cd:	49 89 c7             	mov    %rax,%r15
    c3d0:	eb 05                	jmp    c3d7 <_ZN6GetOpt7convertIdEENS_7_Option6ResultERKSsRT_St13_Ios_Fmtflags+0x387>
    c3d2:	49 89 c4             	mov    %rax,%r12
    c3d5:	eb 48                	jmp    c41f <_ZN6GetOpt7convertIdEENS_7_Option6ResultERKSsRT_St13_Ios_Fmtflags+0x3cf>
    c3d7:	48 8d 7b 18          	lea    0x18(%rbx),%rdi
    c3db:	e8 b0 fb ff ff       	callq  bf90 <_ZNSt15basic_stringbufIcSt11char_traitsIcESaIcEED1Ev>
    c3e0:	49 8b 46 e8          	mov    -0x18(%r14),%rax
    c3e4:	48 8b 15 c5 82 20 00 	mov    0x2082c5(%rip),%rdx        # 2146b0 <_ZTTSt18basic_stringstreamIcSt11char_traitsIcESaIcEE@@GLIBCXX_3.4+0x30>
    c3eb:	48 89 94 05 50 fe ff 	mov    %rdx,-0x1b0(%rbp,%rax,1)
    c3f2:	ff 
    c3f3:	49 8b 45 e8          	mov    -0x18(%r13),%rax
    c3f7:	48 8b 15 aa 82 20 00 	mov    0x2082aa(%rip),%rdx        # 2146a8 <_ZTTSt18basic_stringstreamIcSt11char_traitsIcESaIcEE@@GLIBCXX_3.4+0x28>
    c3fe:	48 89 94 05 60 fe ff 	mov    %rdx,-0x1a0(%rbp,%rax,1)
    c405:	ff 
    c406:	49 8b 44 24 e8       	mov    -0x18(%r12),%rax
    c40b:	4d 89 fc             	mov    %r15,%r12
    c40e:	48 8b 15 83 82 20 00 	mov    0x208283(%rip),%rdx        # 214698 <_ZTTSt18basic_stringstreamIcSt11char_traitsIcESaIcEE@@GLIBCXX_3.4+0x18>
    c415:	48 89 94 05 50 fe ff 	mov    %rdx,-0x1b0(%rbp,%rax,1)
    c41c:	ff 
    c41d:	eb 8f                	jmp    c3ae <_ZN6GetOpt7convertIdEENS_7_Option6ResultERKSsRT_St13_Ios_Fmtflags+0x35e>
    c41f:	48 89 df             	mov    %rbx,%rdi
    c422:	e8 c9 6e ff ff       	callq  32f0 <_ZNSt18basic_stringstreamIcSt11char_traitsIcESaIcEED1Ev@plt>
    c427:	4c 89 e7             	mov    %r12,%rdi
    c42a:	e8 81 6f ff ff       	callq  33b0 <_Unwind_Resume@plt>
    c42f:	90                   	nop

000000000000c430 <_ZNK6GetOpt8_OptionTIdE7_assignEPNS_5TokenESt13_Ios_FmtflagsRSt3mapIcNS_10OptionDataESt4lessIcESaISt4pairIKcS6_EEE>:
    c430:	55                   	push   %rbp
    c431:	48 89 e5             	mov    %rsp,%rbp
    c434:	41 57                	push   %r15
    c436:	41 56                	push   %r14
    c438:	41 55                	push   %r13
    c43a:	41 54                	push   %r12
    c43c:	53                   	push   %rbx
    c43d:	48 81 ec 28 10 00 00 	sub    $0x1028,%rsp
    c444:	48 83 0c 24 00       	orq    $0x0,(%rsp)
    c449:	48 81 c4 20 10 00 00 	add    $0x1020,%rsp
    c450:	48 8b 5e 10          	mov    0x10(%rsi),%rbx
    c454:	48 85 db             	test   %rbx,%rbx
    c457:	74 0a                	je     c463 <_ZNK6GetOpt8_OptionTIdE7_assignEPNS_5TokenESt13_Ios_FmtflagsRSt3mapIcNS_10OptionDataESt4lessIcESaISt4pairIKcS6_EEE+0x33>
    c459:	8b 03                	mov    (%rbx),%eax
    c45b:	8d 70 fc             	lea    -0x4(%rax),%esi
    c45e:	83 fe 02             	cmp    $0x2,%esi
    c461:	76 1d                	jbe    c480 <_ZNK6GetOpt8_OptionTIdE7_assignEPNS_5TokenESt13_Ios_FmtflagsRSt3mapIcNS_10OptionDataESt4lessIcESaISt4pairIKcS6_EEE+0x50>
    c463:	48 83 c4 08          	add    $0x8,%rsp
    c467:	b8 04 00 00 00       	mov    $0x4,%eax
    c46c:	5b                   	pop    %rbx
    c46d:	41 5c                	pop    %r12
    c46f:	41 5d                	pop    %r13
    c471:	41 5e                	pop    %r14
    c473:	41 5f                	pop    %r15
    c475:	5d                   	pop    %rbp
    c476:	c3                   	retq   
    c477:	66 0f 1f 84 00 00 00 	nopw   0x0(%rax,%rax,1)
    c47e:	00 00 
    c480:	83 f8 05             	cmp    $0x5,%eax
    c483:	49 89 cf             	mov    %rcx,%r15
    c486:	41 89 d6             	mov    %edx,%r14d
    c489:	49 89 fc             	mov    %rdi,%r12
    c48c:	4c 8d 6b 08          	lea    0x8(%rbx),%r13
    c490:	74 2e                	je     c4c0 <_ZNK6GetOpt8_OptionTIdE7_assignEPNS_5TokenESt13_Ios_FmtflagsRSt3mapIcNS_10OptionDataESt4lessIcESaISt4pairIKcS6_EEE+0x90>
    c492:	c7 03 04 00 00 00    	movl   $0x4,(%rbx)
    c498:	49 8b 74 24 18       	mov    0x18(%r12),%rsi
    c49d:	48 83 c4 08          	add    $0x8,%rsp
    c4a1:	5b                   	pop    %rbx
    c4a2:	44 89 f2             	mov    %r14d,%edx
    c4a5:	4c 89 ef             	mov    %r13,%rdi
    c4a8:	41 5c                	pop    %r12
    c4aa:	41 5d                	pop    %r13
    c4ac:	41 5e                	pop    %r14
    c4ae:	41 5f                	pop    %r15
    c4b0:	5d                   	pop    %rbp
    c4b1:	e9 9a fb ff ff       	jmpq   c050 <_ZN6GetOpt7convertIdEENS_7_Option6ResultERKSsRT_St13_Ios_Fmtflags>
    c4b6:	66 2e 0f 1f 84 00 00 	nopw   %cs:0x0(%rax,%rax,1)
    c4bd:	00 00 00 
    c4c0:	48 8b 73 08          	mov    0x8(%rbx),%rsi
    c4c4:	8b 46 f8             	mov    -0x8(%rsi),%eax
    c4c7:	85 c0                	test   %eax,%eax
    c4c9:	78 0c                	js     c4d7 <_ZNK6GetOpt8_OptionTIdE7_assignEPNS_5TokenESt13_Ios_FmtflagsRSt3mapIcNS_10OptionDataESt4lessIcESaISt4pairIKcS6_EEE+0xa7>
    c4cb:	4c 89 ef             	mov    %r13,%rdi
    c4ce:	e8 bd 6a ff ff       	callq  2f90 <_ZNSs12_M_leak_hardEv@plt>
    c4d3:	48 8b 73 08          	mov    0x8(%rbx),%rsi
    c4d7:	48 83 c6 01          	add    $0x1,%rsi
    c4db:	4c 89 ff             	mov    %r15,%rdi
    c4de:	e8 6d b3 ff ff       	callq  7850 <_ZNSt8_Rb_treeIcSt4pairIKcN6GetOpt10OptionDataEESt10_Select1stIS4_ESt4lessIcESaIS4_EE5eraseERS1_>
    c4e3:	eb ad                	jmp    c492 <_ZNK6GetOpt8_OptionTIdE7_assignEPNS_5TokenESt13_Ios_FmtflagsRSt3mapIcNS_10OptionDataESt4lessIcESaISt4pairIKcS6_EEE+0x62>
    c4e5:	66 2e 0f 1f 84 00 00 	nopw   %cs:0x0(%rax,%rax,1)
    c4ec:	00 00 00 
    c4ef:	90                   	nop

000000000000c4f0 <_ZNK6GetOpt13_DefValOptionIdNS_8_OptionTIdEEEclERSt3mapIcNS_10OptionDataESt4lessIcESaISt4pairIKcS5_EEERS4_ISsS5_S6_ISsESaIS8_IKSsS5_EEEPNS_5TokenESt13_Ios_Fmtflags>:
    c4f0:	55                   	push   %rbp
    c4f1:	48 89 e5             	mov    %rsp,%rbp
    c4f4:	41 56                	push   %r14
    c4f6:	41 55                	push   %r13
    c4f8:	41 54                	push   %r12
    c4fa:	53                   	push   %rbx
    c4fb:	48 81 ec 30 10 00 00 	sub    $0x1030,%rsp
    c502:	48 83 0c 24 00       	orq    $0x0,(%rsp)
    c507:	48 81 c4 20 10 00 00 	add    $0x1020,%rsp
    c50e:	49 89 f4             	mov    %rsi,%r12
    c511:	0f b6 77 08          	movzbl 0x8(%rdi),%esi
    c515:	48 89 fb             	mov    %rdi,%rbx
    c518:	40 84 f6             	test   %sil,%sil
    c51b:	75 33                	jne    c550 <_ZNK6GetOpt13_DefValOptionIdNS_8_OptionTIdEEEclERSt3mapIcNS_10OptionDataESt4lessIcESaISt4pairIKcS5_EEERS4_ISsS5_S6_ISsESaIS8_IKSsS5_EEEPNS_5TokenESt13_Ios_Fmtflags+0x60>
    c51d:	48 8b 43 10          	mov    0x10(%rbx),%rax
    c521:	48 83 78 e8 00       	cmpq   $0x0,-0x18(%rax)
    c526:	0f 85 2c 01 00 00    	jne    c658 <_ZNK6GetOpt13_DefValOptionIdNS_8_OptionTIdEEEclERSt3mapIcNS_10OptionDataESt4lessIcESaISt4pairIKcS5_EEERS4_ISsS5_S6_ISsESaIS8_IKSsS5_EEEPNS_5TokenESt13_Ios_Fmtflags+0x168>
    c52c:	48 8b 43 18          	mov    0x18(%rbx),%rax
    c530:	f2 0f 10 43 20       	movsd  0x20(%rbx),%xmm0
    c535:	f2 0f 11 00          	movsd  %xmm0,(%rax)
    c539:	48 83 c4 10          	add    $0x10,%rsp
    c53d:	31 c0                	xor    %eax,%eax
    c53f:	5b                   	pop    %rbx
    c540:	41 5c                	pop    %r12
    c542:	41 5d                	pop    %r13
    c544:	41 5e                	pop    %r14
    c546:	5d                   	pop    %rbp
    c547:	c3                   	retq   
    c548:	0f 1f 84 00 00 00 00 	nopl   0x0(%rax,%rax,1)
    c54f:	00 
    c550:	49 8b 44 24 10       	mov    0x10(%r12),%rax
    c555:	49 8d 4c 24 08       	lea    0x8(%r12),%rcx
    c55a:	48 85 c0             	test   %rax,%rax
    c55d:	74 be                	je     c51d <_ZNK6GetOpt13_DefValOptionIdNS_8_OptionTIdEEEclERSt3mapIcNS_10OptionDataESt4lessIcESaISt4pairIKcS5_EEERS4_ISsS5_S6_ISsESaIS8_IKSsS5_EEEPNS_5TokenESt13_Ios_Fmtflags+0x2d>
    c55f:	48 89 cf             	mov    %rcx,%rdi
    c562:	eb 10                	jmp    c574 <_ZNK6GetOpt13_DefValOptionIdNS_8_OptionTIdEEEclERSt3mapIcNS_10OptionDataESt4lessIcESaISt4pairIKcS5_EEERS4_ISsS5_S6_ISsESaIS8_IKSsS5_EEEPNS_5TokenESt13_Ios_Fmtflags+0x84>
    c564:	0f 1f 40 00          	nopl   0x0(%rax)
    c568:	48 89 c7             	mov    %rax,%rdi
    c56b:	48 8b 40 10          	mov    0x10(%rax),%rax
    c56f:	48 85 c0             	test   %rax,%rax
    c572:	74 0f                	je     c583 <_ZNK6GetOpt13_DefValOptionIdNS_8_OptionTIdEEEclERSt3mapIcNS_10OptionDataESt4lessIcESaISt4pairIKcS5_EEERS4_ISsS5_S6_ISsESaIS8_IKSsS5_EEEPNS_5TokenESt13_Ios_Fmtflags+0x93>
    c574:	40 3a 70 20          	cmp    0x20(%rax),%sil
    c578:	7e ee                	jle    c568 <_ZNK6GetOpt13_DefValOptionIdNS_8_OptionTIdEEEclERSt3mapIcNS_10OptionDataESt4lessIcESaISt4pairIKcS5_EEERS4_ISsS5_S6_ISsESaIS8_IKSsS5_EEEPNS_5TokenESt13_Ios_Fmtflags+0x78>
    c57a:	48 8b 40 18          	mov    0x18(%rax),%rax
    c57e:	48 85 c0             	test   %rax,%rax
    c581:	75 f1                	jne    c574 <_ZNK6GetOpt13_DefValOptionIdNS_8_OptionTIdEEEclERSt3mapIcNS_10OptionDataESt4lessIcESaISt4pairIKcS5_EEERS4_ISsS5_S6_ISsESaIS8_IKSsS5_EEEPNS_5TokenESt13_Ios_Fmtflags+0x84>
    c583:	48 39 f9             	cmp    %rdi,%rcx
    c586:	74 95                	je     c51d <_ZNK6GetOpt13_DefValOptionIdNS_8_OptionTIdEEEclERSt3mapIcNS_10OptionDataESt4lessIcESaISt4pairIKcS5_EEERS4_ISsS5_S6_ISsESaIS8_IKSsS5_EEEPNS_5TokenESt13_Ios_Fmtflags+0x2d>
    c588:	40 3a 77 20          	cmp    0x20(%rdi),%sil
    c58c:	7c 8f                	jl     c51d <_ZNK6GetOpt13_DefValOptionIdNS_8_OptionTIdEEEclERSt3mapIcNS_10OptionDataESt4lessIcESaISt4pairIKcS5_EEERS4_ISsS5_S6_ISsESaIS8_IKSsS5_EEEPNS_5TokenESt13_Ios_Fmtflags+0x2d>
    c58e:	48 8b 03             	mov    (%rbx),%rax
    c591:	48 8d 15 98 fe ff ff 	lea    -0x168(%rip),%rdx        # c430 <_ZNK6GetOpt8_OptionTIdE7_assignEPNS_5TokenESt13_Ios_FmtflagsRSt3mapIcNS_10OptionDataESt4lessIcESaISt4pairIKcS6_EEE>
    c598:	c7 47 28 01 00 00 00 	movl   $0x1,0x28(%rdi)
    c59f:	48 8b 77 30          	mov    0x30(%rdi),%rsi
    c5a3:	48 8b 40 18          	mov    0x18(%rax),%rax
    c5a7:	48 39 d0             	cmp    %rdx,%rax
    c5aa:	0f 85 58 01 00 00    	jne    c708 <_ZNK6GetOpt13_DefValOptionIdNS_8_OptionTIdEEEclERSt3mapIcNS_10OptionDataESt4lessIcESaISt4pairIKcS5_EEERS4_ISsS5_S6_ISsESaIS8_IKSsS5_EEEPNS_5TokenESt13_Ios_Fmtflags+0x218>
    c5b0:	4c 8b 6e 10          	mov    0x10(%rsi),%r13
    c5b4:	4d 85 ed             	test   %r13,%r13
    c5b7:	74 0c                	je     c5c5 <_ZNK6GetOpt13_DefValOptionIdNS_8_OptionTIdEEEclERSt3mapIcNS_10OptionDataESt4lessIcESaISt4pairIKcS5_EEERS4_ISsS5_S6_ISsESaIS8_IKSsS5_EEEPNS_5TokenESt13_Ios_Fmtflags+0xd5>
    c5b9:	41 8b 45 00          	mov    0x0(%r13),%eax
    c5bd:	8d 50 fc             	lea    -0x4(%rax),%edx
    c5c0:	83 fa 02             	cmp    $0x2,%edx
    c5c3:	76 1b                	jbe    c5e0 <_ZNK6GetOpt13_DefValOptionIdNS_8_OptionTIdEEEclERSt3mapIcNS_10OptionDataESt4lessIcESaISt4pairIKcS5_EEERS4_ISsS5_S6_ISsESaIS8_IKSsS5_EEEPNS_5TokenESt13_Ios_Fmtflags+0xf0>
    c5c5:	48 83 c4 10          	add    $0x10,%rsp
    c5c9:	b8 04 00 00 00       	mov    $0x4,%eax
    c5ce:	5b                   	pop    %rbx
    c5cf:	41 5c                	pop    %r12
    c5d1:	41 5d                	pop    %r13
    c5d3:	41 5e                	pop    %r14
    c5d5:	5d                   	pop    %rbp
    c5d6:	c3                   	retq   
    c5d7:	66 0f 1f 84 00 00 00 	nopw   0x0(%rax,%rax,1)
    c5de:	00 00 
    c5e0:	83 f8 05             	cmp    $0x5,%eax
    c5e3:	4d 8d 75 08          	lea    0x8(%r13),%r14
    c5e7:	74 37                	je     c620 <_ZNK6GetOpt13_DefValOptionIdNS_8_OptionTIdEEEclERSt3mapIcNS_10OptionDataESt4lessIcESaISt4pairIKcS5_EEERS4_ISsS5_S6_ISsESaIS8_IKSsS5_EEEPNS_5TokenESt13_Ios_Fmtflags+0x130>
    c5e9:	48 8b 73 18          	mov    0x18(%rbx),%rsi
    c5ed:	41 c7 45 00 04 00 00 	movl   $0x4,0x0(%r13)
    c5f4:	00 
    c5f5:	44 89 c2             	mov    %r8d,%edx
    c5f8:	4c 89 f7             	mov    %r14,%rdi
    c5fb:	e8 50 fa ff ff       	callq  c050 <_ZN6GetOpt7convertIdEENS_7_Option6ResultERKSsRT_St13_Ios_Fmtflags>
    c600:	83 f8 02             	cmp    $0x2,%eax
    c603:	0f 84 23 ff ff ff    	je     c52c <_ZNK6GetOpt13_DefValOptionIdNS_8_OptionTIdEEEclERSt3mapIcNS_10OptionDataESt4lessIcESaISt4pairIKcS5_EEERS4_ISsS5_S6_ISsESaIS8_IKSsS5_EEEPNS_5TokenESt13_Ios_Fmtflags+0x3c>
    c609:	48 83 c4 10          	add    $0x10,%rsp
    c60d:	5b                   	pop    %rbx
    c60e:	41 5c                	pop    %r12
    c610:	41 5d                	pop    %r13
    c612:	41 5e                	pop    %r14
    c614:	5d                   	pop    %rbp
    c615:	c3                   	retq   
    c616:	66 2e 0f 1f 84 00 00 	nopw   %cs:0x0(%rax,%rax,1)
    c61d:	00 00 00 
    c620:	49 8b 75 08          	mov    0x8(%r13),%rsi
    c624:	8b 4e f8             	mov    -0x8(%rsi),%ecx
    c627:	85 c9                	test   %ecx,%ecx
    c629:	78 14                	js     c63f <_ZNK6GetOpt13_DefValOptionIdNS_8_OptionTIdEEEclERSt3mapIcNS_10OptionDataESt4lessIcESaISt4pairIKcS5_EEERS4_ISsS5_S6_ISsESaIS8_IKSsS5_EEEPNS_5TokenESt13_Ios_Fmtflags+0x14f>
    c62b:	4c 89 f7             	mov    %r14,%rdi
    c62e:	44 89 45 d8          	mov    %r8d,-0x28(%rbp)
    c632:	e8 59 69 ff ff       	callq  2f90 <_ZNSs12_M_leak_hardEv@plt>
    c637:	49 8b 75 08          	mov    0x8(%r13),%rsi
    c63b:	44 8b 45 d8          	mov    -0x28(%rbp),%r8d
    c63f:	48 83 c6 01          	add    $0x1,%rsi
    c643:	4c 89 e7             	mov    %r12,%rdi
    c646:	44 89 45 d8          	mov    %r8d,-0x28(%rbp)
    c64a:	e8 01 b2 ff ff       	callq  7850 <_ZNSt8_Rb_treeIcSt4pairIKcN6GetOpt10OptionDataEESt10_Select1stIS4_ESt4lessIcESaIS4_EE5eraseERS1_>
    c64f:	44 8b 45 d8          	mov    -0x28(%rbp),%r8d
    c653:	eb 94                	jmp    c5e9 <_ZNK6GetOpt13_DefValOptionIdNS_8_OptionTIdEEEclERSt3mapIcNS_10OptionDataESt4lessIcESaISt4pairIKcS5_EEERS4_ISsS5_S6_ISsESaIS8_IKSsS5_EEEPNS_5TokenESt13_Ios_Fmtflags+0xf9>
    c655:	0f 1f 00             	nopl   (%rax)
    c658:	48 8d 73 10          	lea    0x10(%rbx),%rsi
    c65c:	48 89 d7             	mov    %rdx,%rdi
    c65f:	48 89 55 d8          	mov    %rdx,-0x28(%rbp)
    c663:	44 89 45 d4          	mov    %r8d,-0x2c(%rbp)
    c667:	e8 04 af ff ff       	callq  7570 <_ZNSt8_Rb_treeISsSt4pairIKSsN6GetOpt10OptionDataEESt10_Select1stIS4_ESt4lessISsESaIS4_EE4findERS1_>
    c66c:	48 8b 55 d8          	mov    -0x28(%rbp),%rdx
    c670:	48 83 c2 08          	add    $0x8,%rdx
    c674:	48 39 d0             	cmp    %rdx,%rax
    c677:	0f 84 af fe ff ff    	je     c52c <_ZNK6GetOpt13_DefValOptionIdNS_8_OptionTIdEEEclERSt3mapIcNS_10OptionDataESt4lessIcESaISt4pairIKcS5_EEERS4_ISsS5_S6_ISsESaIS8_IKSsS5_EEEPNS_5TokenESt13_Ios_Fmtflags+0x3c>
    c67d:	48 8b 13             	mov    (%rbx),%rdx
    c680:	c7 40 28 01 00 00 00 	movl   $0x1,0x28(%rax)
    c687:	48 8b 70 30          	mov    0x30(%rax),%rsi
    c68b:	48 8d 05 9e fd ff ff 	lea    -0x262(%rip),%rax        # c430 <_ZNK6GetOpt8_OptionTIdE7_assignEPNS_5TokenESt13_Ios_FmtflagsRSt3mapIcNS_10OptionDataESt4lessIcESaISt4pairIKcS6_EEE>
    c692:	44 8b 45 d4          	mov    -0x2c(%rbp),%r8d
    c696:	4c 8b 4a 18          	mov    0x18(%rdx),%r9
    c69a:	49 39 c1             	cmp    %rax,%r9
    c69d:	75 79                	jne    c718 <_ZNK6GetOpt13_DefValOptionIdNS_8_OptionTIdEEEclERSt3mapIcNS_10OptionDataESt4lessIcESaISt4pairIKcS5_EEERS4_ISsS5_S6_ISsESaIS8_IKSsS5_EEEPNS_5TokenESt13_Ios_Fmtflags+0x228>
    c69f:	4c 8b 6e 10          	mov    0x10(%rsi),%r13
    c6a3:	4d 85 ed             	test   %r13,%r13
    c6a6:	0f 84 19 ff ff ff    	je     c5c5 <_ZNK6GetOpt13_DefValOptionIdNS_8_OptionTIdEEEclERSt3mapIcNS_10OptionDataESt4lessIcESaISt4pairIKcS5_EEERS4_ISsS5_S6_ISsESaIS8_IKSsS5_EEEPNS_5TokenESt13_Ios_Fmtflags+0xd5>
    c6ac:	41 8b 45 00          	mov    0x0(%r13),%eax
    c6b0:	8d 50 fc             	lea    -0x4(%rax),%edx
    c6b3:	83 fa 02             	cmp    $0x2,%edx
    c6b6:	0f 87 09 ff ff ff    	ja     c5c5 <_ZNK6GetOpt13_DefValOptionIdNS_8_OptionTIdEEEclERSt3mapIcNS_10OptionDataESt4lessIcESaISt4pairIKcS5_EEERS4_ISsS5_S6_ISsESaIS8_IKSsS5_EEEPNS_5TokenESt13_Ios_Fmtflags+0xd5>
    c6bc:	83 f8 05             	cmp    $0x5,%eax
    c6bf:	4d 8d 75 08          	lea    0x8(%r13),%r14
    c6c3:	0f 85 20 ff ff ff    	jne    c5e9 <_ZNK6GetOpt13_DefValOptionIdNS_8_OptionTIdEEEclERSt3mapIcNS_10OptionDataESt4lessIcESaISt4pairIKcS5_EEERS4_ISsS5_S6_ISsESaIS8_IKSsS5_EEEPNS_5TokenESt13_Ios_Fmtflags+0xf9>
    c6c9:	49 8b 45 08          	mov    0x8(%r13),%rax
    c6cd:	8b 50 f8             	mov    -0x8(%rax),%edx
    c6d0:	85 d2                	test   %edx,%edx
    c6d2:	78 14                	js     c6e8 <_ZNK6GetOpt13_DefValOptionIdNS_8_OptionTIdEEEclERSt3mapIcNS_10OptionDataESt4lessIcESaISt4pairIKcS5_EEERS4_ISsS5_S6_ISsESaIS8_IKSsS5_EEEPNS_5TokenESt13_Ios_Fmtflags+0x1f8>
    c6d4:	4c 89 f7             	mov    %r14,%rdi
    c6d7:	44 89 45 d8          	mov    %r8d,-0x28(%rbp)
    c6db:	e8 b0 68 ff ff       	callq  2f90 <_ZNSs12_M_leak_hardEv@plt>
    c6e0:	49 8b 45 08          	mov    0x8(%r13),%rax
    c6e4:	44 8b 45 d8          	mov    -0x28(%rbp),%r8d
    c6e8:	48 8d 70 01          	lea    0x1(%rax),%rsi
    c6ec:	4c 89 e7             	mov    %r12,%rdi
    c6ef:	44 89 45 d8          	mov    %r8d,-0x28(%rbp)
    c6f3:	e8 58 b1 ff ff       	callq  7850 <_ZNSt8_Rb_treeIcSt4pairIKcN6GetOpt10OptionDataEESt10_Select1stIS4_ESt4lessIcESaIS4_EE5eraseERS1_>
    c6f8:	44 8b 45 d8          	mov    -0x28(%rbp),%r8d
    c6fc:	e9 e8 fe ff ff       	jmpq   c5e9 <_ZNK6GetOpt13_DefValOptionIdNS_8_OptionTIdEEEclERSt3mapIcNS_10OptionDataESt4lessIcESaISt4pairIKcS5_EEERS4_ISsS5_S6_ISsESaIS8_IKSsS5_EEEPNS_5TokenESt13_Ios_Fmtflags+0xf9>
    c701:	0f 1f 80 00 00 00 00 	nopl   0x0(%rax)
    c708:	4c 89 e1             	mov    %r12,%rcx
    c70b:	44 89 c2             	mov    %r8d,%edx
    c70e:	48 89 df             	mov    %rbx,%rdi
    c711:	ff d0                	callq  *%rax
    c713:	e9 e8 fe ff ff       	jmpq   c600 <_ZNK6GetOpt13_DefValOptionIdNS_8_OptionTIdEEEclERSt3mapIcNS_10OptionDataESt4lessIcESaISt4pairIKcS5_EEERS4_ISsS5_S6_ISsESaIS8_IKSsS5_EEEPNS_5TokenESt13_Ios_Fmtflags+0x110>
    c718:	4c 89 e1             	mov    %r12,%rcx
    c71b:	44 89 c2             	mov    %r8d,%edx
    c71e:	48 89 df             	mov    %rbx,%rdi
    c721:	41 ff d1             	callq  *%r9
    c724:	e9 d7 fe ff ff       	jmpq   c600 <_ZNK6GetOpt13_DefValOptionIdNS_8_OptionTIdEEEclERSt3mapIcNS_10OptionDataESt4lessIcESaISt4pairIKcS5_EEERS4_ISsS5_S6_ISsESaIS8_IKSsS5_EEEPNS_5TokenESt13_Ios_Fmtflags+0x110>
    c729:	0f 1f 80 00 00 00 00 	nopl   0x0(%rax)

000000000000c730 <_ZNK6GetOpt12_OptionTBaseIdEclERSt3mapIcNS_10OptionDataESt4lessIcESaISt4pairIKcS3_EEERS2_ISsS3_S4_ISsESaIS6_IKSsS3_EEEPNS_5TokenESt13_Ios_Fmtflags>:
    c730:	55                   	push   %rbp
    c731:	48 89 e5             	mov    %rsp,%rbp
    c734:	41 56                	push   %r14
    c736:	41 55                	push   %r13
    c738:	41 54                	push   %r12
    c73a:	53                   	push   %rbx
    c73b:	48 81 ec 30 10 00 00 	sub    $0x1030,%rsp
    c742:	48 83 0c 24 00       	orq    $0x0,(%rsp)
    c747:	48 81 c4 20 10 00 00 	add    $0x1020,%rsp
    c74e:	49 89 f4             	mov    %rsi,%r12
    c751:	0f b6 77 08          	movzbl 0x8(%rdi),%esi
    c755:	48 89 fb             	mov    %rdi,%rbx
    c758:	40 84 f6             	test   %sil,%sil
    c75b:	75 23                	jne    c780 <_ZNK6GetOpt12_OptionTBaseIdEclERSt3mapIcNS_10OptionDataESt4lessIcESaISt4pairIKcS3_EEERS2_ISsS3_S4_ISsESaIS6_IKSsS3_EEEPNS_5TokenESt13_Ios_Fmtflags+0x50>
    c75d:	48 8b 43 10          	mov    0x10(%rbx),%rax
    c761:	48 83 78 e8 00       	cmpq   $0x0,-0x18(%rax)
    c766:	0f 85 0c 01 00 00    	jne    c878 <_ZNK6GetOpt12_OptionTBaseIdEclERSt3mapIcNS_10OptionDataESt4lessIcESaISt4pairIKcS3_EEERS2_ISsS3_S4_ISsESaIS6_IKSsS3_EEEPNS_5TokenESt13_Ios_Fmtflags+0x148>
    c76c:	48 83 c4 10          	add    $0x10,%rsp
    c770:	b8 02 00 00 00       	mov    $0x2,%eax
    c775:	5b                   	pop    %rbx
    c776:	41 5c                	pop    %r12
    c778:	41 5d                	pop    %r13
    c77a:	41 5e                	pop    %r14
    c77c:	5d                   	pop    %rbp
    c77d:	c3                   	retq   
    c77e:	66 90                	xchg   %ax,%ax
    c780:	49 8b 44 24 10       	mov    0x10(%r12),%rax
    c785:	49 8d 4c 24 08       	lea    0x8(%r12),%rcx
    c78a:	48 85 c0             	test   %rax,%rax
    c78d:	74 ce                	je     c75d <_ZNK6GetOpt12_OptionTBaseIdEclERSt3mapIcNS_10OptionDataESt4lessIcESaISt4pairIKcS3_EEERS2_ISsS3_S4_ISsESaIS6_IKSsS3_EEEPNS_5TokenESt13_Ios_Fmtflags+0x2d>
    c78f:	48 89 cf             	mov    %rcx,%rdi
    c792:	eb 10                	jmp    c7a4 <_ZNK6GetOpt12_OptionTBaseIdEclERSt3mapIcNS_10OptionDataESt4lessIcESaISt4pairIKcS3_EEERS2_ISsS3_S4_ISsESaIS6_IKSsS3_EEEPNS_5TokenESt13_Ios_Fmtflags+0x74>
    c794:	0f 1f 40 00          	nopl   0x0(%rax)
    c798:	48 89 c7             	mov    %rax,%rdi
    c79b:	48 8b 40 10          	mov    0x10(%rax),%rax
    c79f:	48 85 c0             	test   %rax,%rax
    c7a2:	74 0f                	je     c7b3 <_ZNK6GetOpt12_OptionTBaseIdEclERSt3mapIcNS_10OptionDataESt4lessIcESaISt4pairIKcS3_EEERS2_ISsS3_S4_ISsESaIS6_IKSsS3_EEEPNS_5TokenESt13_Ios_Fmtflags+0x83>
    c7a4:	40 3a 70 20          	cmp    0x20(%rax),%sil
    c7a8:	7e ee                	jle    c798 <_ZNK6GetOpt12_OptionTBaseIdEclERSt3mapIcNS_10OptionDataESt4lessIcESaISt4pairIKcS3_EEERS2_ISsS3_S4_ISsESaIS6_IKSsS3_EEEPNS_5TokenESt13_Ios_Fmtflags+0x68>
    c7aa:	48 8b 40 18          	mov    0x18(%rax),%rax
    c7ae:	48 85 c0             	test   %rax,%rax
    c7b1:	75 f1                	jne    c7a4 <_ZNK6GetOpt12_OptionTBaseIdEclERSt3mapIcNS_10OptionDataESt4lessIcESaISt4pairIKcS3_EEERS2_ISsS3_S4_ISsESaIS6_IKSsS3_EEEPNS_5TokenESt13_Ios_Fmtflags+0x74>
    c7b3:	48 39 f9             	cmp    %rdi,%rcx
    c7b6:	74 a5                	je     c75d <_ZNK6GetOpt12_OptionTBaseIdEclERSt3mapIcNS_10OptionDataESt4lessIcESaISt4pairIKcS3_EEERS2_ISsS3_S4_ISsESaIS6_IKSsS3_EEEPNS_5TokenESt13_Ios_Fmtflags+0x2d>
    c7b8:	40 3a 77 20          	cmp    0x20(%rdi),%sil
    c7bc:	7c 9f                	jl     c75d <_ZNK6GetOpt12_OptionTBaseIdEclERSt3mapIcNS_10OptionDataESt4lessIcESaISt4pairIKcS3_EEERS2_ISsS3_S4_ISsESaIS6_IKSsS3_EEEPNS_5TokenESt13_Ios_Fmtflags+0x2d>
    c7be:	48 8b 03             	mov    (%rbx),%rax
    c7c1:	48 8d 15 68 fc ff ff 	lea    -0x398(%rip),%rdx        # c430 <_ZNK6GetOpt8_OptionTIdE7_assignEPNS_5TokenESt13_Ios_FmtflagsRSt3mapIcNS_10OptionDataESt4lessIcESaISt4pairIKcS6_EEE>
    c7c8:	c7 47 28 01 00 00 00 	movl   $0x1,0x28(%rdi)
    c7cf:	48 8b 77 30          	mov    0x30(%rdi),%rsi
    c7d3:	48 8b 40 18          	mov    0x18(%rax),%rax
    c7d7:	48 39 d0             	cmp    %rdx,%rax
    c7da:	0f 85 48 01 00 00    	jne    c928 <_ZNK6GetOpt12_OptionTBaseIdEclERSt3mapIcNS_10OptionDataESt4lessIcESaISt4pairIKcS3_EEERS2_ISsS3_S4_ISsESaIS6_IKSsS3_EEEPNS_5TokenESt13_Ios_Fmtflags+0x1f8>
    c7e0:	4c 8b 6e 10          	mov    0x10(%rsi),%r13
    c7e4:	4d 85 ed             	test   %r13,%r13
    c7e7:	74 0c                	je     c7f5 <_ZNK6GetOpt12_OptionTBaseIdEclERSt3mapIcNS_10OptionDataESt4lessIcESaISt4pairIKcS3_EEERS2_ISsS3_S4_ISsESaIS6_IKSsS3_EEEPNS_5TokenESt13_Ios_Fmtflags+0xc5>
    c7e9:	41 8b 45 00          	mov    0x0(%r13),%eax
    c7ed:	8d 50 fc             	lea    -0x4(%rax),%edx
    c7f0:	83 fa 02             	cmp    $0x2,%edx
    c7f3:	76 1b                	jbe    c810 <_ZNK6GetOpt12_OptionTBaseIdEclERSt3mapIcNS_10OptionDataESt4lessIcESaISt4pairIKcS3_EEERS2_ISsS3_S4_ISsESaIS6_IKSsS3_EEEPNS_5TokenESt13_Ios_Fmtflags+0xe0>
    c7f5:	48 83 c4 10          	add    $0x10,%rsp
    c7f9:	b8 04 00 00 00       	mov    $0x4,%eax
    c7fe:	5b                   	pop    %rbx
    c7ff:	41 5c                	pop    %r12
    c801:	41 5d                	pop    %r13
    c803:	41 5e                	pop    %r14
    c805:	5d                   	pop    %rbp
    c806:	c3                   	retq   
    c807:	66 0f 1f 84 00 00 00 	nopw   0x0(%rax,%rax,1)
    c80e:	00 00 
    c810:	83 f8 05             	cmp    $0x5,%eax
    c813:	4d 8d 75 08          	lea    0x8(%r13),%r14
    c817:	74 27                	je     c840 <_ZNK6GetOpt12_OptionTBaseIdEclERSt3mapIcNS_10OptionDataESt4lessIcESaISt4pairIKcS3_EEERS2_ISsS3_S4_ISsESaIS6_IKSsS3_EEEPNS_5TokenESt13_Ios_Fmtflags+0x110>
    c819:	41 c7 45 00 04 00 00 	movl   $0x4,0x0(%r13)
    c820:	00 
    c821:	48 8b 73 18          	mov    0x18(%rbx),%rsi
    c825:	48 83 c4 10          	add    $0x10,%rsp
    c829:	5b                   	pop    %rbx
    c82a:	4c 89 f7             	mov    %r14,%rdi
    c82d:	44 89 c2             	mov    %r8d,%edx
    c830:	41 5c                	pop    %r12
    c832:	41 5d                	pop    %r13
    c834:	41 5e                	pop    %r14
    c836:	5d                   	pop    %rbp
    c837:	e9 14 f8 ff ff       	jmpq   c050 <_ZN6GetOpt7convertIdEENS_7_Option6ResultERKSsRT_St13_Ios_Fmtflags>
    c83c:	0f 1f 40 00          	nopl   0x0(%rax)
    c840:	49 8b 75 08          	mov    0x8(%r13),%rsi
    c844:	8b 4e f8             	mov    -0x8(%rsi),%ecx
    c847:	85 c9                	test   %ecx,%ecx
    c849:	78 14                	js     c85f <_ZNK6GetOpt12_OptionTBaseIdEclERSt3mapIcNS_10OptionDataESt4lessIcESaISt4pairIKcS3_EEERS2_ISsS3_S4_ISsESaIS6_IKSsS3_EEEPNS_5TokenESt13_Ios_Fmtflags+0x12f>
    c84b:	4c 89 f7             	mov    %r14,%rdi
    c84e:	44 89 45 d8          	mov    %r8d,-0x28(%rbp)
    c852:	e8 39 67 ff ff       	callq  2f90 <_ZNSs12_M_leak_hardEv@plt>
    c857:	49 8b 75 08          	mov    0x8(%r13),%rsi
    c85b:	44 8b 45 d8          	mov    -0x28(%rbp),%r8d
    c85f:	48 83 c6 01          	add    $0x1,%rsi
    c863:	4c 89 e7             	mov    %r12,%rdi
    c866:	44 89 45 d8          	mov    %r8d,-0x28(%rbp)
    c86a:	e8 e1 af ff ff       	callq  7850 <_ZNSt8_Rb_treeIcSt4pairIKcN6GetOpt10OptionDataEESt10_Select1stIS4_ESt4lessIcESaIS4_EE5eraseERS1_>
    c86f:	44 8b 45 d8          	mov    -0x28(%rbp),%r8d
    c873:	eb a4                	jmp    c819 <_ZNK6GetOpt12_OptionTBaseIdEclERSt3mapIcNS_10OptionDataESt4lessIcESaISt4pairIKcS3_EEERS2_ISsS3_S4_ISsESaIS6_IKSsS3_EEEPNS_5TokenESt13_Ios_Fmtflags+0xe9>
    c875:	0f 1f 00             	nopl   (%rax)
    c878:	48 8d 73 10          	lea    0x10(%rbx),%rsi
    c87c:	48 89 d7             	mov    %rdx,%rdi
    c87f:	48 89 55 d8          	mov    %rdx,-0x28(%rbp)
    c883:	44 89 45 d4          	mov    %r8d,-0x2c(%rbp)
    c887:	e8 e4 ac ff ff       	callq  7570 <_ZNSt8_Rb_treeISsSt4pairIKSsN6GetOpt10OptionDataEESt10_Select1stIS4_ESt4lessISsESaIS4_EE4findERS1_>
    c88c:	48 8b 55 d8          	mov    -0x28(%rbp),%rdx
    c890:	48 83 c2 08          	add    $0x8,%rdx
    c894:	48 39 d0             	cmp    %rdx,%rax
    c897:	0f 84 cf fe ff ff    	je     c76c <_ZNK6GetOpt12_OptionTBaseIdEclERSt3mapIcNS_10OptionDataESt4lessIcESaISt4pairIKcS3_EEERS2_ISsS3_S4_ISsESaIS6_IKSsS3_EEEPNS_5TokenESt13_Ios_Fmtflags+0x3c>
    c89d:	48 8b 13             	mov    (%rbx),%rdx
    c8a0:	c7 40 28 01 00 00 00 	movl   $0x1,0x28(%rax)
    c8a7:	48 8b 70 30          	mov    0x30(%rax),%rsi
    c8ab:	48 8d 05 7e fb ff ff 	lea    -0x482(%rip),%rax        # c430 <_ZNK6GetOpt8_OptionTIdE7_assignEPNS_5TokenESt13_Ios_FmtflagsRSt3mapIcNS_10OptionDataESt4lessIcESaISt4pairIKcS6_EEE>
    c8b2:	44 8b 45 d4          	mov    -0x2c(%rbp),%r8d
    c8b6:	4c 8b 4a 18          	mov    0x18(%rdx),%r9
    c8ba:	49 39 c1             	cmp    %rax,%r9
    c8bd:	0f 85 7c 00 00 00    	jne    c93f <_ZNK6GetOpt12_OptionTBaseIdEclERSt3mapIcNS_10OptionDataESt4lessIcESaISt4pairIKcS3_EEERS2_ISsS3_S4_ISsESaIS6_IKSsS3_EEEPNS_5TokenESt13_Ios_Fmtflags+0x20f>
    c8c3:	4c 8b 6e 10          	mov    0x10(%rsi),%r13
    c8c7:	4d 85 ed             	test   %r13,%r13
    c8ca:	0f 84 25 ff ff ff    	je     c7f5 <_ZNK6GetOpt12_OptionTBaseIdEclERSt3mapIcNS_10OptionDataESt4lessIcESaISt4pairIKcS3_EEERS2_ISsS3_S4_ISsESaIS6_IKSsS3_EEEPNS_5TokenESt13_Ios_Fmtflags+0xc5>
    c8d0:	41 8b 45 00          	mov    0x0(%r13),%eax
    c8d4:	8d 50 fc             	lea    -0x4(%rax),%edx
    c8d7:	83 fa 02             	cmp    $0x2,%edx
    c8da:	0f 87 15 ff ff ff    	ja     c7f5 <_ZNK6GetOpt12_OptionTBaseIdEclERSt3mapIcNS_10OptionDataESt4lessIcESaISt4pairIKcS3_EEERS2_ISsS3_S4_ISsESaIS6_IKSsS3_EEEPNS_5TokenESt13_Ios_Fmtflags+0xc5>
    c8e0:	83 f8 05             	cmp    $0x5,%eax
    c8e3:	4d 8d 75 08          	lea    0x8(%r13),%r14
    c8e7:	0f 85 2c ff ff ff    	jne    c819 <_ZNK6GetOpt12_OptionTBaseIdEclERSt3mapIcNS_10OptionDataESt4lessIcESaISt4pairIKcS3_EEERS2_ISsS3_S4_ISsESaIS6_IKSsS3_EEEPNS_5TokenESt13_Ios_Fmtflags+0xe9>
    c8ed:	49 8b 45 08          	mov    0x8(%r13),%rax
    c8f1:	8b 50 f8             	mov    -0x8(%rax),%edx
    c8f4:	85 d2                	test   %edx,%edx
    c8f6:	78 14                	js     c90c <_ZNK6GetOpt12_OptionTBaseIdEclERSt3mapIcNS_10OptionDataESt4lessIcESaISt4pairIKcS3_EEERS2_ISsS3_S4_ISsESaIS6_IKSsS3_EEEPNS_5TokenESt13_Ios_Fmtflags+0x1dc>
    c8f8:	4c 89 f7             	mov    %r14,%rdi
    c8fb:	44 89 45 d8          	mov    %r8d,-0x28(%rbp)
    c8ff:	e8 8c 66 ff ff       	callq  2f90 <_ZNSs12_M_leak_hardEv@plt>
    c904:	49 8b 45 08          	mov    0x8(%r13),%rax
    c908:	44 8b 45 d8          	mov    -0x28(%rbp),%r8d
    c90c:	48 8d 70 01          	lea    0x1(%rax),%rsi
    c910:	4c 89 e7             	mov    %r12,%rdi
    c913:	44 89 45 d8          	mov    %r8d,-0x28(%rbp)
    c917:	e8 34 af ff ff       	callq  7850 <_ZNSt8_Rb_treeIcSt4pairIKcN6GetOpt10OptionDataEESt10_Select1stIS4_ESt4lessIcESaIS4_EE5eraseERS1_>
    c91c:	44 8b 45 d8          	mov    -0x28(%rbp),%r8d
    c920:	e9 f4 fe ff ff       	jmpq   c819 <_ZNK6GetOpt12_OptionTBaseIdEclERSt3mapIcNS_10OptionDataESt4lessIcESaISt4pairIKcS3_EEERS2_ISsS3_S4_ISsESaIS6_IKSsS3_EEEPNS_5TokenESt13_Ios_Fmtflags+0xe9>
    c925:	0f 1f 00             	nopl   (%rax)
    c928:	48 83 c4 10          	add    $0x10,%rsp
    c92c:	4c 89 e1             	mov    %r12,%rcx
    c92f:	48 89 df             	mov    %rbx,%rdi
    c932:	5b                   	pop    %rbx
    c933:	41 5c                	pop    %r12
    c935:	41 5d                	pop    %r13
    c937:	41 5e                	pop    %r14
    c939:	5d                   	pop    %rbp
    c93a:	44 89 c2             	mov    %r8d,%edx
    c93d:	ff e0                	jmpq   *%rax
    c93f:	48 83 c4 10          	add    $0x10,%rsp
    c943:	4c 89 e1             	mov    %r12,%rcx
    c946:	48 89 df             	mov    %rbx,%rdi
    c949:	5b                   	pop    %rbx
    c94a:	41 5c                	pop    %r12
    c94c:	41 5d                	pop    %r13
    c94e:	41 5e                	pop    %r14
    c950:	5d                   	pop    %rbp
    c951:	44 89 c2             	mov    %r8d,%edx
    c954:	41 ff e1             	jmpq   *%r9
    c957:	66 0f 1f 84 00 00 00 	nopw   0x0(%rax,%rax,1)
    c95e:	00 00 

000000000000c960 <_ZN6GetOpt7convertIiEENS_7_Option6ResultERKSsRT_St13_Ios_Fmtflags>:
    c960:	55                   	push   %rbp
    c961:	48 89 e5             	mov    %rsp,%rbp
    c964:	41 57                	push   %r15
    c966:	41 56                	push   %r14
    c968:	41 55                	push   %r13
    c96a:	41 54                	push   %r12
    c96c:	53                   	push   %rbx
    c96d:	48 81 ec c8 11 00 00 	sub    $0x11c8,%rsp
    c974:	48 83 0c 24 00       	orq    $0x0,(%rsp)
    c979:	48 81 c4 20 10 00 00 	add    $0x1020,%rsp
    c980:	48 8d 9d 50 fe ff ff 	lea    -0x1b0(%rbp),%rbx
    c987:	48 89 bd 38 fe ff ff 	mov    %rdi,-0x1c8(%rbp)
    c98e:	48 89 b5 30 fe ff ff 	mov    %rsi,-0x1d0(%rbp)
    c995:	64 48 8b 04 25 28 00 	mov    %fs:0x28,%rax
    c99c:	00 00 
    c99e:	48 89 45 c8          	mov    %rax,-0x38(%rbp)
    c9a2:	31 c0                	xor    %eax,%eax
    c9a4:	48 8d 7b 68          	lea    0x68(%rbx),%rdi
    c9a8:	41 89 d7             	mov    %edx,%r15d
    c9ab:	e8 10 66 ff ff       	callq  2fc0 <_ZNSt8ios_baseC2Ev@plt>
    c9b0:	4c 8b 25 d9 7c 20 00 	mov    0x207cd9(%rip),%r12        # 214690 <_ZTTSt18basic_stringstreamIcSt11char_traitsIcESaIcEE@@GLIBCXX_3.4+0x10>
    c9b7:	48 8d 05 12 79 20 00 	lea    0x207912(%rip),%rax        # 2142d0 <_ZTVSt9basic_iosIcSt11char_traitsIcEE@@GLIBCXX_3.4+0x10>
    c9be:	c6 45 98 00          	movb   $0x0,-0x68(%rbp)
    c9c2:	48 8b 0d cf 7c 20 00 	mov    0x207ccf(%rip),%rcx        # 214698 <_ZTTSt18basic_stringstreamIcSt11char_traitsIcESaIcEE@@GLIBCXX_3.4+0x18>
    c9c9:	48 c7 45 90 00 00 00 	movq   $0x0,-0x70(%rbp)
    c9d0:	00 
    c9d1:	48 89 df             	mov    %rbx,%rdi
    c9d4:	48 89 85 b8 fe ff ff 	mov    %rax,-0x148(%rbp)
    c9db:	c6 45 99 00          	movb   $0x0,-0x67(%rbp)
    c9df:	31 f6                	xor    %esi,%esi
    c9e1:	49 8b 44 24 e8       	mov    -0x18(%r12),%rax
    c9e6:	48 c7 45 a0 00 00 00 	movq   $0x0,-0x60(%rbp)
    c9ed:	00 
    c9ee:	48 c7 45 a8 00 00 00 	movq   $0x0,-0x58(%rbp)
    c9f5:	00 
    c9f6:	48 c7 45 b0 00 00 00 	movq   $0x0,-0x50(%rbp)
    c9fd:	00 
    c9fe:	48 c7 45 b8 00 00 00 	movq   $0x0,-0x48(%rbp)
    ca05:	00 
    ca06:	4c 89 a5 50 fe ff ff 	mov    %r12,-0x1b0(%rbp)
    ca0d:	48 89 8c 05 50 fe ff 	mov    %rcx,-0x1b0(%rbp,%rax,1)
    ca14:	ff 
    ca15:	48 c7 85 58 fe ff ff 	movq   $0x0,-0x1a8(%rbp)
    ca1c:	00 00 00 00 
    ca20:	49 03 7c 24 e8       	add    -0x18(%r12),%rdi
    ca25:	e8 46 68 ff ff       	callq  3270 <_ZNSt9basic_iosIcSt11char_traitsIcEE4initEPSt15basic_streambufIcS1_E@plt>
    ca2a:	4c 8b 2d 6f 7c 20 00 	mov    0x207c6f(%rip),%r13        # 2146a0 <_ZTTSt18basic_stringstreamIcSt11char_traitsIcESaIcEE@@GLIBCXX_3.4+0x20>
    ca31:	31 f6                	xor    %esi,%esi
    ca33:	49 8b 45 e8          	mov    -0x18(%r13),%rax
    ca37:	4c 89 ad 60 fe ff ff 	mov    %r13,-0x1a0(%rbp)
    ca3e:	48 8d 7c 03 10       	lea    0x10(%rbx,%rax,1),%rdi
    ca43:	48 8b 05 5e 7c 20 00 	mov    0x207c5e(%rip),%rax        # 2146a8 <_ZTTSt18basic_stringstreamIcSt11char_traitsIcESaIcEE@@GLIBCXX_3.4+0x28>
    ca4a:	48 89 07             	mov    %rax,(%rdi)
    ca4d:	e8 1e 68 ff ff       	callq  3270 <_ZNSt9basic_iosIcSt11char_traitsIcEE4initEPSt15basic_streambufIcS1_E@plt>
    ca52:	4c 8b 35 2f 7c 20 00 	mov    0x207c2f(%rip),%r14        # 214688 <_ZTTSt18basic_stringstreamIcSt11char_traitsIcESaIcEE@@GLIBCXX_3.4+0x8>
    ca59:	48 8b 0d 50 7c 20 00 	mov    0x207c50(%rip),%rcx        # 2146b0 <_ZTTSt18basic_stringstreamIcSt11char_traitsIcESaIcEE@@GLIBCXX_3.4+0x30>
    ca60:	48 8d 7b 50          	lea    0x50(%rbx),%rdi
    ca64:	49 8b 46 e8          	mov    -0x18(%r14),%rax
    ca68:	48 89 8c 05 50 fe ff 	mov    %rcx,-0x1b0(%rbp,%rax,1)
    ca6f:	ff 
    ca70:	48 8d 05 a1 78 20 00 	lea    0x2078a1(%rip),%rax        # 214318 <_ZTVSt18basic_stringstreamIcSt11char_traitsIcESaIcEE@@GLIBCXX_3.4+0x18>
    ca77:	48 c7 85 70 fe ff ff 	movq   $0x0,-0x190(%rbp)
    ca7e:	00 00 00 00 
    ca82:	48 c7 85 78 fe ff ff 	movq   $0x0,-0x188(%rbp)
    ca89:	00 00 00 00 
    ca8d:	48 c7 85 80 fe ff ff 	movq   $0x0,-0x180(%rbp)
    ca94:	00 00 00 00 
    ca98:	48 89 85 50 fe ff ff 	mov    %rax,-0x1b0(%rbp)
    ca9f:	48 8d 05 c2 78 20 00 	lea    0x2078c2(%rip),%rax        # 214368 <_ZTVSt18basic_stringstreamIcSt11char_traitsIcESaIcEE@@GLIBCXX_3.4+0x68>
    caa6:	48 c7 85 88 fe ff ff 	movq   $0x0,-0x178(%rbp)
    caad:	00 00 00 00 
    cab1:	48 c7 85 90 fe ff ff 	movq   $0x0,-0x170(%rbp)
    cab8:	00 00 00 00 
    cabc:	48 c7 85 98 fe ff ff 	movq   $0x0,-0x168(%rbp)
    cac3:	00 00 00 00 
    cac7:	48 89 85 b8 fe ff ff 	mov    %rax,-0x148(%rbp)
    cace:	48 8d 05 6b 78 20 00 	lea    0x20786b(%rip),%rax        # 214340 <_ZTVSt18basic_stringstreamIcSt11char_traitsIcESaIcEE@@GLIBCXX_3.4+0x40>
    cad5:	48 89 85 60 fe ff ff 	mov    %rax,-0x1a0(%rbp)
    cadc:	48 8d 05 ad 78 20 00 	lea    0x2078ad(%rip),%rax        # 214390 <_ZTVSt15basic_streambufIcSt11char_traitsIcEE@@GLIBCXX_3.4+0x10>
    cae3:	48 89 85 68 fe ff ff 	mov    %rax,-0x198(%rbp)
    caea:	e8 61 69 ff ff       	callq  3450 <_ZNSt6localeC1Ev@plt>
    caef:	48 8d 05 9a 7a 20 00 	lea    0x207a9a(%rip),%rax        # 214590 <_ZTVSt15basic_stringbufIcSt11char_traitsIcESaIcEE@@GLIBCXX_3.4+0x10>
    caf6:	48 8d 73 18          	lea    0x18(%rbx),%rsi
    cafa:	48 8d 7b 68          	lea    0x68(%rbx),%rdi
    cafe:	c7 85 a8 fe ff ff 18 	movl   $0x18,-0x158(%rbp)
    cb05:	00 00 00 
    cb08:	48 89 85 68 fe ff ff 	mov    %rax,-0x198(%rbp)
    cb0f:	48 8d 05 e2 77 20 00 	lea    0x2077e2(%rip),%rax        # 2142f8 <_ZNSs4_Rep20_S_empty_rep_storageE@@GLIBCXX_3.4+0x18>
    cb16:	48 89 85 b0 fe ff ff 	mov    %rax,-0x150(%rbp)
    cb1d:	e8 4e 67 ff ff       	callq  3270 <_ZNSt9basic_iosIcSt11char_traitsIcEE4initEPSt15basic_streambufIcS1_E@plt>
    cb22:	48 8d 7b 68          	lea    0x68(%rbx),%rdi
    cb26:	31 f6                	xor    %esi,%esi
    cb28:	e8 43 68 ff ff       	callq  3370 <_ZNSt9basic_iosIcSt11char_traitsIcEE5clearESt12_Ios_Iostate@plt>
    cb2d:	48 8b 85 38 fe ff ff 	mov    -0x1c8(%rbp),%rax
    cb34:	48 8d 7b 10          	lea    0x10(%rbx),%rdi
    cb38:	44 89 bd d0 fe ff ff 	mov    %r15d,-0x130(%rbp)
    cb3f:	48 8b 30             	mov    (%rax),%rsi
    cb42:	48 8b 56 e8          	mov    -0x18(%rsi),%rdx
    cb46:	e8 a5 66 ff ff       	callq  31f0 <_ZSt16__ostream_insertIcSt11char_traitsIcEERSt13basic_ostreamIT_T0_ES6_PKS3_l@plt>
    cb4b:	48 8b b5 30 fe ff ff 	mov    -0x1d0(%rbp),%rsi
    cb52:	48 89 df             	mov    %rbx,%rdi
    cb55:	e8 16 65 ff ff       	callq  3070 <_ZNSirsERi@plt>
    cb5a:	8b 85 d8 fe ff ff    	mov    -0x128(%rbp),%eax
    cb60:	41 bf 03 00 00 00    	mov    $0x3,%r15d
    cb66:	a8 05                	test   $0x5,%al
    cb68:	75 0d                	jne    cb77 <_ZN6GetOpt7convertIiEENS_7_Option6ResultERKSsRT_St13_Ios_Fmtflags+0x217>
    cb6a:	83 e0 02             	and    $0x2,%eax
    cb6d:	83 f8 01             	cmp    $0x1,%eax
    cb70:	45 19 ff             	sbb    %r15d,%r15d
    cb73:	41 83 e7 03          	and    $0x3,%r15d
    cb77:	48 8d 05 9a 77 20 00 	lea    0x20779a(%rip),%rax        # 214318 <_ZTVSt18basic_stringstreamIcSt11char_traitsIcESaIcEE@@GLIBCXX_3.4+0x18>
    cb7e:	48 8d 15 5b 77 20 00 	lea    0x20775b(%rip),%rdx        # 2142e0 <_ZNSs4_Rep20_S_empty_rep_storageE@@GLIBCXX_3.4>
    cb85:	48 89 85 50 fe ff ff 	mov    %rax,-0x1b0(%rbp)
    cb8c:	48 8d 05 d5 77 20 00 	lea    0x2077d5(%rip),%rax        # 214368 <_ZTVSt18basic_stringstreamIcSt11char_traitsIcESaIcEE@@GLIBCXX_3.4+0x68>
    cb93:	48 89 85 b8 fe ff ff 	mov    %rax,-0x148(%rbp)
    cb9a:	48 8d 05 9f 77 20 00 	lea    0x20779f(%rip),%rax        # 214340 <_ZTVSt18basic_stringstreamIcSt11char_traitsIcESaIcEE@@GLIBCXX_3.4+0x40>
    cba1:	48 89 85 60 fe ff ff 	mov    %rax,-0x1a0(%rbp)
    cba8:	48 8d 05 e1 79 20 00 	lea    0x2079e1(%rip),%rax        # 214590 <_ZTVSt15basic_stringbufIcSt11char_traitsIcESaIcEE@@GLIBCXX_3.4+0x10>
    cbaf:	48 89 85 68 fe ff ff 	mov    %rax,-0x198(%rbp)
    cbb6:	48 8b 85 b0 fe ff ff 	mov    -0x150(%rbp),%rax
    cbbd:	48 8d 78 e8          	lea    -0x18(%rax),%rdi
    cbc1:	48 39 d7             	cmp    %rdx,%rdi
    cbc4:	0f 85 96 00 00 00    	jne    cc60 <_ZN6GetOpt7convertIiEENS_7_Option6ResultERKSsRT_St13_Ios_Fmtflags+0x300>
    cbca:	48 8d 05 bf 77 20 00 	lea    0x2077bf(%rip),%rax        # 214390 <_ZTVSt15basic_streambufIcSt11char_traitsIcEE@@GLIBCXX_3.4+0x10>
    cbd1:	48 8d 7b 50          	lea    0x50(%rbx),%rdi
    cbd5:	48 89 85 68 fe ff ff 	mov    %rax,-0x198(%rbp)
    cbdc:	e8 9f 66 ff ff       	callq  3280 <_ZNSt6localeD1Ev@plt>
    cbe1:	49 8b 46 e8          	mov    -0x18(%r14),%rax
    cbe5:	48 8b 0d c4 7a 20 00 	mov    0x207ac4(%rip),%rcx        # 2146b0 <_ZTTSt18basic_stringstreamIcSt11char_traitsIcESaIcEE@@GLIBCXX_3.4+0x30>
    cbec:	48 8d 7b 68          	lea    0x68(%rbx),%rdi
    cbf0:	48 8b 15 a1 7a 20 00 	mov    0x207aa1(%rip),%rdx        # 214698 <_ZTTSt18basic_stringstreamIcSt11char_traitsIcESaIcEE@@GLIBCXX_3.4+0x18>
    cbf7:	48 89 8c 05 50 fe ff 	mov    %rcx,-0x1b0(%rbp,%rax,1)
    cbfe:	ff 
    cbff:	49 8b 45 e8          	mov    -0x18(%r13),%rax
    cc03:	48 8b 0d 9e 7a 20 00 	mov    0x207a9e(%rip),%rcx        # 2146a8 <_ZTTSt18basic_stringstreamIcSt11char_traitsIcESaIcEE@@GLIBCXX_3.4+0x28>
    cc0a:	48 89 8c 05 60 fe ff 	mov    %rcx,-0x1a0(%rbp,%rax,1)
    cc11:	ff 
    cc12:	49 8b 44 24 e8       	mov    -0x18(%r12),%rax
    cc17:	48 89 94 05 50 fe ff 	mov    %rdx,-0x1b0(%rbp,%rax,1)
    cc1e:	ff 
    cc1f:	48 8d 05 aa 76 20 00 	lea    0x2076aa(%rip),%rax        # 2142d0 <_ZTVSt9basic_iosIcSt11char_traitsIcEE@@GLIBCXX_3.4+0x10>
    cc26:	48 89 85 b8 fe ff ff 	mov    %rax,-0x148(%rbp)
    cc2d:	e8 9e 63 ff ff       	callq  2fd0 <_ZNSt8ios_baseD2Ev@plt>
    cc32:	48 8b 4d c8          	mov    -0x38(%rbp),%rcx
    cc36:	64 48 33 0c 25 28 00 	xor    %fs:0x28,%rcx
    cc3d:	00 00 
    cc3f:	44 89 f8             	mov    %r15d,%eax
    cc42:	75 59                	jne    cc9d <_ZN6GetOpt7convertIiEENS_7_Option6ResultERKSsRT_St13_Ios_Fmtflags+0x33d>
    cc44:	48 81 c4 a8 01 00 00 	add    $0x1a8,%rsp
    cc4b:	5b                   	pop    %rbx
    cc4c:	41 5c                	pop    %r12
    cc4e:	41 5d                	pop    %r13
    cc50:	41 5e                	pop    %r14
    cc52:	41 5f                	pop    %r15
    cc54:	5d                   	pop    %rbp
    cc55:	c3                   	retq   
    cc56:	66 2e 0f 1f 84 00 00 	nopw   %cs:0x0(%rax,%rax,1)
    cc5d:	00 00 00 
    cc60:	48 83 3d 70 73 20 00 	cmpq   $0x0,0x207370(%rip)        # 213fd8 <_DYNAMIC+0x240>
    cc67:	00 
    cc68:	74 26                	je     cc90 <_ZN6GetOpt7convertIiEENS_7_Option6ResultERKSsRT_St13_Ios_Fmtflags+0x330>
    cc6a:	ba ff ff ff ff       	mov    $0xffffffff,%edx
    cc6f:	f0 0f c1 50 f8       	lock xadd %edx,-0x8(%rax)
    cc74:	89 d0                	mov    %edx,%eax
    cc76:	85 c0                	test   %eax,%eax
    cc78:	0f 8f 4c ff ff ff    	jg     cbca <_ZN6GetOpt7convertIiEENS_7_Option6ResultERKSsRT_St13_Ios_Fmtflags+0x26a>
    cc7e:	48 8d b5 4f fe ff ff 	lea    -0x1b1(%rbp),%rsi
    cc85:	e8 56 64 ff ff       	callq  30e0 <_ZNSs4_Rep10_M_destroyERKSaIcE@plt>
    cc8a:	e9 3b ff ff ff       	jmpq   cbca <_ZN6GetOpt7convertIiEENS_7_Option6ResultERKSsRT_St13_Ios_Fmtflags+0x26a>
    cc8f:	90                   	nop
    cc90:	8b 50 f8             	mov    -0x8(%rax),%edx
    cc93:	8d 4a ff             	lea    -0x1(%rdx),%ecx
    cc96:	89 48 f8             	mov    %ecx,-0x8(%rax)
    cc99:	89 d0                	mov    %edx,%eax
    cc9b:	eb d9                	jmp    cc76 <_ZN6GetOpt7convertIiEENS_7_Option6ResultERKSsRT_St13_Ios_Fmtflags+0x316>
    cc9d:	e8 1e 65 ff ff       	callq  31c0 <__stack_chk_fail@plt>
    cca2:	49 89 c4             	mov    %rax,%r12
    cca5:	eb 17                	jmp    ccbe <_ZN6GetOpt7convertIiEENS_7_Option6ResultERKSsRT_St13_Ios_Fmtflags+0x35e>
    cca7:	49 8b 54 24 e8       	mov    -0x18(%r12),%rdx
    ccac:	48 8b 0d e5 79 20 00 	mov    0x2079e5(%rip),%rcx        # 214698 <_ZTTSt18basic_stringstreamIcSt11char_traitsIcESaIcEE@@GLIBCXX_3.4+0x18>
    ccb3:	49 89 c4             	mov    %rax,%r12
    ccb6:	48 89 8c 15 50 fe ff 	mov    %rcx,-0x1b0(%rbp,%rdx,1)
    ccbd:	ff 
    ccbe:	48 8d 05 0b 76 20 00 	lea    0x20760b(%rip),%rax        # 2142d0 <_ZTVSt9basic_iosIcSt11char_traitsIcEE@@GLIBCXX_3.4+0x10>
    ccc5:	48 8d 7b 68          	lea    0x68(%rbx),%rdi
    ccc9:	48 89 85 b8 fe ff ff 	mov    %rax,-0x148(%rbp)
    ccd0:	e8 fb 62 ff ff       	callq  2fd0 <_ZNSt8ios_baseD2Ev@plt>
    ccd5:	4c 89 e7             	mov    %r12,%rdi
    ccd8:	e8 d3 66 ff ff       	callq  33b0 <_Unwind_Resume@plt>
    ccdd:	49 89 c7             	mov    %rax,%r15
    cce0:	eb 05                	jmp    cce7 <_ZN6GetOpt7convertIiEENS_7_Option6ResultERKSsRT_St13_Ios_Fmtflags+0x387>
    cce2:	49 89 c4             	mov    %rax,%r12
    cce5:	eb 48                	jmp    cd2f <_ZN6GetOpt7convertIiEENS_7_Option6ResultERKSsRT_St13_Ios_Fmtflags+0x3cf>
    cce7:	48 8d 7b 18          	lea    0x18(%rbx),%rdi
    cceb:	e8 a0 f2 ff ff       	callq  bf90 <_ZNSt15basic_stringbufIcSt11char_traitsIcESaIcEED1Ev>
    ccf0:	49 8b 46 e8          	mov    -0x18(%r14),%rax
    ccf4:	48 8b 15 b5 79 20 00 	mov    0x2079b5(%rip),%rdx        # 2146b0 <_ZTTSt18basic_stringstreamIcSt11char_traitsIcESaIcEE@@GLIBCXX_3.4+0x30>
    ccfb:	48 89 94 05 50 fe ff 	mov    %rdx,-0x1b0(%rbp,%rax,1)
    cd02:	ff 
    cd03:	49 8b 45 e8          	mov    -0x18(%r13),%rax
    cd07:	48 8b 15 9a 79 20 00 	mov    0x20799a(%rip),%rdx        # 2146a8 <_ZTTSt18basic_stringstreamIcSt11char_traitsIcESaIcEE@@GLIBCXX_3.4+0x28>
    cd0e:	48 89 94 05 60 fe ff 	mov    %rdx,-0x1a0(%rbp,%rax,1)
    cd15:	ff 
    cd16:	49 8b 44 24 e8       	mov    -0x18(%r12),%rax
    cd1b:	4d 89 fc             	mov    %r15,%r12
    cd1e:	48 8b 15 73 79 20 00 	mov    0x207973(%rip),%rdx        # 214698 <_ZTTSt18basic_stringstreamIcSt11char_traitsIcESaIcEE@@GLIBCXX_3.4+0x18>
    cd25:	48 89 94 05 50 fe ff 	mov    %rdx,-0x1b0(%rbp,%rax,1)
    cd2c:	ff 
    cd2d:	eb 8f                	jmp    ccbe <_ZN6GetOpt7convertIiEENS_7_Option6ResultERKSsRT_St13_Ios_Fmtflags+0x35e>
    cd2f:	48 89 df             	mov    %rbx,%rdi
    cd32:	e8 b9 65 ff ff       	callq  32f0 <_ZNSt18basic_stringstreamIcSt11char_traitsIcESaIcEED1Ev@plt>
    cd37:	4c 89 e7             	mov    %r12,%rdi
    cd3a:	e8 71 66 ff ff       	callq  33b0 <_Unwind_Resume@plt>
    cd3f:	90                   	nop

000000000000cd40 <_ZNK6GetOpt8_OptionTIiE7_assignEPNS_5TokenESt13_Ios_FmtflagsRSt3mapIcNS_10OptionDataESt4lessIcESaISt4pairIKcS6_EEE>:
    cd40:	55                   	push   %rbp
    cd41:	48 89 e5             	mov    %rsp,%rbp
    cd44:	41 57                	push   %r15
    cd46:	41 56                	push   %r14
    cd48:	41 55                	push   %r13
    cd4a:	41 54                	push   %r12
    cd4c:	53                   	push   %rbx
    cd4d:	48 81 ec 28 10 00 00 	sub    $0x1028,%rsp
    cd54:	48 83 0c 24 00       	orq    $0x0,(%rsp)
    cd59:	48 81 c4 20 10 00 00 	add    $0x1020,%rsp
    cd60:	48 8b 5e 10          	mov    0x10(%rsi),%rbx
    cd64:	48 85 db             	test   %rbx,%rbx
    cd67:	74 0a                	je     cd73 <_ZNK6GetOpt8_OptionTIiE7_assignEPNS_5TokenESt13_Ios_FmtflagsRSt3mapIcNS_10OptionDataESt4lessIcESaISt4pairIKcS6_EEE+0x33>
    cd69:	8b 03                	mov    (%rbx),%eax
    cd6b:	8d 70 fc             	lea    -0x4(%rax),%esi
    cd6e:	83 fe 02             	cmp    $0x2,%esi
    cd71:	76 1d                	jbe    cd90 <_ZNK6GetOpt8_OptionTIiE7_assignEPNS_5TokenESt13_Ios_FmtflagsRSt3mapIcNS_10OptionDataESt4lessIcESaISt4pairIKcS6_EEE+0x50>
    cd73:	48 83 c4 08          	add    $0x8,%rsp
    cd77:	b8 04 00 00 00       	mov    $0x4,%eax
    cd7c:	5b                   	pop    %rbx
    cd7d:	41 5c                	pop    %r12
    cd7f:	41 5d                	pop    %r13
    cd81:	41 5e                	pop    %r14
    cd83:	41 5f                	pop    %r15
    cd85:	5d                   	pop    %rbp
    cd86:	c3                   	retq   
    cd87:	66 0f 1f 84 00 00 00 	nopw   0x0(%rax,%rax,1)
    cd8e:	00 00 
    cd90:	83 f8 05             	cmp    $0x5,%eax
    cd93:	49 89 cf             	mov    %rcx,%r15
    cd96:	41 89 d6             	mov    %edx,%r14d
    cd99:	49 89 fc             	mov    %rdi,%r12
    cd9c:	4c 8d 6b 08          	lea    0x8(%rbx),%r13
    cda0:	74 2e                	je     cdd0 <_ZNK6GetOpt8_OptionTIiE7_assignEPNS_5TokenESt13_Ios_FmtflagsRSt3mapIcNS_10OptionDataESt4lessIcESaISt4pairIKcS6_EEE+0x90>
    cda2:	c7 03 04 00 00 00    	movl   $0x4,(%rbx)
    cda8:	49 8b 74 24 18       	mov    0x18(%r12),%rsi
    cdad:	48 83 c4 08          	add    $0x8,%rsp
    cdb1:	5b                   	pop    %rbx
    cdb2:	44 89 f2             	mov    %r14d,%edx
    cdb5:	4c 89 ef             	mov    %r13,%rdi
    cdb8:	41 5c                	pop    %r12
    cdba:	41 5d                	pop    %r13
    cdbc:	41 5e                	pop    %r14
    cdbe:	41 5f                	pop    %r15
    cdc0:	5d                   	pop    %rbp
    cdc1:	e9 9a fb ff ff       	jmpq   c960 <_ZN6GetOpt7convertIiEENS_7_Option6ResultERKSsRT_St13_Ios_Fmtflags>
    cdc6:	66 2e 0f 1f 84 00 00 	nopw   %cs:0x0(%rax,%rax,1)
    cdcd:	00 00 00 
    cdd0:	48 8b 73 08          	mov    0x8(%rbx),%rsi
    cdd4:	8b 46 f8             	mov    -0x8(%rsi),%eax
    cdd7:	85 c0                	test   %eax,%eax
    cdd9:	78 0c                	js     cde7 <_ZNK6GetOpt8_OptionTIiE7_assignEPNS_5TokenESt13_Ios_FmtflagsRSt3mapIcNS_10OptionDataESt4lessIcESaISt4pairIKcS6_EEE+0xa7>
    cddb:	4c 89 ef             	mov    %r13,%rdi
    cdde:	e8 ad 61 ff ff       	callq  2f90 <_ZNSs12_M_leak_hardEv@plt>
    cde3:	48 8b 73 08          	mov    0x8(%rbx),%rsi
    cde7:	48 83 c6 01          	add    $0x1,%rsi
    cdeb:	4c 89 ff             	mov    %r15,%rdi
    cdee:	e8 5d aa ff ff       	callq  7850 <_ZNSt8_Rb_treeIcSt4pairIKcN6GetOpt10OptionDataEESt10_Select1stIS4_ESt4lessIcESaIS4_EE5eraseERS1_>
    cdf3:	eb ad                	jmp    cda2 <_ZNK6GetOpt8_OptionTIiE7_assignEPNS_5TokenESt13_Ios_FmtflagsRSt3mapIcNS_10OptionDataESt4lessIcESaISt4pairIKcS6_EEE+0x62>
    cdf5:	66 2e 0f 1f 84 00 00 	nopw   %cs:0x0(%rax,%rax,1)
    cdfc:	00 00 00 
    cdff:	90                   	nop

000000000000ce00 <_ZNK6GetOpt13_DefValOptionIiNS_8_OptionTIiEEEclERSt3mapIcNS_10OptionDataESt4lessIcESaISt4pairIKcS5_EEERS4_ISsS5_S6_ISsESaIS8_IKSsS5_EEEPNS_5TokenESt13_Ios_Fmtflags>:
    ce00:	55                   	push   %rbp
    ce01:	48 89 e5             	mov    %rsp,%rbp
    ce04:	41 56                	push   %r14
    ce06:	41 55                	push   %r13
    ce08:	41 54                	push   %r12
    ce0a:	53                   	push   %rbx
    ce0b:	48 81 ec 30 10 00 00 	sub    $0x1030,%rsp
    ce12:	48 83 0c 24 00       	orq    $0x0,(%rsp)
    ce17:	48 81 c4 20 10 00 00 	add    $0x1020,%rsp
    ce1e:	49 89 f4             	mov    %rsi,%r12
    ce21:	0f b6 77 08          	movzbl 0x8(%rdi),%esi
    ce25:	48 89 fb             	mov    %rdi,%rbx
    ce28:	40 84 f6             	test   %sil,%sil
    ce2b:	75 2b                	jne    ce58 <_ZNK6GetOpt13_DefValOptionIiNS_8_OptionTIiEEEclERSt3mapIcNS_10OptionDataESt4lessIcESaISt4pairIKcS5_EEERS4_ISsS5_S6_ISsESaIS8_IKSsS5_EEEPNS_5TokenESt13_Ios_Fmtflags+0x58>
    ce2d:	48 8b 43 10          	mov    0x10(%rbx),%rax
    ce31:	48 83 78 e8 00       	cmpq   $0x0,-0x18(%rax)
    ce36:	0f 85 1c 01 00 00    	jne    cf58 <_ZNK6GetOpt13_DefValOptionIiNS_8_OptionTIiEEEclERSt3mapIcNS_10OptionDataESt4lessIcESaISt4pairIKcS5_EEERS4_ISsS5_S6_ISsESaIS8_IKSsS5_EEEPNS_5TokenESt13_Ios_Fmtflags+0x158>
    ce3c:	48 8b 43 18          	mov    0x18(%rbx),%rax
    ce40:	8b 53 20             	mov    0x20(%rbx),%edx
    ce43:	89 10                	mov    %edx,(%rax)
    ce45:	48 83 c4 10          	add    $0x10,%rsp
    ce49:	31 c0                	xor    %eax,%eax
    ce4b:	5b                   	pop    %rbx
    ce4c:	41 5c                	pop    %r12
    ce4e:	41 5d                	pop    %r13
    ce50:	41 5e                	pop    %r14
    ce52:	5d                   	pop    %rbp
    ce53:	c3                   	retq   
    ce54:	0f 1f 40 00          	nopl   0x0(%rax)
    ce58:	49 8b 44 24 10       	mov    0x10(%r12),%rax
    ce5d:	49 8d 4c 24 08       	lea    0x8(%r12),%rcx
    ce62:	48 85 c0             	test   %rax,%rax
    ce65:	74 c6                	je     ce2d <_ZNK6GetOpt13_DefValOptionIiNS_8_OptionTIiEEEclERSt3mapIcNS_10OptionDataESt4lessIcESaISt4pairIKcS5_EEERS4_ISsS5_S6_ISsESaIS8_IKSsS5_EEEPNS_5TokenESt13_Ios_Fmtflags+0x2d>
    ce67:	48 89 cf             	mov    %rcx,%rdi
    ce6a:	eb 10                	jmp    ce7c <_ZNK6GetOpt13_DefValOptionIiNS_8_OptionTIiEEEclERSt3mapIcNS_10OptionDataESt4lessIcESaISt4pairIKcS5_EEERS4_ISsS5_S6_ISsESaIS8_IKSsS5_EEEPNS_5TokenESt13_Ios_Fmtflags+0x7c>
    ce6c:	0f 1f 40 00          	nopl   0x0(%rax)
    ce70:	48 89 c7             	mov    %rax,%rdi
    ce73:	48 8b 40 10          	mov    0x10(%rax),%rax
    ce77:	48 85 c0             	test   %rax,%rax
    ce7a:	74 0f                	je     ce8b <_ZNK6GetOpt13_DefValOptionIiNS_8_OptionTIiEEEclERSt3mapIcNS_10OptionDataESt4lessIcESaISt4pairIKcS5_EEERS4_ISsS5_S6_ISsESaIS8_IKSsS5_EEEPNS_5TokenESt13_Ios_Fmtflags+0x8b>
    ce7c:	40 3a 70 20          	cmp    0x20(%rax),%sil
    ce80:	7e ee                	jle    ce70 <_ZNK6GetOpt13_DefValOptionIiNS_8_OptionTIiEEEclERSt3mapIcNS_10OptionDataESt4lessIcESaISt4pairIKcS5_EEERS4_ISsS5_S6_ISsESaIS8_IKSsS5_EEEPNS_5TokenESt13_Ios_Fmtflags+0x70>
    ce82:	48 8b 40 18          	mov    0x18(%rax),%rax
    ce86:	48 85 c0             	test   %rax,%rax
    ce89:	75 f1                	jne    ce7c <_ZNK6GetOpt13_DefValOptionIiNS_8_OptionTIiEEEclERSt3mapIcNS_10OptionDataESt4lessIcESaISt4pairIKcS5_EEERS4_ISsS5_S6_ISsESaIS8_IKSsS5_EEEPNS_5TokenESt13_Ios_Fmtflags+0x7c>
    ce8b:	48 39 f9             	cmp    %rdi,%rcx
    ce8e:	74 9d                	je     ce2d <_ZNK6GetOpt13_DefValOptionIiNS_8_OptionTIiEEEclERSt3mapIcNS_10OptionDataESt4lessIcESaISt4pairIKcS5_EEERS4_ISsS5_S6_ISsESaIS8_IKSsS5_EEEPNS_5TokenESt13_Ios_Fmtflags+0x2d>
    ce90:	40 3a 77 20          	cmp    0x20(%rdi),%sil
    ce94:	7c 97                	jl     ce2d <_ZNK6GetOpt13_DefValOptionIiNS_8_OptionTIiEEEclERSt3mapIcNS_10OptionDataESt4lessIcESaISt4pairIKcS5_EEERS4_ISsS5_S6_ISsESaIS8_IKSsS5_EEEPNS_5TokenESt13_Ios_Fmtflags+0x2d>
    ce96:	48 8b 03             	mov    (%rbx),%rax
    ce99:	48 8d 15 a0 fe ff ff 	lea    -0x160(%rip),%rdx        # cd40 <_ZNK6GetOpt8_OptionTIiE7_assignEPNS_5TokenESt13_Ios_FmtflagsRSt3mapIcNS_10OptionDataESt4lessIcESaISt4pairIKcS6_EEE>
    cea0:	c7 47 28 01 00 00 00 	movl   $0x1,0x28(%rdi)
    cea7:	48 8b 77 30          	mov    0x30(%rdi),%rsi
    ceab:	48 8b 40 18          	mov    0x18(%rax),%rax
    ceaf:	48 39 d0             	cmp    %rdx,%rax
    ceb2:	0f 85 50 01 00 00    	jne    d008 <_ZNK6GetOpt13_DefValOptionIiNS_8_OptionTIiEEEclERSt3mapIcNS_10OptionDataESt4lessIcESaISt4pairIKcS5_EEERS4_ISsS5_S6_ISsESaIS8_IKSsS5_EEEPNS_5TokenESt13_Ios_Fmtflags+0x208>
    ceb8:	4c 8b 6e 10          	mov    0x10(%rsi),%r13
    cebc:	4d 85 ed             	test   %r13,%r13
    cebf:	74 0c                	je     cecd <_ZNK6GetOpt13_DefValOptionIiNS_8_OptionTIiEEEclERSt3mapIcNS_10OptionDataESt4lessIcESaISt4pairIKcS5_EEERS4_ISsS5_S6_ISsESaIS8_IKSsS5_EEEPNS_5TokenESt13_Ios_Fmtflags+0xcd>
    cec1:	41 8b 45 00          	mov    0x0(%r13),%eax
    cec5:	8d 50 fc             	lea    -0x4(%rax),%edx
    cec8:	83 fa 02             	cmp    $0x2,%edx
    cecb:	76 13                	jbe    cee0 <_ZNK6GetOpt13_DefValOptionIiNS_8_OptionTIiEEEclERSt3mapIcNS_10OptionDataESt4lessIcESaISt4pairIKcS5_EEERS4_ISsS5_S6_ISsESaIS8_IKSsS5_EEEPNS_5TokenESt13_Ios_Fmtflags+0xe0>
    cecd:	48 83 c4 10          	add    $0x10,%rsp
    ced1:	b8 04 00 00 00       	mov    $0x4,%eax
    ced6:	5b                   	pop    %rbx
    ced7:	41 5c                	pop    %r12
    ced9:	41 5d                	pop    %r13
    cedb:	41 5e                	pop    %r14
    cedd:	5d                   	pop    %rbp
    cede:	c3                   	retq   
    cedf:	90                   	nop
    cee0:	83 f8 05             	cmp    $0x5,%eax
    cee3:	4d 8d 75 08          	lea    0x8(%r13),%r14
    cee7:	74 37                	je     cf20 <_ZNK6GetOpt13_DefValOptionIiNS_8_OptionTIiEEEclERSt3mapIcNS_10OptionDataESt4lessIcESaISt4pairIKcS5_EEERS4_ISsS5_S6_ISsESaIS8_IKSsS5_EEEPNS_5TokenESt13_Ios_Fmtflags+0x120>
    cee9:	48 8b 73 18          	mov    0x18(%rbx),%rsi
    ceed:	41 c7 45 00 04 00 00 	movl   $0x4,0x0(%r13)
    cef4:	00 
    cef5:	44 89 c2             	mov    %r8d,%edx
    cef8:	4c 89 f7             	mov    %r14,%rdi
    cefb:	e8 60 fa ff ff       	callq  c960 <_ZN6GetOpt7convertIiEENS_7_Option6ResultERKSsRT_St13_Ios_Fmtflags>
    cf00:	83 f8 02             	cmp    $0x2,%eax
    cf03:	0f 84 33 ff ff ff    	je     ce3c <_ZNK6GetOpt13_DefValOptionIiNS_8_OptionTIiEEEclERSt3mapIcNS_10OptionDataESt4lessIcESaISt4pairIKcS5_EEERS4_ISsS5_S6_ISsESaIS8_IKSsS5_EEEPNS_5TokenESt13_Ios_Fmtflags+0x3c>
    cf09:	48 83 c4 10          	add    $0x10,%rsp
    cf0d:	5b                   	pop    %rbx
    cf0e:	41 5c                	pop    %r12
    cf10:	41 5d                	pop    %r13
    cf12:	41 5e                	pop    %r14
    cf14:	5d                   	pop    %rbp
    cf15:	c3                   	retq   
    cf16:	66 2e 0f 1f 84 00 00 	nopw   %cs:0x0(%rax,%rax,1)
    cf1d:	00 00 00 
    cf20:	49 8b 75 08          	mov    0x8(%r13),%rsi
    cf24:	8b 4e f8             	mov    -0x8(%rsi),%ecx
    cf27:	85 c9                	test   %ecx,%ecx
    cf29:	78 14                	js     cf3f <_ZNK6GetOpt13_DefValOptionIiNS_8_OptionTIiEEEclERSt3mapIcNS_10OptionDataESt4lessIcESaISt4pairIKcS5_EEERS4_ISsS5_S6_ISsESaIS8_IKSsS5_EEEPNS_5TokenESt13_Ios_Fmtflags+0x13f>
    cf2b:	4c 89 f7             	mov    %r14,%rdi
    cf2e:	44 89 45 d8          	mov    %r8d,-0x28(%rbp)
    cf32:	e8 59 60 ff ff       	callq  2f90 <_ZNSs12_M_leak_hardEv@plt>
    cf37:	49 8b 75 08          	mov    0x8(%r13),%rsi
    cf3b:	44 8b 45 d8          	mov    -0x28(%rbp),%r8d
    cf3f:	48 83 c6 01          	add    $0x1,%rsi
    cf43:	4c 89 e7             	mov    %r12,%rdi
    cf46:	44 89 45 d8          	mov    %r8d,-0x28(%rbp)
    cf4a:	e8 01 a9 ff ff       	callq  7850 <_ZNSt8_Rb_treeIcSt4pairIKcN6GetOpt10OptionDataEESt10_Select1stIS4_ESt4lessIcESaIS4_EE5eraseERS1_>
    cf4f:	44 8b 45 d8          	mov    -0x28(%rbp),%r8d
    cf53:	eb 94                	jmp    cee9 <_ZNK6GetOpt13_DefValOptionIiNS_8_OptionTIiEEEclERSt3mapIcNS_10OptionDataESt4lessIcESaISt4pairIKcS5_EEERS4_ISsS5_S6_ISsESaIS8_IKSsS5_EEEPNS_5TokenESt13_Ios_Fmtflags+0xe9>
    cf55:	0f 1f 00             	nopl   (%rax)
    cf58:	48 8d 73 10          	lea    0x10(%rbx),%rsi
    cf5c:	48 89 d7             	mov    %rdx,%rdi
    cf5f:	48 89 55 d8          	mov    %rdx,-0x28(%rbp)
    cf63:	44 89 45 d4          	mov    %r8d,-0x2c(%rbp)
    cf67:	e8 04 a6 ff ff       	callq  7570 <_ZNSt8_Rb_treeISsSt4pairIKSsN6GetOpt10OptionDataEESt10_Select1stIS4_ESt4lessISsESaIS4_EE4findERS1_>
    cf6c:	48 8b 55 d8          	mov    -0x28(%rbp),%rdx
    cf70:	48 83 c2 08          	add    $0x8,%rdx
    cf74:	48 39 d0             	cmp    %rdx,%rax
    cf77:	0f 84 bf fe ff ff    	je     ce3c <_ZNK6GetOpt13_DefValOptionIiNS_8_OptionTIiEEEclERSt3mapIcNS_10OptionDataESt4lessIcESaISt4pairIKcS5_EEERS4_ISsS5_S6_ISsESaIS8_IKSsS5_EEEPNS_5TokenESt13_Ios_Fmtflags+0x3c>
    cf7d:	48 8b 13             	mov    (%rbx),%rdx
    cf80:	c7 40 28 01 00 00 00 	movl   $0x1,0x28(%rax)
    cf87:	48 8b 70 30          	mov    0x30(%rax),%rsi
    cf8b:	48 8d 05 ae fd ff ff 	lea    -0x252(%rip),%rax        # cd40 <_ZNK6GetOpt8_OptionTIiE7_assignEPNS_5TokenESt13_Ios_FmtflagsRSt3mapIcNS_10OptionDataESt4lessIcESaISt4pairIKcS6_EEE>
    cf92:	44 8b 45 d4          	mov    -0x2c(%rbp),%r8d
    cf96:	4c 8b 4a 18          	mov    0x18(%rdx),%r9
    cf9a:	49 39 c1             	cmp    %rax,%r9
    cf9d:	75 79                	jne    d018 <_ZNK6GetOpt13_DefValOptionIiNS_8_OptionTIiEEEclERSt3mapIcNS_10OptionDataESt4lessIcESaISt4pairIKcS5_EEERS4_ISsS5_S6_ISsESaIS8_IKSsS5_EEEPNS_5TokenESt13_Ios_Fmtflags+0x218>
    cf9f:	4c 8b 6e 10          	mov    0x10(%rsi),%r13
    cfa3:	4d 85 ed             	test   %r13,%r13
    cfa6:	0f 84 21 ff ff ff    	je     cecd <_ZNK6GetOpt13_DefValOptionIiNS_8_OptionTIiEEEclERSt3mapIcNS_10OptionDataESt4lessIcESaISt4pairIKcS5_EEERS4_ISsS5_S6_ISsESaIS8_IKSsS5_EEEPNS_5TokenESt13_Ios_Fmtflags+0xcd>
    cfac:	41 8b 45 00          	mov    0x0(%r13),%eax
    cfb0:	8d 50 fc             	lea    -0x4(%rax),%edx
    cfb3:	83 fa 02             	cmp    $0x2,%edx
    cfb6:	0f 87 11 ff ff ff    	ja     cecd <_ZNK6GetOpt13_DefValOptionIiNS_8_OptionTIiEEEclERSt3mapIcNS_10OptionDataESt4lessIcESaISt4pairIKcS5_EEERS4_ISsS5_S6_ISsESaIS8_IKSsS5_EEEPNS_5TokenESt13_Ios_Fmtflags+0xcd>
    cfbc:	83 f8 05             	cmp    $0x5,%eax
    cfbf:	4d 8d 75 08          	lea    0x8(%r13),%r14
    cfc3:	0f 85 20 ff ff ff    	jne    cee9 <_ZNK6GetOpt13_DefValOptionIiNS_8_OptionTIiEEEclERSt3mapIcNS_10OptionDataESt4lessIcESaISt4pairIKcS5_EEERS4_ISsS5_S6_ISsESaIS8_IKSsS5_EEEPNS_5TokenESt13_Ios_Fmtflags+0xe9>
    cfc9:	49 8b 45 08          	mov    0x8(%r13),%rax
    cfcd:	8b 50 f8             	mov    -0x8(%rax),%edx
    cfd0:	85 d2                	test   %edx,%edx
    cfd2:	78 14                	js     cfe8 <_ZNK6GetOpt13_DefValOptionIiNS_8_OptionTIiEEEclERSt3mapIcNS_10OptionDataESt4lessIcESaISt4pairIKcS5_EEERS4_ISsS5_S6_ISsESaIS8_IKSsS5_EEEPNS_5TokenESt13_Ios_Fmtflags+0x1e8>
    cfd4:	4c 89 f7             	mov    %r14,%rdi
    cfd7:	44 89 45 d8          	mov    %r8d,-0x28(%rbp)
    cfdb:	e8 b0 5f ff ff       	callq  2f90 <_ZNSs12_M_leak_hardEv@plt>
    cfe0:	49 8b 45 08          	mov    0x8(%r13),%rax
    cfe4:	44 8b 45 d8          	mov    -0x28(%rbp),%r8d
    cfe8:	48 8d 70 01          	lea    0x1(%rax),%rsi
    cfec:	4c 89 e7             	mov    %r12,%rdi
    cfef:	44 89 45 d8          	mov    %r8d,-0x28(%rbp)
    cff3:	e8 58 a8 ff ff       	callq  7850 <_ZNSt8_Rb_treeIcSt4pairIKcN6GetOpt10OptionDataEESt10_Select1stIS4_ESt4lessIcESaIS4_EE5eraseERS1_>
    cff8:	44 8b 45 d8          	mov    -0x28(%rbp),%r8d
    cffc:	e9 e8 fe ff ff       	jmpq   cee9 <_ZNK6GetOpt13_DefValOptionIiNS_8_OptionTIiEEEclERSt3mapIcNS_10OptionDataESt4lessIcESaISt4pairIKcS5_EEERS4_ISsS5_S6_ISsESaIS8_IKSsS5_EEEPNS_5TokenESt13_Ios_Fmtflags+0xe9>
    d001:	0f 1f 80 00 00 00 00 	nopl   0x0(%rax)
    d008:	4c 89 e1             	mov    %r12,%rcx
    d00b:	44 89 c2             	mov    %r8d,%edx
    d00e:	48 89 df             	mov    %rbx,%rdi
    d011:	ff d0                	callq  *%rax
    d013:	e9 e8 fe ff ff       	jmpq   cf00 <_ZNK6GetOpt13_DefValOptionIiNS_8_OptionTIiEEEclERSt3mapIcNS_10OptionDataESt4lessIcESaISt4pairIKcS5_EEERS4_ISsS5_S6_ISsESaIS8_IKSsS5_EEEPNS_5TokenESt13_Ios_Fmtflags+0x100>
    d018:	4c 89 e1             	mov    %r12,%rcx
    d01b:	44 89 c2             	mov    %r8d,%edx
    d01e:	48 89 df             	mov    %rbx,%rdi
    d021:	41 ff d1             	callq  *%r9
    d024:	e9 d7 fe ff ff       	jmpq   cf00 <_ZNK6GetOpt13_DefValOptionIiNS_8_OptionTIiEEEclERSt3mapIcNS_10OptionDataESt4lessIcESaISt4pairIKcS5_EEERS4_ISsS5_S6_ISsESaIS8_IKSsS5_EEEPNS_5TokenESt13_Ios_Fmtflags+0x100>
    d029:	0f 1f 80 00 00 00 00 	nopl   0x0(%rax)

000000000000d030 <_ZNK6GetOpt12_OptionTBaseIiEclERSt3mapIcNS_10OptionDataESt4lessIcESaISt4pairIKcS3_EEERS2_ISsS3_S4_ISsESaIS6_IKSsS3_EEEPNS_5TokenESt13_Ios_Fmtflags>:
    d030:	55                   	push   %rbp
    d031:	48 89 e5             	mov    %rsp,%rbp
    d034:	41 56                	push   %r14
    d036:	41 55                	push   %r13
    d038:	41 54                	push   %r12
    d03a:	53                   	push   %rbx
    d03b:	48 81 ec 30 10 00 00 	sub    $0x1030,%rsp
    d042:	48 83 0c 24 00       	orq    $0x0,(%rsp)
    d047:	48 81 c4 20 10 00 00 	add    $0x1020,%rsp
    d04e:	49 89 f4             	mov    %rsi,%r12
    d051:	0f b6 77 08          	movzbl 0x8(%rdi),%esi
    d055:	48 89 fb             	mov    %rdi,%rbx
    d058:	40 84 f6             	test   %sil,%sil
    d05b:	75 23                	jne    d080 <_ZNK6GetOpt12_OptionTBaseIiEclERSt3mapIcNS_10OptionDataESt4lessIcESaISt4pairIKcS3_EEERS2_ISsS3_S4_ISsESaIS6_IKSsS3_EEEPNS_5TokenESt13_Ios_Fmtflags+0x50>
    d05d:	48 8b 43 10          	mov    0x10(%rbx),%rax
    d061:	48 83 78 e8 00       	cmpq   $0x0,-0x18(%rax)
    d066:	0f 85 0c 01 00 00    	jne    d178 <_ZNK6GetOpt12_OptionTBaseIiEclERSt3mapIcNS_10OptionDataESt4lessIcESaISt4pairIKcS3_EEERS2_ISsS3_S4_ISsESaIS6_IKSsS3_EEEPNS_5TokenESt13_Ios_Fmtflags+0x148>
    d06c:	48 83 c4 10          	add    $0x10,%rsp
    d070:	b8 02 00 00 00       	mov    $0x2,%eax
    d075:	5b                   	pop    %rbx
    d076:	41 5c                	pop    %r12
    d078:	41 5d                	pop    %r13
    d07a:	41 5e                	pop    %r14
    d07c:	5d                   	pop    %rbp
    d07d:	c3                   	retq   
    d07e:	66 90                	xchg   %ax,%ax
    d080:	49 8b 44 24 10       	mov    0x10(%r12),%rax
    d085:	49 8d 4c 24 08       	lea    0x8(%r12),%rcx
    d08a:	48 85 c0             	test   %rax,%rax
    d08d:	74 ce                	je     d05d <_ZNK6GetOpt12_OptionTBaseIiEclERSt3mapIcNS_10OptionDataESt4lessIcESaISt4pairIKcS3_EEERS2_ISsS3_S4_ISsESaIS6_IKSsS3_EEEPNS_5TokenESt13_Ios_Fmtflags+0x2d>
    d08f:	48 89 cf             	mov    %rcx,%rdi
    d092:	eb 10                	jmp    d0a4 <_ZNK6GetOpt12_OptionTBaseIiEclERSt3mapIcNS_10OptionDataESt4lessIcESaISt4pairIKcS3_EEERS2_ISsS3_S4_ISsESaIS6_IKSsS3_EEEPNS_5TokenESt13_Ios_Fmtflags+0x74>
    d094:	0f 1f 40 00          	nopl   0x0(%rax)
    d098:	48 89 c7             	mov    %rax,%rdi
    d09b:	48 8b 40 10          	mov    0x10(%rax),%rax
    d09f:	48 85 c0             	test   %rax,%rax
    d0a2:	74 0f                	je     d0b3 <_ZNK6GetOpt12_OptionTBaseIiEclERSt3mapIcNS_10OptionDataESt4lessIcESaISt4pairIKcS3_EEERS2_ISsS3_S4_ISsESaIS6_IKSsS3_EEEPNS_5TokenESt13_Ios_Fmtflags+0x83>
    d0a4:	40 3a 70 20          	cmp    0x20(%rax),%sil
    d0a8:	7e ee                	jle    d098 <_ZNK6GetOpt12_OptionTBaseIiEclERSt3mapIcNS_10OptionDataESt4lessIcESaISt4pairIKcS3_EEERS2_ISsS3_S4_ISsESaIS6_IKSsS3_EEEPNS_5TokenESt13_Ios_Fmtflags+0x68>
    d0aa:	48 8b 40 18          	mov    0x18(%rax),%rax
    d0ae:	48 85 c0             	test   %rax,%rax
    d0b1:	75 f1                	jne    d0a4 <_ZNK6GetOpt12_OptionTBaseIiEclERSt3mapIcNS_10OptionDataESt4lessIcESaISt4pairIKcS3_EEERS2_ISsS3_S4_ISsESaIS6_IKSsS3_EEEPNS_5TokenESt13_Ios_Fmtflags+0x74>
    d0b3:	48 39 f9             	cmp    %rdi,%rcx
    d0b6:	74 a5                	je     d05d <_ZNK6GetOpt12_OptionTBaseIiEclERSt3mapIcNS_10OptionDataESt4lessIcESaISt4pairIKcS3_EEERS2_ISsS3_S4_ISsESaIS6_IKSsS3_EEEPNS_5TokenESt13_Ios_Fmtflags+0x2d>
    d0b8:	40 3a 77 20          	cmp    0x20(%rdi),%sil
    d0bc:	7c 9f                	jl     d05d <_ZNK6GetOpt12_OptionTBaseIiEclERSt3mapIcNS_10OptionDataESt4lessIcESaISt4pairIKcS3_EEERS2_ISsS3_S4_ISsESaIS6_IKSsS3_EEEPNS_5TokenESt13_Ios_Fmtflags+0x2d>
    d0be:	48 8b 03             	mov    (%rbx),%rax
    d0c1:	48 8d 15 78 fc ff ff 	lea    -0x388(%rip),%rdx        # cd40 <_ZNK6GetOpt8_OptionTIiE7_assignEPNS_5TokenESt13_Ios_FmtflagsRSt3mapIcNS_10OptionDataESt4lessIcESaISt4pairIKcS6_EEE>
    d0c8:	c7 47 28 01 00 00 00 	movl   $0x1,0x28(%rdi)
    d0cf:	48 8b 77 30          	mov    0x30(%rdi),%rsi
    d0d3:	48 8b 40 18          	mov    0x18(%rax),%rax
    d0d7:	48 39 d0             	cmp    %rdx,%rax
    d0da:	0f 85 48 01 00 00    	jne    d228 <_ZNK6GetOpt12_OptionTBaseIiEclERSt3mapIcNS_10OptionDataESt4lessIcESaISt4pairIKcS3_EEERS2_ISsS3_S4_ISsESaIS6_IKSsS3_EEEPNS_5TokenESt13_Ios_Fmtflags+0x1f8>
    d0e0:	4c 8b 6e 10          	mov    0x10(%rsi),%r13
    d0e4:	4d 85 ed             	test   %r13,%r13
    d0e7:	74 0c                	je     d0f5 <_ZNK6GetOpt12_OptionTBaseIiEclERSt3mapIcNS_10OptionDataESt4lessIcESaISt4pairIKcS3_EEERS2_ISsS3_S4_ISsESaIS6_IKSsS3_EEEPNS_5TokenESt13_Ios_Fmtflags+0xc5>
    d0e9:	41 8b 45 00          	mov    0x0(%r13),%eax
    d0ed:	8d 50 fc             	lea    -0x4(%rax),%edx
    d0f0:	83 fa 02             	cmp    $0x2,%edx
    d0f3:	76 1b                	jbe    d110 <_ZNK6GetOpt12_OptionTBaseIiEclERSt3mapIcNS_10OptionDataESt4lessIcESaISt4pairIKcS3_EEERS2_ISsS3_S4_ISsESaIS6_IKSsS3_EEEPNS_5TokenESt13_Ios_Fmtflags+0xe0>
    d0f5:	48 83 c4 10          	add    $0x10,%rsp
    d0f9:	b8 04 00 00 00       	mov    $0x4,%eax
    d0fe:	5b                   	pop    %rbx
    d0ff:	41 5c                	pop    %r12
    d101:	41 5d                	pop    %r13
    d103:	41 5e                	pop    %r14
    d105:	5d                   	pop    %rbp
    d106:	c3                   	retq   
    d107:	66 0f 1f 84 00 00 00 	nopw   0x0(%rax,%rax,1)
    d10e:	00 00 
    d110:	83 f8 05             	cmp    $0x5,%eax
    d113:	4d 8d 75 08          	lea    0x8(%r13),%r14
    d117:	74 27                	je     d140 <_ZNK6GetOpt12_OptionTBaseIiEclERSt3mapIcNS_10OptionDataESt4lessIcESaISt4pairIKcS3_EEERS2_ISsS3_S4_ISsESaIS6_IKSsS3_EEEPNS_5TokenESt13_Ios_Fmtflags+0x110>
    d119:	41 c7 45 00 04 00 00 	movl   $0x4,0x0(%r13)
    d120:	00 
    d121:	48 8b 73 18          	mov    0x18(%rbx),%rsi
    d125:	48 83 c4 10          	add    $0x10,%rsp
    d129:	5b                   	pop    %rbx
    d12a:	4c 89 f7             	mov    %r14,%rdi
    d12d:	44 89 c2             	mov    %r8d,%edx
    d130:	41 5c                	pop    %r12
    d132:	41 5d                	pop    %r13
    d134:	41 5e                	pop    %r14
    d136:	5d                   	pop    %rbp
    d137:	e9 24 f8 ff ff       	jmpq   c960 <_ZN6GetOpt7convertIiEENS_7_Option6ResultERKSsRT_St13_Ios_Fmtflags>
    d13c:	0f 1f 40 00          	nopl   0x0(%rax)
    d140:	49 8b 75 08          	mov    0x8(%r13),%rsi
    d144:	8b 4e f8             	mov    -0x8(%rsi),%ecx
    d147:	85 c9                	test   %ecx,%ecx
    d149:	78 14                	js     d15f <_ZNK6GetOpt12_OptionTBaseIiEclERSt3mapIcNS_10OptionDataESt4lessIcESaISt4pairIKcS3_EEERS2_ISsS3_S4_ISsESaIS6_IKSsS3_EEEPNS_5TokenESt13_Ios_Fmtflags+0x12f>
    d14b:	4c 89 f7             	mov    %r14,%rdi
    d14e:	44 89 45 d8          	mov    %r8d,-0x28(%rbp)
    d152:	e8 39 5e ff ff       	callq  2f90 <_ZNSs12_M_leak_hardEv@plt>
    d157:	49 8b 75 08          	mov    0x8(%r13),%rsi
    d15b:	44 8b 45 d8          	mov    -0x28(%rbp),%r8d
    d15f:	48 83 c6 01          	add    $0x1,%rsi
    d163:	4c 89 e7             	mov    %r12,%rdi
    d166:	44 89 45 d8          	mov    %r8d,-0x28(%rbp)
    d16a:	e8 e1 a6 ff ff       	callq  7850 <_ZNSt8_Rb_treeIcSt4pairIKcN6GetOpt10OptionDataEESt10_Select1stIS4_ESt4lessIcESaIS4_EE5eraseERS1_>
    d16f:	44 8b 45 d8          	mov    -0x28(%rbp),%r8d
    d173:	eb a4                	jmp    d119 <_ZNK6GetOpt12_OptionTBaseIiEclERSt3mapIcNS_10OptionDataESt4lessIcESaISt4pairIKcS3_EEERS2_ISsS3_S4_ISsESaIS6_IKSsS3_EEEPNS_5TokenESt13_Ios_Fmtflags+0xe9>
    d175:	0f 1f 00             	nopl   (%rax)
    d178:	48 8d 73 10          	lea    0x10(%rbx),%rsi
    d17c:	48 89 d7             	mov    %rdx,%rdi
    d17f:	48 89 55 d8          	mov    %rdx,-0x28(%rbp)
    d183:	44 89 45 d4          	mov    %r8d,-0x2c(%rbp)
    d187:	e8 e4 a3 ff ff       	callq  7570 <_ZNSt8_Rb_treeISsSt4pairIKSsN6GetOpt10OptionDataEESt10_Select1stIS4_ESt4lessISsESaIS4_EE4findERS1_>
    d18c:	48 8b 55 d8          	mov    -0x28(%rbp),%rdx
    d190:	48 83 c2 08          	add    $0x8,%rdx
    d194:	48 39 d0             	cmp    %rdx,%rax
    d197:	0f 84 cf fe ff ff    	je     d06c <_ZNK6GetOpt12_OptionTBaseIiEclERSt3mapIcNS_10OptionDataESt4lessIcESaISt4pairIKcS3_EEERS2_ISsS3_S4_ISsESaIS6_IKSsS3_EEEPNS_5TokenESt13_Ios_Fmtflags+0x3c>
    d19d:	48 8b 13             	mov    (%rbx),%rdx
    d1a0:	c7 40 28 01 00 00 00 	movl   $0x1,0x28(%rax)
    d1a7:	48 8b 70 30          	mov    0x30(%rax),%rsi
    d1ab:	48 8d 05 8e fb ff ff 	lea    -0x472(%rip),%rax        # cd40 <_ZNK6GetOpt8_OptionTIiE7_assignEPNS_5TokenESt13_Ios_FmtflagsRSt3mapIcNS_10OptionDataESt4lessIcESaISt4pairIKcS6_EEE>
    d1b2:	44 8b 45 d4          	mov    -0x2c(%rbp),%r8d
    d1b6:	4c 8b 4a 18          	mov    0x18(%rdx),%r9
    d1ba:	49 39 c1             	cmp    %rax,%r9
    d1bd:	0f 85 7c 00 00 00    	jne    d23f <_ZNK6GetOpt12_OptionTBaseIiEclERSt3mapIcNS_10OptionDataESt4lessIcESaISt4pairIKcS3_EEERS2_ISsS3_S4_ISsESaIS6_IKSsS3_EEEPNS_5TokenESt13_Ios_Fmtflags+0x20f>
    d1c3:	4c 8b 6e 10          	mov    0x10(%rsi),%r13
    d1c7:	4d 85 ed             	test   %r13,%r13
    d1ca:	0f 84 25 ff ff ff    	je     d0f5 <_ZNK6GetOpt12_OptionTBaseIiEclERSt3mapIcNS_10OptionDataESt4lessIcESaISt4pairIKcS3_EEERS2_ISsS3_S4_ISsESaIS6_IKSsS3_EEEPNS_5TokenESt13_Ios_Fmtflags+0xc5>
    d1d0:	41 8b 45 00          	mov    0x0(%r13),%eax
    d1d4:	8d 50 fc             	lea    -0x4(%rax),%edx
    d1d7:	83 fa 02             	cmp    $0x2,%edx
    d1da:	0f 87 15 ff ff ff    	ja     d0f5 <_ZNK6GetOpt12_OptionTBaseIiEclERSt3mapIcNS_10OptionDataESt4lessIcESaISt4pairIKcS3_EEERS2_ISsS3_S4_ISsESaIS6_IKSsS3_EEEPNS_5TokenESt13_Ios_Fmtflags+0xc5>
    d1e0:	83 f8 05             	cmp    $0x5,%eax
    d1e3:	4d 8d 75 08          	lea    0x8(%r13),%r14
    d1e7:	0f 85 2c ff ff ff    	jne    d119 <_ZNK6GetOpt12_OptionTBaseIiEclERSt3mapIcNS_10OptionDataESt4lessIcESaISt4pairIKcS3_EEERS2_ISsS3_S4_ISsESaIS6_IKSsS3_EEEPNS_5TokenESt13_Ios_Fmtflags+0xe9>
    d1ed:	49 8b 45 08          	mov    0x8(%r13),%rax
    d1f1:	8b 50 f8             	mov    -0x8(%rax),%edx
    d1f4:	85 d2                	test   %edx,%edx
    d1f6:	78 14                	js     d20c <_ZNK6GetOpt12_OptionTBaseIiEclERSt3mapIcNS_10OptionDataESt4lessIcESaISt4pairIKcS3_EEERS2_ISsS3_S4_ISsESaIS6_IKSsS3_EEEPNS_5TokenESt13_Ios_Fmtflags+0x1dc>
    d1f8:	4c 89 f7             	mov    %r14,%rdi
    d1fb:	44 89 45 d8          	mov    %r8d,-0x28(%rbp)
    d1ff:	e8 8c 5d ff ff       	callq  2f90 <_ZNSs12_M_leak_hardEv@plt>
    d204:	49 8b 45 08          	mov    0x8(%r13),%rax
    d208:	44 8b 45 d8          	mov    -0x28(%rbp),%r8d
    d20c:	48 8d 70 01          	lea    0x1(%rax),%rsi
    d210:	4c 89 e7             	mov    %r12,%rdi
    d213:	44 89 45 d8          	mov    %r8d,-0x28(%rbp)
    d217:	e8 34 a6 ff ff       	callq  7850 <_ZNSt8_Rb_treeIcSt4pairIKcN6GetOpt10OptionDataEESt10_Select1stIS4_ESt4lessIcESaIS4_EE5eraseERS1_>
    d21c:	44 8b 45 d8          	mov    -0x28(%rbp),%r8d
    d220:	e9 f4 fe ff ff       	jmpq   d119 <_ZNK6GetOpt12_OptionTBaseIiEclERSt3mapIcNS_10OptionDataESt4lessIcESaISt4pairIKcS3_EEERS2_ISsS3_S4_ISsESaIS6_IKSsS3_EEEPNS_5TokenESt13_Ios_Fmtflags+0xe9>
    d225:	0f 1f 00             	nopl   (%rax)
    d228:	48 83 c4 10          	add    $0x10,%rsp
    d22c:	4c 89 e1             	mov    %r12,%rcx
    d22f:	48 89 df             	mov    %rbx,%rdi
    d232:	5b                   	pop    %rbx
    d233:	41 5c                	pop    %r12
    d235:	41 5d                	pop    %r13
    d237:	41 5e                	pop    %r14
    d239:	5d                   	pop    %rbp
    d23a:	44 89 c2             	mov    %r8d,%edx
    d23d:	ff e0                	jmpq   *%rax
    d23f:	48 83 c4 10          	add    $0x10,%rsp
    d243:	4c 89 e1             	mov    %r12,%rcx
    d246:	48 89 df             	mov    %rbx,%rdi
    d249:	5b                   	pop    %rbx
    d24a:	41 5c                	pop    %r12
    d24c:	41 5d                	pop    %r13
    d24e:	41 5e                	pop    %r14
    d250:	5d                   	pop    %rbp
    d251:	44 89 c2             	mov    %r8d,%edx
    d254:	41 ff e1             	jmpq   *%r9
    d257:	66 0f 1f 84 00 00 00 	nopw   0x0(%rax,%rax,1)
    d25e:	00 00 

000000000000d260 <_ZNSt15basic_stringbufIcSt11char_traitsIcESaIcEED0Ev>:
    d260:	55                   	push   %rbp
    d261:	48 89 e5             	mov    %rsp,%rbp
    d264:	53                   	push   %rbx
    d265:	48 81 ec 38 10 00 00 	sub    $0x1038,%rsp
    d26c:	48 83 0c 24 00       	orq    $0x0,(%rsp)
    d271:	48 81 c4 20 10 00 00 	add    $0x1020,%rsp
    d278:	48 8d 15 61 70 20 00 	lea    0x207061(%rip),%rdx        # 2142e0 <_ZNSs4_Rep20_S_empty_rep_storageE@@GLIBCXX_3.4>
    d27f:	64 48 8b 04 25 28 00 	mov    %fs:0x28,%rax
    d286:	00 00 
    d288:	48 89 45 e8          	mov    %rax,-0x18(%rbp)
    d28c:	31 c0                	xor    %eax,%eax
    d28e:	48 8d 05 fb 72 20 00 	lea    0x2072fb(%rip),%rax        # 214590 <_ZTVSt15basic_stringbufIcSt11char_traitsIcESaIcEE@@GLIBCXX_3.4+0x10>
    d295:	48 89 fb             	mov    %rdi,%rbx
    d298:	48 89 07             	mov    %rax,(%rdi)
    d29b:	48 8b 47 48          	mov    0x48(%rdi),%rax
    d29f:	48 8d 78 e8          	lea    -0x18(%rax),%rdi
    d2a3:	48 39 d7             	cmp    %rdx,%rdi
    d2a6:	75 38                	jne    d2e0 <_ZNSt15basic_stringbufIcSt11char_traitsIcESaIcEED0Ev+0x80>
    d2a8:	48 8d 05 e1 70 20 00 	lea    0x2070e1(%rip),%rax        # 214390 <_ZTVSt15basic_streambufIcSt11char_traitsIcEE@@GLIBCXX_3.4+0x10>
    d2af:	48 8d 7b 38          	lea    0x38(%rbx),%rdi
    d2b3:	48 89 03             	mov    %rax,(%rbx)
    d2b6:	e8 c5 5f ff ff       	callq  3280 <_ZNSt6localeD1Ev@plt>
    d2bb:	48 89 df             	mov    %rbx,%rdi
    d2be:	e8 7d 5e ff ff       	callq  3140 <_ZdlPv@plt>
    d2c3:	48 8b 45 e8          	mov    -0x18(%rbp),%rax
    d2c7:	64 48 33 04 25 28 00 	xor    %fs:0x28,%rax
    d2ce:	00 00 
    d2d0:	75 43                	jne    d315 <_ZNSt15basic_stringbufIcSt11char_traitsIcESaIcEED0Ev+0xb5>
    d2d2:	48 83 c4 18          	add    $0x18,%rsp
    d2d6:	5b                   	pop    %rbx
    d2d7:	5d                   	pop    %rbp
    d2d8:	c3                   	retq   
    d2d9:	0f 1f 80 00 00 00 00 	nopl   0x0(%rax)
    d2e0:	48 83 3d f0 6c 20 00 	cmpq   $0x0,0x206cf0(%rip)        # 213fd8 <_DYNAMIC+0x240>
    d2e7:	00 
    d2e8:	74 1e                	je     d308 <_ZNSt15basic_stringbufIcSt11char_traitsIcESaIcEED0Ev+0xa8>
    d2ea:	ba ff ff ff ff       	mov    $0xffffffff,%edx
    d2ef:	f0 0f c1 50 f8       	lock xadd %edx,-0x8(%rax)
    d2f4:	89 d0                	mov    %edx,%eax
    d2f6:	85 c0                	test   %eax,%eax
    d2f8:	7f ae                	jg     d2a8 <_ZNSt15basic_stringbufIcSt11char_traitsIcESaIcEED0Ev+0x48>
    d2fa:	48 8d 75 e7          	lea    -0x19(%rbp),%rsi
    d2fe:	e8 dd 5d ff ff       	callq  30e0 <_ZNSs4_Rep10_M_destroyERKSaIcE@plt>
    d303:	eb a3                	jmp    d2a8 <_ZNSt15basic_stringbufIcSt11char_traitsIcESaIcEED0Ev+0x48>
    d305:	0f 1f 00             	nopl   (%rax)
    d308:	8b 50 f8             	mov    -0x8(%rax),%edx
    d30b:	8d 4a ff             	lea    -0x1(%rdx),%ecx
    d30e:	89 48 f8             	mov    %ecx,-0x8(%rax)
    d311:	89 d0                	mov    %edx,%eax
    d313:	eb e1                	jmp    d2f6 <_ZNSt15basic_stringbufIcSt11char_traitsIcESaIcEED0Ev+0x96>
    d315:	e8 a6 5e ff ff       	callq  31c0 <__stack_chk_fail@plt>
    d31a:	66 0f 1f 44 00 00    	nopw   0x0(%rax,%rax,1)

000000000000d320 <_ZN6GetOpt14ParsingErrorExD1Ev>:
    d320:	55                   	push   %rbp
    d321:	48 8d 05 78 68 20 00 	lea    0x206878(%rip),%rax        # 213ba0 <_ZTVN6GetOpt8GetOptExE+0x10>
    d328:	48 89 e5             	mov    %rsp,%rbp
    d32b:	48 89 07             	mov    %rax,(%rdi)
    d32e:	5d                   	pop    %rbp
    d32f:	e9 8c 60 ff ff       	jmpq   33c0 <_ZNSt9exceptionD2Ev@plt>
    d334:	66 2e 0f 1f 84 00 00 	nopw   %cs:0x0(%rax,%rax,1)
    d33b:	00 00 00 
    d33e:	66 90                	xchg   %ax,%ax

000000000000d340 <_ZN6GetOpt14ParsingErrorExD0Ev>:
    d340:	55                   	push   %rbp
    d341:	48 89 e5             	mov    %rsp,%rbp
    d344:	53                   	push   %rbx
    d345:	48 81 ec 28 10 00 00 	sub    $0x1028,%rsp
    d34c:	48 83 0c 24 00       	orq    $0x0,(%rsp)
    d351:	48 81 c4 20 10 00 00 	add    $0x1020,%rsp
    d358:	48 8d 05 41 68 20 00 	lea    0x206841(%rip),%rax        # 213ba0 <_ZTVN6GetOpt8GetOptExE+0x10>
    d35f:	48 89 fb             	mov    %rdi,%rbx
    d362:	48 89 07             	mov    %rax,(%rdi)
    d365:	e8 56 60 ff ff       	callq  33c0 <_ZNSt9exceptionD2Ev@plt>
    d36a:	48 83 c4 08          	add    $0x8,%rsp
    d36e:	48 89 df             	mov    %rbx,%rdi
    d371:	5b                   	pop    %rbx
    d372:	5d                   	pop    %rbp
    d373:	e9 c8 5d ff ff       	jmpq   3140 <_ZdlPv@plt>
    d378:	0f 1f 84 00 00 00 00 	nopl   0x0(%rax,%rax,1)
    d37f:	00 

000000000000d380 <_ZN6GetOpt18TooManyArgumentsExD1Ev>:
    d380:	55                   	push   %rbp
    d381:	48 8d 05 18 68 20 00 	lea    0x206818(%rip),%rax        # 213ba0 <_ZTVN6GetOpt8GetOptExE+0x10>
    d388:	48 89 e5             	mov    %rsp,%rbp
    d38b:	48 89 07             	mov    %rax,(%rdi)
    d38e:	5d                   	pop    %rbp
    d38f:	e9 2c 60 ff ff       	jmpq   33c0 <_ZNSt9exceptionD2Ev@plt>
    d394:	66 2e 0f 1f 84 00 00 	nopw   %cs:0x0(%rax,%rax,1)
    d39b:	00 00 00 
    d39e:	66 90                	xchg   %ax,%ax

000000000000d3a0 <_ZN6GetOpt18TooManyArgumentsExD0Ev>:
    d3a0:	55                   	push   %rbp
    d3a1:	48 89 e5             	mov    %rsp,%rbp
    d3a4:	53                   	push   %rbx
    d3a5:	48 81 ec 28 10 00 00 	sub    $0x1028,%rsp
    d3ac:	48 83 0c 24 00       	orq    $0x0,(%rsp)
    d3b1:	48 81 c4 20 10 00 00 	add    $0x1020,%rsp
    d3b8:	48 8d 05 e1 67 20 00 	lea    0x2067e1(%rip),%rax        # 213ba0 <_ZTVN6GetOpt8GetOptExE+0x10>
    d3bf:	48 89 fb             	mov    %rdi,%rbx
    d3c2:	48 89 07             	mov    %rax,(%rdi)
    d3c5:	e8 f6 5f ff ff       	callq  33c0 <_ZNSt9exceptionD2Ev@plt>
    d3ca:	48 83 c4 08          	add    $0x8,%rsp
    d3ce:	48 89 df             	mov    %rbx,%rdi
    d3d1:	5b                   	pop    %rbx
    d3d2:	5d                   	pop    %rbp
    d3d3:	e9 68 5d ff ff       	jmpq   3140 <_ZdlPv@plt>
    d3d8:	0f 1f 84 00 00 00 00 	nopl   0x0(%rax,%rax,1)
    d3df:	00 

000000000000d3e0 <_ZN6GetOpt18ArgumentNotFoundExD1Ev>:
    d3e0:	55                   	push   %rbp
    d3e1:	48 8d 05 b8 67 20 00 	lea    0x2067b8(%rip),%rax        # 213ba0 <_ZTVN6GetOpt8GetOptExE+0x10>
    d3e8:	48 89 e5             	mov    %rsp,%rbp
    d3eb:	48 89 07             	mov    %rax,(%rdi)
    d3ee:	5d                   	pop    %rbp
    d3ef:	e9 cc 5f ff ff       	jmpq   33c0 <_ZNSt9exceptionD2Ev@plt>
    d3f4:	66 2e 0f 1f 84 00 00 	nopw   %cs:0x0(%rax,%rax,1)
    d3fb:	00 00 00 
    d3fe:	66 90                	xchg   %ax,%ax

000000000000d400 <_ZN6GetOpt18ArgumentNotFoundExD0Ev>:
    d400:	55                   	push   %rbp
    d401:	48 89 e5             	mov    %rsp,%rbp
    d404:	53                   	push   %rbx
    d405:	48 81 ec 28 10 00 00 	sub    $0x1028,%rsp
    d40c:	48 83 0c 24 00       	orq    $0x0,(%rsp)
    d411:	48 81 c4 20 10 00 00 	add    $0x1020,%rsp
    d418:	48 8d 05 81 67 20 00 	lea    0x206781(%rip),%rax        # 213ba0 <_ZTVN6GetOpt8GetOptExE+0x10>
    d41f:	48 89 fb             	mov    %rdi,%rbx
    d422:	48 89 07             	mov    %rax,(%rdi)
    d425:	e8 96 5f ff ff       	callq  33c0 <_ZNSt9exceptionD2Ev@plt>
    d42a:	48 83 c4 08          	add    $0x8,%rsp
    d42e:	48 89 df             	mov    %rbx,%rdi
    d431:	5b                   	pop    %rbx
    d432:	5d                   	pop    %rbp
    d433:	e9 08 5d ff ff       	jmpq   3140 <_ZdlPv@plt>
    d438:	0f 1f 84 00 00 00 00 	nopl   0x0(%rax,%rax,1)
    d43f:	00 

000000000000d440 <_ZN6GetOpt15InvalidFormatExD1Ev>:
    d440:	55                   	push   %rbp
    d441:	48 8d 05 58 67 20 00 	lea    0x206758(%rip),%rax        # 213ba0 <_ZTVN6GetOpt8GetOptExE+0x10>
    d448:	48 89 e5             	mov    %rsp,%rbp
    d44b:	48 89 07             	mov    %rax,(%rdi)
    d44e:	5d                   	pop    %rbp
    d44f:	e9 6c 5f ff ff       	jmpq   33c0 <_ZNSt9exceptionD2Ev@plt>
    d454:	66 2e 0f 1f 84 00 00 	nopw   %cs:0x0(%rax,%rax,1)
    d45b:	00 00 00 
    d45e:	66 90                	xchg   %ax,%ax

000000000000d460 <_ZN6GetOpt15InvalidFormatExD0Ev>:
    d460:	55                   	push   %rbp
    d461:	48 89 e5             	mov    %rsp,%rbp
    d464:	53                   	push   %rbx
    d465:	48 81 ec 28 10 00 00 	sub    $0x1028,%rsp
    d46c:	48 83 0c 24 00       	orq    $0x0,(%rsp)
    d471:	48 81 c4 20 10 00 00 	add    $0x1020,%rsp
    d478:	48 8d 05 21 67 20 00 	lea    0x206721(%rip),%rax        # 213ba0 <_ZTVN6GetOpt8GetOptExE+0x10>
    d47f:	48 89 fb             	mov    %rdi,%rbx
    d482:	48 89 07             	mov    %rax,(%rdi)
    d485:	e8 36 5f ff ff       	callq  33c0 <_ZNSt9exceptionD2Ev@plt>
    d48a:	48 83 c4 08          	add    $0x8,%rsp
    d48e:	48 89 df             	mov    %rbx,%rdi
    d491:	5b                   	pop    %rbx
    d492:	5d                   	pop    %rbp
    d493:	e9 a8 5c ff ff       	jmpq   3140 <_ZdlPv@plt>
    d498:	0f 1f 84 00 00 00 00 	nopl   0x0(%rax,%rax,1)
    d49f:	00 

000000000000d4a0 <_ZN6GetOpt16OptionNotFoundExD1Ev>:
    d4a0:	55                   	push   %rbp
    d4a1:	48 8d 05 f8 66 20 00 	lea    0x2066f8(%rip),%rax        # 213ba0 <_ZTVN6GetOpt8GetOptExE+0x10>
    d4a8:	48 89 e5             	mov    %rsp,%rbp
    d4ab:	48 89 07             	mov    %rax,(%rdi)
    d4ae:	5d                   	pop    %rbp
    d4af:	e9 0c 5f ff ff       	jmpq   33c0 <_ZNSt9exceptionD2Ev@plt>
    d4b4:	66 2e 0f 1f 84 00 00 	nopw   %cs:0x0(%rax,%rax,1)
    d4bb:	00 00 00 
    d4be:	66 90                	xchg   %ax,%ax

000000000000d4c0 <_ZN6GetOpt16OptionNotFoundExD0Ev>:
    d4c0:	55                   	push   %rbp
    d4c1:	48 89 e5             	mov    %rsp,%rbp
    d4c4:	53                   	push   %rbx
    d4c5:	48 81 ec 28 10 00 00 	sub    $0x1028,%rsp
    d4cc:	48 83 0c 24 00       	orq    $0x0,(%rsp)
    d4d1:	48 81 c4 20 10 00 00 	add    $0x1020,%rsp
    d4d8:	48 8d 05 c1 66 20 00 	lea    0x2066c1(%rip),%rax        # 213ba0 <_ZTVN6GetOpt8GetOptExE+0x10>
    d4df:	48 89 fb             	mov    %rdi,%rbx
    d4e2:	48 89 07             	mov    %rax,(%rdi)
    d4e5:	e8 d6 5e ff ff       	callq  33c0 <_ZNSt9exceptionD2Ev@plt>
    d4ea:	48 83 c4 08          	add    $0x8,%rsp
    d4ee:	48 89 df             	mov    %rbx,%rdi
    d4f1:	5b                   	pop    %rbx
    d4f2:	5d                   	pop    %rbp
    d4f3:	e9 48 5c ff ff       	jmpq   3140 <_ZdlPv@plt>
    d4f8:	0f 1f 84 00 00 00 00 	nopl   0x0(%rax,%rax,1)
    d4ff:	00 

000000000000d500 <_ZN6GetOpt21OptionsFileNotFoundExD0Ev>:
    d500:	55                   	push   %rbp
    d501:	48 89 e5             	mov    %rsp,%rbp
    d504:	53                   	push   %rbx
    d505:	48 81 ec 38 10 00 00 	sub    $0x1038,%rsp
    d50c:	48 83 0c 24 00       	orq    $0x0,(%rsp)
    d511:	48 81 c4 20 10 00 00 	add    $0x1020,%rsp
    d518:	48 8d 15 c1 6d 20 00 	lea    0x206dc1(%rip),%rdx        # 2142e0 <_ZNSs4_Rep20_S_empty_rep_storageE@@GLIBCXX_3.4>
    d51f:	64 48 8b 04 25 28 00 	mov    %fs:0x28,%rax
    d526:	00 00 
    d528:	48 89 45 e8          	mov    %rax,-0x18(%rbp)
    d52c:	31 c0                	xor    %eax,%eax
    d52e:	48 8d 05 4b 68 20 00 	lea    0x20684b(%rip),%rax        # 213d80 <_ZTVN6GetOpt21OptionsFileNotFoundExE+0x10>
    d535:	48 89 fb             	mov    %rdi,%rbx
    d538:	48 89 07             	mov    %rax,(%rdi)
    d53b:	48 8b 47 08          	mov    0x8(%rdi),%rax
    d53f:	48 8d 78 e8          	lea    -0x18(%rax),%rdi
    d543:	48 39 d7             	cmp    %rdx,%rdi
    d546:	75 38                	jne    d580 <_ZN6GetOpt21OptionsFileNotFoundExD0Ev+0x80>
    d548:	48 8d 05 51 66 20 00 	lea    0x206651(%rip),%rax        # 213ba0 <_ZTVN6GetOpt8GetOptExE+0x10>
    d54f:	48 89 df             	mov    %rbx,%rdi
    d552:	48 89 03             	mov    %rax,(%rbx)
    d555:	e8 66 5e ff ff       	callq  33c0 <_ZNSt9exceptionD2Ev@plt>
    d55a:	48 89 df             	mov    %rbx,%rdi
    d55d:	e8 de 5b ff ff       	callq  3140 <_ZdlPv@plt>
    d562:	48 8b 45 e8          	mov    -0x18(%rbp),%rax
    d566:	64 48 33 04 25 28 00 	xor    %fs:0x28,%rax
    d56d:	00 00 
    d56f:	75 44                	jne    d5b5 <_ZN6GetOpt21OptionsFileNotFoundExD0Ev+0xb5>
    d571:	48 83 c4 18          	add    $0x18,%rsp
    d575:	5b                   	pop    %rbx
    d576:	5d                   	pop    %rbp
    d577:	c3                   	retq   
    d578:	0f 1f 84 00 00 00 00 	nopl   0x0(%rax,%rax,1)
    d57f:	00 
    d580:	48 83 3d 50 6a 20 00 	cmpq   $0x0,0x206a50(%rip)        # 213fd8 <_DYNAMIC+0x240>
    d587:	00 
    d588:	74 1e                	je     d5a8 <_ZN6GetOpt21OptionsFileNotFoundExD0Ev+0xa8>
    d58a:	ba ff ff ff ff       	mov    $0xffffffff,%edx
    d58f:	f0 0f c1 50 f8       	lock xadd %edx,-0x8(%rax)
    d594:	89 d0                	mov    %edx,%eax
    d596:	85 c0                	test   %eax,%eax
    d598:	7f ae                	jg     d548 <_ZN6GetOpt21OptionsFileNotFoundExD0Ev+0x48>
    d59a:	48 8d 75 e7          	lea    -0x19(%rbp),%rsi
    d59e:	e8 3d 5b ff ff       	callq  30e0 <_ZNSs4_Rep10_M_destroyERKSaIcE@plt>
    d5a3:	eb a3                	jmp    d548 <_ZN6GetOpt21OptionsFileNotFoundExD0Ev+0x48>
    d5a5:	0f 1f 00             	nopl   (%rax)
    d5a8:	8b 50 f8             	mov    -0x8(%rax),%edx
    d5ab:	8d 4a ff             	lea    -0x1(%rdx),%ecx
    d5ae:	89 48 f8             	mov    %ecx,-0x8(%rax)
    d5b1:	89 d0                	mov    %edx,%eax
    d5b3:	eb e1                	jmp    d596 <_ZN6GetOpt21OptionsFileNotFoundExD0Ev+0x96>
    d5b5:	e8 06 5c ff ff       	callq  31c0 <__stack_chk_fail@plt>
    d5ba:	66 0f 1f 44 00 00    	nopw   0x0(%rax,%rax,1)

000000000000d5c0 <_ZN6GetOpt21OptionsFileNotFoundExD1Ev>:
    d5c0:	55                   	push   %rbp
    d5c1:	48 89 e5             	mov    %rsp,%rbp
    d5c4:	53                   	push   %rbx
    d5c5:	48 81 ec 38 10 00 00 	sub    $0x1038,%rsp
    d5cc:	48 83 0c 24 00       	orq    $0x0,(%rsp)
    d5d1:	48 81 c4 20 10 00 00 	add    $0x1020,%rsp
    d5d8:	48 8d 15 01 6d 20 00 	lea    0x206d01(%rip),%rdx        # 2142e0 <_ZNSs4_Rep20_S_empty_rep_storageE@@GLIBCXX_3.4>
    d5df:	64 48 8b 04 25 28 00 	mov    %fs:0x28,%rax
    d5e6:	00 00 
    d5e8:	48 89 45 e8          	mov    %rax,-0x18(%rbp)
    d5ec:	31 c0                	xor    %eax,%eax
    d5ee:	48 8d 05 8b 67 20 00 	lea    0x20678b(%rip),%rax        # 213d80 <_ZTVN6GetOpt21OptionsFileNotFoundExE+0x10>
    d5f5:	48 89 fb             	mov    %rdi,%rbx
    d5f8:	48 89 07             	mov    %rax,(%rdi)
    d5fb:	48 8b 47 08          	mov    0x8(%rdi),%rax
    d5ff:	48 8d 78 e8          	lea    -0x18(%rax),%rdi
    d603:	48 39 d7             	cmp    %rdx,%rdi
    d606:	75 28                	jne    d630 <_ZN6GetOpt21OptionsFileNotFoundExD1Ev+0x70>
    d608:	48 8d 05 91 65 20 00 	lea    0x206591(%rip),%rax        # 213ba0 <_ZTVN6GetOpt8GetOptExE+0x10>
    d60f:	48 89 df             	mov    %rbx,%rdi
    d612:	48 89 03             	mov    %rax,(%rbx)
    d615:	e8 a6 5d ff ff       	callq  33c0 <_ZNSt9exceptionD2Ev@plt>
    d61a:	48 8b 45 e8          	mov    -0x18(%rbp),%rax
    d61e:	64 48 33 04 25 28 00 	xor    %fs:0x28,%rax
    d625:	00 00 
    d627:	75 3c                	jne    d665 <_ZN6GetOpt21OptionsFileNotFoundExD1Ev+0xa5>
    d629:	48 83 c4 18          	add    $0x18,%rsp
    d62d:	5b                   	pop    %rbx
    d62e:	5d                   	pop    %rbp
    d62f:	c3                   	retq   
    d630:	48 83 3d a0 69 20 00 	cmpq   $0x0,0x2069a0(%rip)        # 213fd8 <_DYNAMIC+0x240>
    d637:	00 
    d638:	74 1e                	je     d658 <_ZN6GetOpt21OptionsFileNotFoundExD1Ev+0x98>
    d63a:	ba ff ff ff ff       	mov    $0xffffffff,%edx
    d63f:	f0 0f c1 50 f8       	lock xadd %edx,-0x8(%rax)
    d644:	89 d0                	mov    %edx,%eax
    d646:	85 c0                	test   %eax,%eax
    d648:	7f be                	jg     d608 <_ZN6GetOpt21OptionsFileNotFoundExD1Ev+0x48>
    d64a:	48 8d 75 e7          	lea    -0x19(%rbp),%rsi
    d64e:	e8 8d 5a ff ff       	callq  30e0 <_ZNSs4_Rep10_M_destroyERKSaIcE@plt>
    d653:	eb b3                	jmp    d608 <_ZN6GetOpt21OptionsFileNotFoundExD1Ev+0x48>
    d655:	0f 1f 00             	nopl   (%rax)
    d658:	8b 50 f8             	mov    -0x8(%rax),%edx
    d65b:	8d 4a ff             	lea    -0x1(%rdx),%ecx
    d65e:	89 48 f8             	mov    %ecx,-0x8(%rax)
    d661:	89 d0                	mov    %edx,%eax
    d663:	eb e1                	jmp    d646 <_ZN6GetOpt21OptionsFileNotFoundExD1Ev+0x86>
    d665:	e8 56 5b ff ff       	callq  31c0 <__stack_chk_fail@plt>
    d66a:	66 0f 1f 44 00 00    	nopw   0x0(%rax,%rax,1)

000000000000d670 <_ZN6GetOpt9GetOpt_pp13TokensDeleterD1Ev>:
    d670:	55                   	push   %rbp
    d671:	48 89 e5             	mov    %rsp,%rbp
    d674:	41 56                	push   %r14
    d676:	41 55                	push   %r13
    d678:	41 54                	push   %r12
    d67a:	53                   	push   %rbx
    d67b:	48 81 ec 30 10 00 00 	sub    $0x1030,%rsp
    d682:	48 83 0c 24 00       	orq    $0x0,(%rsp)
    d687:	48 81 c4 20 10 00 00 	add    $0x1020,%rsp
    d68e:	64 48 8b 04 25 28 00 	mov    %fs:0x28,%rax
    d695:	00 00 
    d697:	48 89 45 d8          	mov    %rax,-0x28(%rbp)
    d69b:	31 c0                	xor    %eax,%eax
    d69d:	48 8b 07             	mov    (%rdi),%rax
    d6a0:	48 8b 18             	mov    (%rax),%rbx
    d6a3:	48 85 db             	test   %rbx,%rbx
    d6a6:	74 68                	je     d710 <_ZN6GetOpt9GetOpt_pp13TokensDeleterD1Ev+0xa0>
    d6a8:	48 83 3d 28 69 20 00 	cmpq   $0x0,0x206928(%rip)        # 213fd8 <_DYNAMIC+0x240>
    d6af:	00 
    d6b0:	4c 8d 2d 29 6c 20 00 	lea    0x206c29(%rip),%r13        # 2142e0 <_ZNSs4_Rep20_S_empty_rep_storageE@@GLIBCXX_3.4>
    d6b7:	4c 8d 75 d7          	lea    -0x29(%rbp),%r14
    d6bb:	75 1b                	jne    d6d8 <_ZN6GetOpt9GetOpt_pp13TokensDeleterD1Ev+0x68>
    d6bd:	e9 96 00 00 00       	jmpq   d758 <_ZN6GetOpt9GetOpt_pp13TokensDeleterD1Ev+0xe8>
    d6c2:	66 0f 1f 44 00 00    	nopw   0x0(%rax,%rax,1)
    d6c8:	48 89 df             	mov    %rbx,%rdi
    d6cb:	4c 89 e3             	mov    %r12,%rbx
    d6ce:	e8 6d 5a ff ff       	callq  3140 <_ZdlPv@plt>
    d6d3:	4d 85 e4             	test   %r12,%r12
    d6d6:	74 38                	je     d710 <_ZN6GetOpt9GetOpt_pp13TokensDeleterD1Ev+0xa0>
    d6d8:	48 8b 43 08          	mov    0x8(%rbx),%rax
    d6dc:	4c 8b 63 10          	mov    0x10(%rbx),%r12
    d6e0:	48 8d 78 e8          	lea    -0x18(%rax),%rdi
    d6e4:	4c 39 ef             	cmp    %r13,%rdi
    d6e7:	74 df                	je     d6c8 <_ZN6GetOpt9GetOpt_pp13TokensDeleterD1Ev+0x58>
    d6e9:	ba ff ff ff ff       	mov    $0xffffffff,%edx
    d6ee:	f0 0f c1 50 f8       	lock xadd %edx,-0x8(%rax)
    d6f3:	85 d2                	test   %edx,%edx
    d6f5:	7f d1                	jg     d6c8 <_ZN6GetOpt9GetOpt_pp13TokensDeleterD1Ev+0x58>
    d6f7:	4c 89 f6             	mov    %r14,%rsi
    d6fa:	e8 e1 59 ff ff       	callq  30e0 <_ZNSs4_Rep10_M_destroyERKSaIcE@plt>
    d6ff:	48 89 df             	mov    %rbx,%rdi
    d702:	4c 89 e3             	mov    %r12,%rbx
    d705:	e8 36 5a ff ff       	callq  3140 <_ZdlPv@plt>
    d70a:	4d 85 e4             	test   %r12,%r12
    d70d:	75 c9                	jne    d6d8 <_ZN6GetOpt9GetOpt_pp13TokensDeleterD1Ev+0x68>
    d70f:	90                   	nop
    d710:	48 8b 45 d8          	mov    -0x28(%rbp),%rax
    d714:	64 48 33 04 25 28 00 	xor    %fs:0x28,%rax
    d71b:	00 00 
    d71d:	75 4c                	jne    d76b <_ZN6GetOpt9GetOpt_pp13TokensDeleterD1Ev+0xfb>
    d71f:	48 83 c4 10          	add    $0x10,%rsp
    d723:	5b                   	pop    %rbx
    d724:	41 5c                	pop    %r12
    d726:	41 5d                	pop    %r13
    d728:	41 5e                	pop    %r14
    d72a:	5d                   	pop    %rbp
    d72b:	c3                   	retq   
    d72c:	0f 1f 40 00          	nopl   0x0(%rax)
    d730:	8b 50 f8             	mov    -0x8(%rax),%edx
    d733:	8d 4a ff             	lea    -0x1(%rdx),%ecx
    d736:	85 d2                	test   %edx,%edx
    d738:	89 48 f8             	mov    %ecx,-0x8(%rax)
    d73b:	7f 0b                	jg     d748 <_ZN6GetOpt9GetOpt_pp13TokensDeleterD1Ev+0xd8>
    d73d:	4c 89 f6             	mov    %r14,%rsi
    d740:	e8 9b 59 ff ff       	callq  30e0 <_ZNSs4_Rep10_M_destroyERKSaIcE@plt>
    d745:	0f 1f 00             	nopl   (%rax)
    d748:	48 89 df             	mov    %rbx,%rdi
    d74b:	4c 89 e3             	mov    %r12,%rbx
    d74e:	e8 ed 59 ff ff       	callq  3140 <_ZdlPv@plt>
    d753:	4d 85 e4             	test   %r12,%r12
    d756:	74 b8                	je     d710 <_ZN6GetOpt9GetOpt_pp13TokensDeleterD1Ev+0xa0>
    d758:	48 8b 43 08          	mov    0x8(%rbx),%rax
    d75c:	4c 8b 63 10          	mov    0x10(%rbx),%r12
    d760:	48 8d 78 e8          	lea    -0x18(%rax),%rdi
    d764:	4c 39 ef             	cmp    %r13,%rdi
    d767:	74 df                	je     d748 <_ZN6GetOpt9GetOpt_pp13TokensDeleterD1Ev+0xd8>
    d769:	eb c5                	jmp    d730 <_ZN6GetOpt9GetOpt_pp13TokensDeleterD1Ev+0xc0>
    d76b:	e8 50 5a ff ff       	callq  31c0 <__stack_chk_fail@plt>

000000000000d770 <_ZN6GetOpt9GetOpt_pprsERKNS_7_OptionE>:
    d770:	55                   	push   %rbp
    d771:	48 89 e5             	mov    %rsp,%rbp
    d774:	53                   	push   %rbx
    d775:	48 81 ec 28 10 00 00 	sub    $0x1028,%rsp
    d77c:	48 83 0c 24 00       	orq    $0x0,(%rsp)
    d781:	48 81 c4 20 10 00 00 	add    $0x1020,%rsp
    d788:	83 7f 64 01          	cmpl   $0x1,0x64(%rdi)
    d78c:	48 89 fb             	mov    %rdi,%rbx
    d78f:	74 67                	je     d7f8 <_ZN6GetOpt9GetOpt_pprsERKNS_7_OptionE+0x88>
    d791:	48 8b 06             	mov    (%rsi),%rax
    d794:	48 89 f7             	mov    %rsi,%rdi
    d797:	48 8b 4b 78          	mov    0x78(%rbx),%rcx
    d79b:	48 8d 53 30          	lea    0x30(%rbx),%rdx
    d79f:	44 8b 43 68          	mov    0x68(%rbx),%r8d
    d7a3:	48 89 de             	mov    %rbx,%rsi
    d7a6:	ff 10                	callq  *(%rax)
    d7a8:	83 f8 03             	cmp    $0x3,%eax
    d7ab:	89 43 64             	mov    %eax,0x64(%rbx)
    d7ae:	74 60                	je     d810 <_ZN6GetOpt9GetOpt_pprsERKNS_7_OptionE+0xa0>
    d7b0:	0f 86 ba 00 00 00    	jbe    d870 <_ZN6GetOpt9GetOpt_pprsERKNS_7_OptionE+0x100>
    d7b6:	83 f8 04             	cmp    $0x4,%eax
    d7b9:	0f 84 81 00 00 00    	je     d840 <_ZN6GetOpt9GetOpt_pprsERKNS_7_OptionE+0xd0>
    d7bf:	83 f8 05             	cmp    $0x5,%eax
    d7c2:	75 3e                	jne    d802 <_ZN6GetOpt9GetOpt_pprsERKNS_7_OptionE+0x92>
    d7c4:	f6 43 60 04          	testb  $0x4,0x60(%rbx)
    d7c8:	74 38                	je     d802 <_ZN6GetOpt9GetOpt_pprsERKNS_7_OptionE+0x92>
    d7ca:	bf 08 00 00 00       	mov    $0x8,%edi
    d7cf:	e8 6c 58 ff ff       	callq  3040 <__cxa_allocate_exception@plt>
    d7d4:	48 8d 35 55 65 20 00 	lea    0x206555(%rip),%rsi        # 213d30 <_ZTVN6GetOpt18TooManyArgumentsExE+0x10>
    d7db:	48 8d 15 9e fb ff ff 	lea    -0x462(%rip),%rdx        # d380 <_ZN6GetOpt18TooManyArgumentsExD1Ev>
    d7e2:	48 89 c7             	mov    %rax,%rdi
    d7e5:	48 89 30             	mov    %rsi,(%rax)
    d7e8:	48 8d 35 71 64 20 00 	lea    0x206471(%rip),%rsi        # 213c60 <_ZTIN6GetOpt18TooManyArgumentsExE>
    d7ef:	e8 9c 5b ff ff       	callq  3390 <__cxa_throw@plt>
    d7f4:	0f 1f 40 00          	nopl   0x0(%rax)
    d7f8:	f6 47 60 04          	testb  $0x4,0x60(%rdi)
    d7fc:	0f 85 a7 00 00 00    	jne    d8a9 <_ZN6GetOpt9GetOpt_pprsERKNS_7_OptionE+0x139>
    d802:	48 83 c4 08          	add    $0x8,%rsp
    d806:	48 89 d8             	mov    %rbx,%rax
    d809:	5b                   	pop    %rbx
    d80a:	5d                   	pop    %rbp
    d80b:	c3                   	retq   
    d80c:	0f 1f 40 00          	nopl   0x0(%rax)
    d810:	f6 43 60 04          	testb  $0x4,0x60(%rbx)
    d814:	74 ec                	je     d802 <_ZN6GetOpt9GetOpt_pprsERKNS_7_OptionE+0x92>
    d816:	bf 08 00 00 00       	mov    $0x8,%edi
    d81b:	e8 20 58 ff ff       	callq  3040 <__cxa_allocate_exception@plt>
    d820:	48 8d 35 b9 64 20 00 	lea    0x2064b9(%rip),%rsi        # 213ce0 <_ZTVN6GetOpt15InvalidFormatExE+0x10>
    d827:	48 8d 15 12 fc ff ff 	lea    -0x3ee(%rip),%rdx        # d440 <_ZN6GetOpt15InvalidFormatExD1Ev>
    d82e:	48 89 c7             	mov    %rax,%rdi
    d831:	48 89 30             	mov    %rsi,(%rax)
    d834:	48 8d 35 f5 63 20 00 	lea    0x2063f5(%rip),%rsi        # 213c30 <_ZTIN6GetOpt15InvalidFormatExE>
    d83b:	e8 50 5b ff ff       	callq  3390 <__cxa_throw@plt>
    d840:	f6 43 60 02          	testb  $0x2,0x60(%rbx)
    d844:	74 bc                	je     d802 <_ZN6GetOpt9GetOpt_pprsERKNS_7_OptionE+0x92>
    d846:	bf 08 00 00 00       	mov    $0x8,%edi
    d84b:	e8 f0 57 ff ff       	callq  3040 <__cxa_allocate_exception@plt>
    d850:	48 8d 35 b1 64 20 00 	lea    0x2064b1(%rip),%rsi        # 213d08 <_ZTVN6GetOpt18ArgumentNotFoundExE+0x10>
    d857:	48 8d 15 82 fb ff ff 	lea    -0x47e(%rip),%rdx        # d3e0 <_ZN6GetOpt18ArgumentNotFoundExD1Ev>
    d85e:	48 89 c7             	mov    %rax,%rdi
    d861:	48 89 30             	mov    %rsi,(%rax)
    d864:	48 8d 35 dd 63 20 00 	lea    0x2063dd(%rip),%rsi        # 213c48 <_ZTIN6GetOpt18ArgumentNotFoundExE>
    d86b:	e8 20 5b ff ff       	callq  3390 <__cxa_throw@plt>
    d870:	83 f8 02             	cmp    $0x2,%eax
    d873:	75 8d                	jne    d802 <_ZN6GetOpt9GetOpt_pprsERKNS_7_OptionE+0x92>
    d875:	f6 43 60 02          	testb  $0x2,0x60(%rbx)
    d879:	0f 84 83 ff ff ff    	je     d802 <_ZN6GetOpt9GetOpt_pprsERKNS_7_OptionE+0x92>
    d87f:	bf 08 00 00 00       	mov    $0x8,%edi
    d884:	e8 b7 57 ff ff       	callq  3040 <__cxa_allocate_exception@plt>
    d889:	48 8d 35 c8 64 20 00 	lea    0x2064c8(%rip),%rsi        # 213d58 <_ZTVN6GetOpt16OptionNotFoundExE+0x10>
    d890:	48 8d 15 09 fc ff ff 	lea    -0x3f7(%rip),%rdx        # d4a0 <_ZN6GetOpt16OptionNotFoundExD1Ev>
    d897:	48 89 c7             	mov    %rax,%rdi
    d89a:	48 89 30             	mov    %rsi,(%rax)
    d89d:	48 8d 35 d4 63 20 00 	lea    0x2063d4(%rip),%rsi        # 213c78 <_ZTIN6GetOpt16OptionNotFoundExE>
    d8a4:	e8 e7 5a ff ff       	callq  3390 <__cxa_throw@plt>
    d8a9:	bf 08 00 00 00       	mov    $0x8,%edi
    d8ae:	e8 8d 57 ff ff       	callq  3040 <__cxa_allocate_exception@plt>
    d8b3:	48 8d 35 fe 63 20 00 	lea    0x2063fe(%rip),%rsi        # 213cb8 <_ZTVN6GetOpt14ParsingErrorExE+0x10>
    d8ba:	48 8d 15 5f fa ff ff 	lea    -0x5a1(%rip),%rdx        # d320 <_ZN6GetOpt14ParsingErrorExD1Ev>
    d8c1:	48 89 c7             	mov    %rax,%rdi
    d8c4:	48 89 30             	mov    %rsi,(%rax)
    d8c7:	48 8d 35 4a 63 20 00 	lea    0x20634a(%rip),%rsi        # 213c18 <_ZTIN6GetOpt14ParsingErrorExE>
    d8ce:	e8 bd 5a ff ff       	callq  3390 <__cxa_throw@plt>
    d8d3:	48 83 c2 01          	add    $0x1,%rdx
    d8d7:	48 89 c7             	mov    %rax,%rdi
    d8da:	74 05                	je     d8e1 <_ZN6GetOpt9GetOpt_pprsERKNS_7_OptionE+0x171>
    d8dc:	e8 cf 5a ff ff       	callq  33b0 <_Unwind_Resume@plt>
    d8e1:	e8 5a 59 ff ff       	callq  3240 <__cxa_call_unexpected@plt>
    d8e6:	66 2e 0f 1f 84 00 00 	nopw   %cs:0x0(%rax,%rax,1)
    d8ed:	00 00 00 

000000000000d8f0 <_ZN6GetOpt9GetOpt_pp11_init_flagsEv>:
    d8f0:	55                   	push   %rbp
    d8f1:	48 89 e5             	mov    %rsp,%rbp
    d8f4:	41 57                	push   %r15
    d8f6:	41 56                	push   %r14
    d8f8:	41 55                	push   %r13
    d8fa:	41 54                	push   %r12
    d8fc:	53                   	push   %rbx
    d8fd:	48 81 ec b8 11 00 00 	sub    $0x11b8,%rsp
    d904:	48 83 0c 24 00       	orq    $0x0,(%rsp)
    d909:	48 81 c4 20 10 00 00 	add    $0x1020,%rsp
    d910:	48 8d 9d 50 fe ff ff 	lea    -0x1b0(%rbp),%rbx
    d917:	49 89 ff             	mov    %rdi,%r15
    d91a:	64 48 8b 04 25 28 00 	mov    %fs:0x28,%rax
    d921:	00 00 
    d923:	48 89 45 c8          	mov    %rax,-0x38(%rbp)
    d927:	31 c0                	xor    %eax,%eax
    d929:	48 8d 7b 68          	lea    0x68(%rbx),%rdi
    d92d:	e8 8e 56 ff ff       	callq  2fc0 <_ZNSt8ios_baseC2Ev@plt>
    d932:	4c 8b 25 57 6d 20 00 	mov    0x206d57(%rip),%r12        # 214690 <_ZTTSt18basic_stringstreamIcSt11char_traitsIcESaIcEE@@GLIBCXX_3.4+0x10>
    d939:	48 8d 05 90 69 20 00 	lea    0x206990(%rip),%rax        # 2142d0 <_ZTVSt9basic_iosIcSt11char_traitsIcEE@@GLIBCXX_3.4+0x10>
    d940:	c6 45 98 00          	movb   $0x0,-0x68(%rbp)
    d944:	48 8b 0d 4d 6d 20 00 	mov    0x206d4d(%rip),%rcx        # 214698 <_ZTTSt18basic_stringstreamIcSt11char_traitsIcESaIcEE@@GLIBCXX_3.4+0x18>
    d94b:	48 c7 45 90 00 00 00 	movq   $0x0,-0x70(%rbp)
    d952:	00 
    d953:	48 89 df             	mov    %rbx,%rdi
    d956:	48 89 85 b8 fe ff ff 	mov    %rax,-0x148(%rbp)
    d95d:	c6 45 99 00          	movb   $0x0,-0x67(%rbp)
    d961:	31 f6                	xor    %esi,%esi
    d963:	49 8b 44 24 e8       	mov    -0x18(%r12),%rax
    d968:	48 c7 45 a0 00 00 00 	movq   $0x0,-0x60(%rbp)
    d96f:	00 
    d970:	48 c7 45 a8 00 00 00 	movq   $0x0,-0x58(%rbp)
    d977:	00 
    d978:	48 c7 45 b0 00 00 00 	movq   $0x0,-0x50(%rbp)
    d97f:	00 
    d980:	48 c7 45 b8 00 00 00 	movq   $0x0,-0x48(%rbp)
    d987:	00 
    d988:	4c 89 a5 50 fe ff ff 	mov    %r12,-0x1b0(%rbp)
    d98f:	48 89 8c 05 50 fe ff 	mov    %rcx,-0x1b0(%rbp,%rax,1)
    d996:	ff 
    d997:	48 c7 85 58 fe ff ff 	movq   $0x0,-0x1a8(%rbp)
    d99e:	00 00 00 00 
    d9a2:	49 03 7c 24 e8       	add    -0x18(%r12),%rdi
    d9a7:	e8 c4 58 ff ff       	callq  3270 <_ZNSt9basic_iosIcSt11char_traitsIcEE4initEPSt15basic_streambufIcS1_E@plt>
    d9ac:	4c 8b 2d ed 6c 20 00 	mov    0x206ced(%rip),%r13        # 2146a0 <_ZTTSt18basic_stringstreamIcSt11char_traitsIcESaIcEE@@GLIBCXX_3.4+0x20>
    d9b3:	31 f6                	xor    %esi,%esi
    d9b5:	49 8b 45 e8          	mov    -0x18(%r13),%rax
    d9b9:	4c 89 ad 60 fe ff ff 	mov    %r13,-0x1a0(%rbp)
    d9c0:	48 8d 7c 03 10       	lea    0x10(%rbx,%rax,1),%rdi
    d9c5:	48 8b 05 dc 6c 20 00 	mov    0x206cdc(%rip),%rax        # 2146a8 <_ZTTSt18basic_stringstreamIcSt11char_traitsIcESaIcEE@@GLIBCXX_3.4+0x28>
    d9cc:	48 89 07             	mov    %rax,(%rdi)
    d9cf:	e8 9c 58 ff ff       	callq  3270 <_ZNSt9basic_iosIcSt11char_traitsIcEE4initEPSt15basic_streambufIcS1_E@plt>
    d9d4:	4c 8b 35 ad 6c 20 00 	mov    0x206cad(%rip),%r14        # 214688 <_ZTTSt18basic_stringstreamIcSt11char_traitsIcESaIcEE@@GLIBCXX_3.4+0x8>
    d9db:	48 8b 0d ce 6c 20 00 	mov    0x206cce(%rip),%rcx        # 2146b0 <_ZTTSt18basic_stringstreamIcSt11char_traitsIcESaIcEE@@GLIBCXX_3.4+0x30>
    d9e2:	48 8d 7b 50          	lea    0x50(%rbx),%rdi
    d9e6:	49 8b 46 e8          	mov    -0x18(%r14),%rax
    d9ea:	48 89 8c 05 50 fe ff 	mov    %rcx,-0x1b0(%rbp,%rax,1)
    d9f1:	ff 
    d9f2:	48 8d 05 1f 69 20 00 	lea    0x20691f(%rip),%rax        # 214318 <_ZTVSt18basic_stringstreamIcSt11char_traitsIcESaIcEE@@GLIBCXX_3.4+0x18>
    d9f9:	48 c7 85 70 fe ff ff 	movq   $0x0,-0x190(%rbp)
    da00:	00 00 00 00 
    da04:	48 c7 85 78 fe ff ff 	movq   $0x0,-0x188(%rbp)
    da0b:	00 00 00 00 
    da0f:	48 c7 85 80 fe ff ff 	movq   $0x0,-0x180(%rbp)
    da16:	00 00 00 00 
    da1a:	48 89 85 50 fe ff ff 	mov    %rax,-0x1b0(%rbp)
    da21:	48 8d 05 40 69 20 00 	lea    0x206940(%rip),%rax        # 214368 <_ZTVSt18basic_stringstreamIcSt11char_traitsIcESaIcEE@@GLIBCXX_3.4+0x68>
    da28:	48 c7 85 88 fe ff ff 	movq   $0x0,-0x178(%rbp)
    da2f:	00 00 00 00 
    da33:	48 c7 85 90 fe ff ff 	movq   $0x0,-0x170(%rbp)
    da3a:	00 00 00 00 
    da3e:	48 c7 85 98 fe ff ff 	movq   $0x0,-0x168(%rbp)
    da45:	00 00 00 00 
    da49:	48 89 85 b8 fe ff ff 	mov    %rax,-0x148(%rbp)
    da50:	48 8d 05 e9 68 20 00 	lea    0x2068e9(%rip),%rax        # 214340 <_ZTVSt18basic_stringstreamIcSt11char_traitsIcESaIcEE@@GLIBCXX_3.4+0x40>
    da57:	48 89 85 60 fe ff ff 	mov    %rax,-0x1a0(%rbp)
    da5e:	48 8d 05 2b 69 20 00 	lea    0x20692b(%rip),%rax        # 214390 <_ZTVSt15basic_streambufIcSt11char_traitsIcEE@@GLIBCXX_3.4+0x10>
    da65:	48 89 85 68 fe ff ff 	mov    %rax,-0x198(%rbp)
    da6c:	e8 df 59 ff ff       	callq  3450 <_ZNSt6localeC1Ev@plt>
    da71:	48 8d 05 18 6b 20 00 	lea    0x206b18(%rip),%rax        # 214590 <_ZTVSt15basic_stringbufIcSt11char_traitsIcESaIcEE@@GLIBCXX_3.4+0x10>
    da78:	48 8d 73 18          	lea    0x18(%rbx),%rsi
    da7c:	48 8d 7b 68          	lea    0x68(%rbx),%rdi
    da80:	c7 85 a8 fe ff ff 18 	movl   $0x18,-0x158(%rbp)
    da87:	00 00 00 
    da8a:	48 89 85 68 fe ff ff 	mov    %rax,-0x198(%rbp)
    da91:	48 8d 05 60 68 20 00 	lea    0x206860(%rip),%rax        # 2142f8 <_ZNSs4_Rep20_S_empty_rep_storageE@@GLIBCXX_3.4+0x18>
    da98:	48 89 85 b0 fe ff ff 	mov    %rax,-0x150(%rbp)
    da9f:	e8 cc 57 ff ff       	callq  3270 <_ZNSt9basic_iosIcSt11char_traitsIcEE4initEPSt15basic_streambufIcS1_E@plt>
    daa4:	8b 85 d0 fe ff ff    	mov    -0x130(%rbp),%eax
    daaa:	48 8d 15 2f 68 20 00 	lea    0x20682f(%rip),%rdx        # 2142e0 <_ZNSs4_Rep20_S_empty_rep_storageE@@GLIBCXX_3.4>
    dab1:	41 89 47 68          	mov    %eax,0x68(%r15)
    dab5:	48 8d 05 5c 68 20 00 	lea    0x20685c(%rip),%rax        # 214318 <_ZTVSt18basic_stringstreamIcSt11char_traitsIcESaIcEE@@GLIBCXX_3.4+0x18>
    dabc:	48 89 85 50 fe ff ff 	mov    %rax,-0x1b0(%rbp)
    dac3:	48 8d 05 9e 68 20 00 	lea    0x20689e(%rip),%rax        # 214368 <_ZTVSt18basic_stringstreamIcSt11char_traitsIcESaIcEE@@GLIBCXX_3.4+0x68>
    daca:	48 89 85 b8 fe ff ff 	mov    %rax,-0x148(%rbp)
    dad1:	48 8d 05 68 68 20 00 	lea    0x206868(%rip),%rax        # 214340 <_ZTVSt18basic_stringstreamIcSt11char_traitsIcESaIcEE@@GLIBCXX_3.4+0x40>
    dad8:	48 89 85 60 fe ff ff 	mov    %rax,-0x1a0(%rbp)
    dadf:	48 8d 05 aa 6a 20 00 	lea    0x206aaa(%rip),%rax        # 214590 <_ZTVSt15basic_stringbufIcSt11char_traitsIcESaIcEE@@GLIBCXX_3.4+0x10>
    dae6:	48 89 85 68 fe ff ff 	mov    %rax,-0x198(%rbp)
    daed:	48 8b 85 b0 fe ff ff 	mov    -0x150(%rbp),%rax
    daf4:	48 8d 78 e8          	lea    -0x18(%rax),%rdi
    daf8:	48 39 d7             	cmp    %rdx,%rdi
    dafb:	0f 85 8f 00 00 00    	jne    db90 <_ZN6GetOpt9GetOpt_pp11_init_flagsEv+0x2a0>
    db01:	48 8d 05 88 68 20 00 	lea    0x206888(%rip),%rax        # 214390 <_ZTVSt15basic_streambufIcSt11char_traitsIcEE@@GLIBCXX_3.4+0x10>
    db08:	48 8d 7b 50          	lea    0x50(%rbx),%rdi
    db0c:	48 89 85 68 fe ff ff 	mov    %rax,-0x198(%rbp)
    db13:	e8 68 57 ff ff       	callq  3280 <_ZNSt6localeD1Ev@plt>
    db18:	49 8b 46 e8          	mov    -0x18(%r14),%rax
    db1c:	48 8b 15 8d 6b 20 00 	mov    0x206b8d(%rip),%rdx        # 2146b0 <_ZTTSt18basic_stringstreamIcSt11char_traitsIcESaIcEE@@GLIBCXX_3.4+0x30>
    db23:	48 8d 7b 68          	lea    0x68(%rbx),%rdi
    db27:	48 8b 0d 7a 6b 20 00 	mov    0x206b7a(%rip),%rcx        # 2146a8 <_ZTTSt18basic_stringstreamIcSt11char_traitsIcESaIcEE@@GLIBCXX_3.4+0x28>
    db2e:	48 89 94 05 50 fe ff 	mov    %rdx,-0x1b0(%rbp,%rax,1)
    db35:	ff 
    db36:	49 8b 45 e8          	mov    -0x18(%r13),%rax
    db3a:	48 8b 15 57 6b 20 00 	mov    0x206b57(%rip),%rdx        # 214698 <_ZTTSt18basic_stringstreamIcSt11char_traitsIcESaIcEE@@GLIBCXX_3.4+0x18>
    db41:	48 89 8c 05 60 fe ff 	mov    %rcx,-0x1a0(%rbp,%rax,1)
    db48:	ff 
    db49:	49 8b 44 24 e8       	mov    -0x18(%r12),%rax
    db4e:	48 89 94 05 50 fe ff 	mov    %rdx,-0x1b0(%rbp,%rax,1)
    db55:	ff 
    db56:	48 8d 05 73 67 20 00 	lea    0x206773(%rip),%rax        # 2142d0 <_ZTVSt9basic_iosIcSt11char_traitsIcEE@@GLIBCXX_3.4+0x10>
    db5d:	48 89 85 b8 fe ff ff 	mov    %rax,-0x148(%rbp)
    db64:	e8 67 54 ff ff       	callq  2fd0 <_ZNSt8ios_baseD2Ev@plt>
    db69:	48 8b 45 c8          	mov    -0x38(%rbp),%rax
    db6d:	64 48 33 04 25 28 00 	xor    %fs:0x28,%rax
    db74:	00 00 
    db76:	75 55                	jne    dbcd <_ZN6GetOpt9GetOpt_pp11_init_flagsEv+0x2dd>
    db78:	48 81 c4 98 01 00 00 	add    $0x198,%rsp
    db7f:	5b                   	pop    %rbx
    db80:	41 5c                	pop    %r12
    db82:	41 5d                	pop    %r13
    db84:	41 5e                	pop    %r14
    db86:	41 5f                	pop    %r15
    db88:	5d                   	pop    %rbp
    db89:	c3                   	retq   
    db8a:	66 0f 1f 44 00 00    	nopw   0x0(%rax,%rax,1)
    db90:	48 83 3d 40 64 20 00 	cmpq   $0x0,0x206440(%rip)        # 213fd8 <_DYNAMIC+0x240>
    db97:	00 
    db98:	74 26                	je     dbc0 <_ZN6GetOpt9GetOpt_pp11_init_flagsEv+0x2d0>
    db9a:	ba ff ff ff ff       	mov    $0xffffffff,%edx
    db9f:	f0 0f c1 50 f8       	lock xadd %edx,-0x8(%rax)
    dba4:	89 d0                	mov    %edx,%eax
    dba6:	85 c0                	test   %eax,%eax
    dba8:	0f 8f 53 ff ff ff    	jg     db01 <_ZN6GetOpt9GetOpt_pp11_init_flagsEv+0x211>
    dbae:	48 8d b5 4f fe ff ff 	lea    -0x1b1(%rbp),%rsi
    dbb5:	e8 26 55 ff ff       	callq  30e0 <_ZNSs4_Rep10_M_destroyERKSaIcE@plt>
    dbba:	e9 42 ff ff ff       	jmpq   db01 <_ZN6GetOpt9GetOpt_pp11_init_flagsEv+0x211>
    dbbf:	90                   	nop
    dbc0:	8b 50 f8             	mov    -0x8(%rax),%edx
    dbc3:	8d 4a ff             	lea    -0x1(%rdx),%ecx
    dbc6:	89 48 f8             	mov    %ecx,-0x8(%rax)
    dbc9:	89 d0                	mov    %edx,%eax
    dbcb:	eb d9                	jmp    dba6 <_ZN6GetOpt9GetOpt_pp11_init_flagsEv+0x2b6>
    dbcd:	e8 ee 55 ff ff       	callq  31c0 <__stack_chk_fail@plt>
    dbd2:	49 89 c4             	mov    %rax,%r12
    dbd5:	48 8d 05 f4 66 20 00 	lea    0x2066f4(%rip),%rax        # 2142d0 <_ZTVSt9basic_iosIcSt11char_traitsIcEE@@GLIBCXX_3.4+0x10>
    dbdc:	48 8d 7b 68          	lea    0x68(%rbx),%rdi
    dbe0:	48 89 85 b8 fe ff ff 	mov    %rax,-0x148(%rbp)
    dbe7:	e8 e4 53 ff ff       	callq  2fd0 <_ZNSt8ios_baseD2Ev@plt>
    dbec:	4c 89 e7             	mov    %r12,%rdi
    dbef:	e8 bc 57 ff ff       	callq  33b0 <_Unwind_Resume@plt>
    dbf4:	48 8d 7b 18          	lea    0x18(%rbx),%rdi
    dbf8:	49 89 c7             	mov    %rax,%r15
    dbfb:	e8 90 e3 ff ff       	callq  bf90 <_ZNSt15basic_stringbufIcSt11char_traitsIcESaIcEED1Ev>
    dc00:	49 8b 46 e8          	mov    -0x18(%r14),%rax
    dc04:	48 8b 35 a5 6a 20 00 	mov    0x206aa5(%rip),%rsi        # 2146b0 <_ZTTSt18basic_stringstreamIcSt11char_traitsIcESaIcEE@@GLIBCXX_3.4+0x30>
    dc0b:	48 89 b4 05 50 fe ff 	mov    %rsi,-0x1b0(%rbp,%rax,1)
    dc12:	ff 
    dc13:	49 8b 45 e8          	mov    -0x18(%r13),%rax
    dc17:	48 8b 35 8a 6a 20 00 	mov    0x206a8a(%rip),%rsi        # 2146a8 <_ZTTSt18basic_stringstreamIcSt11char_traitsIcESaIcEE@@GLIBCXX_3.4+0x28>
    dc1e:	48 89 b4 05 60 fe ff 	mov    %rsi,-0x1a0(%rbp,%rax,1)
    dc25:	ff 
    dc26:	49 8b 44 24 e8       	mov    -0x18(%r12),%rax
    dc2b:	4d 89 fc             	mov    %r15,%r12
    dc2e:	48 8b 35 63 6a 20 00 	mov    0x206a63(%rip),%rsi        # 214698 <_ZTTSt18basic_stringstreamIcSt11char_traitsIcESaIcEE@@GLIBCXX_3.4+0x18>
    dc35:	48 89 b4 05 50 fe ff 	mov    %rsi,-0x1b0(%rbp,%rax,1)
    dc3c:	ff 
    dc3d:	eb 96                	jmp    dbd5 <_ZN6GetOpt9GetOpt_pp11_init_flagsEv+0x2e5>
    dc3f:	49 8b 54 24 e8       	mov    -0x18(%r12),%rdx
    dc44:	48 8b 35 4d 6a 20 00 	mov    0x206a4d(%rip),%rsi        # 214698 <_ZTTSt18basic_stringstreamIcSt11char_traitsIcESaIcEE@@GLIBCXX_3.4+0x18>
    dc4b:	49 89 c4             	mov    %rax,%r12
    dc4e:	48 89 b4 15 50 fe ff 	mov    %rsi,-0x1b0(%rbp,%rdx,1)
    dc55:	ff 
    dc56:	e9 7a ff ff ff       	jmpq   dbd5 <_ZN6GetOpt9GetOpt_pp11_init_flagsEv+0x2e5>
    dc5b:	0f 1f 44 00 00       	nopl   0x0(%rax,%rax,1)

000000000000dc60 <_ZNSt6vectorISsSaISsEED1Ev>:
    dc60:	55                   	push   %rbp
    dc61:	48 89 e5             	mov    %rsp,%rbp
    dc64:	41 57                	push   %r15
    dc66:	41 56                	push   %r14
    dc68:	41 55                	push   %r13
    dc6a:	41 54                	push   %r12
    dc6c:	53                   	push   %rbx
    dc6d:	48 81 ec 38 10 00 00 	sub    $0x1038,%rsp
    dc74:	48 83 0c 24 00       	orq    $0x0,(%rsp)
    dc79:	48 81 c4 20 10 00 00 	add    $0x1020,%rsp
    dc80:	4c 8b 67 08          	mov    0x8(%rdi),%r12
    dc84:	48 8b 1f             	mov    (%rdi),%rbx
    dc87:	64 48 8b 04 25 28 00 	mov    %fs:0x28,%rax
    dc8e:	00 00 
    dc90:	48 89 45 c8          	mov    %rax,-0x38(%rbp)
    dc94:	31 c0                	xor    %eax,%eax
    dc96:	49 39 dc             	cmp    %rbx,%r12
    dc99:	74 60                	je     dcfb <_ZNSt6vectorISsSaISsEED1Ev+0x9b>
    dc9b:	48 83 3d 35 63 20 00 	cmpq   $0x0,0x206335(%rip)        # 213fd8 <_DYNAMIC+0x240>
    dca2:	00 
    dca3:	49 89 fe             	mov    %rdi,%r14
    dca6:	4c 8d 2d 33 66 20 00 	lea    0x206633(%rip),%r13        # 2142e0 <_ZNSs4_Rep20_S_empty_rep_storageE@@GLIBCXX_3.4>
    dcad:	4c 8d 7d c7          	lea    -0x39(%rbp),%r15
    dcb1:	75 16                	jne    dcc9 <_ZNSt6vectorISsSaISsEED1Ev+0x69>
    dcb3:	e9 99 00 00 00       	jmpq   dd51 <_ZNSt6vectorISsSaISsEED1Ev+0xf1>
    dcb8:	0f 1f 84 00 00 00 00 	nopl   0x0(%rax,%rax,1)
    dcbf:	00 
    dcc0:	48 83 c3 08          	add    $0x8,%rbx
    dcc4:	49 39 dc             	cmp    %rbx,%r12
    dcc7:	74 2f                	je     dcf8 <_ZNSt6vectorISsSaISsEED1Ev+0x98>
    dcc9:	48 8b 03             	mov    (%rbx),%rax
    dccc:	48 8d 78 e8          	lea    -0x18(%rax),%rdi
    dcd0:	4c 39 ef             	cmp    %r13,%rdi
    dcd3:	74 eb                	je     dcc0 <_ZNSt6vectorISsSaISsEED1Ev+0x60>
    dcd5:	ba ff ff ff ff       	mov    $0xffffffff,%edx
    dcda:	f0 0f c1 50 f8       	lock xadd %edx,-0x8(%rax)
    dcdf:	85 d2                	test   %edx,%edx
    dce1:	7f dd                	jg     dcc0 <_ZNSt6vectorISsSaISsEED1Ev+0x60>
    dce3:	4c 89 fe             	mov    %r15,%rsi
    dce6:	48 83 c3 08          	add    $0x8,%rbx
    dcea:	e8 f1 53 ff ff       	callq  30e0 <_ZNSs4_Rep10_M_destroyERKSaIcE@plt>
    dcef:	49 39 dc             	cmp    %rbx,%r12
    dcf2:	75 d5                	jne    dcc9 <_ZNSt6vectorISsSaISsEED1Ev+0x69>
    dcf4:	0f 1f 40 00          	nopl   0x0(%rax)
    dcf8:	4d 8b 26             	mov    (%r14),%r12
    dcfb:	4d 85 e4             	test   %r12,%r12
    dcfe:	74 08                	je     dd08 <_ZNSt6vectorISsSaISsEED1Ev+0xa8>
    dd00:	4c 89 e7             	mov    %r12,%rdi
    dd03:	e8 38 54 ff ff       	callq  3140 <_ZdlPv@plt>
    dd08:	48 8b 45 c8          	mov    -0x38(%rbp),%rax
    dd0c:	64 48 33 04 25 28 00 	xor    %fs:0x28,%rax
    dd13:	00 00 
    dd15:	75 48                	jne    dd5f <_ZNSt6vectorISsSaISsEED1Ev+0xff>
    dd17:	48 83 c4 18          	add    $0x18,%rsp
    dd1b:	5b                   	pop    %rbx
    dd1c:	41 5c                	pop    %r12
    dd1e:	41 5d                	pop    %r13
    dd20:	41 5e                	pop    %r14
    dd22:	41 5f                	pop    %r15
    dd24:	5d                   	pop    %rbp
    dd25:	c3                   	retq   
    dd26:	66 2e 0f 1f 84 00 00 	nopw   %cs:0x0(%rax,%rax,1)
    dd2d:	00 00 00 
    dd30:	8b 50 f8             	mov    -0x8(%rax),%edx
    dd33:	8d 4a ff             	lea    -0x1(%rdx),%ecx
    dd36:	85 d2                	test   %edx,%edx
    dd38:	89 48 f8             	mov    %ecx,-0x8(%rax)
    dd3b:	7f 0b                	jg     dd48 <_ZNSt6vectorISsSaISsEED1Ev+0xe8>
    dd3d:	4c 89 fe             	mov    %r15,%rsi
    dd40:	e8 9b 53 ff ff       	callq  30e0 <_ZNSs4_Rep10_M_destroyERKSaIcE@plt>
    dd45:	0f 1f 00             	nopl   (%rax)
    dd48:	48 83 c3 08          	add    $0x8,%rbx
    dd4c:	49 39 dc             	cmp    %rbx,%r12
    dd4f:	74 a7                	je     dcf8 <_ZNSt6vectorISsSaISsEED1Ev+0x98>
    dd51:	48 8b 03             	mov    (%rbx),%rax
    dd54:	48 8d 78 e8          	lea    -0x18(%rax),%rdi
    dd58:	4c 39 ef             	cmp    %r13,%rdi
    dd5b:	74 eb                	je     dd48 <_ZNSt6vectorISsSaISsEED1Ev+0xe8>
    dd5d:	eb d1                	jmp    dd30 <_ZNSt6vectorISsSaISsEED1Ev+0xd0>
    dd5f:	e8 5c 54 ff ff       	callq  31c0 <__stack_chk_fail@plt>
    dd64:	66 2e 0f 1f 84 00 00 	nopw   %cs:0x0(%rax,%rax,1)
    dd6b:	00 00 00 
    dd6e:	66 90                	xchg   %ax,%ax

000000000000dd70 <_ZNSt6vectorISsSaISsEE19_M_emplace_back_auxIIRKSsEEEvDpOT_>:
    dd70:	55                   	push   %rbp
    dd71:	48 89 e5             	mov    %rsp,%rbp
    dd74:	41 57                	push   %r15
    dd76:	41 56                	push   %r14
    dd78:	41 55                	push   %r13
    dd7a:	41 54                	push   %r12
    dd7c:	53                   	push   %rbx
    dd7d:	48 81 ec 58 10 00 00 	sub    $0x1058,%rsp
    dd84:	48 83 0c 24 00       	orq    $0x0,(%rsp)
    dd89:	48 81 c4 20 10 00 00 	add    $0x1020,%rsp
    dd90:	48 8b 0f             	mov    (%rdi),%rcx
    dd93:	64 48 8b 04 25 28 00 	mov    %fs:0x28,%rax
    dd9a:	00 00 
    dd9c:	48 89 45 c8          	mov    %rax,-0x38(%rbp)
    dda0:	31 c0                	xor    %eax,%eax
    dda2:	48 8b 47 08          	mov    0x8(%rdi),%rax
    dda6:	48 89 fb             	mov    %rdi,%rbx
    dda9:	49 89 f6             	mov    %rsi,%r14
    ddac:	48 89 c2             	mov    %rax,%rdx
    ddaf:	48 29 ca             	sub    %rcx,%rdx
    ddb2:	49 89 d5             	mov    %rdx,%r13
    ddb5:	49 c1 fd 03          	sar    $0x3,%r13
    ddb9:	4d 85 ed             	test   %r13,%r13
    ddbc:	0f 84 9e 01 00 00    	je     df60 <_ZNSt6vectorISsSaISsEE19_M_emplace_back_auxIIRKSsEEEvDpOT_+0x1f0>
    ddc2:	4b 8d 74 2d 00       	lea    0x0(%r13,%r13,1),%rsi
    ddc7:	49 39 f5             	cmp    %rsi,%r13
    ddca:	0f 86 bc 01 00 00    	jbe    df8c <_ZNSt6vectorISsSaISsEE19_M_emplace_back_auxIIRKSsEEEvDpOT_+0x21c>
    ddd0:	49 c7 c5 f8 ff ff ff 	mov    $0xfffffffffffffff8,%r13
    ddd7:	4c 89 ef             	mov    %r13,%rdi
    ddda:	e8 91 53 ff ff       	callq  3170 <_Znwm@plt>
    dddf:	49 89 c4             	mov    %rax,%r12
    dde2:	48 8b 43 08          	mov    0x8(%rbx),%rax
    dde6:	48 8b 0b             	mov    (%rbx),%rcx
    dde9:	48 89 c2             	mov    %rax,%rdx
    ddec:	48 29 ca             	sub    %rcx,%rdx
    ddef:	4c 01 e2             	add    %r12,%rdx
    ddf2:	48 89 d7             	mov    %rdx,%rdi
    ddf5:	0f 84 75 01 00 00    	je     df70 <_ZNSt6vectorISsSaISsEE19_M_emplace_back_auxIIRKSsEEEvDpOT_+0x200>
    ddfb:	4c 89 f6             	mov    %r14,%rsi
    ddfe:	e8 4d 52 ff ff       	callq  3050 <_ZNSsC1ERKSs@plt>
    de03:	4c 8b 7b 08          	mov    0x8(%rbx),%r15
    de07:	48 8b 3b             	mov    (%rbx),%rdi
    de0a:	4c 39 ff             	cmp    %r15,%rdi
    de0d:	0f 84 68 01 00 00    	je     df7b <_ZNSt6vectorISsSaISsEE19_M_emplace_back_auxIIRKSsEEEvDpOT_+0x20b>
    de13:	4c 89 e2             	mov    %r12,%rdx
    de16:	48 89 f8             	mov    %rdi,%rax
    de19:	0f 1f 80 00 00 00 00 	nopl   0x0(%rax)
    de20:	48 85 d2             	test   %rdx,%rdx
    de23:	74 10                	je     de35 <_ZNSt6vectorISsSaISsEE19_M_emplace_back_auxIIRKSsEEEvDpOT_+0xc5>
    de25:	48 8b 08             	mov    (%rax),%rcx
    de28:	48 8d 35 c9 64 20 00 	lea    0x2064c9(%rip),%rsi        # 2142f8 <_ZNSs4_Rep20_S_empty_rep_storageE@@GLIBCXX_3.4+0x18>
    de2f:	48 89 0a             	mov    %rcx,(%rdx)
    de32:	48 89 30             	mov    %rsi,(%rax)
    de35:	48 83 c0 08          	add    $0x8,%rax
    de39:	48 83 c2 08          	add    $0x8,%rdx
    de3d:	4c 39 f8             	cmp    %r15,%rax
    de40:	75 de                	jne    de20 <_ZNSt6vectorISsSaISsEE19_M_emplace_back_auxIIRKSsEEEvDpOT_+0xb0>
    de42:	4c 8d 77 08          	lea    0x8(%rdi),%r14
    de46:	4c 89 f8             	mov    %r15,%rax
    de49:	48 8d 0d 90 64 20 00 	lea    0x206490(%rip),%rcx        # 2142e0 <_ZNSs4_Rep20_S_empty_rep_storageE@@GLIBCXX_3.4>
    de50:	4c 8d 45 c7          	lea    -0x39(%rbp),%r8
    de54:	4c 29 f0             	sub    %r14,%rax
    de57:	48 c1 e8 03          	shr    $0x3,%rax
    de5b:	48 83 3d 75 61 20 00 	cmpq   $0x0,0x206175(%rip)        # 213fd8 <_DYNAMIC+0x240>
    de62:	00 
    de63:	49 8d 54 c4 10       	lea    0x10(%r12,%rax,8),%rdx
    de68:	75 12                	jne    de7c <_ZNSt6vectorISsSaISsEE19_M_emplace_back_auxIIRKSsEEEvDpOT_+0x10c>
    de6a:	e9 e1 00 00 00       	jmpq   df50 <_ZNSt6vectorISsSaISsEE19_M_emplace_back_auxIIRKSsEEEvDpOT_+0x1e0>
    de6f:	90                   	nop
    de70:	4d 39 fe             	cmp    %r15,%r14
    de73:	4c 89 f7             	mov    %r14,%rdi
    de76:	74 48                	je     dec0 <_ZNSt6vectorISsSaISsEE19_M_emplace_back_auxIIRKSsEEEvDpOT_+0x150>
    de78:	49 83 c6 08          	add    $0x8,%r14
    de7c:	48 8b 07             	mov    (%rdi),%rax
    de7f:	48 8d 78 e8          	lea    -0x18(%rax),%rdi
    de83:	48 39 cf             	cmp    %rcx,%rdi
    de86:	74 e8                	je     de70 <_ZNSt6vectorISsSaISsEE19_M_emplace_back_auxIIRKSsEEEvDpOT_+0x100>
    de88:	be ff ff ff ff       	mov    $0xffffffff,%esi
    de8d:	f0 0f c1 70 f8       	lock xadd %esi,-0x8(%rax)
    de92:	85 f6                	test   %esi,%esi
    de94:	7f da                	jg     de70 <_ZNSt6vectorISsSaISsEE19_M_emplace_back_auxIIRKSsEEEvDpOT_+0x100>
    de96:	4c 89 c6             	mov    %r8,%rsi
    de99:	48 89 4d a8          	mov    %rcx,-0x58(%rbp)
    de9d:	48 89 55 b0          	mov    %rdx,-0x50(%rbp)
    dea1:	4c 89 45 b8          	mov    %r8,-0x48(%rbp)
    dea5:	e8 36 52 ff ff       	callq  30e0 <_ZNSs4_Rep10_M_destroyERKSaIcE@plt>
    deaa:	4d 39 fe             	cmp    %r15,%r14
    dead:	48 8b 4d a8          	mov    -0x58(%rbp),%rcx
    deb1:	48 8b 55 b0          	mov    -0x50(%rbp),%rdx
    deb5:	4c 8b 45 b8          	mov    -0x48(%rbp),%r8
    deb9:	4c 89 f7             	mov    %r14,%rdi
    debc:	75 ba                	jne    de78 <_ZNSt6vectorISsSaISsEE19_M_emplace_back_auxIIRKSsEEEvDpOT_+0x108>
    debe:	66 90                	xchg   %ax,%ax
    dec0:	48 8b 3b             	mov    (%rbx),%rdi
    dec3:	48 85 ff             	test   %rdi,%rdi
    dec6:	74 0d                	je     ded5 <_ZNSt6vectorISsSaISsEE19_M_emplace_back_auxIIRKSsEEEvDpOT_+0x165>
    dec8:	48 89 55 b8          	mov    %rdx,-0x48(%rbp)
    decc:	e8 6f 52 ff ff       	callq  3140 <_ZdlPv@plt>
    ded1:	48 8b 55 b8          	mov    -0x48(%rbp),%rdx
    ded5:	4c 89 23             	mov    %r12,(%rbx)
    ded8:	4d 01 ec             	add    %r13,%r12
    dedb:	48 89 53 08          	mov    %rdx,0x8(%rbx)
    dedf:	48 8b 45 c8          	mov    -0x38(%rbp),%rax
    dee3:	64 48 33 04 25 28 00 	xor    %fs:0x28,%rax
    deea:	00 00 
    deec:	4c 89 63 10          	mov    %r12,0x10(%rbx)
    def0:	0f 85 91 00 00 00    	jne    df87 <_ZNSt6vectorISsSaISsEE19_M_emplace_back_auxIIRKSsEEEvDpOT_+0x217>
    def6:	48 83 c4 38          	add    $0x38,%rsp
    defa:	5b                   	pop    %rbx
    defb:	41 5c                	pop    %r12
    defd:	41 5d                	pop    %r13
    deff:	41 5e                	pop    %r14
    df01:	41 5f                	pop    %r15
    df03:	5d                   	pop    %rbp
    df04:	c3                   	retq   
    df05:	0f 1f 00             	nopl   (%rax)
    df08:	8b 70 f8             	mov    -0x8(%rax),%esi
    df0b:	44 8d 4e ff          	lea    -0x1(%rsi),%r9d
    df0f:	85 f6                	test   %esi,%esi
    df11:	44 89 48 f8          	mov    %r9d,-0x8(%rax)
    df15:	7f 29                	jg     df40 <_ZNSt6vectorISsSaISsEE19_M_emplace_back_auxIIRKSsEEEvDpOT_+0x1d0>
    df17:	4c 89 c6             	mov    %r8,%rsi
    df1a:	48 89 4d a8          	mov    %rcx,-0x58(%rbp)
    df1e:	48 89 55 b0          	mov    %rdx,-0x50(%rbp)
    df22:	4c 89 45 b8          	mov    %r8,-0x48(%rbp)
    df26:	e8 b5 51 ff ff       	callq  30e0 <_ZNSs4_Rep10_M_destroyERKSaIcE@plt>
    df2b:	4c 8b 45 b8          	mov    -0x48(%rbp),%r8
    df2f:	48 8b 55 b0          	mov    -0x50(%rbp),%rdx
    df33:	48 8b 4d a8          	mov    -0x58(%rbp),%rcx
    df37:	66 0f 1f 84 00 00 00 	nopw   0x0(%rax,%rax,1)
    df3e:	00 00 
    df40:	4d 39 fe             	cmp    %r15,%r14
    df43:	4c 89 f7             	mov    %r14,%rdi
    df46:	0f 84 74 ff ff ff    	je     dec0 <_ZNSt6vectorISsSaISsEE19_M_emplace_back_auxIIRKSsEEEvDpOT_+0x150>
    df4c:	49 83 c6 08          	add    $0x8,%r14
    df50:	48 8b 07             	mov    (%rdi),%rax
    df53:	48 8d 78 e8          	lea    -0x18(%rax),%rdi
    df57:	48 39 cf             	cmp    %rcx,%rdi
    df5a:	74 e4                	je     df40 <_ZNSt6vectorISsSaISsEE19_M_emplace_back_auxIIRKSsEEEvDpOT_+0x1d0>
    df5c:	eb aa                	jmp    df08 <_ZNSt6vectorISsSaISsEE19_M_emplace_back_auxIIRKSsEEEvDpOT_+0x198>
    df5e:	66 90                	xchg   %ax,%ax
    df60:	41 bd 08 00 00 00    	mov    $0x8,%r13d
    df66:	e9 6c fe ff ff       	jmpq   ddd7 <_ZNSt6vectorISsSaISsEE19_M_emplace_back_auxIIRKSsEEEvDpOT_+0x67>
    df6b:	0f 1f 44 00 00       	nopl   0x0(%rax,%rax,1)
    df70:	48 89 cf             	mov    %rcx,%rdi
    df73:	49 89 c7             	mov    %rax,%r15
    df76:	e9 8f fe ff ff       	jmpq   de0a <_ZNSt6vectorISsSaISsEE19_M_emplace_back_auxIIRKSsEEEvDpOT_+0x9a>
    df7b:	49 8d 54 24 08       	lea    0x8(%r12),%rdx
    df80:	e9 3e ff ff ff       	jmpq   dec3 <_ZNSt6vectorISsSaISsEE19_M_emplace_back_auxIIRKSsEEEvDpOT_+0x153>
    df85:	eb 28                	jmp    dfaf <_ZNSt6vectorISsSaISsEE19_M_emplace_back_auxIIRKSsEEEvDpOT_+0x23f>
    df87:	e8 34 52 ff ff       	callq  31c0 <__stack_chk_fail@plt>
    df8c:	48 bf ff ff ff ff ff 	movabs $0x1fffffffffffffff,%rdi
    df93:	ff ff 1f 
    df96:	48 39 fe             	cmp    %rdi,%rsi
    df99:	0f 87 31 fe ff ff    	ja     ddd0 <_ZNSt6vectorISsSaISsEE19_M_emplace_back_auxIIRKSsEEEvDpOT_+0x60>
    df9f:	48 85 f6             	test   %rsi,%rsi
    dfa2:	75 25                	jne    dfc9 <_ZNSt6vectorISsSaISsEE19_M_emplace_back_auxIIRKSsEEEvDpOT_+0x259>
    dfa4:	45 31 ed             	xor    %r13d,%r13d
    dfa7:	45 31 e4             	xor    %r12d,%r12d
    dfaa:	e9 40 fe ff ff       	jmpq   ddef <_ZNSt6vectorISsSaISsEE19_M_emplace_back_auxIIRKSsEEEvDpOT_+0x7f>
    dfaf:	48 89 c7             	mov    %rax,%rdi
    dfb2:	e8 29 50 ff ff       	callq  2fe0 <__cxa_begin_catch@plt>
    dfb7:	4d 85 e4             	test   %r12,%r12
    dfba:	74 1b                	je     dfd7 <_ZNSt6vectorISsSaISsEE19_M_emplace_back_auxIIRKSsEEEvDpOT_+0x267>
    dfbc:	4c 89 e7             	mov    %r12,%rdi
    dfbf:	e8 7c 51 ff ff       	callq  3140 <_ZdlPv@plt>
    dfc4:	e8 e7 52 ff ff       	callq  32b0 <__cxa_rethrow@plt>
    dfc9:	49 c1 e5 04          	shl    $0x4,%r13
    dfcd:	e9 05 fe ff ff       	jmpq   ddd7 <_ZNSt6vectorISsSaISsEE19_M_emplace_back_auxIIRKSsEEEvDpOT_+0x67>
    dfd2:	48 89 c3             	mov    %rax,%rbx
    dfd5:	eb 25                	jmp    dffc <_ZNSt6vectorISsSaISsEE19_M_emplace_back_auxIIRKSsEEEvDpOT_+0x28c>
    dfd7:	48 8b 43 08          	mov    0x8(%rbx),%rax
    dfdb:	48 2b 03             	sub    (%rbx),%rax
    dfde:	48 8b 38             	mov    (%rax),%rdi
    dfe1:	48 8d 05 f8 62 20 00 	lea    0x2062f8(%rip),%rax        # 2142e0 <_ZNSs4_Rep20_S_empty_rep_storageE@@GLIBCXX_3.4>
    dfe8:	48 83 ef 18          	sub    $0x18,%rdi
    dfec:	48 39 c7             	cmp    %rax,%rdi
    dfef:	74 d3                	je     dfc4 <_ZNSt6vectorISsSaISsEE19_M_emplace_back_auxIIRKSsEEEvDpOT_+0x254>
    dff1:	48 8d 75 c7          	lea    -0x39(%rbp),%rsi
    dff5:	e8 66 54 ff ff       	callq  3460 <_ZNSs4_Rep10_M_disposeERKSaIcE.part.2>
    dffa:	eb c8                	jmp    dfc4 <_ZNSt6vectorISsSaISsEE19_M_emplace_back_auxIIRKSsEEEvDpOT_+0x254>
    dffc:	e8 3f 53 ff ff       	callq  3340 <__cxa_end_catch@plt>
    e001:	48 89 df             	mov    %rbx,%rdi
    e004:	e8 a7 53 ff ff       	callq  33b0 <_Unwind_Resume@plt>
    e009:	0f 1f 80 00 00 00 00 	nopl   0x0(%rax)

000000000000e010 <_ZNSt8_Rb_treeIcSt4pairIKcN6GetOpt10OptionDataEESt10_Select1stIS4_ESt4lessIcESaIS4_EE22_M_emplace_hint_uniqueIIRKSt21piecewise_construct_tSt5tupleIIRS1_EESF_IIEEEEESt17_Rb_tree_iteratorIS4_ESt23_Rb_tree_const_iteratorIS4_EDpOT_>:
    e010:	55                   	push   %rbp
    e011:	48 89 e5             	mov    %rsp,%rbp
    e014:	41 57                	push   %r15
    e016:	41 56                	push   %r14
    e018:	41 55                	push   %r13
    e01a:	41 54                	push   %r12
    e01c:	53                   	push   %rbx
    e01d:	48 81 ec 48 10 00 00 	sub    $0x1048,%rsp
    e024:	48 83 0c 24 00       	orq    $0x0,(%rsp)
    e029:	48 81 c4 20 10 00 00 	add    $0x1020,%rsp
    e030:	49 89 cc             	mov    %rcx,%r12
    e033:	49 89 fe             	mov    %rdi,%r14
    e036:	bf 38 00 00 00       	mov    $0x38,%edi
    e03b:	48 89 f3             	mov    %rsi,%rbx
    e03e:	e8 2d 51 ff ff       	callq  3170 <_Znwm@plt>
    e043:	49 89 c7             	mov    %rax,%r15
    e046:	49 8b 04 24          	mov    (%r12),%rax
    e04a:	49 8d 4e 08          	lea    0x8(%r14),%rcx
    e04e:	48 39 d9             	cmp    %rbx,%rcx
    e051:	44 0f b6 00          	movzbl (%rax),%r8d
    e055:	41 c7 47 28 00 00 00 	movl   $0x0,0x28(%r15)
    e05c:	00 
    e05d:	45 88 47 20          	mov    %r8b,0x20(%r15)
    e061:	0f 84 11 01 00 00    	je     e178 <_ZNSt8_Rb_treeIcSt4pairIKcN6GetOpt10OptionDataEESt10_Select1stIS4_ESt4lessIcESaIS4_EE22_M_emplace_hint_uniqueIIRKSt21piecewise_construct_tSt5tupleIIRS1_EESF_IIEEEEESt17_Rb_tree_iteratorIS4_ESt23_Rb_tree_const_iteratorIS4_EDpOT_+0x168>
    e067:	44 0f b6 63 20       	movzbl 0x20(%rbx),%r12d
    e06c:	48 89 da             	mov    %rbx,%rdx
    e06f:	45 38 e0             	cmp    %r12b,%r8b
    e072:	0f 8d 90 00 00 00    	jge    e108 <_ZNSt8_Rb_treeIcSt4pairIKcN6GetOpt10OptionDataEESt10_Select1stIS4_ESt4lessIcESaIS4_EE22_M_emplace_hint_uniqueIIRKSt21piecewise_construct_tSt5tupleIIRS1_EESF_IIEEEEESt17_Rb_tree_iteratorIS4_ESt23_Rb_tree_const_iteratorIS4_EDpOT_+0xf8>
    e078:	4d 8b 66 18          	mov    0x18(%r14),%r12
    e07c:	49 39 dc             	cmp    %rbx,%r12
    e07f:	0f 84 db 01 00 00    	je     e260 <_ZNSt8_Rb_treeIcSt4pairIKcN6GetOpt10OptionDataEESt10_Select1stIS4_ESt4lessIcESaIS4_EE22_M_emplace_hint_uniqueIIRKSt21piecewise_construct_tSt5tupleIIRS1_EESF_IIEEEEESt17_Rb_tree_iteratorIS4_ESt23_Rb_tree_const_iteratorIS4_EDpOT_+0x250>
    e085:	48 89 df             	mov    %rbx,%rdi
    e088:	48 89 4d c0          	mov    %rcx,-0x40(%rbp)
    e08c:	44 88 45 cf          	mov    %r8b,-0x31(%rbp)
    e090:	48 89 5d b8          	mov    %rbx,-0x48(%rbp)
    e094:	e8 07 51 ff ff       	callq  31a0 <_ZSt18_Rb_tree_decrementPSt18_Rb_tree_node_base@plt>
    e099:	44 0f b6 45 cf       	movzbl -0x31(%rbp),%r8d
    e09e:	48 8b 4d c0          	mov    -0x40(%rbp),%rcx
    e0a2:	44 3a 40 20          	cmp    0x20(%rax),%r8b
    e0a6:	0f 8e 24 01 00 00    	jle    e1d0 <_ZNSt8_Rb_treeIcSt4pairIKcN6GetOpt10OptionDataEESt10_Select1stIS4_ESt4lessIcESaIS4_EE22_M_emplace_hint_uniqueIIRKSt21piecewise_construct_tSt5tupleIIRS1_EESF_IIEEEEESt17_Rb_tree_iteratorIS4_ESt23_Rb_tree_const_iteratorIS4_EDpOT_+0x1c0>
    e0ac:	48 83 78 18 00       	cmpq   $0x0,0x18(%rax)
    e0b1:	48 8b 55 b8          	mov    -0x48(%rbp),%rdx
    e0b5:	48 0f 44 d0          	cmove  %rax,%rdx
    e0b9:	b8 00 00 00 00       	mov    $0x0,%eax
    e0be:	48 0f 45 c3          	cmovne %rbx,%rax
    e0c2:	48 39 d1             	cmp    %rdx,%rcx
    e0c5:	0f 84 85 01 00 00    	je     e250 <_ZNSt8_Rb_treeIcSt4pairIKcN6GetOpt10OptionDataEESt10_Select1stIS4_ESt4lessIcESaIS4_EE22_M_emplace_hint_uniqueIIRKSt21piecewise_construct_tSt5tupleIIRS1_EESF_IIEEEEESt17_Rb_tree_iteratorIS4_ESt23_Rb_tree_const_iteratorIS4_EDpOT_+0x240>
    e0cb:	48 85 c0             	test   %rax,%rax
    e0ce:	0f 85 7c 01 00 00    	jne    e250 <_ZNSt8_Rb_treeIcSt4pairIKcN6GetOpt10OptionDataEESt10_Select1stIS4_ESt4lessIcESaIS4_EE22_M_emplace_hint_uniqueIIRKSt21piecewise_construct_tSt5tupleIIRS1_EESF_IIEEEEESt17_Rb_tree_iteratorIS4_ESt23_Rb_tree_const_iteratorIS4_EDpOT_+0x240>
    e0d4:	44 0f b6 62 20       	movzbl 0x20(%rdx),%r12d
    e0d9:	31 ff                	xor    %edi,%edi
    e0db:	45 38 e0             	cmp    %r12b,%r8b
    e0de:	40 0f 9c c7          	setl   %dil
    e0e2:	4c 89 fe             	mov    %r15,%rsi
    e0e5:	e8 86 4e ff ff       	callq  2f70 <_ZSt29_Rb_tree_insert_and_rebalancebPSt18_Rb_tree_node_baseS0_RS_@plt>
    e0ea:	49 83 46 28 01       	addq   $0x1,0x28(%r14)
    e0ef:	48 83 c4 28          	add    $0x28,%rsp
    e0f3:	4c 89 f8             	mov    %r15,%rax
    e0f6:	5b                   	pop    %rbx
    e0f7:	41 5c                	pop    %r12
    e0f9:	41 5d                	pop    %r13
    e0fb:	41 5e                	pop    %r14
    e0fd:	41 5f                	pop    %r15
    e0ff:	5d                   	pop    %rbp
    e100:	c3                   	retq   
    e101:	0f 1f 80 00 00 00 00 	nopl   0x0(%rax)
    e108:	7e 4d                	jle    e157 <_ZNSt8_Rb_treeIcSt4pairIKcN6GetOpt10OptionDataEESt10_Select1stIS4_ESt4lessIcESaIS4_EE22_M_emplace_hint_uniqueIIRKSt21piecewise_construct_tSt5tupleIIRS1_EESF_IIEEEEESt17_Rb_tree_iteratorIS4_ESt23_Rb_tree_const_iteratorIS4_EDpOT_+0x147>
    e10a:	49 39 5e 20          	cmp    %rbx,0x20(%r14)
    e10e:	74 c4                	je     e0d4 <_ZNSt8_Rb_treeIcSt4pairIKcN6GetOpt10OptionDataEESt10_Select1stIS4_ESt4lessIcESaIS4_EE22_M_emplace_hint_uniqueIIRKSt21piecewise_construct_tSt5tupleIIRS1_EESF_IIEEEEESt17_Rb_tree_iteratorIS4_ESt23_Rb_tree_const_iteratorIS4_EDpOT_+0xc4>
    e110:	48 89 df             	mov    %rbx,%rdi
    e113:	48 89 4d c0          	mov    %rcx,-0x40(%rbp)
    e117:	44 88 45 cf          	mov    %r8b,-0x31(%rbp)
    e11b:	48 89 5d b8          	mov    %rbx,-0x48(%rbp)
    e11f:	e8 7c 4f ff ff       	callq  30a0 <_ZSt18_Rb_tree_incrementPSt18_Rb_tree_node_base@plt>
    e124:	44 0f b6 45 cf       	movzbl -0x31(%rbp),%r8d
    e129:	48 8b 4d c0          	mov    -0x40(%rbp),%rcx
    e12d:	44 3a 40 20          	cmp    0x20(%rax),%r8b
    e131:	0f 8d 39 01 00 00    	jge    e270 <_ZNSt8_Rb_treeIcSt4pairIKcN6GetOpt10OptionDataEESt10_Select1stIS4_ESt4lessIcESaIS4_EE22_M_emplace_hint_uniqueIIRKSt21piecewise_construct_tSt5tupleIIRS1_EESF_IIEEEEESt17_Rb_tree_iteratorIS4_ESt23_Rb_tree_const_iteratorIS4_EDpOT_+0x260>
    e137:	48 8b 55 b8          	mov    -0x48(%rbp),%rdx
    e13b:	48 83 7a 18 00       	cmpq   $0x0,0x18(%rdx)
    e140:	74 97                	je     e0d9 <_ZNSt8_Rb_treeIcSt4pairIKcN6GetOpt10OptionDataEESt10_Select1stIS4_ESt4lessIcESaIS4_EE22_M_emplace_hint_uniqueIIRKSt21piecewise_construct_tSt5tupleIIRS1_EESF_IIEEEEESt17_Rb_tree_iteratorIS4_ESt23_Rb_tree_const_iteratorIS4_EDpOT_+0xc9>
    e142:	48 89 c2             	mov    %rax,%rdx
    e145:	e9 78 ff ff ff       	jmpq   e0c2 <_ZNSt8_Rb_treeIcSt4pairIKcN6GetOpt10OptionDataEESt10_Select1stIS4_ESt4lessIcESaIS4_EE22_M_emplace_hint_uniqueIIRKSt21piecewise_construct_tSt5tupleIIRS1_EESF_IIEEEEESt17_Rb_tree_iteratorIS4_ESt23_Rb_tree_const_iteratorIS4_EDpOT_+0xb2>
    e14a:	4c 89 e2             	mov    %r12,%rdx
    e14d:	0f 1f 00             	nopl   (%rax)
    e150:	48 85 d2             	test   %rdx,%rdx
    e153:	75 73                	jne    e1c8 <_ZNSt8_Rb_treeIcSt4pairIKcN6GetOpt10OptionDataEESt10_Select1stIS4_ESt4lessIcESaIS4_EE22_M_emplace_hint_uniqueIIRKSt21piecewise_construct_tSt5tupleIIRS1_EESF_IIEEEEESt17_Rb_tree_iteratorIS4_ESt23_Rb_tree_const_iteratorIS4_EDpOT_+0x1b8>
    e155:	31 db                	xor    %ebx,%ebx
    e157:	4c 89 ff             	mov    %r15,%rdi
    e15a:	e8 e1 4f ff ff       	callq  3140 <_ZdlPv@plt>
    e15f:	48 83 c4 28          	add    $0x28,%rsp
    e163:	48 89 d8             	mov    %rbx,%rax
    e166:	5b                   	pop    %rbx
    e167:	41 5c                	pop    %r12
    e169:	41 5d                	pop    %r13
    e16b:	41 5e                	pop    %r14
    e16d:	41 5f                	pop    %r15
    e16f:	5d                   	pop    %rbp
    e170:	c3                   	retq   
    e171:	0f 1f 80 00 00 00 00 	nopl   0x0(%rax)
    e178:	49 83 7e 28 00       	cmpq   $0x0,0x28(%r14)
    e17d:	74 0a                	je     e189 <_ZNSt8_Rb_treeIcSt4pairIKcN6GetOpt10OptionDataEESt10_Select1stIS4_ESt4lessIcESaIS4_EE22_M_emplace_hint_uniqueIIRKSt21piecewise_construct_tSt5tupleIIRS1_EESF_IIEEEEESt17_Rb_tree_iteratorIS4_ESt23_Rb_tree_const_iteratorIS4_EDpOT_+0x179>
    e17f:	49 8b 56 20          	mov    0x20(%r14),%rdx
    e183:	44 3a 42 20          	cmp    0x20(%rdx),%r8b
    e187:	7f 3f                	jg     e1c8 <_ZNSt8_Rb_treeIcSt4pairIKcN6GetOpt10OptionDataEESt10_Select1stIS4_ESt4lessIcESaIS4_EE22_M_emplace_hint_uniqueIIRKSt21piecewise_construct_tSt5tupleIIRS1_EESF_IIEEEEESt17_Rb_tree_iteratorIS4_ESt23_Rb_tree_const_iteratorIS4_EDpOT_+0x1b8>
    e189:	4d 8b 66 10          	mov    0x10(%r14),%r12
    e18d:	4d 85 e4             	test   %r12,%r12
    e190:	75 1f                	jne    e1b1 <_ZNSt8_Rb_treeIcSt4pairIKcN6GetOpt10OptionDataEESt10_Select1stIS4_ESt4lessIcESaIS4_EE22_M_emplace_hint_uniqueIIRKSt21piecewise_construct_tSt5tupleIIRS1_EESF_IIEEEEESt17_Rb_tree_iteratorIS4_ESt23_Rb_tree_const_iteratorIS4_EDpOT_+0x1a1>
    e192:	e9 39 01 00 00       	jmpq   e2d0 <_ZNSt8_Rb_treeIcSt4pairIKcN6GetOpt10OptionDataEESt10_Select1stIS4_ESt4lessIcESaIS4_EE22_M_emplace_hint_uniqueIIRKSt21piecewise_construct_tSt5tupleIIRS1_EESF_IIEEEEESt17_Rb_tree_iteratorIS4_ESt23_Rb_tree_const_iteratorIS4_EDpOT_+0x2c0>
    e197:	66 0f 1f 84 00 00 00 	nopw   0x0(%rax,%rax,1)
    e19e:	00 00 
    e1a0:	49 8b 44 24 10       	mov    0x10(%r12),%rax
    e1a5:	48 85 c0             	test   %rax,%rax
    e1a8:	0f 84 02 01 00 00    	je     e2b0 <_ZNSt8_Rb_treeIcSt4pairIKcN6GetOpt10OptionDataEESt10_Select1stIS4_ESt4lessIcESaIS4_EE22_M_emplace_hint_uniqueIIRKSt21piecewise_construct_tSt5tupleIIRS1_EESF_IIEEEEESt17_Rb_tree_iteratorIS4_ESt23_Rb_tree_const_iteratorIS4_EDpOT_+0x2a0>
    e1ae:	49 89 c4             	mov    %rax,%r12
    e1b1:	41 0f b6 74 24 20    	movzbl 0x20(%r12),%esi
    e1b7:	41 38 f0             	cmp    %sil,%r8b
    e1ba:	7c e4                	jl     e1a0 <_ZNSt8_Rb_treeIcSt4pairIKcN6GetOpt10OptionDataEESt10_Select1stIS4_ESt4lessIcESaIS4_EE22_M_emplace_hint_uniqueIIRKSt21piecewise_construct_tSt5tupleIIRS1_EESF_IIEEEEESt17_Rb_tree_iteratorIS4_ESt23_Rb_tree_const_iteratorIS4_EDpOT_+0x190>
    e1bc:	49 8b 44 24 18       	mov    0x18(%r12),%rax
    e1c1:	eb e2                	jmp    e1a5 <_ZNSt8_Rb_treeIcSt4pairIKcN6GetOpt10OptionDataEESt10_Select1stIS4_ESt4lessIcESaIS4_EE22_M_emplace_hint_uniqueIIRKSt21piecewise_construct_tSt5tupleIIRS1_EESF_IIEEEEESt17_Rb_tree_iteratorIS4_ESt23_Rb_tree_const_iteratorIS4_EDpOT_+0x195>
    e1c3:	0f 1f 44 00 00       	nopl   0x0(%rax,%rax,1)
    e1c8:	31 c0                	xor    %eax,%eax
    e1ca:	e9 f3 fe ff ff       	jmpq   e0c2 <_ZNSt8_Rb_treeIcSt4pairIKcN6GetOpt10OptionDataEESt10_Select1stIS4_ESt4lessIcESaIS4_EE22_M_emplace_hint_uniqueIIRKSt21piecewise_construct_tSt5tupleIIRS1_EESF_IIEEEEESt17_Rb_tree_iteratorIS4_ESt23_Rb_tree_const_iteratorIS4_EDpOT_+0xb2>
    e1cf:	90                   	nop
    e1d0:	49 8b 5e 10          	mov    0x10(%r14),%rbx
    e1d4:	48 85 db             	test   %rbx,%rbx
    e1d7:	75 13                	jne    e1ec <_ZNSt8_Rb_treeIcSt4pairIKcN6GetOpt10OptionDataEESt10_Select1stIS4_ESt4lessIcESaIS4_EE22_M_emplace_hint_uniqueIIRKSt21piecewise_construct_tSt5tupleIIRS1_EESF_IIEEEEESt17_Rb_tree_iteratorIS4_ESt23_Rb_tree_const_iteratorIS4_EDpOT_+0x1dc>
    e1d9:	eb 3b                	jmp    e216 <_ZNSt8_Rb_treeIcSt4pairIKcN6GetOpt10OptionDataEESt10_Select1stIS4_ESt4lessIcESaIS4_EE22_M_emplace_hint_uniqueIIRKSt21piecewise_construct_tSt5tupleIIRS1_EESF_IIEEEEESt17_Rb_tree_iteratorIS4_ESt23_Rb_tree_const_iteratorIS4_EDpOT_+0x206>
    e1db:	0f 1f 44 00 00       	nopl   0x0(%rax,%rax,1)
    e1e0:	48 8b 43 10          	mov    0x10(%rbx),%rax
    e1e4:	48 85 c0             	test   %rax,%rax
    e1e7:	74 17                	je     e200 <_ZNSt8_Rb_treeIcSt4pairIKcN6GetOpt10OptionDataEESt10_Select1stIS4_ESt4lessIcESaIS4_EE22_M_emplace_hint_uniqueIIRKSt21piecewise_construct_tSt5tupleIIRS1_EESF_IIEEEEESt17_Rb_tree_iteratorIS4_ESt23_Rb_tree_const_iteratorIS4_EDpOT_+0x1f0>
    e1e9:	48 89 c3             	mov    %rax,%rbx
    e1ec:	0f b6 73 20          	movzbl 0x20(%rbx),%esi
    e1f0:	41 38 f0             	cmp    %sil,%r8b
    e1f3:	7c eb                	jl     e1e0 <_ZNSt8_Rb_treeIcSt4pairIKcN6GetOpt10OptionDataEESt10_Select1stIS4_ESt4lessIcESaIS4_EE22_M_emplace_hint_uniqueIIRKSt21piecewise_construct_tSt5tupleIIRS1_EESF_IIEEEEESt17_Rb_tree_iteratorIS4_ESt23_Rb_tree_const_iteratorIS4_EDpOT_+0x1d0>
    e1f5:	48 8b 43 18          	mov    0x18(%rbx),%rax
    e1f9:	eb e9                	jmp    e1e4 <_ZNSt8_Rb_treeIcSt4pairIKcN6GetOpt10OptionDataEESt10_Select1stIS4_ESt4lessIcESaIS4_EE22_M_emplace_hint_uniqueIIRKSt21piecewise_construct_tSt5tupleIIRS1_EESF_IIEEEEESt17_Rb_tree_iteratorIS4_ESt23_Rb_tree_const_iteratorIS4_EDpOT_+0x1d4>
    e1fb:	0f 1f 44 00 00       	nopl   0x0(%rax,%rax,1)
    e200:	41 38 f0             	cmp    %sil,%r8b
    e203:	48 89 da             	mov    %rbx,%rdx
    e206:	7c 18                	jl     e220 <_ZNSt8_Rb_treeIcSt4pairIKcN6GetOpt10OptionDataEESt10_Select1stIS4_ESt4lessIcESaIS4_EE22_M_emplace_hint_uniqueIIRKSt21piecewise_construct_tSt5tupleIIRS1_EESF_IIEEEEESt17_Rb_tree_iteratorIS4_ESt23_Rb_tree_const_iteratorIS4_EDpOT_+0x210>
    e208:	41 38 f0             	cmp    %sil,%r8b
    e20b:	0f 8e 46 ff ff ff    	jle    e157 <_ZNSt8_Rb_treeIcSt4pairIKcN6GetOpt10OptionDataEESt10_Select1stIS4_ESt4lessIcESaIS4_EE22_M_emplace_hint_uniqueIIRKSt21piecewise_construct_tSt5tupleIIRS1_EESF_IIEEEEESt17_Rb_tree_iteratorIS4_ESt23_Rb_tree_const_iteratorIS4_EDpOT_+0x147>
    e211:	e9 3a ff ff ff       	jmpq   e150 <_ZNSt8_Rb_treeIcSt4pairIKcN6GetOpt10OptionDataEESt10_Select1stIS4_ESt4lessIcESaIS4_EE22_M_emplace_hint_uniqueIIRKSt21piecewise_construct_tSt5tupleIIRS1_EESF_IIEEEEESt17_Rb_tree_iteratorIS4_ESt23_Rb_tree_const_iteratorIS4_EDpOT_+0x140>
    e216:	48 89 cb             	mov    %rcx,%rbx
    e219:	0f 1f 80 00 00 00 00 	nopl   0x0(%rax)
    e220:	49 39 dc             	cmp    %rbx,%r12
    e223:	0f 84 21 ff ff ff    	je     e14a <_ZNSt8_Rb_treeIcSt4pairIKcN6GetOpt10OptionDataEESt10_Select1stIS4_ESt4lessIcESaIS4_EE22_M_emplace_hint_uniqueIIRKSt21piecewise_construct_tSt5tupleIIRS1_EESF_IIEEEEESt17_Rb_tree_iteratorIS4_ESt23_Rb_tree_const_iteratorIS4_EDpOT_+0x13a>
    e229:	48 89 df             	mov    %rbx,%rdi
    e22c:	48 89 4d c0          	mov    %rcx,-0x40(%rbp)
    e230:	44 88 45 cf          	mov    %r8b,-0x31(%rbp)
    e234:	e8 67 4f ff ff       	callq  31a0 <_ZSt18_Rb_tree_decrementPSt18_Rb_tree_node_base@plt>
    e239:	48 89 da             	mov    %rbx,%rdx
    e23c:	0f b6 70 20          	movzbl 0x20(%rax),%esi
    e240:	48 89 c3             	mov    %rax,%rbx
    e243:	48 8b 4d c0          	mov    -0x40(%rbp),%rcx
    e247:	44 0f b6 45 cf       	movzbl -0x31(%rbp),%r8d
    e24c:	eb ba                	jmp    e208 <_ZNSt8_Rb_treeIcSt4pairIKcN6GetOpt10OptionDataEESt10_Select1stIS4_ESt4lessIcESaIS4_EE22_M_emplace_hint_uniqueIIRKSt21piecewise_construct_tSt5tupleIIRS1_EESF_IIEEEEESt17_Rb_tree_iteratorIS4_ESt23_Rb_tree_const_iteratorIS4_EDpOT_+0x1f8>
    e24e:	66 90                	xchg   %ax,%ax
    e250:	bf 01 00 00 00       	mov    $0x1,%edi
    e255:	e9 88 fe ff ff       	jmpq   e0e2 <_ZNSt8_Rb_treeIcSt4pairIKcN6GetOpt10OptionDataEESt10_Select1stIS4_ESt4lessIcESaIS4_EE22_M_emplace_hint_uniqueIIRKSt21piecewise_construct_tSt5tupleIIRS1_EESF_IIEEEEESt17_Rb_tree_iteratorIS4_ESt23_Rb_tree_const_iteratorIS4_EDpOT_+0xd2>
    e25a:	66 0f 1f 44 00 00    	nopw   0x0(%rax,%rax,1)
    e260:	48 89 d8             	mov    %rbx,%rax
    e263:	e9 5a fe ff ff       	jmpq   e0c2 <_ZNSt8_Rb_treeIcSt4pairIKcN6GetOpt10OptionDataEESt10_Select1stIS4_ESt4lessIcESaIS4_EE22_M_emplace_hint_uniqueIIRKSt21piecewise_construct_tSt5tupleIIRS1_EESF_IIEEEEESt17_Rb_tree_iteratorIS4_ESt23_Rb_tree_const_iteratorIS4_EDpOT_+0xb2>
    e268:	0f 1f 84 00 00 00 00 	nopl   0x0(%rax,%rax,1)
    e26f:	00 
    e270:	4d 8b 6e 10          	mov    0x10(%r14),%r13
    e274:	4d 85 ed             	test   %r13,%r13
    e277:	75 13                	jne    e28c <_ZNSt8_Rb_treeIcSt4pairIKcN6GetOpt10OptionDataEESt10_Select1stIS4_ESt4lessIcESaIS4_EE22_M_emplace_hint_uniqueIIRKSt21piecewise_construct_tSt5tupleIIRS1_EESF_IIEEEEESt17_Rb_tree_iteratorIS4_ESt23_Rb_tree_const_iteratorIS4_EDpOT_+0x27c>
    e279:	e9 84 00 00 00       	jmpq   e302 <_ZNSt8_Rb_treeIcSt4pairIKcN6GetOpt10OptionDataEESt10_Select1stIS4_ESt4lessIcESaIS4_EE22_M_emplace_hint_uniqueIIRKSt21piecewise_construct_tSt5tupleIIRS1_EESF_IIEEEEESt17_Rb_tree_iteratorIS4_ESt23_Rb_tree_const_iteratorIS4_EDpOT_+0x2f2>
    e27e:	66 90                	xchg   %ax,%ax
    e280:	49 8b 45 10          	mov    0x10(%r13),%rax
    e284:	48 85 c0             	test   %rax,%rax
    e287:	74 17                	je     e2a0 <_ZNSt8_Rb_treeIcSt4pairIKcN6GetOpt10OptionDataEESt10_Select1stIS4_ESt4lessIcESaIS4_EE22_M_emplace_hint_uniqueIIRKSt21piecewise_construct_tSt5tupleIIRS1_EESF_IIEEEEESt17_Rb_tree_iteratorIS4_ESt23_Rb_tree_const_iteratorIS4_EDpOT_+0x290>
    e289:	49 89 c5             	mov    %rax,%r13
    e28c:	41 0f b6 75 20       	movzbl 0x20(%r13),%esi
    e291:	41 38 f0             	cmp    %sil,%r8b
    e294:	7c ea                	jl     e280 <_ZNSt8_Rb_treeIcSt4pairIKcN6GetOpt10OptionDataEESt10_Select1stIS4_ESt4lessIcESaIS4_EE22_M_emplace_hint_uniqueIIRKSt21piecewise_construct_tSt5tupleIIRS1_EESF_IIEEEEESt17_Rb_tree_iteratorIS4_ESt23_Rb_tree_const_iteratorIS4_EDpOT_+0x270>
    e296:	49 8b 45 18          	mov    0x18(%r13),%rax
    e29a:	eb e8                	jmp    e284 <_ZNSt8_Rb_treeIcSt4pairIKcN6GetOpt10OptionDataEESt10_Select1stIS4_ESt4lessIcESaIS4_EE22_M_emplace_hint_uniqueIIRKSt21piecewise_construct_tSt5tupleIIRS1_EESF_IIEEEEESt17_Rb_tree_iteratorIS4_ESt23_Rb_tree_const_iteratorIS4_EDpOT_+0x274>
    e29c:	0f 1f 40 00          	nopl   0x0(%rax)
    e2a0:	41 38 f0             	cmp    %sil,%r8b
    e2a3:	4c 89 ea             	mov    %r13,%rdx
    e2a6:	7c 60                	jl     e308 <_ZNSt8_Rb_treeIcSt4pairIKcN6GetOpt10OptionDataEESt10_Select1stIS4_ESt4lessIcESaIS4_EE22_M_emplace_hint_uniqueIIRKSt21piecewise_construct_tSt5tupleIIRS1_EESF_IIEEEEESt17_Rb_tree_iteratorIS4_ESt23_Rb_tree_const_iteratorIS4_EDpOT_+0x2f8>
    e2a8:	4c 89 eb             	mov    %r13,%rbx
    e2ab:	e9 58 ff ff ff       	jmpq   e208 <_ZNSt8_Rb_treeIcSt4pairIKcN6GetOpt10OptionDataEESt10_Select1stIS4_ESt4lessIcESaIS4_EE22_M_emplace_hint_uniqueIIRKSt21piecewise_construct_tSt5tupleIIRS1_EESF_IIEEEEESt17_Rb_tree_iteratorIS4_ESt23_Rb_tree_const_iteratorIS4_EDpOT_+0x1f8>
    e2b0:	41 38 f0             	cmp    %sil,%r8b
    e2b3:	4c 89 e2             	mov    %r12,%rdx
    e2b6:	7c 1b                	jl     e2d3 <_ZNSt8_Rb_treeIcSt4pairIKcN6GetOpt10OptionDataEESt10_Select1stIS4_ESt4lessIcESaIS4_EE22_M_emplace_hint_uniqueIIRKSt21piecewise_construct_tSt5tupleIIRS1_EESF_IIEEEEESt17_Rb_tree_iteratorIS4_ESt23_Rb_tree_const_iteratorIS4_EDpOT_+0x2c3>
    e2b8:	41 38 f0             	cmp    %sil,%r8b
    e2bb:	4c 89 e3             	mov    %r12,%rbx
    e2be:	0f 8e 93 fe ff ff    	jle    e157 <_ZNSt8_Rb_treeIcSt4pairIKcN6GetOpt10OptionDataEESt10_Select1stIS4_ESt4lessIcESaIS4_EE22_M_emplace_hint_uniqueIIRKSt21piecewise_construct_tSt5tupleIIRS1_EESF_IIEEEEESt17_Rb_tree_iteratorIS4_ESt23_Rb_tree_const_iteratorIS4_EDpOT_+0x147>
    e2c4:	e9 87 fe ff ff       	jmpq   e150 <_ZNSt8_Rb_treeIcSt4pairIKcN6GetOpt10OptionDataEESt10_Select1stIS4_ESt4lessIcESaIS4_EE22_M_emplace_hint_uniqueIIRKSt21piecewise_construct_tSt5tupleIIRS1_EESF_IIEEEEESt17_Rb_tree_iteratorIS4_ESt23_Rb_tree_const_iteratorIS4_EDpOT_+0x140>
    e2c9:	0f 1f 80 00 00 00 00 	nopl   0x0(%rax)
    e2d0:	49 89 cc             	mov    %rcx,%r12
    e2d3:	4d 39 66 18          	cmp    %r12,0x18(%r14)
    e2d7:	0f 84 6d fe ff ff    	je     e14a <_ZNSt8_Rb_treeIcSt4pairIKcN6GetOpt10OptionDataEESt10_Select1stIS4_ESt4lessIcESaIS4_EE22_M_emplace_hint_uniqueIIRKSt21piecewise_construct_tSt5tupleIIRS1_EESF_IIEEEEESt17_Rb_tree_iteratorIS4_ESt23_Rb_tree_const_iteratorIS4_EDpOT_+0x13a>
    e2dd:	4c 89 e7             	mov    %r12,%rdi
    e2e0:	48 89 4d c0          	mov    %rcx,-0x40(%rbp)
    e2e4:	44 88 45 cf          	mov    %r8b,-0x31(%rbp)
    e2e8:	e8 b3 4e ff ff       	callq  31a0 <_ZSt18_Rb_tree_decrementPSt18_Rb_tree_node_base@plt>
    e2ed:	4c 89 e2             	mov    %r12,%rdx
    e2f0:	0f b6 70 20          	movzbl 0x20(%rax),%esi
    e2f4:	49 89 c4             	mov    %rax,%r12
    e2f7:	48 8b 4d c0          	mov    -0x40(%rbp),%rcx
    e2fb:	44 0f b6 45 cf       	movzbl -0x31(%rbp),%r8d
    e300:	eb b6                	jmp    e2b8 <_ZNSt8_Rb_treeIcSt4pairIKcN6GetOpt10OptionDataEESt10_Select1stIS4_ESt4lessIcESaIS4_EE22_M_emplace_hint_uniqueIIRKSt21piecewise_construct_tSt5tupleIIRS1_EESF_IIEEEEESt17_Rb_tree_iteratorIS4_ESt23_Rb_tree_const_iteratorIS4_EDpOT_+0x2a8>
    e302:	49 89 cd             	mov    %rcx,%r13
    e305:	0f 1f 00             	nopl   (%rax)
    e308:	4d 39 6e 18          	cmp    %r13,0x18(%r14)
    e30c:	74 28                	je     e336 <_ZNSt8_Rb_treeIcSt4pairIKcN6GetOpt10OptionDataEESt10_Select1stIS4_ESt4lessIcESaIS4_EE22_M_emplace_hint_uniqueIIRKSt21piecewise_construct_tSt5tupleIIRS1_EESF_IIEEEEESt17_Rb_tree_iteratorIS4_ESt23_Rb_tree_const_iteratorIS4_EDpOT_+0x326>
    e30e:	4c 89 ef             	mov    %r13,%rdi
    e311:	48 89 4d c0          	mov    %rcx,-0x40(%rbp)
    e315:	44 88 45 cf          	mov    %r8b,-0x31(%rbp)
    e319:	e8 82 4e ff ff       	callq  31a0 <_ZSt18_Rb_tree_decrementPSt18_Rb_tree_node_base@plt>
    e31e:	4c 89 ea             	mov    %r13,%rdx
    e321:	0f b6 70 20          	movzbl 0x20(%rax),%esi
    e325:	49 89 c5             	mov    %rax,%r13
    e328:	48 8b 4d c0          	mov    -0x40(%rbp),%rcx
    e32c:	44 0f b6 45 cf       	movzbl -0x31(%rbp),%r8d
    e331:	e9 72 ff ff ff       	jmpq   e2a8 <_ZNSt8_Rb_treeIcSt4pairIKcN6GetOpt10OptionDataEESt10_Select1stIS4_ESt4lessIcESaIS4_EE22_M_emplace_hint_uniqueIIRKSt21piecewise_construct_tSt5tupleIIRS1_EESF_IIEEEEESt17_Rb_tree_iteratorIS4_ESt23_Rb_tree_const_iteratorIS4_EDpOT_+0x298>
    e336:	4c 89 ea             	mov    %r13,%rdx
    e339:	e9 12 fe ff ff       	jmpq   e150 <_ZNSt8_Rb_treeIcSt4pairIKcN6GetOpt10OptionDataEESt10_Select1stIS4_ESt4lessIcESaIS4_EE22_M_emplace_hint_uniqueIIRKSt21piecewise_construct_tSt5tupleIIRS1_EESF_IIEEEEESt17_Rb_tree_iteratorIS4_ESt23_Rb_tree_const_iteratorIS4_EDpOT_+0x140>
    e33e:	66 90                	xchg   %ax,%ax

000000000000e340 <_ZNSt8_Rb_treeIcSt4pairIKcN6GetOpt10OptionDataEESt10_Select1stIS4_ESt4lessIcESaIS4_EE29_M_get_insert_hint_unique_posESt23_Rb_tree_const_iteratorIS4_ERS1_>:
    e340:	55                   	push   %rbp
    e341:	48 89 e5             	mov    %rsp,%rbp
    e344:	41 57                	push   %r15
    e346:	41 56                	push   %r14
    e348:	41 55                	push   %r13
    e34a:	41 54                	push   %r12
    e34c:	53                   	push   %rbx
    e34d:	48 81 ec 38 10 00 00 	sub    $0x1038,%rsp
    e354:	48 83 0c 24 00       	orq    $0x0,(%rsp)
    e359:	48 81 c4 20 10 00 00 	add    $0x1020,%rsp
    e360:	4c 8d 6f 08          	lea    0x8(%rdi),%r13
    e364:	49 89 fe             	mov    %rdi,%r14
    e367:	49 89 f4             	mov    %rsi,%r12
    e36a:	4c 39 ee             	cmp    %r13,%rsi
    e36d:	0f 84 c5 00 00 00    	je     e438 <_ZNSt8_Rb_treeIcSt4pairIKcN6GetOpt10OptionDataEESt10_Select1stIS4_ESt4lessIcESaIS4_EE29_M_get_insert_hint_unique_posESt23_Rb_tree_const_iteratorIS4_ERS1_+0xf8>
    e373:	44 0f b6 3a          	movzbl (%rdx),%r15d
    e377:	44 3a 7e 20          	cmp    0x20(%rsi),%r15b
    e37b:	7d 53                	jge    e3d0 <_ZNSt8_Rb_treeIcSt4pairIKcN6GetOpt10OptionDataEESt10_Select1stIS4_ESt4lessIcESaIS4_EE29_M_get_insert_hint_unique_posESt23_Rb_tree_const_iteratorIS4_ERS1_+0x90>
    e37d:	48 8b 77 18          	mov    0x18(%rdi),%rsi
    e381:	4c 39 e6             	cmp    %r12,%rsi
    e384:	48 89 f0             	mov    %rsi,%rax
    e387:	48 89 f2             	mov    %rsi,%rdx
    e38a:	74 32                	je     e3be <_ZNSt8_Rb_treeIcSt4pairIKcN6GetOpt10OptionDataEESt10_Select1stIS4_ESt4lessIcESaIS4_EE29_M_get_insert_hint_unique_posESt23_Rb_tree_const_iteratorIS4_ERS1_+0x7e>
    e38c:	4c 89 e7             	mov    %r12,%rdi
    e38f:	48 89 75 c8          	mov    %rsi,-0x38(%rbp)
    e393:	e8 08 4e ff ff       	callq  31a0 <_ZSt18_Rb_tree_decrementPSt18_Rb_tree_node_base@plt>
    e398:	44 3a 78 20          	cmp    0x20(%rax),%r15b
    e39c:	48 89 c2             	mov    %rax,%rdx
    e39f:	48 8b 75 c8          	mov    -0x38(%rbp),%rsi
    e3a3:	0f 8e ef 00 00 00    	jle    e498 <_ZNSt8_Rb_treeIcSt4pairIKcN6GetOpt10OptionDataEESt10_Select1stIS4_ESt4lessIcESaIS4_EE29_M_get_insert_hint_unique_posESt23_Rb_tree_const_iteratorIS4_ERS1_+0x158>
    e3a9:	48 83 78 18 00       	cmpq   $0x0,0x18(%rax)
    e3ae:	bb 00 00 00 00       	mov    $0x0,%ebx
    e3b3:	48 89 d8             	mov    %rbx,%rax
    e3b6:	49 0f 45 c4          	cmovne %r12,%rax
    e3ba:	49 0f 45 d4          	cmovne %r12,%rdx
    e3be:	48 83 c4 18          	add    $0x18,%rsp
    e3c2:	5b                   	pop    %rbx
    e3c3:	41 5c                	pop    %r12
    e3c5:	41 5d                	pop    %r13
    e3c7:	41 5e                	pop    %r14
    e3c9:	41 5f                	pop    %r15
    e3cb:	5d                   	pop    %rbp
    e3cc:	c3                   	retq   
    e3cd:	0f 1f 00             	nopl   (%rax)
    e3d0:	7e 4e                	jle    e420 <_ZNSt8_Rb_treeIcSt4pairIKcN6GetOpt10OptionDataEESt10_Select1stIS4_ESt4lessIcESaIS4_EE29_M_get_insert_hint_unique_posESt23_Rb_tree_const_iteratorIS4_ERS1_+0xe0>
    e3d2:	48 8b 57 20          	mov    0x20(%rdi),%rdx
    e3d6:	48 39 f2             	cmp    %rsi,%rdx
    e3d9:	0f 84 29 01 00 00    	je     e508 <_ZNSt8_Rb_treeIcSt4pairIKcN6GetOpt10OptionDataEESt10_Select1stIS4_ESt4lessIcESaIS4_EE29_M_get_insert_hint_unique_posESt23_Rb_tree_const_iteratorIS4_ERS1_+0x1c8>
    e3df:	48 89 f7             	mov    %rsi,%rdi
    e3e2:	e8 b9 4c ff ff       	callq  30a0 <_ZSt18_Rb_tree_incrementPSt18_Rb_tree_node_base@plt>
    e3e7:	44 3a 78 20          	cmp    0x20(%rax),%r15b
    e3eb:	48 89 c2             	mov    %rax,%rdx
    e3ee:	0f 8d 1c 01 00 00    	jge    e510 <_ZNSt8_Rb_treeIcSt4pairIKcN6GetOpt10OptionDataEESt10_Select1stIS4_ESt4lessIcESaIS4_EE29_M_get_insert_hint_unique_posESt23_Rb_tree_const_iteratorIS4_ERS1_+0x1d0>
    e3f4:	49 83 7c 24 18 00    	cmpq   $0x0,0x18(%r12)
    e3fa:	bb 00 00 00 00       	mov    $0x0,%ebx
    e3ff:	48 89 d8             	mov    %rbx,%rax
    e402:	48 0f 45 c2          	cmovne %rdx,%rax
    e406:	49 0f 44 d4          	cmove  %r12,%rdx
    e40a:	48 83 c4 18          	add    $0x18,%rsp
    e40e:	5b                   	pop    %rbx
    e40f:	41 5c                	pop    %r12
    e411:	41 5d                	pop    %r13
    e413:	41 5e                	pop    %r14
    e415:	41 5f                	pop    %r15
    e417:	5d                   	pop    %rbp
    e418:	c3                   	retq   
    e419:	0f 1f 80 00 00 00 00 	nopl   0x0(%rax)
    e420:	48 83 c4 18          	add    $0x18,%rsp
    e424:	48 89 f0             	mov    %rsi,%rax
    e427:	31 d2                	xor    %edx,%edx
    e429:	5b                   	pop    %rbx
    e42a:	41 5c                	pop    %r12
    e42c:	41 5d                	pop    %r13
    e42e:	41 5e                	pop    %r14
    e430:	41 5f                	pop    %r15
    e432:	5d                   	pop    %rbp
    e433:	c3                   	retq   
    e434:	0f 1f 40 00          	nopl   0x0(%rax)
    e438:	48 83 7f 28 00       	cmpq   $0x0,0x28(%rdi)
    e43d:	74 0c                	je     e44b <_ZNSt8_Rb_treeIcSt4pairIKcN6GetOpt10OptionDataEESt10_Select1stIS4_ESt4lessIcESaIS4_EE29_M_get_insert_hint_unique_posESt23_Rb_tree_const_iteratorIS4_ERS1_+0x10b>
    e43f:	48 8b 77 20          	mov    0x20(%rdi),%rsi
    e443:	0f b6 02             	movzbl (%rdx),%eax
    e446:	38 46 20             	cmp    %al,0x20(%rsi)
    e449:	7c 35                	jl     e480 <_ZNSt8_Rb_treeIcSt4pairIKcN6GetOpt10OptionDataEESt10_Select1stIS4_ESt4lessIcESaIS4_EE29_M_get_insert_hint_unique_posESt23_Rb_tree_const_iteratorIS4_ERS1_+0x140>
    e44b:	49 8b 5e 10          	mov    0x10(%r14),%rbx
    e44f:	48 85 db             	test   %rbx,%rbx
    e452:	0f 84 28 01 00 00    	je     e580 <_ZNSt8_Rb_treeIcSt4pairIKcN6GetOpt10OptionDataEESt10_Select1stIS4_ESt4lessIcESaIS4_EE29_M_get_insert_hint_unique_posESt23_Rb_tree_const_iteratorIS4_ERS1_+0x240>
    e458:	0f b6 32             	movzbl (%rdx),%esi
    e45b:	eb 13                	jmp    e470 <_ZNSt8_Rb_treeIcSt4pairIKcN6GetOpt10OptionDataEESt10_Select1stIS4_ESt4lessIcESaIS4_EE29_M_get_insert_hint_unique_posESt23_Rb_tree_const_iteratorIS4_ERS1_+0x130>
    e45d:	0f 1f 00             	nopl   (%rax)
    e460:	48 8b 43 10          	mov    0x10(%rbx),%rax
    e464:	48 85 c0             	test   %rax,%rax
    e467:	0f 84 f3 00 00 00    	je     e560 <_ZNSt8_Rb_treeIcSt4pairIKcN6GetOpt10OptionDataEESt10_Select1stIS4_ESt4lessIcESaIS4_EE29_M_get_insert_hint_unique_posESt23_Rb_tree_const_iteratorIS4_ERS1_+0x220>
    e46d:	48 89 c3             	mov    %rax,%rbx
    e470:	0f b6 4b 20          	movzbl 0x20(%rbx),%ecx
    e474:	40 38 f1             	cmp    %sil,%cl
    e477:	7f e7                	jg     e460 <_ZNSt8_Rb_treeIcSt4pairIKcN6GetOpt10OptionDataEESt10_Select1stIS4_ESt4lessIcESaIS4_EE29_M_get_insert_hint_unique_posESt23_Rb_tree_const_iteratorIS4_ERS1_+0x120>
    e479:	48 8b 43 18          	mov    0x18(%rbx),%rax
    e47d:	eb e5                	jmp    e464 <_ZNSt8_Rb_treeIcSt4pairIKcN6GetOpt10OptionDataEESt10_Select1stIS4_ESt4lessIcESaIS4_EE29_M_get_insert_hint_unique_posESt23_Rb_tree_const_iteratorIS4_ERS1_+0x124>
    e47f:	90                   	nop
    e480:	31 c0                	xor    %eax,%eax
    e482:	48 83 c4 18          	add    $0x18,%rsp
    e486:	48 89 f2             	mov    %rsi,%rdx
    e489:	5b                   	pop    %rbx
    e48a:	41 5c                	pop    %r12
    e48c:	41 5d                	pop    %r13
    e48e:	41 5e                	pop    %r14
    e490:	41 5f                	pop    %r15
    e492:	5d                   	pop    %rbp
    e493:	c3                   	retq   
    e494:	0f 1f 40 00          	nopl   0x0(%rax)
    e498:	49 8b 5e 10          	mov    0x10(%r14),%rbx
    e49c:	48 85 db             	test   %rbx,%rbx
    e49f:	75 13                	jne    e4b4 <_ZNSt8_Rb_treeIcSt4pairIKcN6GetOpt10OptionDataEESt10_Select1stIS4_ESt4lessIcESaIS4_EE29_M_get_insert_hint_unique_posESt23_Rb_tree_const_iteratorIS4_ERS1_+0x174>
    e4a1:	eb 3f                	jmp    e4e2 <_ZNSt8_Rb_treeIcSt4pairIKcN6GetOpt10OptionDataEESt10_Select1stIS4_ESt4lessIcESaIS4_EE29_M_get_insert_hint_unique_posESt23_Rb_tree_const_iteratorIS4_ERS1_+0x1a2>
    e4a3:	0f 1f 44 00 00       	nopl   0x0(%rax,%rax,1)
    e4a8:	48 8b 43 10          	mov    0x10(%rbx),%rax
    e4ac:	48 85 c0             	test   %rax,%rax
    e4af:	74 17                	je     e4c8 <_ZNSt8_Rb_treeIcSt4pairIKcN6GetOpt10OptionDataEESt10_Select1stIS4_ESt4lessIcESaIS4_EE29_M_get_insert_hint_unique_posESt23_Rb_tree_const_iteratorIS4_ERS1_+0x188>
    e4b1:	48 89 c3             	mov    %rax,%rbx
    e4b4:	0f b6 53 20          	movzbl 0x20(%rbx),%edx
    e4b8:	41 38 d7             	cmp    %dl,%r15b
    e4bb:	7c eb                	jl     e4a8 <_ZNSt8_Rb_treeIcSt4pairIKcN6GetOpt10OptionDataEESt10_Select1stIS4_ESt4lessIcESaIS4_EE29_M_get_insert_hint_unique_posESt23_Rb_tree_const_iteratorIS4_ERS1_+0x168>
    e4bd:	48 8b 43 18          	mov    0x18(%rbx),%rax
    e4c1:	eb e9                	jmp    e4ac <_ZNSt8_Rb_treeIcSt4pairIKcN6GetOpt10OptionDataEESt10_Select1stIS4_ESt4lessIcESaIS4_EE29_M_get_insert_hint_unique_posESt23_Rb_tree_const_iteratorIS4_ERS1_+0x16c>
    e4c3:	0f 1f 44 00 00       	nopl   0x0(%rax,%rax,1)
    e4c8:	41 38 d7             	cmp    %dl,%r15b
    e4cb:	48 89 d9             	mov    %rbx,%rcx
    e4ce:	7c 18                	jl     e4e8 <_ZNSt8_Rb_treeIcSt4pairIKcN6GetOpt10OptionDataEESt10_Select1stIS4_ESt4lessIcESaIS4_EE29_M_get_insert_hint_unique_posESt23_Rb_tree_const_iteratorIS4_ERS1_+0x1a8>
    e4d0:	31 c0                	xor    %eax,%eax
    e4d2:	41 38 d7             	cmp    %dl,%r15b
    e4d5:	48 0f 4e c8          	cmovle %rax,%rcx
    e4d9:	48 0f 4e c3          	cmovle %rbx,%rax
    e4dd:	48 89 ce             	mov    %rcx,%rsi
    e4e0:	eb a0                	jmp    e482 <_ZNSt8_Rb_treeIcSt4pairIKcN6GetOpt10OptionDataEESt10_Select1stIS4_ESt4lessIcESaIS4_EE29_M_get_insert_hint_unique_posESt23_Rb_tree_const_iteratorIS4_ERS1_+0x142>
    e4e2:	4c 89 eb             	mov    %r13,%rbx
    e4e5:	0f 1f 00             	nopl   (%rax)
    e4e8:	48 39 de             	cmp    %rbx,%rsi
    e4eb:	74 93                	je     e480 <_ZNSt8_Rb_treeIcSt4pairIKcN6GetOpt10OptionDataEESt10_Select1stIS4_ESt4lessIcESaIS4_EE29_M_get_insert_hint_unique_posESt23_Rb_tree_const_iteratorIS4_ERS1_+0x140>
    e4ed:	48 89 df             	mov    %rbx,%rdi
    e4f0:	e8 ab 4c ff ff       	callq  31a0 <_ZSt18_Rb_tree_decrementPSt18_Rb_tree_node_base@plt>
    e4f5:	48 89 d9             	mov    %rbx,%rcx
    e4f8:	0f b6 50 20          	movzbl 0x20(%rax),%edx
    e4fc:	48 89 c3             	mov    %rax,%rbx
    e4ff:	eb cf                	jmp    e4d0 <_ZNSt8_Rb_treeIcSt4pairIKcN6GetOpt10OptionDataEESt10_Select1stIS4_ESt4lessIcESaIS4_EE29_M_get_insert_hint_unique_posESt23_Rb_tree_const_iteratorIS4_ERS1_+0x190>
    e501:	0f 1f 80 00 00 00 00 	nopl   0x0(%rax)
    e508:	31 c0                	xor    %eax,%eax
    e50a:	e9 af fe ff ff       	jmpq   e3be <_ZNSt8_Rb_treeIcSt4pairIKcN6GetOpt10OptionDataEESt10_Select1stIS4_ESt4lessIcESaIS4_EE29_M_get_insert_hint_unique_posESt23_Rb_tree_const_iteratorIS4_ERS1_+0x7e>
    e50f:	90                   	nop
    e510:	49 8b 5e 10          	mov    0x10(%r14),%rbx
    e514:	48 85 db             	test   %rbx,%rbx
    e517:	75 13                	jne    e52c <_ZNSt8_Rb_treeIcSt4pairIKcN6GetOpt10OptionDataEESt10_Select1stIS4_ESt4lessIcESaIS4_EE29_M_get_insert_hint_unique_posESt23_Rb_tree_const_iteratorIS4_ERS1_+0x1ec>
    e519:	e9 8d 00 00 00       	jmpq   e5ab <_ZNSt8_Rb_treeIcSt4pairIKcN6GetOpt10OptionDataEESt10_Select1stIS4_ESt4lessIcESaIS4_EE29_M_get_insert_hint_unique_posESt23_Rb_tree_const_iteratorIS4_ERS1_+0x26b>
    e51e:	66 90                	xchg   %ax,%ax
    e520:	48 8b 43 10          	mov    0x10(%rbx),%rax
    e524:	48 85 c0             	test   %rax,%rax
    e527:	74 17                	je     e540 <_ZNSt8_Rb_treeIcSt4pairIKcN6GetOpt10OptionDataEESt10_Select1stIS4_ESt4lessIcESaIS4_EE29_M_get_insert_hint_unique_posESt23_Rb_tree_const_iteratorIS4_ERS1_+0x200>
    e529:	48 89 c3             	mov    %rax,%rbx
    e52c:	0f b6 4b 20          	movzbl 0x20(%rbx),%ecx
    e530:	41 38 cf             	cmp    %cl,%r15b
    e533:	7c eb                	jl     e520 <_ZNSt8_Rb_treeIcSt4pairIKcN6GetOpt10OptionDataEESt10_Select1stIS4_ESt4lessIcESaIS4_EE29_M_get_insert_hint_unique_posESt23_Rb_tree_const_iteratorIS4_ERS1_+0x1e0>
    e535:	48 8b 43 18          	mov    0x18(%rbx),%rax
    e539:	eb e9                	jmp    e524 <_ZNSt8_Rb_treeIcSt4pairIKcN6GetOpt10OptionDataEESt10_Select1stIS4_ESt4lessIcESaIS4_EE29_M_get_insert_hint_unique_posESt23_Rb_tree_const_iteratorIS4_ERS1_+0x1e4>
    e53b:	0f 1f 44 00 00       	nopl   0x0(%rax,%rax,1)
    e540:	41 38 cf             	cmp    %cl,%r15b
    e543:	48 89 da             	mov    %rbx,%rdx
    e546:	7c 68                	jl     e5b0 <_ZNSt8_Rb_treeIcSt4pairIKcN6GetOpt10OptionDataEESt10_Select1stIS4_ESt4lessIcESaIS4_EE29_M_get_insert_hint_unique_posESt23_Rb_tree_const_iteratorIS4_ERS1_+0x270>
    e548:	31 c0                	xor    %eax,%eax
    e54a:	41 38 cf             	cmp    %cl,%r15b
    e54d:	48 0f 4e d0          	cmovle %rax,%rdx
    e551:	48 0f 4e c3          	cmovle %rbx,%rax
    e555:	e9 64 fe ff ff       	jmpq   e3be <_ZNSt8_Rb_treeIcSt4pairIKcN6GetOpt10OptionDataEESt10_Select1stIS4_ESt4lessIcESaIS4_EE29_M_get_insert_hint_unique_posESt23_Rb_tree_const_iteratorIS4_ERS1_+0x7e>
    e55a:	66 0f 1f 44 00 00    	nopw   0x0(%rax,%rax,1)
    e560:	40 38 f1             	cmp    %sil,%cl
    e563:	49 89 dc             	mov    %rbx,%r12
    e566:	7f 1b                	jg     e583 <_ZNSt8_Rb_treeIcSt4pairIKcN6GetOpt10OptionDataEESt10_Select1stIS4_ESt4lessIcESaIS4_EE29_M_get_insert_hint_unique_posESt23_Rb_tree_const_iteratorIS4_ERS1_+0x243>
    e568:	31 c0                	xor    %eax,%eax
    e56a:	40 38 f1             	cmp    %sil,%cl
    e56d:	4c 0f 4d e0          	cmovge %rax,%r12
    e571:	48 0f 4d c3          	cmovge %rbx,%rax
    e575:	4c 89 e2             	mov    %r12,%rdx
    e578:	e9 41 fe ff ff       	jmpq   e3be <_ZNSt8_Rb_treeIcSt4pairIKcN6GetOpt10OptionDataEESt10_Select1stIS4_ESt4lessIcESaIS4_EE29_M_get_insert_hint_unique_posESt23_Rb_tree_const_iteratorIS4_ERS1_+0x7e>
    e57d:	0f 1f 00             	nopl   (%rax)
    e580:	4c 89 e3             	mov    %r12,%rbx
    e583:	4d 8b 66 18          	mov    0x18(%r14),%r12
    e587:	48 89 55 c8          	mov    %rdx,-0x38(%rbp)
    e58b:	49 39 dc             	cmp    %rbx,%r12
    e58e:	74 44                	je     e5d4 <_ZNSt8_Rb_treeIcSt4pairIKcN6GetOpt10OptionDataEESt10_Select1stIS4_ESt4lessIcESaIS4_EE29_M_get_insert_hint_unique_posESt23_Rb_tree_const_iteratorIS4_ERS1_+0x294>
    e590:	48 89 df             	mov    %rbx,%rdi
    e593:	49 89 dc             	mov    %rbx,%r12
    e596:	e8 05 4c ff ff       	callq  31a0 <_ZSt18_Rb_tree_decrementPSt18_Rb_tree_node_base@plt>
    e59b:	48 8b 55 c8          	mov    -0x38(%rbp),%rdx
    e59f:	0f b6 48 20          	movzbl 0x20(%rax),%ecx
    e5a3:	48 89 c3             	mov    %rax,%rbx
    e5a6:	0f b6 32             	movzbl (%rdx),%esi
    e5a9:	eb bd                	jmp    e568 <_ZNSt8_Rb_treeIcSt4pairIKcN6GetOpt10OptionDataEESt10_Select1stIS4_ESt4lessIcESaIS4_EE29_M_get_insert_hint_unique_posESt23_Rb_tree_const_iteratorIS4_ERS1_+0x228>
    e5ab:	4c 89 eb             	mov    %r13,%rbx
    e5ae:	66 90                	xchg   %ax,%ax
    e5b0:	49 8b 56 18          	mov    0x18(%r14),%rdx
    e5b4:	48 39 da             	cmp    %rbx,%rdx
    e5b7:	0f 84 4b ff ff ff    	je     e508 <_ZNSt8_Rb_treeIcSt4pairIKcN6GetOpt10OptionDataEESt10_Select1stIS4_ESt4lessIcESaIS4_EE29_M_get_insert_hint_unique_posESt23_Rb_tree_const_iteratorIS4_ERS1_+0x1c8>
    e5bd:	48 89 df             	mov    %rbx,%rdi
    e5c0:	e8 db 4b ff ff       	callq  31a0 <_ZSt18_Rb_tree_decrementPSt18_Rb_tree_node_base@plt>
    e5c5:	48 89 da             	mov    %rbx,%rdx
    e5c8:	0f b6 48 20          	movzbl 0x20(%rax),%ecx
    e5cc:	48 89 c3             	mov    %rax,%rbx
    e5cf:	e9 74 ff ff ff       	jmpq   e548 <_ZNSt8_Rb_treeIcSt4pairIKcN6GetOpt10OptionDataEESt10_Select1stIS4_ESt4lessIcESaIS4_EE29_M_get_insert_hint_unique_posESt23_Rb_tree_const_iteratorIS4_ERS1_+0x208>
    e5d4:	31 c0                	xor    %eax,%eax
    e5d6:	eb 9d                	jmp    e575 <_ZNSt8_Rb_treeIcSt4pairIKcN6GetOpt10OptionDataEESt10_Select1stIS4_ESt4lessIcESaIS4_EE29_M_get_insert_hint_unique_posESt23_Rb_tree_const_iteratorIS4_ERS1_+0x235>
    e5d8:	0f 1f 84 00 00 00 00 	nopl   0x0(%rax,%rax,1)
    e5df:	00 

000000000000e5e0 <_ZNSt6vectorISsSaISsEE19_M_emplace_back_auxIISsEEEvDpOT_>:
    e5e0:	55                   	push   %rbp
    e5e1:	48 89 e5             	mov    %rsp,%rbp
    e5e4:	41 57                	push   %r15
    e5e6:	41 56                	push   %r14
    e5e8:	41 55                	push   %r13
    e5ea:	41 54                	push   %r12
    e5ec:	53                   	push   %rbx
    e5ed:	48 81 ec 58 10 00 00 	sub    $0x1058,%rsp
    e5f4:	48 83 0c 24 00       	orq    $0x0,(%rsp)
    e5f9:	48 81 c4 20 10 00 00 	add    $0x1020,%rsp
    e600:	49 89 fe             	mov    %rdi,%r14
    e603:	48 8b 3f             	mov    (%rdi),%rdi
    e606:	48 89 f3             	mov    %rsi,%rbx
    e609:	4d 8b 6e 08          	mov    0x8(%r14),%r13
    e60d:	64 48 8b 04 25 28 00 	mov    %fs:0x28,%rax
    e614:	00 00 
    e616:	48 89 45 c8          	mov    %rax,-0x38(%rbp)
    e61a:	31 c0                	xor    %eax,%eax
    e61c:	4c 89 ea             	mov    %r13,%rdx
    e61f:	48 29 fa             	sub    %rdi,%rdx
    e622:	48 89 d0             	mov    %rdx,%rax
    e625:	48 c1 f8 03          	sar    $0x3,%rax
    e629:	48 85 c0             	test   %rax,%rax
    e62c:	0f 84 8e 01 00 00    	je     e7c0 <_ZNSt6vectorISsSaISsEE19_M_emplace_back_auxIISsEEEvDpOT_+0x1e0>
    e632:	48 8d 0c 00          	lea    (%rax,%rax,1),%rcx
    e636:	48 39 c8             	cmp    %rcx,%rax
    e639:	0f 86 91 01 00 00    	jbe    e7d0 <_ZNSt6vectorISsSaISsEE19_M_emplace_back_auxIISsEEEvDpOT_+0x1f0>
    e63f:	49 c7 c4 f8 ff ff ff 	mov    $0xfffffffffffffff8,%r12
    e646:	4c 89 e7             	mov    %r12,%rdi
    e649:	e8 22 4b ff ff       	callq  3170 <_Znwm@plt>
    e64e:	4d 8b 6e 08          	mov    0x8(%r14),%r13
    e652:	49 8b 3e             	mov    (%r14),%rdi
    e655:	49 89 c7             	mov    %rax,%r15
    e658:	4a 8d 04 20          	lea    (%rax,%r12,1),%rax
    e65c:	4d 8d 67 08          	lea    0x8(%r15),%r12
    e660:	4c 89 ea             	mov    %r13,%rdx
    e663:	48 89 45 b8          	mov    %rax,-0x48(%rbp)
    e667:	48 29 fa             	sub    %rdi,%rdx
    e66a:	4c 01 fa             	add    %r15,%rdx
    e66d:	74 10                	je     e67f <_ZNSt6vectorISsSaISsEE19_M_emplace_back_auxIISsEEEvDpOT_+0x9f>
    e66f:	48 8b 03             	mov    (%rbx),%rax
    e672:	48 89 02             	mov    %rax,(%rdx)
    e675:	48 8d 05 7c 5c 20 00 	lea    0x205c7c(%rip),%rax        # 2142f8 <_ZNSs4_Rep20_S_empty_rep_storageE@@GLIBCXX_3.4+0x18>
    e67c:	48 89 03             	mov    %rax,(%rbx)
    e67f:	4c 39 ef             	cmp    %r13,%rdi
    e682:	0f 84 ab 00 00 00    	je     e733 <_ZNSt6vectorISsSaISsEE19_M_emplace_back_auxIISsEEEvDpOT_+0x153>
    e688:	4c 89 f9             	mov    %r15,%rcx
    e68b:	48 89 fa             	mov    %rdi,%rdx
    e68e:	66 90                	xchg   %ax,%ax
    e690:	48 85 c9             	test   %rcx,%rcx
    e693:	74 10                	je     e6a5 <_ZNSt6vectorISsSaISsEE19_M_emplace_back_auxIISsEEEvDpOT_+0xc5>
    e695:	48 8b 32             	mov    (%rdx),%rsi
    e698:	48 8d 05 59 5c 20 00 	lea    0x205c59(%rip),%rax        # 2142f8 <_ZNSs4_Rep20_S_empty_rep_storageE@@GLIBCXX_3.4+0x18>
    e69f:	48 89 31             	mov    %rsi,(%rcx)
    e6a2:	48 89 02             	mov    %rax,(%rdx)
    e6a5:	48 83 c2 08          	add    $0x8,%rdx
    e6a9:	48 83 c1 08          	add    $0x8,%rcx
    e6ad:	4c 39 ea             	cmp    %r13,%rdx
    e6b0:	75 de                	jne    e690 <_ZNSt6vectorISsSaISsEE19_M_emplace_back_auxIISsEEEvDpOT_+0xb0>
    e6b2:	48 8d 5f 08          	lea    0x8(%rdi),%rbx
    e6b6:	4c 89 e8             	mov    %r13,%rax
    e6b9:	4c 8d 45 c7          	lea    -0x39(%rbp),%r8
    e6bd:	48 29 d8             	sub    %rbx,%rax
    e6c0:	48 c1 e8 03          	shr    $0x3,%rax
    e6c4:	48 83 3d 0c 59 20 00 	cmpq   $0x0,0x20590c(%rip)        # 213fd8 <_DYNAMIC+0x240>
    e6cb:	00 
    e6cc:	4d 8d 64 c7 10       	lea    0x10(%r15,%rax,8),%r12
    e6d1:	48 8d 05 08 5c 20 00 	lea    0x205c08(%rip),%rax        # 2142e0 <_ZNSs4_Rep20_S_empty_rep_storageE@@GLIBCXX_3.4>
    e6d8:	75 12                	jne    e6ec <_ZNSt6vectorISsSaISsEE19_M_emplace_back_auxIISsEEEvDpOT_+0x10c>
    e6da:	e9 cd 00 00 00       	jmpq   e7ac <_ZNSt6vectorISsSaISsEE19_M_emplace_back_auxIISsEEEvDpOT_+0x1cc>
    e6df:	90                   	nop
    e6e0:	4c 39 eb             	cmp    %r13,%rbx
    e6e3:	48 89 df             	mov    %rbx,%rdi
    e6e6:	74 48                	je     e730 <_ZNSt6vectorISsSaISsEE19_M_emplace_back_auxIISsEEEvDpOT_+0x150>
    e6e8:	48 83 c3 08          	add    $0x8,%rbx
    e6ec:	48 8b 17             	mov    (%rdi),%rdx
    e6ef:	48 8d 7a e8          	lea    -0x18(%rdx),%rdi
    e6f3:	48 39 c7             	cmp    %rax,%rdi
    e6f6:	74 e8                	je     e6e0 <_ZNSt6vectorISsSaISsEE19_M_emplace_back_auxIISsEEEvDpOT_+0x100>
    e6f8:	be ff ff ff ff       	mov    $0xffffffff,%esi
    e6fd:	f0 0f c1 72 f8       	lock xadd %esi,-0x8(%rdx)
    e702:	85 f6                	test   %esi,%esi
    e704:	7f da                	jg     e6e0 <_ZNSt6vectorISsSaISsEE19_M_emplace_back_auxIISsEEEvDpOT_+0x100>
    e706:	4c 89 c6             	mov    %r8,%rsi
    e709:	48 89 45 a8          	mov    %rax,-0x58(%rbp)
    e70d:	4c 89 45 b0          	mov    %r8,-0x50(%rbp)
    e711:	e8 ca 49 ff ff       	callq  30e0 <_ZNSs4_Rep10_M_destroyERKSaIcE@plt>
    e716:	4c 39 eb             	cmp    %r13,%rbx
    e719:	48 8b 45 a8          	mov    -0x58(%rbp),%rax
    e71d:	4c 8b 45 b0          	mov    -0x50(%rbp),%r8
    e721:	48 89 df             	mov    %rbx,%rdi
    e724:	75 c2                	jne    e6e8 <_ZNSt6vectorISsSaISsEE19_M_emplace_back_auxIISsEEEvDpOT_+0x108>
    e726:	66 2e 0f 1f 84 00 00 	nopw   %cs:0x0(%rax,%rax,1)
    e72d:	00 00 00 
    e730:	49 8b 3e             	mov    (%r14),%rdi
    e733:	48 85 ff             	test   %rdi,%rdi
    e736:	74 05                	je     e73d <_ZNSt6vectorISsSaISsEE19_M_emplace_back_auxIISsEEEvDpOT_+0x15d>
    e738:	e8 03 4a ff ff       	callq  3140 <_ZdlPv@plt>
    e73d:	48 8b 45 b8          	mov    -0x48(%rbp),%rax
    e741:	4d 89 3e             	mov    %r15,(%r14)
    e744:	4d 89 66 08          	mov    %r12,0x8(%r14)
    e748:	49 89 46 10          	mov    %rax,0x10(%r14)
    e74c:	48 8b 45 c8          	mov    -0x38(%rbp),%rax
    e750:	64 48 33 04 25 28 00 	xor    %fs:0x28,%rax
    e757:	00 00 
    e759:	75 70                	jne    e7cb <_ZNSt6vectorISsSaISsEE19_M_emplace_back_auxIISsEEEvDpOT_+0x1eb>
    e75b:	48 83 c4 38          	add    $0x38,%rsp
    e75f:	5b                   	pop    %rbx
    e760:	41 5c                	pop    %r12
    e762:	41 5d                	pop    %r13
    e764:	41 5e                	pop    %r14
    e766:	41 5f                	pop    %r15
    e768:	5d                   	pop    %rbp
    e769:	c3                   	retq   
    e76a:	66 0f 1f 44 00 00    	nopw   0x0(%rax,%rax,1)
    e770:	8b 72 f8             	mov    -0x8(%rdx),%esi
    e773:	44 8d 4e ff          	lea    -0x1(%rsi),%r9d
    e777:	85 f6                	test   %esi,%esi
    e779:	44 89 4a f8          	mov    %r9d,-0x8(%rdx)
    e77d:	7f 21                	jg     e7a0 <_ZNSt6vectorISsSaISsEE19_M_emplace_back_auxIISsEEEvDpOT_+0x1c0>
    e77f:	4c 89 c6             	mov    %r8,%rsi
    e782:	48 89 45 a8          	mov    %rax,-0x58(%rbp)
    e786:	4c 89 45 b0          	mov    %r8,-0x50(%rbp)
    e78a:	e8 51 49 ff ff       	callq  30e0 <_ZNSs4_Rep10_M_destroyERKSaIcE@plt>
    e78f:	4c 8b 45 b0          	mov    -0x50(%rbp),%r8
    e793:	48 8b 45 a8          	mov    -0x58(%rbp),%rax
    e797:	66 0f 1f 84 00 00 00 	nopw   0x0(%rax,%rax,1)
    e79e:	00 00 
    e7a0:	4c 39 eb             	cmp    %r13,%rbx
    e7a3:	48 89 df             	mov    %rbx,%rdi
    e7a6:	74 88                	je     e730 <_ZNSt6vectorISsSaISsEE19_M_emplace_back_auxIISsEEEvDpOT_+0x150>
    e7a8:	48 83 c3 08          	add    $0x8,%rbx
    e7ac:	48 8b 17             	mov    (%rdi),%rdx
    e7af:	48 8d 7a e8          	lea    -0x18(%rdx),%rdi
    e7b3:	48 39 c7             	cmp    %rax,%rdi
    e7b6:	74 e8                	je     e7a0 <_ZNSt6vectorISsSaISsEE19_M_emplace_back_auxIISsEEEvDpOT_+0x1c0>
    e7b8:	eb b6                	jmp    e770 <_ZNSt6vectorISsSaISsEE19_M_emplace_back_auxIISsEEEvDpOT_+0x190>
    e7ba:	66 0f 1f 44 00 00    	nopw   0x0(%rax,%rax,1)
    e7c0:	41 bc 08 00 00 00    	mov    $0x8,%r12d
    e7c6:	e9 7b fe ff ff       	jmpq   e646 <_ZNSt6vectorISsSaISsEE19_M_emplace_back_auxIISsEEEvDpOT_+0x66>
    e7cb:	e8 f0 49 ff ff       	callq  31c0 <__stack_chk_fail@plt>
    e7d0:	48 be ff ff ff ff ff 	movabs $0x1fffffffffffffff,%rsi
    e7d7:	ff ff 1f 
    e7da:	48 39 f1             	cmp    %rsi,%rcx
    e7dd:	0f 87 5c fe ff ff    	ja     e63f <_ZNSt6vectorISsSaISsEE19_M_emplace_back_auxIISsEEEvDpOT_+0x5f>
    e7e3:	48 85 c9             	test   %rcx,%rcx
    e7e6:	75 16                	jne    e7fe <_ZNSt6vectorISsSaISsEE19_M_emplace_back_auxIISsEEEvDpOT_+0x21e>
    e7e8:	41 bc 08 00 00 00    	mov    $0x8,%r12d
    e7ee:	48 c7 45 b8 00 00 00 	movq   $0x0,-0x48(%rbp)
    e7f5:	00 
    e7f6:	45 31 ff             	xor    %r15d,%r15d
    e7f9:	e9 6c fe ff ff       	jmpq   e66a <_ZNSt6vectorISsSaISsEE19_M_emplace_back_auxIISsEEEvDpOT_+0x8a>
    e7fe:	48 c1 e0 04          	shl    $0x4,%rax
    e802:	49 89 c4             	mov    %rax,%r12
    e805:	e9 3c fe ff ff       	jmpq   e646 <_ZNSt6vectorISsSaISsEE19_M_emplace_back_auxIISsEEEvDpOT_+0x66>
    e80a:	66 0f 1f 44 00 00    	nopw   0x0(%rax,%rax,1)

000000000000e810 <_ZN6GetOpt9GetOpt_pp20_argc_argv_to_vectorEiPKPKcRSt6vectorISsSaISsEE>:
    e810:	55                   	push   %rbp
    e811:	48 89 e5             	mov    %rsp,%rbp
    e814:	41 57                	push   %r15
    e816:	41 56                	push   %r14
    e818:	41 55                	push   %r13
    e81a:	41 54                	push   %r12
    e81c:	53                   	push   %rbx
    e81d:	48 81 ec 58 10 00 00 	sub    $0x1058,%rsp
    e824:	48 83 0c 24 00       	orq    $0x0,(%rsp)
    e829:	48 81 c4 20 10 00 00 	add    $0x1020,%rsp
    e830:	64 48 8b 04 25 28 00 	mov    %fs:0x28,%rax
    e837:	00 00 
    e839:	48 89 45 c8          	mov    %rax,-0x38(%rbp)
    e83d:	31 c0                	xor    %eax,%eax
    e83f:	85 ff                	test   %edi,%edi
    e841:	0f 8e b1 00 00 00    	jle    e8f8 <_ZN6GetOpt9GetOpt_pp20_argc_argv_to_vectorEiPKPKcRSt6vectorISsSaISsEE+0xe8>
    e847:	8d 47 ff             	lea    -0x1(%rdi),%eax
    e84a:	48 83 3d 86 57 20 00 	cmpq   $0x0,0x205786(%rip)        # 213fd8 <_DYNAMIC+0x240>
    e851:	00 
    e852:	49 89 d4             	mov    %rdx,%r12
    e855:	48 89 f3             	mov    %rsi,%rbx
    e858:	4c 8d 7d be          	lea    -0x42(%rbp),%r15
    e85c:	4c 8d 6d c0          	lea    -0x40(%rbp),%r13
    e860:	48 8d 44 c6 08       	lea    0x8(%rsi,%rax,8),%rax
    e865:	4c 8d 35 74 5a 20 00 	lea    0x205a74(%rip),%r14        # 2142e0 <_ZNSs4_Rep20_S_empty_rep_storageE@@GLIBCXX_3.4>
    e86c:	48 89 45 a8          	mov    %rax,-0x58(%rbp)
    e870:	48 8d 45 bf          	lea    -0x41(%rbp),%rax
    e874:	48 89 45 a0          	mov    %rax,-0x60(%rbp)
    e878:	75 10                	jne    e88a <_ZN6GetOpt9GetOpt_pp20_argc_argv_to_vectorEiPKPKcRSt6vectorISsSaISsEE+0x7a>
    e87a:	e9 cb 00 00 00       	jmpq   e94a <_ZN6GetOpt9GetOpt_pp20_argc_argv_to_vectorEiPKPKcRSt6vectorISsSaISsEE+0x13a>
    e87f:	90                   	nop
    e880:	48 83 c3 08          	add    $0x8,%rbx
    e884:	48 3b 5d a8          	cmp    -0x58(%rbp),%rbx
    e888:	74 6e                	je     e8f8 <_ZN6GetOpt9GetOpt_pp20_argc_argv_to_vectorEiPKPKcRSt6vectorISsSaISsEE+0xe8>
    e88a:	48 8b 33             	mov    (%rbx),%rsi
    e88d:	4c 89 fa             	mov    %r15,%rdx
    e890:	4c 89 ef             	mov    %r13,%rdi
    e893:	e8 48 49 ff ff       	callq  31e0 <_ZNSsC1EPKcRKSaIcE@plt>
    e898:	49 8b 44 24 08       	mov    0x8(%r12),%rax
    e89d:	49 3b 44 24 10       	cmp    0x10(%r12),%rax
    e8a2:	0f 84 f0 00 00 00    	je     e998 <_ZN6GetOpt9GetOpt_pp20_argc_argv_to_vectorEiPKPKcRSt6vectorISsSaISsEE+0x188>
    e8a8:	48 85 c0             	test   %rax,%rax
    e8ab:	48 8b 55 c0          	mov    -0x40(%rbp),%rdx
    e8af:	74 11                	je     e8c2 <_ZN6GetOpt9GetOpt_pp20_argc_argv_to_vectorEiPKPKcRSt6vectorISsSaISsEE+0xb2>
    e8b1:	48 8d 0d 40 5a 20 00 	lea    0x205a40(%rip),%rcx        # 2142f8 <_ZNSs4_Rep20_S_empty_rep_storageE@@GLIBCXX_3.4+0x18>
    e8b8:	48 89 10             	mov    %rdx,(%rax)
    e8bb:	48 89 4d c0          	mov    %rcx,-0x40(%rbp)
    e8bf:	48 89 ca             	mov    %rcx,%rdx
    e8c2:	48 83 c0 08          	add    $0x8,%rax
    e8c6:	49 89 44 24 08       	mov    %rax,0x8(%r12)
    e8cb:	48 8d 7a e8          	lea    -0x18(%rdx),%rdi
    e8cf:	4c 39 f7             	cmp    %r14,%rdi
    e8d2:	74 ac                	je     e880 <_ZN6GetOpt9GetOpt_pp20_argc_argv_to_vectorEiPKPKcRSt6vectorISsSaISsEE+0x70>
    e8d4:	b8 ff ff ff ff       	mov    $0xffffffff,%eax
    e8d9:	f0 0f c1 42 f8       	lock xadd %eax,-0x8(%rdx)
    e8de:	85 c0                	test   %eax,%eax
    e8e0:	7f 9e                	jg     e880 <_ZN6GetOpt9GetOpt_pp20_argc_argv_to_vectorEiPKPKcRSt6vectorISsSaISsEE+0x70>
    e8e2:	48 8b 75 a0          	mov    -0x60(%rbp),%rsi
    e8e6:	48 83 c3 08          	add    $0x8,%rbx
    e8ea:	e8 f1 47 ff ff       	callq  30e0 <_ZNSs4_Rep10_M_destroyERKSaIcE@plt>
    e8ef:	48 3b 5d a8          	cmp    -0x58(%rbp),%rbx
    e8f3:	75 95                	jne    e88a <_ZN6GetOpt9GetOpt_pp20_argc_argv_to_vectorEiPKPKcRSt6vectorISsSaISsEE+0x7a>
    e8f5:	0f 1f 00             	nopl   (%rax)
    e8f8:	48 8b 45 c8          	mov    -0x38(%rbp),%rax
    e8fc:	64 48 33 04 25 28 00 	xor    %fs:0x28,%rax
    e903:	00 00 
    e905:	0f 85 e7 00 00 00    	jne    e9f2 <_ZN6GetOpt9GetOpt_pp20_argc_argv_to_vectorEiPKPKcRSt6vectorISsSaISsEE+0x1e2>
    e90b:	48 83 c4 38          	add    $0x38,%rsp
    e90f:	5b                   	pop    %rbx
    e910:	41 5c                	pop    %r12
    e912:	41 5d                	pop    %r13
    e914:	41 5e                	pop    %r14
    e916:	41 5f                	pop    %r15
    e918:	5d                   	pop    %rbp
    e919:	c3                   	retq   
    e91a:	66 0f 1f 44 00 00    	nopw   0x0(%rax,%rax,1)
    e920:	8b 42 f8             	mov    -0x8(%rdx),%eax
    e923:	8d 48 ff             	lea    -0x1(%rax),%ecx
    e926:	85 c0                	test   %eax,%eax
    e928:	89 4a f8             	mov    %ecx,-0x8(%rdx)
    e92b:	7f 13                	jg     e940 <_ZN6GetOpt9GetOpt_pp20_argc_argv_to_vectorEiPKPKcRSt6vectorISsSaISsEE+0x130>
    e92d:	48 8b 75 a0          	mov    -0x60(%rbp),%rsi
    e931:	e8 aa 47 ff ff       	callq  30e0 <_ZNSs4_Rep10_M_destroyERKSaIcE@plt>
    e936:	66 2e 0f 1f 84 00 00 	nopw   %cs:0x0(%rax,%rax,1)
    e93d:	00 00 00 
    e940:	48 83 c3 08          	add    $0x8,%rbx
    e944:	48 39 5d a8          	cmp    %rbx,-0x58(%rbp)
    e948:	74 ae                	je     e8f8 <_ZN6GetOpt9GetOpt_pp20_argc_argv_to_vectorEiPKPKcRSt6vectorISsSaISsEE+0xe8>
    e94a:	48 8b 33             	mov    (%rbx),%rsi
    e94d:	4c 89 fa             	mov    %r15,%rdx
    e950:	4c 89 ef             	mov    %r13,%rdi
    e953:	e8 88 48 ff ff       	callq  31e0 <_ZNSsC1EPKcRKSaIcE@plt>
    e958:	49 8b 44 24 08       	mov    0x8(%r12),%rax
    e95d:	49 3b 44 24 10       	cmp    0x10(%r12),%rax
    e962:	74 5c                	je     e9c0 <_ZN6GetOpt9GetOpt_pp20_argc_argv_to_vectorEiPKPKcRSt6vectorISsSaISsEE+0x1b0>
    e964:	48 85 c0             	test   %rax,%rax
    e967:	74 47                	je     e9b0 <_ZN6GetOpt9GetOpt_pp20_argc_argv_to_vectorEiPKPKcRSt6vectorISsSaISsEE+0x1a0>
    e969:	48 8b 55 c0          	mov    -0x40(%rbp),%rdx
    e96d:	48 8d 35 84 59 20 00 	lea    0x205984(%rip),%rsi        # 2142f8 <_ZNSs4_Rep20_S_empty_rep_storageE@@GLIBCXX_3.4+0x18>
    e974:	48 89 10             	mov    %rdx,(%rax)
    e977:	48 89 75 c0          	mov    %rsi,-0x40(%rbp)
    e97b:	48 89 f2             	mov    %rsi,%rdx
    e97e:	48 83 c0 08          	add    $0x8,%rax
    e982:	49 89 44 24 08       	mov    %rax,0x8(%r12)
    e987:	48 8d 7a e8          	lea    -0x18(%rdx),%rdi
    e98b:	4c 39 f7             	cmp    %r14,%rdi
    e98e:	74 b0                	je     e940 <_ZN6GetOpt9GetOpt_pp20_argc_argv_to_vectorEiPKPKcRSt6vectorISsSaISsEE+0x130>
    e990:	eb 8e                	jmp    e920 <_ZN6GetOpt9GetOpt_pp20_argc_argv_to_vectorEiPKPKcRSt6vectorISsSaISsEE+0x110>
    e992:	66 0f 1f 44 00 00    	nopw   0x0(%rax,%rax,1)
    e998:	4c 89 ee             	mov    %r13,%rsi
    e99b:	4c 89 e7             	mov    %r12,%rdi
    e99e:	e8 3d fc ff ff       	callq  e5e0 <_ZNSt6vectorISsSaISsEE19_M_emplace_back_auxIISsEEEvDpOT_>
    e9a3:	48 8b 55 c0          	mov    -0x40(%rbp),%rdx
    e9a7:	e9 1f ff ff ff       	jmpq   e8cb <_ZN6GetOpt9GetOpt_pp20_argc_argv_to_vectorEiPKPKcRSt6vectorISsSaISsEE+0xbb>
    e9ac:	0f 1f 40 00          	nopl   0x0(%rax)
    e9b0:	48 8b 55 c0          	mov    -0x40(%rbp),%rdx
    e9b4:	eb c8                	jmp    e97e <_ZN6GetOpt9GetOpt_pp20_argc_argv_to_vectorEiPKPKcRSt6vectorISsSaISsEE+0x16e>
    e9b6:	66 2e 0f 1f 84 00 00 	nopw   %cs:0x0(%rax,%rax,1)
    e9bd:	00 00 00 
    e9c0:	4c 89 ee             	mov    %r13,%rsi
    e9c3:	4c 89 e7             	mov    %r12,%rdi
    e9c6:	e8 15 fc ff ff       	callq  e5e0 <_ZNSt6vectorISsSaISsEE19_M_emplace_back_auxIISsEEEvDpOT_>
    e9cb:	48 8b 55 c0          	mov    -0x40(%rbp),%rdx
    e9cf:	eb b6                	jmp    e987 <_ZN6GetOpt9GetOpt_pp20_argc_argv_to_vectorEiPKPKcRSt6vectorISsSaISsEE+0x177>
    e9d1:	48 89 c3             	mov    %rax,%rbx
    e9d4:	48 8b 45 c0          	mov    -0x40(%rbp),%rax
    e9d8:	48 8d 78 e8          	lea    -0x18(%rax),%rdi
    e9dc:	4c 39 f7             	cmp    %r14,%rdi
    e9df:	74 09                	je     e9ea <_ZN6GetOpt9GetOpt_pp20_argc_argv_to_vectorEiPKPKcRSt6vectorISsSaISsEE+0x1da>
    e9e1:	48 8d 75 bf          	lea    -0x41(%rbp),%rsi
    e9e5:	e8 76 4a ff ff       	callq  3460 <_ZNSs4_Rep10_M_disposeERKSaIcE.part.2>
    e9ea:	48 89 df             	mov    %rbx,%rdi
    e9ed:	e8 be 49 ff ff       	callq  33b0 <_Unwind_Resume@plt>
    e9f2:	e8 c9 47 ff ff       	callq  31c0 <__stack_chk_fail@plt>
    e9f7:	66 0f 1f 84 00 00 00 	nopw   0x0(%rax,%rax,1)
    e9fe:	00 00 

000000000000ea00 <_ZNSt8_Rb_treeISsSt4pairIKSsN6GetOpt10OptionDataEESt10_Select1stIS4_ESt4lessISsESaIS4_EE24_M_get_insert_unique_posERS1_>:
    ea00:	55                   	push   %rbp
    ea01:	48 89 e5             	mov    %rsp,%rbp
    ea04:	41 57                	push   %r15
    ea06:	41 56                	push   %r14
    ea08:	41 55                	push   %r13
    ea0a:	41 54                	push   %r12
    ea0c:	53                   	push   %rbx
    ea0d:	48 81 ec 48 10 00 00 	sub    $0x1048,%rsp
    ea14:	48 83 0c 24 00       	orq    $0x0,(%rsp)
    ea19:	48 81 c4 20 10 00 00 	add    $0x1020,%rsp
    ea20:	4c 8b 67 10          	mov    0x10(%rdi),%r12
    ea24:	48 89 7d b8          	mov    %rdi,-0x48(%rbp)
    ea28:	48 89 75 c0          	mov    %rsi,-0x40(%rbp)
    ea2c:	48 89 f8             	mov    %rdi,%rax
    ea2f:	48 8d 5f 08          	lea    0x8(%rdi),%rbx
    ea33:	4d 85 e4             	test   %r12,%r12
    ea36:	0f 84 e3 00 00 00    	je     eb1f <_ZNSt8_Rb_treeISsSt4pairIKSsN6GetOpt10OptionDataEESt10_Select1stIS4_ESt4lessISsESaIS4_EE24_M_get_insert_unique_posERS1_+0x11f>
    ea3c:	48 8b 06             	mov    (%rsi),%rax
    ea3f:	48 89 45 c8          	mov    %rax,-0x38(%rbp)
    ea43:	4c 8b 70 e8          	mov    -0x18(%rax),%r14
    ea47:	48 89 c7             	mov    %rax,%rdi
    ea4a:	eb 30                	jmp    ea7c <_ZNSt8_Rb_treeISsSt4pairIKSsN6GetOpt10OptionDataEESt10_Select1stIS4_ESt4lessISsESaIS4_EE24_M_get_insert_unique_posERS1_+0x7c>
    ea4c:	0f 1f 40 00          	nopl   0x0(%rax)
    ea50:	4c 89 f0             	mov    %r14,%rax
    ea53:	4c 29 f8             	sub    %r15,%rax
    ea56:	48 3d ff ff ff 7f    	cmp    $0x7fffffff,%rax
    ea5c:	7f 44                	jg     eaa2 <_ZNSt8_Rb_treeISsSt4pairIKSsN6GetOpt10OptionDataEESt10_Select1stIS4_ESt4lessISsESaIS4_EE24_M_get_insert_unique_posERS1_+0xa2>
    ea5e:	48 3d 00 00 00 80    	cmp    $0xffffffff80000000,%rax
    ea64:	7d 38                	jge    ea9e <_ZNSt8_Rb_treeISsSt4pairIKSsN6GetOpt10OptionDataEESt10_Select1stIS4_ESt4lessISsESaIS4_EE24_M_get_insert_unique_posERS1_+0x9e>
    ea66:	49 8b 44 24 10       	mov    0x10(%r12),%rax
    ea6b:	ba 01 00 00 00       	mov    $0x1,%edx
    ea70:	48 85 c0             	test   %rax,%rax
    ea73:	74 39                	je     eaae <_ZNSt8_Rb_treeISsSt4pairIKSsN6GetOpt10OptionDataEESt10_Select1stIS4_ESt4lessISsESaIS4_EE24_M_get_insert_unique_posERS1_+0xae>
    ea75:	48 8b 7d c8          	mov    -0x38(%rbp),%rdi
    ea79:	49 89 c4             	mov    %rax,%r12
    ea7c:	4d 8b 6c 24 20       	mov    0x20(%r12),%r13
    ea81:	4c 89 f3             	mov    %r14,%rbx
    ea84:	4d 8b 7d e8          	mov    -0x18(%r13),%r15
    ea88:	4c 89 ee             	mov    %r13,%rsi
    ea8b:	4d 39 f7             	cmp    %r14,%r15
    ea8e:	49 0f 46 df          	cmovbe %r15,%rbx
    ea92:	48 89 da             	mov    %rbx,%rdx
    ea95:	e8 76 45 ff ff       	callq  3010 <memcmp@plt>
    ea9a:	85 c0                	test   %eax,%eax
    ea9c:	74 b2                	je     ea50 <_ZNSt8_Rb_treeISsSt4pairIKSsN6GetOpt10OptionDataEESt10_Select1stIS4_ESt4lessISsESaIS4_EE24_M_get_insert_unique_posERS1_+0x50>
    ea9e:	85 c0                	test   %eax,%eax
    eaa0:	78 c4                	js     ea66 <_ZNSt8_Rb_treeISsSt4pairIKSsN6GetOpt10OptionDataEESt10_Select1stIS4_ESt4lessISsESaIS4_EE24_M_get_insert_unique_posERS1_+0x66>
    eaa2:	49 8b 44 24 18       	mov    0x18(%r12),%rax
    eaa7:	31 d2                	xor    %edx,%edx
    eaa9:	48 85 c0             	test   %rax,%rax
    eaac:	75 c7                	jne    ea75 <_ZNSt8_Rb_treeISsSt4pairIKSsN6GetOpt10OptionDataEESt10_Select1stIS4_ESt4lessISsESaIS4_EE24_M_get_insert_unique_posERS1_+0x75>
    eaae:	84 d2                	test   %dl,%dl
    eab0:	75 66                	jne    eb18 <_ZNSt8_Rb_treeISsSt4pairIKSsN6GetOpt10OptionDataEESt10_Select1stIS4_ESt4lessISsESaIS4_EE24_M_get_insert_unique_posERS1_+0x118>
    eab2:	48 8b 75 c8          	mov    -0x38(%rbp),%rsi
    eab6:	48 89 da             	mov    %rbx,%rdx
    eab9:	4c 89 e3             	mov    %r12,%rbx
    eabc:	4c 89 ef             	mov    %r13,%rdi
    eabf:	e8 4c 45 ff ff       	callq  3010 <memcmp@plt>
    eac4:	85 c0                	test   %eax,%eax
    eac6:	75 34                	jne    eafc <_ZNSt8_Rb_treeISsSt4pairIKSsN6GetOpt10OptionDataEESt10_Select1stIS4_ESt4lessISsESaIS4_EE24_M_get_insert_unique_posERS1_+0xfc>
    eac8:	4d 29 f7             	sub    %r14,%r15
    eacb:	49 81 ff ff ff ff 7f 	cmp    $0x7fffffff,%r15
    ead2:	7e 1c                	jle    eaf0 <_ZNSt8_Rb_treeISsSt4pairIKSsN6GetOpt10OptionDataEESt10_Select1stIS4_ESt4lessISsESaIS4_EE24_M_get_insert_unique_posERS1_+0xf0>
    ead4:	48 83 c4 28          	add    $0x28,%rsp
    ead8:	4c 89 e0             	mov    %r12,%rax
    eadb:	31 d2                	xor    %edx,%edx
    eadd:	5b                   	pop    %rbx
    eade:	41 5c                	pop    %r12
    eae0:	41 5d                	pop    %r13
    eae2:	41 5e                	pop    %r14
    eae4:	41 5f                	pop    %r15
    eae6:	5d                   	pop    %rbp
    eae7:	c3                   	retq   
    eae8:	0f 1f 84 00 00 00 00 	nopl   0x0(%rax,%rax,1)
    eaef:	00 
    eaf0:	49 81 ff 00 00 00 80 	cmp    $0xffffffff80000000,%r15
    eaf7:	7c 07                	jl     eb00 <_ZNSt8_Rb_treeISsSt4pairIKSsN6GetOpt10OptionDataEESt10_Select1stIS4_ESt4lessISsESaIS4_EE24_M_get_insert_unique_posERS1_+0x100>
    eaf9:	44 89 f8             	mov    %r15d,%eax
    eafc:	85 c0                	test   %eax,%eax
    eafe:	79 d4                	jns    ead4 <_ZNSt8_Rb_treeISsSt4pairIKSsN6GetOpt10OptionDataEESt10_Select1stIS4_ESt4lessISsESaIS4_EE24_M_get_insert_unique_posERS1_+0xd4>
    eb00:	48 83 c4 28          	add    $0x28,%rsp
    eb04:	48 89 da             	mov    %rbx,%rdx
    eb07:	31 c0                	xor    %eax,%eax
    eb09:	5b                   	pop    %rbx
    eb0a:	41 5c                	pop    %r12
    eb0c:	41 5d                	pop    %r13
    eb0e:	41 5e                	pop    %r14
    eb10:	41 5f                	pop    %r15
    eb12:	5d                   	pop    %rbp
    eb13:	c3                   	retq   
    eb14:	0f 1f 40 00          	nopl   0x0(%rax)
    eb18:	48 8b 45 b8          	mov    -0x48(%rbp),%rax
    eb1c:	4c 89 e3             	mov    %r12,%rbx
    eb1f:	48 39 58 18          	cmp    %rbx,0x18(%rax)
    eb23:	74 db                	je     eb00 <_ZNSt8_Rb_treeISsSt4pairIKSsN6GetOpt10OptionDataEESt10_Select1stIS4_ESt4lessISsESaIS4_EE24_M_get_insert_unique_posERS1_+0x100>
    eb25:	48 89 df             	mov    %rbx,%rdi
    eb28:	e8 73 46 ff ff       	callq  31a0 <_ZSt18_Rb_tree_decrementPSt18_Rb_tree_node_base@plt>
    eb2d:	49 89 c4             	mov    %rax,%r12
    eb30:	48 8b 45 c0          	mov    -0x40(%rbp),%rax
    eb34:	4d 8b 6c 24 20       	mov    0x20(%r12),%r13
    eb39:	48 8b 00             	mov    (%rax),%rax
    eb3c:	4d 8b 7d e8          	mov    -0x18(%r13),%r15
    eb40:	4c 8b 70 e8          	mov    -0x18(%rax),%r14
    eb44:	48 89 45 c8          	mov    %rax,-0x38(%rbp)
    eb48:	48 89 c6             	mov    %rax,%rsi
    eb4b:	4d 39 f7             	cmp    %r14,%r15
    eb4e:	4c 89 f2             	mov    %r14,%rdx
    eb51:	49 0f 46 d7          	cmovbe %r15,%rdx
    eb55:	e9 62 ff ff ff       	jmpq   eabc <_ZNSt8_Rb_treeISsSt4pairIKSsN6GetOpt10OptionDataEESt10_Select1stIS4_ESt4lessISsESaIS4_EE24_M_get_insert_unique_posERS1_+0xbc>
    eb5a:	66 0f 1f 44 00 00    	nopw   0x0(%rax,%rax,1)

000000000000eb60 <_ZNSt8_Rb_treeISsSt4pairIKSsN6GetOpt10OptionDataEESt10_Select1stIS4_ESt4lessISsESaIS4_EE29_M_get_insert_hint_unique_posESt23_Rb_tree_const_iteratorIS4_ERS1_>:
    eb60:	55                   	push   %rbp
    eb61:	48 89 e5             	mov    %rsp,%rbp
    eb64:	41 57                	push   %r15
    eb66:	41 56                	push   %r14
    eb68:	41 55                	push   %r13
    eb6a:	41 54                	push   %r12
    eb6c:	53                   	push   %rbx
    eb6d:	48 81 ec 48 10 00 00 	sub    $0x1048,%rsp
    eb74:	48 83 0c 24 00       	orq    $0x0,(%rsp)
    eb79:	48 81 c4 20 10 00 00 	add    $0x1020,%rsp
    eb80:	48 8d 47 08          	lea    0x8(%rdi),%rax
    eb84:	49 89 fe             	mov    %rdi,%r14
    eb87:	48 89 55 c8          	mov    %rdx,-0x38(%rbp)
    eb8b:	48 39 c6             	cmp    %rax,%rsi
    eb8e:	0f 84 ac 01 00 00    	je     ed40 <_ZNSt8_Rb_treeISsSt4pairIKSsN6GetOpt10OptionDataEESt10_Select1stIS4_ESt4lessISsESaIS4_EE29_M_get_insert_hint_unique_posESt23_Rb_tree_const_iteratorIS4_ERS1_+0x1e0>
    eb94:	4c 8b 46 20          	mov    0x20(%rsi),%r8
    eb98:	4c 8b 2a             	mov    (%rdx),%r13
    eb9b:	49 89 f7             	mov    %rsi,%r15
    eb9e:	4d 8b 60 e8          	mov    -0x18(%r8),%r12
    eba2:	49 8b 5d e8          	mov    -0x18(%r13),%rbx
    eba6:	4c 89 c6             	mov    %r8,%rsi
    eba9:	4c 89 ef             	mov    %r13,%rdi
    ebac:	4c 89 45 c0          	mov    %r8,-0x40(%rbp)
    ebb0:	4c 39 e3             	cmp    %r12,%rbx
    ebb3:	4d 89 e1             	mov    %r12,%r9
    ebb6:	4c 0f 46 cb          	cmovbe %rbx,%r9
    ebba:	4c 89 ca             	mov    %r9,%rdx
    ebbd:	4c 89 4d b8          	mov    %r9,-0x48(%rbp)
    ebc1:	e8 4a 44 ff ff       	callq  3010 <memcmp@plt>
    ebc6:	85 c0                	test   %eax,%eax
    ebc8:	4c 8b 45 c0          	mov    -0x40(%rbp),%r8
    ebcc:	4c 8b 4d b8          	mov    -0x48(%rbp),%r9
    ebd0:	0f 85 ea 00 00 00    	jne    ecc0 <_ZNSt8_Rb_treeISsSt4pairIKSsN6GetOpt10OptionDataEESt10_Select1stIS4_ESt4lessISsESaIS4_EE29_M_get_insert_hint_unique_posESt23_Rb_tree_const_iteratorIS4_ERS1_+0x160>
    ebd6:	48 89 d8             	mov    %rbx,%rax
    ebd9:	4c 29 e0             	sub    %r12,%rax
    ebdc:	48 3d ff ff ff 7f    	cmp    $0x7fffffff,%rax
    ebe2:	7e 4c                	jle    ec30 <_ZNSt8_Rb_treeISsSt4pairIKSsN6GetOpt10OptionDataEESt10_Select1stIS4_ESt4lessISsESaIS4_EE29_M_get_insert_hint_unique_posESt23_Rb_tree_const_iteratorIS4_ERS1_+0xd0>
    ebe4:	4c 89 ca             	mov    %r9,%rdx
    ebe7:	4c 89 ee             	mov    %r13,%rsi
    ebea:	4c 89 c7             	mov    %r8,%rdi
    ebed:	e8 1e 44 ff ff       	callq  3010 <memcmp@plt>
    ebf2:	85 c0                	test   %eax,%eax
    ebf4:	75 1c                	jne    ec12 <_ZNSt8_Rb_treeISsSt4pairIKSsN6GetOpt10OptionDataEESt10_Select1stIS4_ESt4lessISsESaIS4_EE29_M_get_insert_hint_unique_posESt23_Rb_tree_const_iteratorIS4_ERS1_+0xb2>
    ebf6:	49 29 dc             	sub    %rbx,%r12
    ebf9:	49 81 fc ff ff ff 7f 	cmp    $0x7fffffff,%r12
    ec00:	7f 18                	jg     ec1a <_ZNSt8_Rb_treeISsSt4pairIKSsN6GetOpt10OptionDataEESt10_Select1stIS4_ESt4lessISsESaIS4_EE29_M_get_insert_hint_unique_posESt23_Rb_tree_const_iteratorIS4_ERS1_+0xba>
    ec02:	49 81 fc 00 00 00 80 	cmp    $0xffffffff80000000,%r12
    ec09:	0f 8c c1 00 00 00    	jl     ecd0 <_ZNSt8_Rb_treeISsSt4pairIKSsN6GetOpt10OptionDataEESt10_Select1stIS4_ESt4lessISsESaIS4_EE29_M_get_insert_hint_unique_posESt23_Rb_tree_const_iteratorIS4_ERS1_+0x170>
    ec0f:	44 89 e0             	mov    %r12d,%eax
    ec12:	85 c0                	test   %eax,%eax
    ec14:	0f 88 b6 00 00 00    	js     ecd0 <_ZNSt8_Rb_treeISsSt4pairIKSsN6GetOpt10OptionDataEESt10_Select1stIS4_ESt4lessISsESaIS4_EE29_M_get_insert_hint_unique_posESt23_Rb_tree_const_iteratorIS4_ERS1_+0x170>
    ec1a:	4c 89 f8             	mov    %r15,%rax
    ec1d:	31 d2                	xor    %edx,%edx
    ec1f:	48 83 c4 28          	add    $0x28,%rsp
    ec23:	5b                   	pop    %rbx
    ec24:	41 5c                	pop    %r12
    ec26:	41 5d                	pop    %r13
    ec28:	41 5e                	pop    %r14
    ec2a:	41 5f                	pop    %r15
    ec2c:	5d                   	pop    %rbp
    ec2d:	c3                   	retq   
    ec2e:	66 90                	xchg   %ax,%ax
    ec30:	48 3d 00 00 00 80    	cmp    $0xffffffff80000000,%rax
    ec36:	0f 8d 84 00 00 00    	jge    ecc0 <_ZNSt8_Rb_treeISsSt4pairIKSsN6GetOpt10OptionDataEESt10_Select1stIS4_ESt4lessISsESaIS4_EE29_M_get_insert_hint_unique_posESt23_Rb_tree_const_iteratorIS4_ERS1_+0x160>
    ec3c:	4d 39 7e 18          	cmp    %r15,0x18(%r14)
    ec40:	4c 89 f8             	mov    %r15,%rax
    ec43:	4c 89 fa             	mov    %r15,%rdx
    ec46:	74 d7                	je     ec1f <_ZNSt8_Rb_treeISsSt4pairIKSsN6GetOpt10OptionDataEESt10_Select1stIS4_ESt4lessISsESaIS4_EE29_M_get_insert_hint_unique_posESt23_Rb_tree_const_iteratorIS4_ERS1_+0xbf>
    ec48:	4c 89 ff             	mov    %r15,%rdi
    ec4b:	e8 50 45 ff ff       	callq  31a0 <_ZSt18_Rb_tree_decrementPSt18_Rb_tree_node_base@plt>
    ec50:	48 8b 78 20          	mov    0x20(%rax),%rdi
    ec54:	4c 89 ee             	mov    %r13,%rsi
    ec57:	48 89 45 c0          	mov    %rax,-0x40(%rbp)
    ec5b:	4c 8b 67 e8          	mov    -0x18(%rdi),%r12
    ec5f:	4c 39 e3             	cmp    %r12,%rbx
    ec62:	4c 89 e2             	mov    %r12,%rdx
    ec65:	48 0f 46 d3          	cmovbe %rbx,%rdx
    ec69:	e8 a2 43 ff ff       	callq  3010 <memcmp@plt>
    ec6e:	85 c0                	test   %eax,%eax
    ec70:	4c 8b 45 c0          	mov    -0x40(%rbp),%r8
    ec74:	75 1c                	jne    ec92 <_ZNSt8_Rb_treeISsSt4pairIKSsN6GetOpt10OptionDataEESt10_Select1stIS4_ESt4lessISsESaIS4_EE29_M_get_insert_hint_unique_posESt23_Rb_tree_const_iteratorIS4_ERS1_+0x132>
    ec76:	49 29 dc             	sub    %rbx,%r12
    ec79:	49 81 fc ff ff ff 7f 	cmp    $0x7fffffff,%r12
    ec80:	0f 8f 9b 00 00 00    	jg     ed21 <_ZNSt8_Rb_treeISsSt4pairIKSsN6GetOpt10OptionDataEESt10_Select1stIS4_ESt4lessISsESaIS4_EE29_M_get_insert_hint_unique_posESt23_Rb_tree_const_iteratorIS4_ERS1_+0x1c1>
    ec86:	49 81 fc 00 00 00 80 	cmp    $0xffffffff80000000,%r12
    ec8d:	7c 0b                	jl     ec9a <_ZNSt8_Rb_treeISsSt4pairIKSsN6GetOpt10OptionDataEESt10_Select1stIS4_ESt4lessISsESaIS4_EE29_M_get_insert_hint_unique_posESt23_Rb_tree_const_iteratorIS4_ERS1_+0x13a>
    ec8f:	44 89 e0             	mov    %r12d,%eax
    ec92:	85 c0                	test   %eax,%eax
    ec94:	0f 89 87 00 00 00    	jns    ed21 <_ZNSt8_Rb_treeISsSt4pairIKSsN6GetOpt10OptionDataEESt10_Select1stIS4_ESt4lessISsESaIS4_EE29_M_get_insert_hint_unique_posESt23_Rb_tree_const_iteratorIS4_ERS1_+0x1c1>
    ec9a:	49 83 78 18 00       	cmpq   $0x0,0x18(%r8)
    ec9f:	4c 89 fa             	mov    %r15,%rdx
    eca2:	b8 00 00 00 00       	mov    $0x0,%eax
    eca7:	49 0f 45 c7          	cmovne %r15,%rax
    ecab:	49 0f 44 d0          	cmove  %r8,%rdx
    ecaf:	48 83 c4 28          	add    $0x28,%rsp
    ecb3:	5b                   	pop    %rbx
    ecb4:	41 5c                	pop    %r12
    ecb6:	41 5d                	pop    %r13
    ecb8:	41 5e                	pop    %r14
    ecba:	41 5f                	pop    %r15
    ecbc:	5d                   	pop    %rbp
    ecbd:	c3                   	retq   
    ecbe:	66 90                	xchg   %ax,%ax
    ecc0:	85 c0                	test   %eax,%eax
    ecc2:	0f 89 1c ff ff ff    	jns    ebe4 <_ZNSt8_Rb_treeISsSt4pairIKSsN6GetOpt10OptionDataEESt10_Select1stIS4_ESt4lessISsESaIS4_EE29_M_get_insert_hint_unique_posESt23_Rb_tree_const_iteratorIS4_ERS1_+0x84>
    ecc8:	e9 6f ff ff ff       	jmpq   ec3c <_ZNSt8_Rb_treeISsSt4pairIKSsN6GetOpt10OptionDataEESt10_Select1stIS4_ESt4lessISsESaIS4_EE29_M_get_insert_hint_unique_posESt23_Rb_tree_const_iteratorIS4_ERS1_+0xdc>
    eccd:	0f 1f 00             	nopl   (%rax)
    ecd0:	31 c0                	xor    %eax,%eax
    ecd2:	4d 39 7e 20          	cmp    %r15,0x20(%r14)
    ecd6:	4c 89 fa             	mov    %r15,%rdx
    ecd9:	0f 84 40 ff ff ff    	je     ec1f <_ZNSt8_Rb_treeISsSt4pairIKSsN6GetOpt10OptionDataEESt10_Select1stIS4_ESt4lessISsESaIS4_EE29_M_get_insert_hint_unique_posESt23_Rb_tree_const_iteratorIS4_ERS1_+0xbf>
    ecdf:	4c 89 ff             	mov    %r15,%rdi
    ece2:	e8 b9 43 ff ff       	callq  30a0 <_ZSt18_Rb_tree_incrementPSt18_Rb_tree_node_base@plt>
    ece7:	48 8b 70 20          	mov    0x20(%rax),%rsi
    eceb:	4c 89 ef             	mov    %r13,%rdi
    ecee:	48 89 45 c0          	mov    %rax,-0x40(%rbp)
    ecf2:	4c 8b 66 e8          	mov    -0x18(%rsi),%r12
    ecf6:	4c 39 e3             	cmp    %r12,%rbx
    ecf9:	4c 89 e2             	mov    %r12,%rdx
    ecfc:	48 0f 46 d3          	cmovbe %rbx,%rdx
    ed00:	e8 0b 43 ff ff       	callq  3010 <memcmp@plt>
    ed05:	85 c0                	test   %eax,%eax
    ed07:	4c 8b 45 c0          	mov    -0x40(%rbp),%r8
    ed0b:	0f 85 9a 00 00 00    	jne    edab <_ZNSt8_Rb_treeISsSt4pairIKSsN6GetOpt10OptionDataEESt10_Select1stIS4_ESt4lessISsESaIS4_EE29_M_get_insert_hint_unique_posESt23_Rb_tree_const_iteratorIS4_ERS1_+0x24b>
    ed11:	4c 29 e3             	sub    %r12,%rbx
    ed14:	48 81 fb ff ff ff 7f 	cmp    $0x7fffffff,%rbx
    ed1b:	0f 8e 7f 00 00 00    	jle    eda0 <_ZNSt8_Rb_treeISsSt4pairIKSsN6GetOpt10OptionDataEESt10_Select1stIS4_ESt4lessISsESaIS4_EE29_M_get_insert_hint_unique_posESt23_Rb_tree_const_iteratorIS4_ERS1_+0x240>
    ed21:	48 8b 75 c8          	mov    -0x38(%rbp),%rsi
    ed25:	4c 89 f7             	mov    %r14,%rdi
    ed28:	e8 d3 fc ff ff       	callq  ea00 <_ZNSt8_Rb_treeISsSt4pairIKSsN6GetOpt10OptionDataEESt10_Select1stIS4_ESt4lessISsESaIS4_EE24_M_get_insert_unique_posERS1_>
    ed2d:	48 83 c4 28          	add    $0x28,%rsp
    ed31:	5b                   	pop    %rbx
    ed32:	41 5c                	pop    %r12
    ed34:	41 5d                	pop    %r13
    ed36:	41 5e                	pop    %r14
    ed38:	41 5f                	pop    %r15
    ed3a:	5d                   	pop    %rbp
    ed3b:	c3                   	retq   
    ed3c:	0f 1f 40 00          	nopl   0x0(%rax)
    ed40:	48 83 7f 28 00       	cmpq   $0x0,0x28(%rdi)
    ed45:	74 da                	je     ed21 <_ZNSt8_Rb_treeISsSt4pairIKSsN6GetOpt10OptionDataEESt10_Select1stIS4_ESt4lessISsESaIS4_EE29_M_get_insert_hint_unique_posESt23_Rb_tree_const_iteratorIS4_ERS1_+0x1c1>
    ed47:	48 8b 5f 20          	mov    0x20(%rdi),%rbx
    ed4b:	48 8b 32             	mov    (%rdx),%rsi
    ed4e:	48 8b 7b 20          	mov    0x20(%rbx),%rdi
    ed52:	4c 8b 6e e8          	mov    -0x18(%rsi),%r13
    ed56:	4c 8b 67 e8          	mov    -0x18(%rdi),%r12
    ed5a:	4c 89 ea             	mov    %r13,%rdx
    ed5d:	4d 39 ec             	cmp    %r13,%r12
    ed60:	49 0f 46 d4          	cmovbe %r12,%rdx
    ed64:	e8 a7 42 ff ff       	callq  3010 <memcmp@plt>
    ed69:	85 c0                	test   %eax,%eax
    ed6b:	75 18                	jne    ed85 <_ZNSt8_Rb_treeISsSt4pairIKSsN6GetOpt10OptionDataEESt10_Select1stIS4_ESt4lessISsESaIS4_EE29_M_get_insert_hint_unique_posESt23_Rb_tree_const_iteratorIS4_ERS1_+0x225>
    ed6d:	4d 29 ec             	sub    %r13,%r12
    ed70:	49 81 fc ff ff ff 7f 	cmp    $0x7fffffff,%r12
    ed77:	7f a8                	jg     ed21 <_ZNSt8_Rb_treeISsSt4pairIKSsN6GetOpt10OptionDataEESt10_Select1stIS4_ESt4lessISsESaIS4_EE29_M_get_insert_hint_unique_posESt23_Rb_tree_const_iteratorIS4_ERS1_+0x1c1>
    ed79:	49 81 fc 00 00 00 80 	cmp    $0xffffffff80000000,%r12
    ed80:	7c 07                	jl     ed89 <_ZNSt8_Rb_treeISsSt4pairIKSsN6GetOpt10OptionDataEESt10_Select1stIS4_ESt4lessISsESaIS4_EE29_M_get_insert_hint_unique_posESt23_Rb_tree_const_iteratorIS4_ERS1_+0x229>
    ed82:	44 89 e0             	mov    %r12d,%eax
    ed85:	85 c0                	test   %eax,%eax
    ed87:	79 98                	jns    ed21 <_ZNSt8_Rb_treeISsSt4pairIKSsN6GetOpt10OptionDataEESt10_Select1stIS4_ESt4lessISsESaIS4_EE29_M_get_insert_hint_unique_posESt23_Rb_tree_const_iteratorIS4_ERS1_+0x1c1>
    ed89:	48 83 c4 28          	add    $0x28,%rsp
    ed8d:	48 89 da             	mov    %rbx,%rdx
    ed90:	31 c0                	xor    %eax,%eax
    ed92:	5b                   	pop    %rbx
    ed93:	41 5c                	pop    %r12
    ed95:	41 5d                	pop    %r13
    ed97:	41 5e                	pop    %r14
    ed99:	41 5f                	pop    %r15
    ed9b:	5d                   	pop    %rbp
    ed9c:	c3                   	retq   
    ed9d:	0f 1f 00             	nopl   (%rax)
    eda0:	48 81 fb 00 00 00 80 	cmp    $0xffffffff80000000,%rbx
    eda7:	7c 0a                	jl     edb3 <_ZNSt8_Rb_treeISsSt4pairIKSsN6GetOpt10OptionDataEESt10_Select1stIS4_ESt4lessISsESaIS4_EE29_M_get_insert_hint_unique_posESt23_Rb_tree_const_iteratorIS4_ERS1_+0x253>
    eda9:	89 d8                	mov    %ebx,%eax
    edab:	85 c0                	test   %eax,%eax
    edad:	0f 89 6e ff ff ff    	jns    ed21 <_ZNSt8_Rb_treeISsSt4pairIKSsN6GetOpt10OptionDataEESt10_Select1stIS4_ESt4lessISsESaIS4_EE29_M_get_insert_hint_unique_posESt23_Rb_tree_const_iteratorIS4_ERS1_+0x1c1>
    edb3:	49 83 7f 18 00       	cmpq   $0x0,0x18(%r15)
    edb8:	b8 00 00 00 00       	mov    $0x0,%eax
    edbd:	4c 89 fa             	mov    %r15,%rdx
    edc0:	49 0f 45 c0          	cmovne %r8,%rax
    edc4:	49 0f 45 d0          	cmovne %r8,%rdx
    edc8:	e9 52 fe ff ff       	jmpq   ec1f <_ZNSt8_Rb_treeISsSt4pairIKSsN6GetOpt10OptionDataEESt10_Select1stIS4_ESt4lessISsESaIS4_EE29_M_get_insert_hint_unique_posESt23_Rb_tree_const_iteratorIS4_ERS1_+0xbf>
    edcd:	0f 1f 00             	nopl   (%rax)

000000000000edd0 <_ZNSt8_Rb_treeISsSt4pairIKSsN6GetOpt10OptionDataEESt10_Select1stIS4_ESt4lessISsESaIS4_EE22_M_emplace_hint_uniqueIIRKSt21piecewise_construct_tSt5tupleIIRS1_EESF_IIEEEEESt17_Rb_tree_iteratorIS4_ESt23_Rb_tree_const_iteratorIS4_EDpOT_>:
    edd0:	55                   	push   %rbp
    edd1:	48 89 e5             	mov    %rsp,%rbp
    edd4:	41 57                	push   %r15
    edd6:	41 56                	push   %r14
    edd8:	41 55                	push   %r13
    edda:	41 54                	push   %r12
    eddc:	53                   	push   %rbx
    eddd:	48 81 ec 78 10 00 00 	sub    $0x1078,%rsp
    ede4:	48 83 0c 24 00       	orq    $0x0,(%rsp)
    ede9:	48 81 c4 20 10 00 00 	add    $0x1020,%rsp
    edf0:	49 89 cd             	mov    %rcx,%r13
    edf3:	49 89 fe             	mov    %rdi,%r14
    edf6:	bf 38 00 00 00       	mov    $0x38,%edi
    edfb:	49 89 f4             	mov    %rsi,%r12
    edfe:	64 48 8b 04 25 28 00 	mov    %fs:0x28,%rax
    ee05:	00 00 
    ee07:	48 89 45 c8          	mov    %rax,-0x38(%rbp)
    ee0b:	31 c0                	xor    %eax,%eax
    ee0d:	e8 5e 43 ff ff       	callq  3170 <_Znwm@plt>
    ee12:	49 8b 75 00          	mov    0x0(%r13),%rsi
    ee16:	48 89 c3             	mov    %rax,%rbx
    ee19:	48 8d 40 20          	lea    0x20(%rax),%rax
    ee1d:	48 89 c7             	mov    %rax,%rdi
    ee20:	48 89 45 90          	mov    %rax,-0x70(%rbp)
    ee24:	e8 27 42 ff ff       	callq  3050 <_ZNSsC1ERKSs@plt>
    ee29:	49 8d 46 08          	lea    0x8(%r14),%rax
    ee2d:	c7 43 28 00 00 00 00 	movl   $0x0,0x28(%rbx)
    ee34:	4c 89 65 b8          	mov    %r12,-0x48(%rbp)
    ee38:	4c 39 e0             	cmp    %r12,%rax
    ee3b:	48 89 45 b0          	mov    %rax,-0x50(%rbp)
    ee3f:	0f 84 c3 02 00 00    	je     f108 <_ZNSt8_Rb_treeISsSt4pairIKSsN6GetOpt10OptionDataEESt10_Select1stIS4_ESt4lessISsESaIS4_EE22_M_emplace_hint_uniqueIIRKSt21piecewise_construct_tSt5tupleIIRS1_EESF_IIEEEEESt17_Rb_tree_iteratorIS4_ESt23_Rb_tree_const_iteratorIS4_EDpOT_+0x338>
    ee45:	48 8b 4b 20          	mov    0x20(%rbx),%rcx
    ee49:	4d 8b 4c 24 20       	mov    0x20(%r12),%r9
    ee4e:	4c 8b 69 e8          	mov    -0x18(%rcx),%r13
    ee52:	4d 8b 79 e8          	mov    -0x18(%r9),%r15
    ee56:	4c 89 ce             	mov    %r9,%rsi
    ee59:	48 89 cf             	mov    %rcx,%rdi
    ee5c:	48 89 4d 88          	mov    %rcx,-0x78(%rbp)
    ee60:	4c 89 4d a0          	mov    %r9,-0x60(%rbp)
    ee64:	48 89 4d a8          	mov    %rcx,-0x58(%rbp)
    ee68:	4d 39 fd             	cmp    %r15,%r13
    ee6b:	4d 89 fa             	mov    %r15,%r10
    ee6e:	4d 0f 46 d5          	cmovbe %r13,%r10
    ee72:	4c 89 d2             	mov    %r10,%rdx
    ee75:	4c 89 55 98          	mov    %r10,-0x68(%rbp)
    ee79:	e8 92 41 ff ff       	callq  3010 <memcmp@plt>
    ee7e:	85 c0                	test   %eax,%eax
    ee80:	41 89 c0             	mov    %eax,%r8d
    ee83:	48 8b 4d a8          	mov    -0x58(%rbp),%rcx
    ee87:	4c 8b 4d a0          	mov    -0x60(%rbp),%r9
    ee8b:	4c 8b 55 98          	mov    -0x68(%rbp),%r10
    ee8f:	0f 85 5b 02 00 00    	jne    f0f0 <_ZNSt8_Rb_treeISsSt4pairIKSsN6GetOpt10OptionDataEESt10_Select1stIS4_ESt4lessISsESaIS4_EE22_M_emplace_hint_uniqueIIRKSt21piecewise_construct_tSt5tupleIIRS1_EESF_IIEEEEESt17_Rb_tree_iteratorIS4_ESt23_Rb_tree_const_iteratorIS4_EDpOT_+0x320>
    ee95:	4c 89 e8             	mov    %r13,%rax
    ee98:	4c 29 f8             	sub    %r15,%rax
    ee9b:	48 3d ff ff ff 7f    	cmp    $0x7fffffff,%rax
    eea1:	0f 8e e1 00 00 00    	jle    ef88 <_ZNSt8_Rb_treeISsSt4pairIKSsN6GetOpt10OptionDataEESt10_Select1stIS4_ESt4lessISsESaIS4_EE22_M_emplace_hint_uniqueIIRKSt21piecewise_construct_tSt5tupleIIRS1_EESF_IIEEEEESt17_Rb_tree_iteratorIS4_ESt23_Rb_tree_const_iteratorIS4_EDpOT_+0x1b8>
    eea7:	48 89 ce             	mov    %rcx,%rsi
    eeaa:	4c 89 d2             	mov    %r10,%rdx
    eead:	4c 89 cf             	mov    %r9,%rdi
    eeb0:	44 89 45 a0          	mov    %r8d,-0x60(%rbp)
    eeb4:	48 89 4d a8          	mov    %rcx,-0x58(%rbp)
    eeb8:	e8 53 41 ff ff       	callq  3010 <memcmp@plt>
    eebd:	85 c0                	test   %eax,%eax
    eebf:	48 8b 4d a8          	mov    -0x58(%rbp),%rcx
    eec3:	44 8b 45 a0          	mov    -0x60(%rbp),%r8d
    eec7:	0f 85 cb 01 00 00    	jne    f098 <_ZNSt8_Rb_treeISsSt4pairIKSsN6GetOpt10OptionDataEESt10_Select1stIS4_ESt4lessISsESaIS4_EE22_M_emplace_hint_uniqueIIRKSt21piecewise_construct_tSt5tupleIIRS1_EESF_IIEEEEESt17_Rb_tree_iteratorIS4_ESt23_Rb_tree_const_iteratorIS4_EDpOT_+0x2c8>
    eecd:	4c 89 f8             	mov    %r15,%rax
    eed0:	4c 29 e8             	sub    %r13,%rax
    eed3:	48 3d ff ff ff 7f    	cmp    $0x7fffffff,%rax
    eed9:	0f 8f 21 02 00 00    	jg     f100 <_ZNSt8_Rb_treeISsSt4pairIKSsN6GetOpt10OptionDataEESt10_Select1stIS4_ESt4lessISsESaIS4_EE22_M_emplace_hint_uniqueIIRKSt21piecewise_construct_tSt5tupleIIRS1_EESF_IIEEEEESt17_Rb_tree_iteratorIS4_ESt23_Rb_tree_const_iteratorIS4_EDpOT_+0x330>
    eedf:	48 3d 00 00 00 80    	cmp    $0xffffffff80000000,%rax
    eee5:	0f 8d ad 01 00 00    	jge    f098 <_ZNSt8_Rb_treeISsSt4pairIKSsN6GetOpt10OptionDataEESt10_Select1stIS4_ESt4lessISsESaIS4_EE22_M_emplace_hint_uniqueIIRKSt21piecewise_construct_tSt5tupleIIRS1_EESF_IIEEEEESt17_Rb_tree_iteratorIS4_ESt23_Rb_tree_const_iteratorIS4_EDpOT_+0x2c8>
    eeeb:	4d 39 66 20          	cmp    %r12,0x20(%r14)
    eeef:	44 89 45 a8          	mov    %r8d,-0x58(%rbp)
    eef3:	0f 84 36 01 00 00    	je     f02f <_ZNSt8_Rb_treeISsSt4pairIKSsN6GetOpt10OptionDataEESt10_Select1stIS4_ESt4lessISsESaIS4_EE22_M_emplace_hint_uniqueIIRKSt21piecewise_construct_tSt5tupleIIRS1_EESF_IIEEEEESt17_Rb_tree_iteratorIS4_ESt23_Rb_tree_const_iteratorIS4_EDpOT_+0x25f>
    eef9:	4c 89 e7             	mov    %r12,%rdi
    eefc:	48 89 4d 98          	mov    %rcx,-0x68(%rbp)
    ef00:	e8 9b 41 ff ff       	callq  30a0 <_ZSt18_Rb_tree_incrementPSt18_Rb_tree_node_base@plt>
    ef05:	48 8b 70 20          	mov    0x20(%rax),%rsi
    ef09:	48 8b 4d 98          	mov    -0x68(%rbp),%rcx
    ef0d:	48 89 45 a0          	mov    %rax,-0x60(%rbp)
    ef11:	4c 8b 56 e8          	mov    -0x18(%rsi),%r10
    ef15:	48 89 cf             	mov    %rcx,%rdi
    ef18:	4d 39 d5             	cmp    %r10,%r13
    ef1b:	4c 89 d2             	mov    %r10,%rdx
    ef1e:	4c 89 55 88          	mov    %r10,-0x78(%rbp)
    ef22:	49 0f 46 d5          	cmovbe %r13,%rdx
    ef26:	e8 e5 40 ff ff       	callq  3010 <memcmp@plt>
    ef2b:	85 c0                	test   %eax,%eax
    ef2d:	4c 8b 4d a0          	mov    -0x60(%rbp),%r9
    ef31:	44 8b 45 a8          	mov    -0x58(%rbp),%r8d
    ef35:	0f 85 3d 02 00 00    	jne    f178 <_ZNSt8_Rb_treeISsSt4pairIKSsN6GetOpt10OptionDataEESt10_Select1stIS4_ESt4lessISsESaIS4_EE22_M_emplace_hint_uniqueIIRKSt21piecewise_construct_tSt5tupleIIRS1_EESF_IIEEEEESt17_Rb_tree_iteratorIS4_ESt23_Rb_tree_const_iteratorIS4_EDpOT_+0x3a8>
    ef3b:	4c 8b 55 88          	mov    -0x78(%rbp),%r10
    ef3f:	4c 89 e8             	mov    %r13,%rax
    ef42:	4c 29 d0             	sub    %r10,%rax
    ef45:	48 3d ff ff ff 7f    	cmp    $0x7fffffff,%rax
    ef4b:	0f 8e 1f 02 00 00    	jle    f170 <_ZNSt8_Rb_treeISsSt4pairIKSsN6GetOpt10OptionDataEESt10_Select1stIS4_ESt4lessISsESaIS4_EE22_M_emplace_hint_uniqueIIRKSt21piecewise_construct_tSt5tupleIIRS1_EESF_IIEEEEESt17_Rb_tree_iteratorIS4_ESt23_Rb_tree_const_iteratorIS4_EDpOT_+0x3a0>
    ef51:	0f 1f 80 00 00 00 00 	nopl   0x0(%rax)
    ef58:	48 8b 75 90          	mov    -0x70(%rbp),%rsi
    ef5c:	4c 89 f7             	mov    %r14,%rdi
    ef5f:	e8 9c fa ff ff       	callq  ea00 <_ZNSt8_Rb_treeISsSt4pairIKSsN6GetOpt10OptionDataEESt10_Select1stIS4_ESt4lessISsESaIS4_EE24_M_get_insert_unique_posERS1_>
    ef64:	49 89 c1             	mov    %rax,%r9
    ef67:	48 89 55 b8          	mov    %rdx,-0x48(%rbp)
    ef6b:	48 83 7d b8 00       	cmpq   $0x0,-0x48(%rbp)
    ef70:	0f 85 9e 00 00 00    	jne    f014 <_ZNSt8_Rb_treeISsSt4pairIKSsN6GetOpt10OptionDataEESt10_Select1stIS4_ESt4lessISsESaIS4_EE22_M_emplace_hint_uniqueIIRKSt21piecewise_construct_tSt5tupleIIRS1_EESF_IIEEEEESt17_Rb_tree_iteratorIS4_ESt23_Rb_tree_const_iteratorIS4_EDpOT_+0x244>
    ef76:	48 8b 43 20          	mov    0x20(%rbx),%rax
    ef7a:	48 89 45 88          	mov    %rax,-0x78(%rbp)
    ef7e:	e9 20 01 00 00       	jmpq   f0a3 <_ZNSt8_Rb_treeISsSt4pairIKSsN6GetOpt10OptionDataEESt10_Select1stIS4_ESt4lessISsESaIS4_EE22_M_emplace_hint_uniqueIIRKSt21piecewise_construct_tSt5tupleIIRS1_EESF_IIEEEEESt17_Rb_tree_iteratorIS4_ESt23_Rb_tree_const_iteratorIS4_EDpOT_+0x2d3>
    ef83:	0f 1f 44 00 00       	nopl   0x0(%rax,%rax,1)
    ef88:	48 3d 00 00 00 80    	cmp    $0xffffffff80000000,%rax
    ef8e:	0f 8d 5c 01 00 00    	jge    f0f0 <_ZNSt8_Rb_treeISsSt4pairIKSsN6GetOpt10OptionDataEESt10_Select1stIS4_ESt4lessISsESaIS4_EE22_M_emplace_hint_uniqueIIRKSt21piecewise_construct_tSt5tupleIIRS1_EESF_IIEEEEESt17_Rb_tree_iteratorIS4_ESt23_Rb_tree_const_iteratorIS4_EDpOT_+0x320>
    ef94:	4d 39 66 18          	cmp    %r12,0x18(%r14)
    ef98:	48 89 4d a8          	mov    %rcx,-0x58(%rbp)
    ef9c:	0f 84 2e 02 00 00    	je     f1d0 <_ZNSt8_Rb_treeISsSt4pairIKSsN6GetOpt10OptionDataEESt10_Select1stIS4_ESt4lessISsESaIS4_EE22_M_emplace_hint_uniqueIIRKSt21piecewise_construct_tSt5tupleIIRS1_EESF_IIEEEEESt17_Rb_tree_iteratorIS4_ESt23_Rb_tree_const_iteratorIS4_EDpOT_+0x400>
    efa2:	4c 89 e7             	mov    %r12,%rdi
    efa5:	e8 f6 41 ff ff       	callq  31a0 <_ZSt18_Rb_tree_decrementPSt18_Rb_tree_node_base@plt>
    efaa:	48 8b 78 20          	mov    0x20(%rax),%rdi
    efae:	48 8b 4d a8          	mov    -0x58(%rbp),%rcx
    efb2:	48 89 45 b8          	mov    %rax,-0x48(%rbp)
    efb6:	4c 8b 7f e8          	mov    -0x18(%rdi),%r15
    efba:	48 89 ce             	mov    %rcx,%rsi
    efbd:	4d 39 fd             	cmp    %r15,%r13
    efc0:	4c 89 fa             	mov    %r15,%rdx
    efc3:	49 0f 46 d5          	cmovbe %r13,%rdx
    efc7:	e8 44 40 ff ff       	callq  3010 <memcmp@plt>
    efcc:	85 c0                	test   %eax,%eax
    efce:	4c 8b 45 b8          	mov    -0x48(%rbp),%r8
    efd2:	75 1c                	jne    eff0 <_ZNSt8_Rb_treeISsSt4pairIKSsN6GetOpt10OptionDataEESt10_Select1stIS4_ESt4lessISsESaIS4_EE22_M_emplace_hint_uniqueIIRKSt21piecewise_construct_tSt5tupleIIRS1_EESF_IIEEEEESt17_Rb_tree_iteratorIS4_ESt23_Rb_tree_const_iteratorIS4_EDpOT_+0x220>
    efd4:	4d 29 ef             	sub    %r13,%r15
    efd7:	49 81 ff ff ff ff 7f 	cmp    $0x7fffffff,%r15
    efde:	0f 8f 74 ff ff ff    	jg     ef58 <_ZNSt8_Rb_treeISsSt4pairIKSsN6GetOpt10OptionDataEESt10_Select1stIS4_ESt4lessISsESaIS4_EE22_M_emplace_hint_uniqueIIRKSt21piecewise_construct_tSt5tupleIIRS1_EESF_IIEEEEESt17_Rb_tree_iteratorIS4_ESt23_Rb_tree_const_iteratorIS4_EDpOT_+0x188>
    efe4:	49 81 ff 00 00 00 80 	cmp    $0xffffffff80000000,%r15
    efeb:	7c 0b                	jl     eff8 <_ZNSt8_Rb_treeISsSt4pairIKSsN6GetOpt10OptionDataEESt10_Select1stIS4_ESt4lessISsESaIS4_EE22_M_emplace_hint_uniqueIIRKSt21piecewise_construct_tSt5tupleIIRS1_EESF_IIEEEEESt17_Rb_tree_iteratorIS4_ESt23_Rb_tree_const_iteratorIS4_EDpOT_+0x228>
    efed:	44 89 f8             	mov    %r15d,%eax
    eff0:	85 c0                	test   %eax,%eax
    eff2:	0f 89 60 ff ff ff    	jns    ef58 <_ZNSt8_Rb_treeISsSt4pairIKSsN6GetOpt10OptionDataEESt10_Select1stIS4_ESt4lessISsESaIS4_EE22_M_emplace_hint_uniqueIIRKSt21piecewise_construct_tSt5tupleIIRS1_EESF_IIEEEEESt17_Rb_tree_iteratorIS4_ESt23_Rb_tree_const_iteratorIS4_EDpOT_+0x188>
    eff8:	49 83 78 18 00       	cmpq   $0x0,0x18(%r8)
    effd:	4c 89 c0             	mov    %r8,%rax
    f000:	49 0f 45 c4          	cmovne %r12,%rax
    f004:	48 89 45 b8          	mov    %rax,-0x48(%rbp)
    f008:	b8 00 00 00 00       	mov    $0x0,%eax
    f00d:	49 0f 45 c4          	cmovne %r12,%rax
    f011:	49 89 c1             	mov    %rax,%r9
    f014:	4d 85 c9             	test   %r9,%r9
    f017:	0f 85 c3 01 00 00    	jne    f1e0 <_ZNSt8_Rb_treeISsSt4pairIKSsN6GetOpt10OptionDataEESt10_Select1stIS4_ESt4lessISsESaIS4_EE22_M_emplace_hint_uniqueIIRKSt21piecewise_construct_tSt5tupleIIRS1_EESF_IIEEEEESt17_Rb_tree_iteratorIS4_ESt23_Rb_tree_const_iteratorIS4_EDpOT_+0x410>
    f01d:	48 8b 75 b8          	mov    -0x48(%rbp),%rsi
    f021:	48 39 75 b0          	cmp    %rsi,-0x50(%rbp)
    f025:	0f 84 b5 01 00 00    	je     f1e0 <_ZNSt8_Rb_treeISsSt4pairIKSsN6GetOpt10OptionDataEESt10_Select1stIS4_ESt4lessISsESaIS4_EE22_M_emplace_hint_uniqueIIRKSt21piecewise_construct_tSt5tupleIIRS1_EESF_IIEEEEESt17_Rb_tree_iteratorIS4_ESt23_Rb_tree_const_iteratorIS4_EDpOT_+0x410>
    f02b:	48 8b 4b 20          	mov    0x20(%rbx),%rcx
    f02f:	48 8b 45 b8          	mov    -0x48(%rbp),%rax
    f033:	4c 8b 69 e8          	mov    -0x18(%rcx),%r13
    f037:	48 89 cf             	mov    %rcx,%rdi
    f03a:	48 8b 70 20          	mov    0x20(%rax),%rsi
    f03e:	4c 89 ea             	mov    %r13,%rdx
    f041:	4c 8b 7e e8          	mov    -0x18(%rsi),%r15
    f045:	4d 39 ef             	cmp    %r13,%r15
    f048:	49 0f 46 d7          	cmovbe %r15,%rdx
    f04c:	e8 bf 3f ff ff       	callq  3010 <memcmp@plt>
    f051:	85 c0                	test   %eax,%eax
    f053:	75 1f                	jne    f074 <_ZNSt8_Rb_treeISsSt4pairIKSsN6GetOpt10OptionDataEESt10_Select1stIS4_ESt4lessISsESaIS4_EE22_M_emplace_hint_uniqueIIRKSt21piecewise_construct_tSt5tupleIIRS1_EESF_IIEEEEESt17_Rb_tree_iteratorIS4_ESt23_Rb_tree_const_iteratorIS4_EDpOT_+0x2a4>
    f055:	4d 29 fd             	sub    %r15,%r13
    f058:	31 ff                	xor    %edi,%edi
    f05a:	49 81 fd ff ff ff 7f 	cmp    $0x7fffffff,%r13
    f061:	7f 16                	jg     f079 <_ZNSt8_Rb_treeISsSt4pairIKSsN6GetOpt10OptionDataEESt10_Select1stIS4_ESt4lessISsESaIS4_EE22_M_emplace_hint_uniqueIIRKSt21piecewise_construct_tSt5tupleIIRS1_EESF_IIEEEEESt17_Rb_tree_iteratorIS4_ESt23_Rb_tree_const_iteratorIS4_EDpOT_+0x2a9>
    f063:	49 81 fd 00 00 00 80 	cmp    $0xffffffff80000000,%r13
    f06a:	bf 01 00 00 00       	mov    $0x1,%edi
    f06f:	7c 08                	jl     f079 <_ZNSt8_Rb_treeISsSt4pairIKSsN6GetOpt10OptionDataEESt10_Select1stIS4_ESt4lessISsESaIS4_EE22_M_emplace_hint_uniqueIIRKSt21piecewise_construct_tSt5tupleIIRS1_EESF_IIEEEEESt17_Rb_tree_iteratorIS4_ESt23_Rb_tree_const_iteratorIS4_EDpOT_+0x2a9>
    f071:	44 89 e8             	mov    %r13d,%eax
    f074:	c1 e8 1f             	shr    $0x1f,%eax
    f077:	89 c7                	mov    %eax,%edi
    f079:	48 8b 4d b0          	mov    -0x50(%rbp),%rcx
    f07d:	48 8b 55 b8          	mov    -0x48(%rbp),%rdx
    f081:	48 89 de             	mov    %rbx,%rsi
    f084:	e8 e7 3e ff ff       	callq  2f70 <_ZSt29_Rb_tree_insert_and_rebalancebPSt18_Rb_tree_node_baseS0_RS_@plt>
    f089:	49 83 46 28 01       	addq   $0x1,0x28(%r14)
    f08e:	48 89 d8             	mov    %rbx,%rax
    f091:	eb 3b                	jmp    f0ce <_ZNSt8_Rb_treeISsSt4pairIKSsN6GetOpt10OptionDataEESt10_Select1stIS4_ESt4lessISsESaIS4_EE22_M_emplace_hint_uniqueIIRKSt21piecewise_construct_tSt5tupleIIRS1_EESF_IIEEEEESt17_Rb_tree_iteratorIS4_ESt23_Rb_tree_const_iteratorIS4_EDpOT_+0x2fe>
    f093:	0f 1f 44 00 00       	nopl   0x0(%rax,%rax,1)
    f098:	85 c0                	test   %eax,%eax
    f09a:	4d 89 e1             	mov    %r12,%r9
    f09d:	0f 88 48 fe ff ff    	js     eeeb <_ZNSt8_Rb_treeISsSt4pairIKSsN6GetOpt10OptionDataEESt10_Select1stIS4_ESt4lessISsESaIS4_EE22_M_emplace_hint_uniqueIIRKSt21piecewise_construct_tSt5tupleIIRS1_EESF_IIEEEEESt17_Rb_tree_iteratorIS4_ESt23_Rb_tree_const_iteratorIS4_EDpOT_+0x11b>
    f0a3:	48 8b 45 88          	mov    -0x78(%rbp),%rax
    f0a7:	48 8d 78 e8          	lea    -0x18(%rax),%rdi
    f0ab:	48 8d 05 2e 52 20 00 	lea    0x20522e(%rip),%rax        # 2142e0 <_ZNSs4_Rep20_S_empty_rep_storageE@@GLIBCXX_3.4>
    f0b2:	48 39 c7             	cmp    %rax,%rdi
    f0b5:	0f 85 dd 00 00 00    	jne    f198 <_ZNSt8_Rb_treeISsSt4pairIKSsN6GetOpt10OptionDataEESt10_Select1stIS4_ESt4lessISsESaIS4_EE22_M_emplace_hint_uniqueIIRKSt21piecewise_construct_tSt5tupleIIRS1_EESF_IIEEEEESt17_Rb_tree_iteratorIS4_ESt23_Rb_tree_const_iteratorIS4_EDpOT_+0x3c8>
    f0bb:	48 89 df             	mov    %rbx,%rdi
    f0be:	4c 89 4d b8          	mov    %r9,-0x48(%rbp)
    f0c2:	e8 79 40 ff ff       	callq  3140 <_ZdlPv@plt>
    f0c7:	4c 8b 4d b8          	mov    -0x48(%rbp),%r9
    f0cb:	4c 89 c8             	mov    %r9,%rax
    f0ce:	48 8b 55 c8          	mov    -0x38(%rbp),%rdx
    f0d2:	64 48 33 14 25 28 00 	xor    %fs:0x28,%rdx
    f0d9:	00 00 
    f0db:	0f 85 22 01 00 00    	jne    f203 <_ZNSt8_Rb_treeISsSt4pairIKSsN6GetOpt10OptionDataEESt10_Select1stIS4_ESt4lessISsESaIS4_EE22_M_emplace_hint_uniqueIIRKSt21piecewise_construct_tSt5tupleIIRS1_EESF_IIEEEEESt17_Rb_tree_iteratorIS4_ESt23_Rb_tree_const_iteratorIS4_EDpOT_+0x433>
    f0e1:	48 83 c4 58          	add    $0x58,%rsp
    f0e5:	5b                   	pop    %rbx
    f0e6:	41 5c                	pop    %r12
    f0e8:	41 5d                	pop    %r13
    f0ea:	41 5e                	pop    %r14
    f0ec:	41 5f                	pop    %r15
    f0ee:	5d                   	pop    %rbp
    f0ef:	c3                   	retq   
    f0f0:	85 c0                	test   %eax,%eax
    f0f2:	0f 89 af fd ff ff    	jns    eea7 <_ZNSt8_Rb_treeISsSt4pairIKSsN6GetOpt10OptionDataEESt10_Select1stIS4_ESt4lessISsESaIS4_EE22_M_emplace_hint_uniqueIIRKSt21piecewise_construct_tSt5tupleIIRS1_EESF_IIEEEEESt17_Rb_tree_iteratorIS4_ESt23_Rb_tree_const_iteratorIS4_EDpOT_+0xd7>
    f0f8:	e9 97 fe ff ff       	jmpq   ef94 <_ZNSt8_Rb_treeISsSt4pairIKSsN6GetOpt10OptionDataEESt10_Select1stIS4_ESt4lessISsESaIS4_EE22_M_emplace_hint_uniqueIIRKSt21piecewise_construct_tSt5tupleIIRS1_EESF_IIEEEEESt17_Rb_tree_iteratorIS4_ESt23_Rb_tree_const_iteratorIS4_EDpOT_+0x1c4>
    f0fd:	0f 1f 00             	nopl   (%rax)
    f100:	4d 89 e1             	mov    %r12,%r9
    f103:	eb 9e                	jmp    f0a3 <_ZNSt8_Rb_treeISsSt4pairIKSsN6GetOpt10OptionDataEESt10_Select1stIS4_ESt4lessISsESaIS4_EE22_M_emplace_hint_uniqueIIRKSt21piecewise_construct_tSt5tupleIIRS1_EESF_IIEEEEESt17_Rb_tree_iteratorIS4_ESt23_Rb_tree_const_iteratorIS4_EDpOT_+0x2d3>
    f105:	0f 1f 00             	nopl   (%rax)
    f108:	49 83 7e 28 00       	cmpq   $0x0,0x28(%r14)
    f10d:	0f 84 45 fe ff ff    	je     ef58 <_ZNSt8_Rb_treeISsSt4pairIKSsN6GetOpt10OptionDataEESt10_Select1stIS4_ESt4lessISsESaIS4_EE22_M_emplace_hint_uniqueIIRKSt21piecewise_construct_tSt5tupleIIRS1_EESF_IIEEEEESt17_Rb_tree_iteratorIS4_ESt23_Rb_tree_const_iteratorIS4_EDpOT_+0x188>
    f113:	49 8b 46 20          	mov    0x20(%r14),%rax
    f117:	48 8b 4b 20          	mov    0x20(%rbx),%rcx
    f11b:	48 8b 78 20          	mov    0x20(%rax),%rdi
    f11f:	4c 8b 69 e8          	mov    -0x18(%rcx),%r13
    f123:	48 89 ce             	mov    %rcx,%rsi
    f126:	48 89 45 b8          	mov    %rax,-0x48(%rbp)
    f12a:	4c 8b 67 e8          	mov    -0x18(%rdi),%r12
    f12e:	4c 89 ea             	mov    %r13,%rdx
    f131:	4d 39 ec             	cmp    %r13,%r12
    f134:	49 0f 46 d4          	cmovbe %r12,%rdx
    f138:	e8 d3 3e ff ff       	callq  3010 <memcmp@plt>
    f13d:	85 c0                	test   %eax,%eax
    f13f:	75 1c                	jne    f15d <_ZNSt8_Rb_treeISsSt4pairIKSsN6GetOpt10OptionDataEESt10_Select1stIS4_ESt4lessISsESaIS4_EE22_M_emplace_hint_uniqueIIRKSt21piecewise_construct_tSt5tupleIIRS1_EESF_IIEEEEESt17_Rb_tree_iteratorIS4_ESt23_Rb_tree_const_iteratorIS4_EDpOT_+0x38d>
    f141:	4d 29 ec             	sub    %r13,%r12
    f144:	49 81 fc ff ff ff 7f 	cmp    $0x7fffffff,%r12
    f14b:	0f 8f 07 fe ff ff    	jg     ef58 <_ZNSt8_Rb_treeISsSt4pairIKSsN6GetOpt10OptionDataEESt10_Select1stIS4_ESt4lessISsESaIS4_EE22_M_emplace_hint_uniqueIIRKSt21piecewise_construct_tSt5tupleIIRS1_EESF_IIEEEEESt17_Rb_tree_iteratorIS4_ESt23_Rb_tree_const_iteratorIS4_EDpOT_+0x188>
    f151:	49 81 fc 00 00 00 80 	cmp    $0xffffffff80000000,%r12
    f158:	7c 0b                	jl     f165 <_ZNSt8_Rb_treeISsSt4pairIKSsN6GetOpt10OptionDataEESt10_Select1stIS4_ESt4lessISsESaIS4_EE22_M_emplace_hint_uniqueIIRKSt21piecewise_construct_tSt5tupleIIRS1_EESF_IIEEEEESt17_Rb_tree_iteratorIS4_ESt23_Rb_tree_const_iteratorIS4_EDpOT_+0x395>
    f15a:	44 89 e0             	mov    %r12d,%eax
    f15d:	85 c0                	test   %eax,%eax
    f15f:	0f 89 f3 fd ff ff    	jns    ef58 <_ZNSt8_Rb_treeISsSt4pairIKSsN6GetOpt10OptionDataEESt10_Select1stIS4_ESt4lessISsESaIS4_EE22_M_emplace_hint_uniqueIIRKSt21piecewise_construct_tSt5tupleIIRS1_EESF_IIEEEEESt17_Rb_tree_iteratorIS4_ESt23_Rb_tree_const_iteratorIS4_EDpOT_+0x188>
    f165:	45 31 c9             	xor    %r9d,%r9d
    f168:	e9 a7 fe ff ff       	jmpq   f014 <_ZNSt8_Rb_treeISsSt4pairIKSsN6GetOpt10OptionDataEESt10_Select1stIS4_ESt4lessISsESaIS4_EE22_M_emplace_hint_uniqueIIRKSt21piecewise_construct_tSt5tupleIIRS1_EESF_IIEEEEESt17_Rb_tree_iteratorIS4_ESt23_Rb_tree_const_iteratorIS4_EDpOT_+0x244>
    f16d:	0f 1f 00             	nopl   (%rax)
    f170:	48 3d 00 00 00 80    	cmp    $0xffffffff80000000,%rax
    f176:	7c 08                	jl     f180 <_ZNSt8_Rb_treeISsSt4pairIKSsN6GetOpt10OptionDataEESt10_Select1stIS4_ESt4lessISsESaIS4_EE22_M_emplace_hint_uniqueIIRKSt21piecewise_construct_tSt5tupleIIRS1_EESF_IIEEEEESt17_Rb_tree_iteratorIS4_ESt23_Rb_tree_const_iteratorIS4_EDpOT_+0x3b0>
    f178:	85 c0                	test   %eax,%eax
    f17a:	0f 89 d8 fd ff ff    	jns    ef58 <_ZNSt8_Rb_treeISsSt4pairIKSsN6GetOpt10OptionDataEESt10_Select1stIS4_ESt4lessISsESaIS4_EE22_M_emplace_hint_uniqueIIRKSt21piecewise_construct_tSt5tupleIIRS1_EESF_IIEEEEESt17_Rb_tree_iteratorIS4_ESt23_Rb_tree_const_iteratorIS4_EDpOT_+0x188>
    f180:	49 83 7c 24 18 00    	cmpq   $0x0,0x18(%r12)
    f186:	74 68                	je     f1f0 <_ZNSt8_Rb_treeISsSt4pairIKSsN6GetOpt10OptionDataEESt10_Select1stIS4_ESt4lessISsESaIS4_EE22_M_emplace_hint_uniqueIIRKSt21piecewise_construct_tSt5tupleIIRS1_EESF_IIEEEEESt17_Rb_tree_iteratorIS4_ESt23_Rb_tree_const_iteratorIS4_EDpOT_+0x420>
    f188:	4c 89 4d b8          	mov    %r9,-0x48(%rbp)
    f18c:	e9 da fd ff ff       	jmpq   ef6b <_ZNSt8_Rb_treeISsSt4pairIKSsN6GetOpt10OptionDataEESt10_Select1stIS4_ESt4lessISsESaIS4_EE22_M_emplace_hint_uniqueIIRKSt21piecewise_construct_tSt5tupleIIRS1_EESF_IIEEEEESt17_Rb_tree_iteratorIS4_ESt23_Rb_tree_const_iteratorIS4_EDpOT_+0x19b>
    f191:	0f 1f 80 00 00 00 00 	nopl   0x0(%rax)
    f198:	48 83 3d 38 4e 20 00 	cmpq   $0x0,0x204e38(%rip)        # 213fd8 <_DYNAMIC+0x240>
    f19f:	00 
    f1a0:	48 8b 75 88          	mov    -0x78(%rbp),%rsi
    f1a4:	74 52                	je     f1f8 <_ZNSt8_Rb_treeISsSt4pairIKSsN6GetOpt10OptionDataEESt10_Select1stIS4_ESt4lessISsESaIS4_EE22_M_emplace_hint_uniqueIIRKSt21piecewise_construct_tSt5tupleIIRS1_EESF_IIEEEEESt17_Rb_tree_iteratorIS4_ESt23_Rb_tree_const_iteratorIS4_EDpOT_+0x428>
    f1a6:	b8 ff ff ff ff       	mov    $0xffffffff,%eax
    f1ab:	f0 0f c1 46 f8       	lock xadd %eax,-0x8(%rsi)
    f1b0:	85 c0                	test   %eax,%eax
    f1b2:	0f 8f 03 ff ff ff    	jg     f0bb <_ZNSt8_Rb_treeISsSt4pairIKSsN6GetOpt10OptionDataEESt10_Select1stIS4_ESt4lessISsESaIS4_EE22_M_emplace_hint_uniqueIIRKSt21piecewise_construct_tSt5tupleIIRS1_EESF_IIEEEEESt17_Rb_tree_iteratorIS4_ESt23_Rb_tree_const_iteratorIS4_EDpOT_+0x2eb>
    f1b8:	48 8d 75 c7          	lea    -0x39(%rbp),%rsi
    f1bc:	4c 89 4d b8          	mov    %r9,-0x48(%rbp)
    f1c0:	e8 1b 3f ff ff       	callq  30e0 <_ZNSs4_Rep10_M_destroyERKSaIcE@plt>
    f1c5:	4c 8b 4d b8          	mov    -0x48(%rbp),%r9
    f1c9:	e9 ed fe ff ff       	jmpq   f0bb <_ZNSt8_Rb_treeISsSt4pairIKSsN6GetOpt10OptionDataEESt10_Select1stIS4_ESt4lessISsESaIS4_EE22_M_emplace_hint_uniqueIIRKSt21piecewise_construct_tSt5tupleIIRS1_EESF_IIEEEEESt17_Rb_tree_iteratorIS4_ESt23_Rb_tree_const_iteratorIS4_EDpOT_+0x2eb>
    f1ce:	66 90                	xchg   %ax,%ax
    f1d0:	4d 89 e1             	mov    %r12,%r9
    f1d3:	e9 3c fe ff ff       	jmpq   f014 <_ZNSt8_Rb_treeISsSt4pairIKSsN6GetOpt10OptionDataEESt10_Select1stIS4_ESt4lessISsESaIS4_EE22_M_emplace_hint_uniqueIIRKSt21piecewise_construct_tSt5tupleIIRS1_EESF_IIEEEEESt17_Rb_tree_iteratorIS4_ESt23_Rb_tree_const_iteratorIS4_EDpOT_+0x244>
    f1d8:	0f 1f 84 00 00 00 00 	nopl   0x0(%rax,%rax,1)
    f1df:	00 
    f1e0:	bf 01 00 00 00       	mov    $0x1,%edi
    f1e5:	e9 8f fe ff ff       	jmpq   f079 <_ZNSt8_Rb_treeISsSt4pairIKSsN6GetOpt10OptionDataEESt10_Select1stIS4_ESt4lessISsESaIS4_EE22_M_emplace_hint_uniqueIIRKSt21piecewise_construct_tSt5tupleIIRS1_EESF_IIEEEEESt17_Rb_tree_iteratorIS4_ESt23_Rb_tree_const_iteratorIS4_EDpOT_+0x2a9>
    f1ea:	66 0f 1f 44 00 00    	nopw   0x0(%rax,%rax,1)
    f1f0:	44 89 c0             	mov    %r8d,%eax
    f1f3:	e9 59 fe ff ff       	jmpq   f051 <_ZNSt8_Rb_treeISsSt4pairIKSsN6GetOpt10OptionDataEESt10_Select1stIS4_ESt4lessISsESaIS4_EE22_M_emplace_hint_uniqueIIRKSt21piecewise_construct_tSt5tupleIIRS1_EESF_IIEEEEESt17_Rb_tree_iteratorIS4_ESt23_Rb_tree_const_iteratorIS4_EDpOT_+0x281>
    f1f8:	8b 46 f8             	mov    -0x8(%rsi),%eax
    f1fb:	8d 50 ff             	lea    -0x1(%rax),%edx
    f1fe:	89 56 f8             	mov    %edx,-0x8(%rsi)
    f201:	eb ad                	jmp    f1b0 <_ZNSt8_Rb_treeISsSt4pairIKSsN6GetOpt10OptionDataEESt10_Select1stIS4_ESt4lessISsESaIS4_EE22_M_emplace_hint_uniqueIIRKSt21piecewise_construct_tSt5tupleIIRS1_EESF_IIEEEEESt17_Rb_tree_iteratorIS4_ESt23_Rb_tree_const_iteratorIS4_EDpOT_+0x3e0>
    f203:	e8 b8 3f ff ff       	callq  31c0 <__stack_chk_fail@plt>
    f208:	48 89 c7             	mov    %rax,%rdi
    f20b:	e8 d0 3d ff ff       	callq  2fe0 <__cxa_begin_catch@plt>
    f210:	48 89 df             	mov    %rbx,%rdi
    f213:	e8 28 3f ff ff       	callq  3140 <_ZdlPv@plt>
    f218:	e8 93 40 ff ff       	callq  32b0 <__cxa_rethrow@plt>
    f21d:	48 89 c3             	mov    %rax,%rbx
    f220:	e8 1b 41 ff ff       	callq  3340 <__cxa_end_catch@plt>
    f225:	48 89 df             	mov    %rbx,%rdi
    f228:	e8 83 41 ff ff       	callq  33b0 <_Unwind_Resume@plt>
    f22d:	0f 1f 00             	nopl   (%rax)

000000000000f230 <_ZN6GetOpt9GetOpt_pp6_parseERKSt6vectorISsSaISsEE>:
    f230:	55                   	push   %rbp
    f231:	48 89 e5             	mov    %rsp,%rbp
    f234:	41 57                	push   %r15
    f236:	41 56                	push   %r14
    f238:	41 55                	push   %r13
    f23a:	41 54                	push   %r12
    f23c:	53                   	push   %rbx
    f23d:	48 81 ec 28 15 00 00 	sub    $0x1528,%rsp
    f244:	48 83 0c 24 00       	orq    $0x0,(%rsp)
    f249:	48 81 c4 20 10 00 00 	add    $0x1020,%rsp
    f250:	48 89 f0             	mov    %rsi,%rax
    f253:	48 89 b5 00 fb ff ff 	mov    %rsi,-0x500(%rbp)
    f25a:	48 8b 36             	mov    (%rsi),%rsi
    f25d:	48 8b 40 08          	mov    0x8(%rax),%rax
    f261:	49 89 fc             	mov    %rdi,%r12
    f264:	48 c7 85 28 fb ff ff 	movq   $0x0,-0x4d8(%rbp)
    f26b:	00 00 00 00 
    f26f:	64 48 8b 0c 25 28 00 	mov    %fs:0x28,%rcx
    f276:	00 00 
    f278:	48 89 4d c8          	mov    %rcx,-0x38(%rbp)
    f27c:	31 c9                	xor    %ecx,%ecx
    f27e:	48 89 85 38 fb ff ff 	mov    %rax,-0x4c8(%rbp)
    f285:	48 29 f0             	sub    %rsi,%rax
    f288:	48 c1 f8 03          	sar    $0x3,%rax
    f28c:	48 89 85 08 fb ff ff 	mov    %rax,-0x4f8(%rbp)
    f293:	48 8b 47 70          	mov    0x70(%rdi),%rax
    f297:	48 83 78 e8 00       	cmpq   $0x0,-0x18(%rax)
    f29c:	0f 84 35 13 00 00    	je     105d7 <_ZN6GetOpt9GetOpt_pp6_parseERKSt6vectorISsSaISsEE+0x13a7>
    f2a2:	48 8b 8d 28 fb ff ff 	mov    -0x4d8(%rbp),%rcx
    f2a9:	48 39 8d 08 fb ff ff 	cmp    %rcx,-0x4f8(%rbp)
    f2b0:	0f 86 10 12 00 00    	jbe    104c6 <_ZN6GetOpt9GetOpt_pp6_parseERKSt6vectorISsSaISsEE+0x1296>
    f2b6:	48 89 c8             	mov    %rcx,%rax
    f2b9:	45 31 ed             	xor    %r13d,%r13d
    f2bc:	48 c1 e0 03          	shl    $0x3,%rax
    f2c0:	48 89 85 18 fb ff ff 	mov    %rax,-0x4e8(%rbp)
    f2c7:	48 8d 85 70 fb ff ff 	lea    -0x490(%rbp),%rax
    f2ce:	48 89 85 e8 fa ff ff 	mov    %rax,-0x518(%rbp)
    f2d5:	48 83 c0 68          	add    $0x68,%rax
    f2d9:	48 89 85 e0 fa ff ff 	mov    %rax,-0x520(%rbp)
    f2e0:	48 8d 85 e0 fc ff ff 	lea    -0x320(%rbp),%rax
    f2e7:	48 89 85 f8 fa ff ff 	mov    %rax,-0x508(%rbp)
    f2ee:	48 83 c0 68          	add    $0x68,%rax
    f2f2:	48 89 85 f0 fa ff ff 	mov    %rax,-0x510(%rbp)
    f2f9:	e9 85 00 00 00       	jmpq   f383 <_ZN6GetOpt9GetOpt_pp6_parseERKSt6vectorISsSaISsEE+0x153>
    f2fe:	66 90                	xchg   %ax,%ax
    f300:	3c 40                	cmp    $0x40,%al
    f302:	0f 84 b0 08 00 00    	je     fbb8 <_ZN6GetOpt9GetOpt_pp6_parseERKSt6vectorISsSaISsEE+0x988>
    f308:	41 80 fd 01          	cmp    $0x1,%r13b
    f30c:	bf 18 00 00 00       	mov    $0x18,%edi
    f311:	45 19 f6             	sbb    %r14d,%r14d
    f314:	41 83 e6 fc          	and    $0xfffffffc,%r14d
    f318:	e8 53 3e ff ff       	callq  3170 <_Znwm@plt>
    f31d:	48 8b b5 38 fb ff ff 	mov    -0x4c8(%rbp),%rsi
    f324:	41 83 c6 06          	add    $0x6,%r14d
    f328:	48 8d 78 08          	lea    0x8(%rax),%rdi
    f32c:	44 89 30             	mov    %r14d,(%rax)
    f32f:	48 89 c3             	mov    %rax,%rbx
    f332:	e8 19 3d ff ff       	callq  3050 <_ZNSsC1ERKSs@plt>
    f337:	49 83 7c 24 78 00    	cmpq   $0x0,0x78(%r12)
    f33d:	48 c7 43 10 00 00 00 	movq   $0x0,0x10(%rbx)
    f344:	00 
    f345:	0f 84 0b 11 00 00    	je     10456 <_ZN6GetOpt9GetOpt_pp6_parseERKSt6vectorISsSaISsEE+0x1226>
    f34b:	49 8b 84 24 80 00 00 	mov    0x80(%r12),%rax
    f352:	00 
    f353:	48 89 58 10          	mov    %rbx,0x10(%rax)
    f357:	49 89 9c 24 80 00 00 	mov    %rbx,0x80(%r12)
    f35e:	00 
    f35f:	48 83 85 28 fb ff ff 	addq   $0x1,-0x4d8(%rbp)
    f366:	01 
    f367:	48 83 85 18 fb ff ff 	addq   $0x8,-0x4e8(%rbp)
    f36e:	08 
    f36f:	48 8b 85 28 fb ff ff 	mov    -0x4d8(%rbp),%rax
    f376:	48 39 85 08 fb ff ff 	cmp    %rax,-0x4f8(%rbp)
    f37d:	0f 84 43 11 00 00    	je     104c6 <_ZN6GetOpt9GetOpt_pp6_parseERKSt6vectorISsSaISsEE+0x1296>
    f383:	48 8b 8d 00 fb ff ff 	mov    -0x500(%rbp),%rcx
    f38a:	48 8b 85 18 fb ff ff 	mov    -0x4e8(%rbp),%rax
    f391:	48 03 01             	add    (%rcx),%rax
    f394:	4c 8b 30             	mov    (%rax),%r14
    f397:	48 89 85 38 fb ff ff 	mov    %rax,-0x4c8(%rbp)
    f39e:	41 0f b6 06          	movzbl (%r14),%eax
    f3a2:	3c 2d                	cmp    $0x2d,%al
    f3a4:	0f 85 56 ff ff ff    	jne    f300 <_ZN6GetOpt9GetOpt_pp6_parseERKSt6vectorISsSaISsEE+0xd0>
    f3aa:	49 8b 46 e8          	mov    -0x18(%r14),%rax
    f3ae:	48 83 f8 01          	cmp    $0x1,%rax
    f3b2:	0f 86 50 ff ff ff    	jbe    f308 <_ZN6GetOpt9GetOpt_pp6_parseERKSt6vectorISsSaISsEE+0xd8>
    f3b8:	41 80 7e 01 2d       	cmpb   $0x2d,0x1(%r14)
    f3bd:	0f 85 15 02 00 00    	jne    f5d8 <_ZN6GetOpt9GetOpt_pp6_parseERKSt6vectorISsSaISsEE+0x3a8>
    f3c3:	48 83 f8 02          	cmp    $0x2,%rax
    f3c7:	0f 84 73 08 00 00    	je     fc40 <_ZN6GetOpt9GetOpt_pp6_parseERKSt6vectorISsSaISsEE+0xa10>
    f3cd:	48 8b b5 38 fb ff ff 	mov    -0x4c8(%rbp),%rsi
    f3d4:	48 8d bd 50 fb ff ff 	lea    -0x4b0(%rbp),%rdi
    f3db:	48 c7 c1 ff ff ff ff 	mov    $0xffffffffffffffff,%rcx
    f3e2:	ba 02 00 00 00       	mov    $0x2,%edx
    f3e7:	e8 24 3f ff ff       	callq  3310 <_ZNSsC1ERKSsmm@plt>
    f3ec:	4d 8b 74 24 40       	mov    0x40(%r12),%r14
    f3f1:	49 8d 44 24 38       	lea    0x38(%r12),%rax
    f3f6:	48 89 c3             	mov    %rax,%rbx
    f3f9:	48 89 85 30 fb ff ff 	mov    %rax,-0x4d0(%rbp)
    f400:	4d 85 f6             	test   %r14,%r14
    f403:	0f 84 25 0f 00 00    	je     1032e <_ZN6GetOpt9GetOpt_pp6_parseERKSt6vectorISsSaISsEE+0x10fe>
    f409:	48 8b 85 50 fb ff ff 	mov    -0x4b0(%rbp),%rax
    f410:	4c 89 a5 20 fb ff ff 	mov    %r12,-0x4e0(%rbp)
    f417:	4c 8b 68 e8          	mov    -0x18(%rax),%r13
    f41b:	48 89 85 10 fb ff ff 	mov    %rax,-0x4f0(%rbp)
    f422:	4d 89 ec             	mov    %r13,%r12
    f425:	4d 89 f5             	mov    %r14,%r13
    f428:	49 89 c6             	mov    %rax,%r14
    f42b:	eb 16                	jmp    f443 <_ZN6GetOpt9GetOpt_pp6_parseERKSt6vectorISsSaISsEE+0x213>
    f42d:	0f 1f 00             	nopl   (%rax)
    f430:	44 89 f8             	mov    %r15d,%eax
    f433:	85 c0                	test   %eax,%eax
    f435:	78 3f                	js     f476 <_ZN6GetOpt9GetOpt_pp6_parseERKSt6vectorISsSaISsEE+0x246>
    f437:	4c 89 eb             	mov    %r13,%rbx
    f43a:	4d 8b 6d 10          	mov    0x10(%r13),%r13
    f43e:	4d 85 ed             	test   %r13,%r13
    f441:	74 3c                	je     f47f <_ZN6GetOpt9GetOpt_pp6_parseERKSt6vectorISsSaISsEE+0x24f>
    f443:	49 8b 7d 20          	mov    0x20(%r13),%rdi
    f447:	4c 89 e2             	mov    %r12,%rdx
    f44a:	4c 89 f6             	mov    %r14,%rsi
    f44d:	4c 8b 7f e8          	mov    -0x18(%rdi),%r15
    f451:	4d 39 e7             	cmp    %r12,%r15
    f454:	49 0f 46 d7          	cmovbe %r15,%rdx
    f458:	e8 b3 3b ff ff       	callq  3010 <memcmp@plt>
    f45d:	85 c0                	test   %eax,%eax
    f45f:	75 d2                	jne    f433 <_ZN6GetOpt9GetOpt_pp6_parseERKSt6vectorISsSaISsEE+0x203>
    f461:	4d 29 e7             	sub    %r12,%r15
    f464:	49 81 ff ff ff ff 7f 	cmp    $0x7fffffff,%r15
    f46b:	7f ca                	jg     f437 <_ZN6GetOpt9GetOpt_pp6_parseERKSt6vectorISsSaISsEE+0x207>
    f46d:	49 81 ff 00 00 00 80 	cmp    $0xffffffff80000000,%r15
    f474:	7d ba                	jge    f430 <_ZN6GetOpt9GetOpt_pp6_parseERKSt6vectorISsSaISsEE+0x200>
    f476:	4d 8b 6d 18          	mov    0x18(%r13),%r13
    f47a:	4d 85 ed             	test   %r13,%r13
    f47d:	75 c4                	jne    f443 <_ZN6GetOpt9GetOpt_pp6_parseERKSt6vectorISsSaISsEE+0x213>
    f47f:	48 3b 9d 30 fb ff ff 	cmp    -0x4d0(%rbp),%rbx
    f486:	4d 89 e5             	mov    %r12,%r13
    f489:	4c 8b a5 20 fb ff ff 	mov    -0x4e0(%rbp),%r12
    f490:	0f 84 98 0e 00 00    	je     1032e <_ZN6GetOpt9GetOpt_pp6_parseERKSt6vectorISsSaISsEE+0x10fe>
    f496:	48 8b 73 20          	mov    0x20(%rbx),%rsi
    f49a:	48 8b bd 10 fb ff ff 	mov    -0x4f0(%rbp),%rdi
    f4a1:	4c 89 ea             	mov    %r13,%rdx
    f4a4:	4c 8b 7e e8          	mov    -0x18(%rsi),%r15
    f4a8:	4d 39 ef             	cmp    %r13,%r15
    f4ab:	49 0f 46 d7          	cmovbe %r15,%rdx
    f4af:	e8 5c 3b ff ff       	callq  3010 <memcmp@plt>
    f4b4:	85 c0                	test   %eax,%eax
    f4b6:	75 1f                	jne    f4d7 <_ZN6GetOpt9GetOpt_pp6_parseERKSt6vectorISsSaISsEE+0x2a7>
    f4b8:	4d 89 e8             	mov    %r13,%r8
    f4bb:	4d 29 f8             	sub    %r15,%r8
    f4be:	49 81 f8 ff ff ff 7f 	cmp    $0x7fffffff,%r8
    f4c5:	7f 18                	jg     f4df <_ZN6GetOpt9GetOpt_pp6_parseERKSt6vectorISsSaISsEE+0x2af>
    f4c7:	49 81 f8 00 00 00 80 	cmp    $0xffffffff80000000,%r8
    f4ce:	0f 8c 5a 0e 00 00    	jl     1032e <_ZN6GetOpt9GetOpt_pp6_parseERKSt6vectorISsSaISsEE+0x10fe>
    f4d4:	44 89 c0             	mov    %r8d,%eax
    f4d7:	85 c0                	test   %eax,%eax
    f4d9:	0f 88 4f 0e 00 00    	js     1032e <_ZN6GetOpt9GetOpt_pp6_parseERKSt6vectorISsSaISsEE+0x10fe>
    f4df:	48 8d 05 fa 4d 20 00 	lea    0x204dfa(%rip),%rax        # 2142e0 <_ZNSs4_Rep20_S_empty_rep_storageE@@GLIBCXX_3.4>
    f4e6:	48 89 85 20 fb ff ff 	mov    %rax,-0x4e0(%rbp)
    f4ed:	48 8b 85 38 fb ff ff 	mov    -0x4c8(%rbp),%rax
    f4f4:	48 8b 00             	mov    (%rax),%rax
    f4f7:	48 8b 48 e8          	mov    -0x18(%rax),%rcx
    f4fb:	48 83 f9 01          	cmp    $0x1,%rcx
    f4ff:	0f 86 01 12 00 00    	jbe    10706 <_ZN6GetOpt9GetOpt_pp6_parseERKSt6vectorISsSaISsEE+0x14d6>
    f505:	4c 8d ad 60 fb ff ff 	lea    -0x4a0(%rbp),%r13
    f50c:	48 8b b5 38 fb ff ff 	mov    -0x4c8(%rbp),%rsi
    f513:	48 c7 c1 ff ff ff ff 	mov    $0xffffffffffffffff,%rcx
    f51a:	ba 02 00 00 00       	mov    $0x2,%edx
    f51f:	4c 89 ef             	mov    %r13,%rdi
    f522:	e8 e9 3d ff ff       	callq  3310 <_ZNSsC1ERKSsmm@plt>
    f527:	bf 18 00 00 00       	mov    $0x18,%edi
    f52c:	e8 3f 3c ff ff       	callq  3170 <_Znwm@plt>
    f531:	48 8d 78 08          	lea    0x8(%rax),%rdi
    f535:	c7 00 01 00 00 00    	movl   $0x1,(%rax)
    f53b:	4c 89 ee             	mov    %r13,%rsi
    f53e:	49 89 c6             	mov    %rax,%r14
    f541:	e8 0a 3b ff ff       	callq  3050 <_ZNSsC1ERKSs@plt>
    f546:	49 83 7c 24 78 00    	cmpq   $0x0,0x78(%r12)
    f54c:	49 c7 46 10 00 00 00 	movq   $0x0,0x10(%r14)
    f553:	00 
    f554:	0f 84 d7 0f 00 00    	je     10531 <_ZN6GetOpt9GetOpt_pp6_parseERKSt6vectorISsSaISsEE+0x1301>
    f55a:	49 8b 84 24 80 00 00 	mov    0x80(%r12),%rax
    f561:	00 
    f562:	4c 89 70 10          	mov    %r14,0x10(%rax)
    f566:	4d 89 b4 24 80 00 00 	mov    %r14,0x80(%r12)
    f56d:	00 
    f56e:	4c 89 73 30          	mov    %r14,0x30(%rbx)
    f572:	48 8b 85 60 fb ff ff 	mov    -0x4a0(%rbp),%rax
    f579:	48 8d 78 e8          	lea    -0x18(%rax),%rdi
    f57d:	48 3b bd 20 fb ff ff 	cmp    -0x4e0(%rbp),%rdi
    f584:	0f 85 74 0f 00 00    	jne    104fe <_ZN6GetOpt9GetOpt_pp6_parseERKSt6vectorISsSaISsEE+0x12ce>
    f58a:	48 8b 85 50 fb ff ff 	mov    -0x4b0(%rbp),%rax
    f591:	48 8d 78 e8          	lea    -0x18(%rax),%rdi
    f595:	48 3b bd 20 fb ff ff 	cmp    -0x4e0(%rbp),%rdi
    f59c:	0f 84 b1 07 00 00    	je     fd53 <_ZN6GetOpt9GetOpt_pp6_parseERKSt6vectorISsSaISsEE+0xb23>
    f5a2:	48 83 3d 2e 4a 20 00 	cmpq   $0x0,0x204a2e(%rip)        # 213fd8 <_DYNAMIC+0x240>
    f5a9:	00 
    f5aa:	0f 84 50 10 00 00    	je     10600 <_ZN6GetOpt9GetOpt_pp6_parseERKSt6vectorISsSaISsEE+0x13d0>
    f5b0:	ba ff ff ff ff       	mov    $0xffffffff,%edx
    f5b5:	f0 0f c1 50 f8       	lock xadd %edx,-0x8(%rax)
    f5ba:	89 d0                	mov    %edx,%eax
    f5bc:	85 c0                	test   %eax,%eax
    f5be:	0f 8f 8f 07 00 00    	jg     fd53 <_ZN6GetOpt9GetOpt_pp6_parseERKSt6vectorISsSaISsEE+0xb23>
    f5c4:	4c 89 ee             	mov    %r13,%rsi
    f5c7:	e8 14 3b ff ff       	callq  30e0 <_ZNSs4_Rep10_M_destroyERKSaIcE@plt>
    f5cc:	e9 82 07 00 00       	jmpq   fd53 <_ZN6GetOpt9GetOpt_pp6_parseERKSt6vectorISsSaISsEE+0xb23>
    f5d1:	0f 1f 80 00 00 00 00 	nopl   0x0(%rax)
    f5d8:	4c 8b b5 e0 fa ff ff 	mov    -0x520(%rbp),%r14
    f5df:	4c 89 f7             	mov    %r14,%rdi
    f5e2:	e8 d9 39 ff ff       	callq  2fc0 <_ZNSt8ios_baseC2Ev@plt>
    f5e7:	48 8d 05 e2 4c 20 00 	lea    0x204ce2(%rip),%rax        # 2142d0 <_ZTVSt9basic_iosIcSt11char_traitsIcEE@@GLIBCXX_3.4+0x10>
    f5ee:	c6 85 b8 fc ff ff 00 	movb   $0x0,-0x348(%rbp)
    f5f5:	48 8b 35 94 50 20 00 	mov    0x205094(%rip),%rsi        # 214690 <_ZTTSt18basic_stringstreamIcSt11char_traitsIcESaIcEE@@GLIBCXX_3.4+0x10>
    f5fc:	48 8b 0d 95 50 20 00 	mov    0x205095(%rip),%rcx        # 214698 <_ZTTSt18basic_stringstreamIcSt11char_traitsIcESaIcEE@@GLIBCXX_3.4+0x18>
    f603:	48 8b 9d e8 fa ff ff 	mov    -0x518(%rbp),%rbx
    f60a:	48 89 85 d8 fb ff ff 	mov    %rax,-0x428(%rbp)
    f611:	48 8b 05 78 50 20 00 	mov    0x205078(%rip),%rax        # 214690 <_ZTTSt18basic_stringstreamIcSt11char_traitsIcESaIcEE@@GLIBCXX_3.4+0x10>
    f618:	48 c7 85 b0 fc ff ff 	movq   $0x0,-0x350(%rbp)
    f61f:	00 00 00 00 
    f623:	c6 85 b9 fc ff ff 00 	movb   $0x0,-0x347(%rbp)
    f62a:	48 c7 85 c0 fc ff ff 	movq   $0x0,-0x340(%rbp)
    f631:	00 00 00 00 
    f635:	48 c7 85 c8 fc ff ff 	movq   $0x0,-0x338(%rbp)
    f63c:	00 00 00 00 
    f640:	48 89 85 70 fb ff ff 	mov    %rax,-0x490(%rbp)
    f647:	48 8b 40 e8          	mov    -0x18(%rax),%rax
    f64b:	48 c7 85 d0 fc ff ff 	movq   $0x0,-0x330(%rbp)
    f652:	00 00 00 00 
    f656:	48 c7 85 d8 fc ff ff 	movq   $0x0,-0x328(%rbp)
    f65d:	00 00 00 00 
    f661:	48 89 8c 05 70 fb ff 	mov    %rcx,-0x490(%rbp,%rax,1)
    f668:	ff 
    f669:	48 c7 85 78 fb ff ff 	movq   $0x0,-0x488(%rbp)
    f670:	00 00 00 00 
    f674:	48 89 d8             	mov    %rbx,%rax
    f677:	48 03 46 e8          	add    -0x18(%rsi),%rax
    f67b:	31 f6                	xor    %esi,%esi
    f67d:	48 89 c7             	mov    %rax,%rdi
    f680:	e8 eb 3b ff ff       	callq  3270 <_ZNSt9basic_iosIcSt11char_traitsIcEE4initEPSt15basic_streambufIcS1_E@plt>
    f685:	48 8b 05 14 50 20 00 	mov    0x205014(%rip),%rax        # 2146a0 <_ZTTSt18basic_stringstreamIcSt11char_traitsIcESaIcEE@@GLIBCXX_3.4+0x20>
    f68c:	31 f6                	xor    %esi,%esi
    f68e:	48 89 85 80 fb ff ff 	mov    %rax,-0x480(%rbp)
    f695:	48 8b 40 e8          	mov    -0x18(%rax),%rax
    f699:	48 8d 7c 03 10       	lea    0x10(%rbx,%rax,1),%rdi
    f69e:	48 8b 05 03 50 20 00 	mov    0x205003(%rip),%rax        # 2146a8 <_ZTTSt18basic_stringstreamIcSt11char_traitsIcESaIcEE@@GLIBCXX_3.4+0x28>
    f6a5:	48 89 07             	mov    %rax,(%rdi)
    f6a8:	e8 c3 3b ff ff       	callq  3270 <_ZNSt9basic_iosIcSt11char_traitsIcEE4initEPSt15basic_streambufIcS1_E@plt>
    f6ad:	48 8b 05 d4 4f 20 00 	mov    0x204fd4(%rip),%rax        # 214688 <_ZTTSt18basic_stringstreamIcSt11char_traitsIcESaIcEE@@GLIBCXX_3.4+0x8>
    f6b4:	48 8b 0d f5 4f 20 00 	mov    0x204ff5(%rip),%rcx        # 2146b0 <_ZTTSt18basic_stringstreamIcSt11char_traitsIcESaIcEE@@GLIBCXX_3.4+0x30>
    f6bb:	48 8d 7b 50          	lea    0x50(%rbx),%rdi
    f6bf:	48 8b 40 e8          	mov    -0x18(%rax),%rax
    f6c3:	48 89 8c 05 70 fb ff 	mov    %rcx,-0x490(%rbp,%rax,1)
    f6ca:	ff 
    f6cb:	48 8d 05 46 4c 20 00 	lea    0x204c46(%rip),%rax        # 214318 <_ZTVSt18basic_stringstreamIcSt11char_traitsIcESaIcEE@@GLIBCXX_3.4+0x18>
    f6d2:	48 c7 85 90 fb ff ff 	movq   $0x0,-0x470(%rbp)
    f6d9:	00 00 00 00 
    f6dd:	48 c7 85 98 fb ff ff 	movq   $0x0,-0x468(%rbp)
    f6e4:	00 00 00 00 
    f6e8:	48 c7 85 a0 fb ff ff 	movq   $0x0,-0x460(%rbp)
    f6ef:	00 00 00 00 
    f6f3:	48 89 85 70 fb ff ff 	mov    %rax,-0x490(%rbp)
    f6fa:	48 8d 05 67 4c 20 00 	lea    0x204c67(%rip),%rax        # 214368 <_ZTVSt18basic_stringstreamIcSt11char_traitsIcESaIcEE@@GLIBCXX_3.4+0x68>
    f701:	48 c7 85 a8 fb ff ff 	movq   $0x0,-0x458(%rbp)
    f708:	00 00 00 00 
    f70c:	48 c7 85 b0 fb ff ff 	movq   $0x0,-0x450(%rbp)
    f713:	00 00 00 00 
    f717:	48 c7 85 b8 fb ff ff 	movq   $0x0,-0x448(%rbp)
    f71e:	00 00 00 00 
    f722:	48 89 85 d8 fb ff ff 	mov    %rax,-0x428(%rbp)
    f729:	48 8d 05 10 4c 20 00 	lea    0x204c10(%rip),%rax        # 214340 <_ZTVSt18basic_stringstreamIcSt11char_traitsIcESaIcEE@@GLIBCXX_3.4+0x40>
    f730:	48 89 85 80 fb ff ff 	mov    %rax,-0x480(%rbp)
    f737:	48 8d 05 52 4c 20 00 	lea    0x204c52(%rip),%rax        # 214390 <_ZTVSt15basic_streambufIcSt11char_traitsIcEE@@GLIBCXX_3.4+0x10>
    f73e:	48 89 85 88 fb ff ff 	mov    %rax,-0x478(%rbp)
    f745:	e8 06 3d ff ff       	callq  3450 <_ZNSt6localeC1Ev@plt>
    f74a:	48 8d 05 3f 4e 20 00 	lea    0x204e3f(%rip),%rax        # 214590 <_ZTVSt15basic_stringbufIcSt11char_traitsIcESaIcEE@@GLIBCXX_3.4+0x10>
    f751:	48 8d 73 18          	lea    0x18(%rbx),%rsi
    f755:	4c 89 f7             	mov    %r14,%rdi
    f758:	c7 85 c8 fb ff ff 18 	movl   $0x18,-0x438(%rbp)
    f75f:	00 00 00 
    f762:	48 89 85 88 fb ff ff 	mov    %rax,-0x478(%rbp)
    f769:	48 8d 05 88 4b 20 00 	lea    0x204b88(%rip),%rax        # 2142f8 <_ZNSs4_Rep20_S_empty_rep_storageE@@GLIBCXX_3.4+0x18>
    f770:	48 89 85 d0 fb ff ff 	mov    %rax,-0x430(%rbp)
    f777:	e8 f4 3a ff ff       	callq  3270 <_ZNSt9basic_iosIcSt11char_traitsIcEE4initEPSt15basic_streambufIcS1_E@plt>
    f77c:	4c 8b b5 f0 fa ff ff 	mov    -0x510(%rbp),%r14
    f783:	8b 9d f0 fb ff ff    	mov    -0x410(%rbp),%ebx
    f789:	4c 89 f7             	mov    %r14,%rdi
    f78c:	e8 2f 38 ff ff       	callq  2fc0 <_ZNSt8ios_baseC2Ev@plt>
    f791:	48 8d 05 38 4b 20 00 	lea    0x204b38(%rip),%rax        # 2142d0 <_ZTVSt9basic_iosIcSt11char_traitsIcEE@@GLIBCXX_3.4+0x10>
    f798:	c6 85 28 fe ff ff 00 	movb   $0x0,-0x1d8(%rbp)
    f79f:	48 8b 35 f2 4e 20 00 	mov    0x204ef2(%rip),%rsi        # 214698 <_ZTTSt18basic_stringstreamIcSt11char_traitsIcESaIcEE@@GLIBCXX_3.4+0x18>
    f7a6:	48 8b 0d e3 4e 20 00 	mov    0x204ee3(%rip),%rcx        # 214690 <_ZTTSt18basic_stringstreamIcSt11char_traitsIcESaIcEE@@GLIBCXX_3.4+0x10>
    f7ad:	4c 8b bd f8 fa ff ff 	mov    -0x508(%rbp),%r15
    f7b4:	48 89 85 48 fd ff ff 	mov    %rax,-0x2b8(%rbp)
    f7bb:	48 8b 05 ce 4e 20 00 	mov    0x204ece(%rip),%rax        # 214690 <_ZTTSt18basic_stringstreamIcSt11char_traitsIcESaIcEE@@GLIBCXX_3.4+0x10>
    f7c2:	48 c7 85 20 fe ff ff 	movq   $0x0,-0x1e0(%rbp)
    f7c9:	00 00 00 00 
    f7cd:	c6 85 29 fe ff ff 00 	movb   $0x0,-0x1d7(%rbp)
    f7d4:	48 c7 85 30 fe ff ff 	movq   $0x0,-0x1d0(%rbp)
    f7db:	00 00 00 00 
    f7df:	48 c7 85 38 fe ff ff 	movq   $0x0,-0x1c8(%rbp)
    f7e6:	00 00 00 00 
    f7ea:	48 89 85 e0 fc ff ff 	mov    %rax,-0x320(%rbp)
    f7f1:	48 8b 40 e8          	mov    -0x18(%rax),%rax
    f7f5:	48 c7 85 40 fe ff ff 	movq   $0x0,-0x1c0(%rbp)
    f7fc:	00 00 00 00 
    f800:	48 c7 85 48 fe ff ff 	movq   $0x0,-0x1b8(%rbp)
    f807:	00 00 00 00 
    f80b:	48 89 b4 05 e0 fc ff 	mov    %rsi,-0x320(%rbp,%rax,1)
    f812:	ff 
    f813:	48 c7 85 e8 fc ff ff 	movq   $0x0,-0x318(%rbp)
    f81a:	00 00 00 00 
    f81e:	4c 89 f8             	mov    %r15,%rax
    f821:	48 03 41 e8          	add    -0x18(%rcx),%rax
    f825:	31 f6                	xor    %esi,%esi
    f827:	48 89 c7             	mov    %rax,%rdi
    f82a:	e8 41 3a ff ff       	callq  3270 <_ZNSt9basic_iosIcSt11char_traitsIcEE4initEPSt15basic_streambufIcS1_E@plt>
    f82f:	48 8b 05 6a 4e 20 00 	mov    0x204e6a(%rip),%rax        # 2146a0 <_ZTTSt18basic_stringstreamIcSt11char_traitsIcESaIcEE@@GLIBCXX_3.4+0x20>
    f836:	31 f6                	xor    %esi,%esi
    f838:	48 89 85 f0 fc ff ff 	mov    %rax,-0x310(%rbp)
    f83f:	48 8b 40 e8          	mov    -0x18(%rax),%rax
    f843:	49 8d 7c 07 10       	lea    0x10(%r15,%rax,1),%rdi
    f848:	48 8b 05 59 4e 20 00 	mov    0x204e59(%rip),%rax        # 2146a8 <_ZTTSt18basic_stringstreamIcSt11char_traitsIcESaIcEE@@GLIBCXX_3.4+0x28>
    f84f:	48 89 07             	mov    %rax,(%rdi)
    f852:	e8 19 3a ff ff       	callq  3270 <_ZNSt9basic_iosIcSt11char_traitsIcEE4initEPSt15basic_streambufIcS1_E@plt>
    f857:	48 8b 05 2a 4e 20 00 	mov    0x204e2a(%rip),%rax        # 214688 <_ZTTSt18basic_stringstreamIcSt11char_traitsIcESaIcEE@@GLIBCXX_3.4+0x8>
    f85e:	48 8b 35 4b 4e 20 00 	mov    0x204e4b(%rip),%rsi        # 2146b0 <_ZTTSt18basic_stringstreamIcSt11char_traitsIcESaIcEE@@GLIBCXX_3.4+0x30>
    f865:	49 8d 7f 50          	lea    0x50(%r15),%rdi
    f869:	48 8b 40 e8          	mov    -0x18(%rax),%rax
    f86d:	48 89 b4 05 e0 fc ff 	mov    %rsi,-0x320(%rbp,%rax,1)
    f874:	ff 
    f875:	48 8d 05 9c 4a 20 00 	lea    0x204a9c(%rip),%rax        # 214318 <_ZTVSt18basic_stringstreamIcSt11char_traitsIcESaIcEE@@GLIBCXX_3.4+0x18>
    f87c:	48 c7 85 00 fd ff ff 	movq   $0x0,-0x300(%rbp)
    f883:	00 00 00 00 
    f887:	48 c7 85 08 fd ff ff 	movq   $0x0,-0x2f8(%rbp)
    f88e:	00 00 00 00 
    f892:	48 c7 85 10 fd ff ff 	movq   $0x0,-0x2f0(%rbp)
    f899:	00 00 00 00 
    f89d:	48 89 85 e0 fc ff ff 	mov    %rax,-0x320(%rbp)
    f8a4:	48 8d 05 bd 4a 20 00 	lea    0x204abd(%rip),%rax        # 214368 <_ZTVSt18basic_stringstreamIcSt11char_traitsIcESaIcEE@@GLIBCXX_3.4+0x68>
    f8ab:	48 c7 85 18 fd ff ff 	movq   $0x0,-0x2e8(%rbp)
    f8b2:	00 00 00 00 
    f8b6:	48 c7 85 20 fd ff ff 	movq   $0x0,-0x2e0(%rbp)
    f8bd:	00 00 00 00 
    f8c1:	48 c7 85 28 fd ff ff 	movq   $0x0,-0x2d8(%rbp)
    f8c8:	00 00 00 00 
    f8cc:	48 89 85 48 fd ff ff 	mov    %rax,-0x2b8(%rbp)
    f8d3:	48 8d 05 66 4a 20 00 	lea    0x204a66(%rip),%rax        # 214340 <_ZTVSt18basic_stringstreamIcSt11char_traitsIcESaIcEE@@GLIBCXX_3.4+0x40>
    f8da:	48 89 85 f0 fc ff ff 	mov    %rax,-0x310(%rbp)
    f8e1:	48 8d 05 a8 4a 20 00 	lea    0x204aa8(%rip),%rax        # 214390 <_ZTVSt15basic_streambufIcSt11char_traitsIcEE@@GLIBCXX_3.4+0x10>
    f8e8:	48 89 85 f8 fc ff ff 	mov    %rax,-0x308(%rbp)
    f8ef:	e8 5c 3b ff ff       	callq  3450 <_ZNSt6localeC1Ev@plt>
    f8f4:	48 8d 05 95 4c 20 00 	lea    0x204c95(%rip),%rax        # 214590 <_ZTVSt15basic_stringbufIcSt11char_traitsIcESaIcEE@@GLIBCXX_3.4+0x10>
    f8fb:	49 8d 77 18          	lea    0x18(%r15),%rsi
    f8ff:	4c 89 f7             	mov    %r14,%rdi
    f902:	c7 85 38 fd ff ff 18 	movl   $0x18,-0x2c8(%rbp)
    f909:	00 00 00 
    f90c:	48 89 85 f8 fc ff ff 	mov    %rax,-0x308(%rbp)
    f913:	48 8d 05 de 49 20 00 	lea    0x2049de(%rip),%rax        # 2142f8 <_ZNSs4_Rep20_S_empty_rep_storageE@@GLIBCXX_3.4+0x18>
    f91a:	48 89 85 40 fd ff ff 	mov    %rax,-0x2c0(%rbp)
    f921:	e8 4a 39 ff ff       	callq  3270 <_ZNSt9basic_iosIcSt11char_traitsIcEE4initEPSt15basic_streambufIcS1_E@plt>
    f926:	48 8b bd f0 fa ff ff 	mov    -0x510(%rbp),%rdi
    f92d:	31 f6                	xor    %esi,%esi
    f92f:	e8 3c 3a ff ff       	callq  3370 <_ZNSt9basic_iosIcSt11char_traitsIcEE5clearESt12_Ios_Iostate@plt>
    f934:	48 8b 85 38 fb ff ff 	mov    -0x4c8(%rbp),%rax
    f93b:	89 9d 60 fd ff ff    	mov    %ebx,-0x2a0(%rbp)
    f941:	48 8b 9d f8 fa ff ff 	mov    -0x508(%rbp),%rbx
    f948:	48 8b 30             	mov    (%rax),%rsi
    f94b:	48 8d 7b 10          	lea    0x10(%rbx),%rdi
    f94f:	48 8b 56 e8          	mov    -0x18(%rsi),%rdx
    f953:	e8 98 38 ff ff       	callq  31f0 <_ZSt16__ostream_insertIcSt11char_traitsIcEERSt13basic_ostreamIT_T0_ES6_PKS3_l@plt>
    f958:	48 8d b5 48 fb ff ff 	lea    -0x4b8(%rbp),%rsi
    f95f:	48 89 df             	mov    %rbx,%rdi
    f962:	e8 09 37 ff ff       	callq  3070 <_ZNSirsERi@plt>
    f967:	8b 85 68 fd ff ff    	mov    -0x298(%rbp),%eax
    f96d:	bb 03 00 00 00       	mov    $0x3,%ebx
    f972:	a8 05                	test   $0x5,%al
    f974:	75 0b                	jne    f981 <_ZN6GetOpt9GetOpt_pp6_parseERKSt6vectorISsSaISsEE+0x751>
    f976:	83 e0 02             	and    $0x2,%eax
    f979:	83 f8 01             	cmp    $0x1,%eax
    f97c:	19 db                	sbb    %ebx,%ebx
    f97e:	83 e3 03             	and    $0x3,%ebx
    f981:	48 8d 05 90 49 20 00 	lea    0x204990(%rip),%rax        # 214318 <_ZTVSt18basic_stringstreamIcSt11char_traitsIcESaIcEE@@GLIBCXX_3.4+0x18>
    f988:	48 8d 35 51 49 20 00 	lea    0x204951(%rip),%rsi        # 2142e0 <_ZNSs4_Rep20_S_empty_rep_storageE@@GLIBCXX_3.4>
    f98f:	48 89 85 e0 fc ff ff 	mov    %rax,-0x320(%rbp)
    f996:	48 8d 05 cb 49 20 00 	lea    0x2049cb(%rip),%rax        # 214368 <_ZTVSt18basic_stringstreamIcSt11char_traitsIcESaIcEE@@GLIBCXX_3.4+0x68>
    f99d:	48 89 b5 20 fb ff ff 	mov    %rsi,-0x4e0(%rbp)
    f9a4:	48 89 85 48 fd ff ff 	mov    %rax,-0x2b8(%rbp)
    f9ab:	48 8d 05 8e 49 20 00 	lea    0x20498e(%rip),%rax        # 214340 <_ZTVSt18basic_stringstreamIcSt11char_traitsIcESaIcEE@@GLIBCXX_3.4+0x40>
    f9b2:	48 89 85 f0 fc ff ff 	mov    %rax,-0x310(%rbp)
    f9b9:	48 8d 05 d0 4b 20 00 	lea    0x204bd0(%rip),%rax        # 214590 <_ZTVSt15basic_stringbufIcSt11char_traitsIcESaIcEE@@GLIBCXX_3.4+0x10>
    f9c0:	48 89 85 f8 fc ff ff 	mov    %rax,-0x308(%rbp)
    f9c7:	48 8b 85 40 fd ff ff 	mov    -0x2c0(%rbp),%rax
    f9ce:	48 8d 78 e8          	lea    -0x18(%rax),%rdi
    f9d2:	48 39 f7             	cmp    %rsi,%rdi
    f9d5:	0f 85 b8 0a 00 00    	jne    10493 <_ZN6GetOpt9GetOpt_pp6_parseERKSt6vectorISsSaISsEE+0x1263>
    f9db:	48 8d 05 ae 49 20 00 	lea    0x2049ae(%rip),%rax        # 214390 <_ZTVSt15basic_streambufIcSt11char_traitsIcEE@@GLIBCXX_3.4+0x10>
    f9e2:	48 89 85 f8 fc ff ff 	mov    %rax,-0x308(%rbp)
    f9e9:	48 8b 85 f8 fa ff ff 	mov    -0x508(%rbp),%rax
    f9f0:	48 8d 78 50          	lea    0x50(%rax),%rdi
    f9f4:	e8 87 38 ff ff       	callq  3280 <_ZNSt6localeD1Ev@plt>
    f9f9:	48 8b 05 88 4c 20 00 	mov    0x204c88(%rip),%rax        # 214688 <_ZTTSt18basic_stringstreamIcSt11char_traitsIcESaIcEE@@GLIBCXX_3.4+0x8>
    fa00:	48 8b 0d a9 4c 20 00 	mov    0x204ca9(%rip),%rcx        # 2146b0 <_ZTTSt18basic_stringstreamIcSt11char_traitsIcESaIcEE@@GLIBCXX_3.4+0x30>
    fa07:	48 8b 35 9a 4c 20 00 	mov    0x204c9a(%rip),%rsi        # 2146a8 <_ZTTSt18basic_stringstreamIcSt11char_traitsIcESaIcEE@@GLIBCXX_3.4+0x28>
    fa0e:	48 8b bd f0 fa ff ff 	mov    -0x510(%rbp),%rdi
    fa15:	48 8b 40 e8          	mov    -0x18(%rax),%rax
    fa19:	48 89 8c 05 e0 fc ff 	mov    %rcx,-0x320(%rbp,%rax,1)
    fa20:	ff 
    fa21:	48 8b 05 78 4c 20 00 	mov    0x204c78(%rip),%rax        # 2146a0 <_ZTTSt18basic_stringstreamIcSt11char_traitsIcESaIcEE@@GLIBCXX_3.4+0x20>
    fa28:	48 8b 0d 69 4c 20 00 	mov    0x204c69(%rip),%rcx        # 214698 <_ZTTSt18basic_stringstreamIcSt11char_traitsIcESaIcEE@@GLIBCXX_3.4+0x18>
    fa2f:	48 8b 40 e8          	mov    -0x18(%rax),%rax
    fa33:	48 89 b4 05 f0 fc ff 	mov    %rsi,-0x310(%rbp,%rax,1)
    fa3a:	ff 
    fa3b:	48 8b 05 4e 4c 20 00 	mov    0x204c4e(%rip),%rax        # 214690 <_ZTTSt18basic_stringstreamIcSt11char_traitsIcESaIcEE@@GLIBCXX_3.4+0x10>
    fa42:	48 8b 40 e8          	mov    -0x18(%rax),%rax
    fa46:	48 89 8c 05 e0 fc ff 	mov    %rcx,-0x320(%rbp,%rax,1)
    fa4d:	ff 
    fa4e:	48 8d 05 7b 48 20 00 	lea    0x20487b(%rip),%rax        # 2142d0 <_ZTVSt9basic_iosIcSt11char_traitsIcEE@@GLIBCXX_3.4+0x10>
    fa55:	48 89 85 48 fd ff ff 	mov    %rax,-0x2b8(%rbp)
    fa5c:	e8 6f 35 ff ff       	callq  2fd0 <_ZNSt8ios_baseD2Ev@plt>
    fa61:	85 db                	test   %ebx,%ebx
    fa63:	0f 85 f5 02 00 00    	jne    fd5e <_ZN6GetOpt9GetOpt_pp6_parseERKSt6vectorISsSaISsEE+0xb2e>
    fa69:	4c 8b b5 38 fb ff ff 	mov    -0x4c8(%rbp),%r14
    fa70:	49 8b 0e             	mov    (%r14),%rcx
    fa73:	48 83 79 e8 02       	cmpq   $0x2,-0x18(%rcx)
    fa78:	0f 86 a0 07 00 00    	jbe    1021e <_ZN6GetOpt9GetOpt_pp6_parseERKSt6vectorISsSaISsEE+0xfee>
    fa7e:	41 80 fd 01          	cmp    $0x1,%r13b
    fa82:	bf 18 00 00 00       	mov    $0x18,%edi
    fa87:	45 19 ed             	sbb    %r13d,%r13d
    fa8a:	41 83 e5 fc          	and    $0xfffffffc,%r13d
    fa8e:	41 83 c5 06          	add    $0x6,%r13d
    fa92:	e8 d9 36 ff ff       	callq  3170 <_Znwm@plt>
    fa97:	48 8d 78 08          	lea    0x8(%rax),%rdi
    fa9b:	44 89 28             	mov    %r13d,(%rax)
    fa9e:	4c 89 f6             	mov    %r14,%rsi
    faa1:	48 89 c3             	mov    %rax,%rbx
    faa4:	e8 a7 35 ff ff       	callq  3050 <_ZNSsC1ERKSs@plt>
    faa9:	48 c7 43 10 00 00 00 	movq   $0x0,0x10(%rbx)
    fab0:	00 
    fab1:	49 83 7c 24 78 00    	cmpq   $0x0,0x78(%r12)
    fab7:	0f 84 8f 09 00 00    	je     1044c <_ZN6GetOpt9GetOpt_pp6_parseERKSt6vectorISsSaISsEE+0x121c>
    fabd:	49 8b 84 24 80 00 00 	mov    0x80(%r12),%rax
    fac4:	00 
    fac5:	48 89 58 10          	mov    %rbx,0x10(%rax)
    fac9:	49 89 9c 24 80 00 00 	mov    %rbx,0x80(%r12)
    fad0:	00 
    fad1:	48 8d 05 40 48 20 00 	lea    0x204840(%rip),%rax        # 214318 <_ZTVSt18basic_stringstreamIcSt11char_traitsIcESaIcEE@@GLIBCXX_3.4+0x18>
    fad8:	48 89 85 70 fb ff ff 	mov    %rax,-0x490(%rbp)
    fadf:	48 8d 05 82 48 20 00 	lea    0x204882(%rip),%rax        # 214368 <_ZTVSt18basic_stringstreamIcSt11char_traitsIcESaIcEE@@GLIBCXX_3.4+0x68>
    fae6:	48 89 85 d8 fb ff ff 	mov    %rax,-0x428(%rbp)
    faed:	48 8d 05 4c 48 20 00 	lea    0x20484c(%rip),%rax        # 214340 <_ZTVSt18basic_stringstreamIcSt11char_traitsIcESaIcEE@@GLIBCXX_3.4+0x40>
    faf4:	48 89 85 80 fb ff ff 	mov    %rax,-0x480(%rbp)
    fafb:	48 8d 05 8e 4a 20 00 	lea    0x204a8e(%rip),%rax        # 214590 <_ZTVSt15basic_stringbufIcSt11char_traitsIcESaIcEE@@GLIBCXX_3.4+0x10>
    fb02:	48 89 85 88 fb ff ff 	mov    %rax,-0x478(%rbp)
    fb09:	48 8b 85 d0 fb ff ff 	mov    -0x430(%rbp),%rax
    fb10:	48 8d 78 e8          	lea    -0x18(%rax),%rdi
    fb14:	48 3b bd 20 fb ff ff 	cmp    -0x4e0(%rbp),%rdi
    fb1b:	0f 85 3f 09 00 00    	jne    10460 <_ZN6GetOpt9GetOpt_pp6_parseERKSt6vectorISsSaISsEE+0x1230>
    fb21:	48 8d 05 68 48 20 00 	lea    0x204868(%rip),%rax        # 214390 <_ZTVSt15basic_streambufIcSt11char_traitsIcEE@@GLIBCXX_3.4+0x10>
    fb28:	41 bd 01 00 00 00    	mov    $0x1,%r13d
    fb2e:	48 89 85 88 fb ff ff 	mov    %rax,-0x478(%rbp)
    fb35:	48 8b 85 e8 fa ff ff 	mov    -0x518(%rbp),%rax
    fb3c:	48 8d 78 50          	lea    0x50(%rax),%rdi
    fb40:	e8 3b 37 ff ff       	callq  3280 <_ZNSt6localeD1Ev@plt>
    fb45:	48 8b 05 3c 4b 20 00 	mov    0x204b3c(%rip),%rax        # 214688 <_ZTTSt18basic_stringstreamIcSt11char_traitsIcESaIcEE@@GLIBCXX_3.4+0x8>
    fb4c:	48 8b 0d 5d 4b 20 00 	mov    0x204b5d(%rip),%rcx        # 2146b0 <_ZTTSt18basic_stringstreamIcSt11char_traitsIcESaIcEE@@GLIBCXX_3.4+0x30>
    fb53:	48 8b 35 4e 4b 20 00 	mov    0x204b4e(%rip),%rsi        # 2146a8 <_ZTTSt18basic_stringstreamIcSt11char_traitsIcESaIcEE@@GLIBCXX_3.4+0x28>
    fb5a:	48 8b bd e0 fa ff ff 	mov    -0x520(%rbp),%rdi
    fb61:	48 8b 40 e8          	mov    -0x18(%rax),%rax
    fb65:	48 89 8c 05 70 fb ff 	mov    %rcx,-0x490(%rbp,%rax,1)
    fb6c:	ff 
    fb6d:	48 8b 05 2c 4b 20 00 	mov    0x204b2c(%rip),%rax        # 2146a0 <_ZTTSt18basic_stringstreamIcSt11char_traitsIcESaIcEE@@GLIBCXX_3.4+0x20>
    fb74:	48 8b 0d 1d 4b 20 00 	mov    0x204b1d(%rip),%rcx        # 214698 <_ZTTSt18basic_stringstreamIcSt11char_traitsIcESaIcEE@@GLIBCXX_3.4+0x18>
    fb7b:	48 8b 40 e8          	mov    -0x18(%rax),%rax
    fb7f:	48 89 b4 05 80 fb ff 	mov    %rsi,-0x480(%rbp,%rax,1)
    fb86:	ff 
    fb87:	48 8b 05 02 4b 20 00 	mov    0x204b02(%rip),%rax        # 214690 <_ZTTSt18basic_stringstreamIcSt11char_traitsIcESaIcEE@@GLIBCXX_3.4+0x10>
    fb8e:	48 8b 40 e8          	mov    -0x18(%rax),%rax
    fb92:	48 89 8c 05 70 fb ff 	mov    %rcx,-0x490(%rbp,%rax,1)
    fb99:	ff 
    fb9a:	48 8d 05 2f 47 20 00 	lea    0x20472f(%rip),%rax        # 2142d0 <_ZTVSt9basic_iosIcSt11char_traitsIcEE@@GLIBCXX_3.4+0x10>
    fba1:	48 89 85 d8 fb ff ff 	mov    %rax,-0x428(%rbp)
    fba8:	e8 23 34 ff ff       	callq  2fd0 <_ZNSt8ios_baseD2Ev@plt>
    fbad:	e9 ad f7 ff ff       	jmpq   f35f <_ZN6GetOpt9GetOpt_pp6_parseERKSt6vectorISsSaISsEE+0x12f>
    fbb2:	66 0f 1f 44 00 00    	nopw   0x0(%rax,%rax,1)
    fbb8:	49 83 7e e8 01       	cmpq   $0x1,-0x18(%r14)
    fbbd:	0f 86 45 f7 ff ff    	jbe    f308 <_ZN6GetOpt9GetOpt_pp6_parseERKSt6vectorISsSaISsEE+0xd8>
    fbc3:	48 8d 9d 60 fb ff ff 	lea    -0x4a0(%rbp),%rbx
    fbca:	48 8b b5 38 fb ff ff 	mov    -0x4c8(%rbp),%rsi
    fbd1:	48 c7 c1 ff ff ff ff 	mov    $0xffffffffffffffff,%rcx
    fbd8:	ba 01 00 00 00       	mov    $0x1,%edx
    fbdd:	48 89 df             	mov    %rbx,%rdi
    fbe0:	e8 2b 37 ff ff       	callq  3310 <_ZNSsC1ERKSsmm@plt>
    fbe5:	48 89 de             	mov    %rbx,%rsi
    fbe8:	4c 89 e7             	mov    %r12,%rdi
    fbeb:	e8 10 0e 00 00       	callq  10a00 <_ZN6GetOpt9GetOpt_pp15_parse_sub_fileERKSs>
    fbf0:	48 8b 85 60 fb ff ff 	mov    -0x4a0(%rbp),%rax
    fbf7:	48 8d 35 e2 46 20 00 	lea    0x2046e2(%rip),%rsi        # 2142e0 <_ZNSs4_Rep20_S_empty_rep_storageE@@GLIBCXX_3.4>
    fbfe:	48 8d 78 e8          	lea    -0x18(%rax),%rdi
    fc02:	48 39 f7             	cmp    %rsi,%rdi
    fc05:	0f 84 54 f7 ff ff    	je     f35f <_ZN6GetOpt9GetOpt_pp6_parseERKSt6vectorISsSaISsEE+0x12f>
    fc0b:	48 83 3d c5 43 20 00 	cmpq   $0x0,0x2043c5(%rip)        # 213fd8 <_DYNAMIC+0x240>
    fc12:	00 
    fc13:	48 8d 57 10          	lea    0x10(%rdi),%rdx
    fc17:	0f 84 d3 09 00 00    	je     105f0 <_ZN6GetOpt9GetOpt_pp6_parseERKSt6vectorISsSaISsEE+0x13c0>
    fc1d:	b8 ff ff ff ff       	mov    $0xffffffff,%eax
    fc22:	f0 0f c1 02          	lock xadd %eax,(%rdx)
    fc26:	85 c0                	test   %eax,%eax
    fc28:	0f 8f 31 f7 ff ff    	jg     f35f <_ZN6GetOpt9GetOpt_pp6_parseERKSt6vectorISsSaISsEE+0x12f>
    fc2e:	48 8d b5 50 fb ff ff 	lea    -0x4b0(%rbp),%rsi
    fc35:	e8 a6 34 ff ff       	callq  30e0 <_ZNSs4_Rep10_M_destroyERKSaIcE@plt>
    fc3a:	e9 20 f7 ff ff       	jmpq   f35f <_ZN6GetOpt9GetOpt_pp6_parseERKSt6vectorISsSaISsEE+0x12f>
    fc3f:	90                   	nop
    fc40:	4d 8b 6c 24 40       	mov    0x40(%r12),%r13
    fc45:	49 8d 44 24 38       	lea    0x38(%r12),%rax
    fc4a:	48 89 85 30 fb ff ff 	mov    %rax,-0x4d0(%rbp)
    fc51:	48 89 c3             	mov    %rax,%rbx
    fc54:	4d 85 ed             	test   %r13,%r13
    fc57:	75 24                	jne    fc7d <_ZN6GetOpt9GetOpt_pp6_parseERKSt6vectorISsSaISsEE+0xa4d>
    fc59:	e9 98 06 00 00       	jmpq   102f6 <_ZN6GetOpt9GetOpt_pp6_parseERKSt6vectorISsSaISsEE+0x10c6>
    fc5e:	66 90                	xchg   %ax,%ax
    fc60:	49 8d 47 fe          	lea    -0x2(%r15),%rax
    fc64:	48 3d ff ff ff 7f    	cmp    $0x7fffffff,%rax
    fc6a:	7f 36                	jg     fca2 <_ZN6GetOpt9GetOpt_pp6_parseERKSt6vectorISsSaISsEE+0xa72>
    fc6c:	48 3d 00 00 00 80    	cmp    $0xffffffff80000000,%rax
    fc72:	7d 2a                	jge    fc9e <_ZN6GetOpt9GetOpt_pp6_parseERKSt6vectorISsSaISsEE+0xa6e>
    fc74:	4d 8b 6d 18          	mov    0x18(%r13),%r13
    fc78:	4d 85 ed             	test   %r13,%r13
    fc7b:	74 31                	je     fcae <_ZN6GetOpt9GetOpt_pp6_parseERKSt6vectorISsSaISsEE+0xa7e>
    fc7d:	49 8b 7d 20          	mov    0x20(%r13),%rdi
    fc81:	ba 02 00 00 00       	mov    $0x2,%edx
    fc86:	4c 89 f6             	mov    %r14,%rsi
    fc89:	4c 8b 7f e8          	mov    -0x18(%rdi),%r15
    fc8d:	49 83 ff 02          	cmp    $0x2,%r15
    fc91:	49 0f 46 d7          	cmovbe %r15,%rdx
    fc95:	e8 76 33 ff ff       	callq  3010 <memcmp@plt>
    fc9a:	85 c0                	test   %eax,%eax
    fc9c:	74 c2                	je     fc60 <_ZN6GetOpt9GetOpt_pp6_parseERKSt6vectorISsSaISsEE+0xa30>
    fc9e:	85 c0                	test   %eax,%eax
    fca0:	78 d2                	js     fc74 <_ZN6GetOpt9GetOpt_pp6_parseERKSt6vectorISsSaISsEE+0xa44>
    fca2:	4c 89 eb             	mov    %r13,%rbx
    fca5:	4d 8b 6d 10          	mov    0x10(%r13),%r13
    fca9:	4d 85 ed             	test   %r13,%r13
    fcac:	75 cf                	jne    fc7d <_ZN6GetOpt9GetOpt_pp6_parseERKSt6vectorISsSaISsEE+0xa4d>
    fcae:	48 39 9d 30 fb ff ff 	cmp    %rbx,-0x4d0(%rbp)
    fcb5:	0f 84 3b 06 00 00    	je     102f6 <_ZN6GetOpt9GetOpt_pp6_parseERKSt6vectorISsSaISsEE+0x10c6>
    fcbb:	48 8b 73 20          	mov    0x20(%rbx),%rsi
    fcbf:	41 bd 02 00 00 00    	mov    $0x2,%r13d
    fcc5:	4c 89 f7             	mov    %r14,%rdi
    fcc8:	4c 89 ea             	mov    %r13,%rdx
    fccb:	4c 8b 7e e8          	mov    -0x18(%rsi),%r15
    fccf:	49 83 ff 02          	cmp    $0x2,%r15
    fcd3:	49 0f 46 d7          	cmovbe %r15,%rdx
    fcd7:	e8 34 33 ff ff       	callq  3010 <memcmp@plt>
    fcdc:	85 c0                	test   %eax,%eax
    fcde:	75 1c                	jne    fcfc <_ZN6GetOpt9GetOpt_pp6_parseERKSt6vectorISsSaISsEE+0xacc>
    fce0:	4d 29 fd             	sub    %r15,%r13
    fce3:	49 81 fd ff ff ff 7f 	cmp    $0x7fffffff,%r13
    fcea:	7f 18                	jg     fd04 <_ZN6GetOpt9GetOpt_pp6_parseERKSt6vectorISsSaISsEE+0xad4>
    fcec:	49 81 fd 00 00 00 80 	cmp    $0xffffffff80000000,%r13
    fcf3:	0f 8c fd 05 00 00    	jl     102f6 <_ZN6GetOpt9GetOpt_pp6_parseERKSt6vectorISsSaISsEE+0x10c6>
    fcf9:	44 89 e8             	mov    %r13d,%eax
    fcfc:	85 c0                	test   %eax,%eax
    fcfe:	0f 88 f2 05 00 00    	js     102f6 <_ZN6GetOpt9GetOpt_pp6_parseERKSt6vectorISsSaISsEE+0x10c6>
    fd04:	bf 18 00 00 00       	mov    $0x18,%edi
    fd09:	e8 62 34 ff ff       	callq  3170 <_Znwm@plt>
    fd0e:	48 8b b5 38 fb ff ff 	mov    -0x4c8(%rbp),%rsi
    fd15:	48 8d 78 08          	lea    0x8(%rax),%rdi
    fd19:	c7 00 02 00 00 00    	movl   $0x2,(%rax)
    fd1f:	49 89 c5             	mov    %rax,%r13
    fd22:	e8 29 33 ff ff       	callq  3050 <_ZNSsC1ERKSs@plt>
    fd27:	49 83 7c 24 78 00    	cmpq   $0x0,0x78(%r12)
    fd2d:	49 c7 45 10 00 00 00 	movq   $0x0,0x10(%r13)
    fd34:	00 
    fd35:	0f 84 b9 07 00 00    	je     104f4 <_ZN6GetOpt9GetOpt_pp6_parseERKSt6vectorISsSaISsEE+0x12c4>
    fd3b:	49 8b 84 24 80 00 00 	mov    0x80(%r12),%rax
    fd42:	00 
    fd43:	4c 89 68 10          	mov    %r13,0x10(%rax)
    fd47:	4d 89 ac 24 80 00 00 	mov    %r13,0x80(%r12)
    fd4e:	00 
    fd4f:	4c 89 6b 30          	mov    %r13,0x30(%rbx)
    fd53:	41 bd 01 00 00 00    	mov    $0x1,%r13d
    fd59:	e9 01 f6 ff ff       	jmpq   f35f <_ZN6GetOpt9GetOpt_pp6_parseERKSt6vectorISsSaISsEE+0x12f>
    fd5e:	48 8d 9d 50 fe ff ff 	lea    -0x1b0(%rbp),%rbx
    fd65:	44 8b b5 f0 fb ff ff 	mov    -0x410(%rbp),%r14d
    fd6c:	48 8d 7b 68          	lea    0x68(%rbx),%rdi
    fd70:	e8 4b 32 ff ff       	callq  2fc0 <_ZNSt8ios_baseC2Ev@plt>
    fd75:	48 8d 05 54 45 20 00 	lea    0x204554(%rip),%rax        # 2142d0 <_ZTVSt9basic_iosIcSt11char_traitsIcEE@@GLIBCXX_3.4+0x10>
    fd7c:	c6 45 98 00          	movb   $0x0,-0x68(%rbp)
    fd80:	48 8b 0d 11 49 20 00 	mov    0x204911(%rip),%rcx        # 214698 <_ZTTSt18basic_stringstreamIcSt11char_traitsIcESaIcEE@@GLIBCXX_3.4+0x18>
    fd87:	48 c7 45 90 00 00 00 	movq   $0x0,-0x70(%rbp)
    fd8e:	00 
    fd8f:	c6 45 99 00          	movb   $0x0,-0x67(%rbp)
    fd93:	48 89 df             	mov    %rbx,%rdi
    fd96:	48 89 85 b8 fe ff ff 	mov    %rax,-0x148(%rbp)
    fd9d:	48 8b 05 ec 48 20 00 	mov    0x2048ec(%rip),%rax        # 214690 <_ZTTSt18basic_stringstreamIcSt11char_traitsIcESaIcEE@@GLIBCXX_3.4+0x10>
    fda4:	31 f6                	xor    %esi,%esi
    fda6:	48 c7 45 a0 00 00 00 	movq   $0x0,-0x60(%rbp)
    fdad:	00 
    fdae:	48 c7 45 a8 00 00 00 	movq   $0x0,-0x58(%rbp)
    fdb5:	00 
    fdb6:	48 c7 45 b0 00 00 00 	movq   $0x0,-0x50(%rbp)
    fdbd:	00 
    fdbe:	48 c7 45 b8 00 00 00 	movq   $0x0,-0x48(%rbp)
    fdc5:	00 
    fdc6:	48 89 85 50 fe ff ff 	mov    %rax,-0x1b0(%rbp)
    fdcd:	48 8b 40 e8          	mov    -0x18(%rax),%rax
    fdd1:	48 89 8c 05 50 fe ff 	mov    %rcx,-0x1b0(%rbp,%rax,1)
    fdd8:	ff 
    fdd9:	48 8b 05 b0 48 20 00 	mov    0x2048b0(%rip),%rax        # 214690 <_ZTTSt18basic_stringstreamIcSt11char_traitsIcESaIcEE@@GLIBCXX_3.4+0x10>
    fde0:	48 c7 85 58 fe ff ff 	movq   $0x0,-0x1a8(%rbp)
    fde7:	00 00 00 00 
    fdeb:	48 03 78 e8          	add    -0x18(%rax),%rdi
    fdef:	e8 7c 34 ff ff       	callq  3270 <_ZNSt9basic_iosIcSt11char_traitsIcEE4initEPSt15basic_streambufIcS1_E@plt>
    fdf4:	48 8b 05 a5 48 20 00 	mov    0x2048a5(%rip),%rax        # 2146a0 <_ZTTSt18basic_stringstreamIcSt11char_traitsIcESaIcEE@@GLIBCXX_3.4+0x20>
    fdfb:	31 f6                	xor    %esi,%esi
    fdfd:	48 89 85 60 fe ff ff 	mov    %rax,-0x1a0(%rbp)
    fe04:	48 8b 40 e8          	mov    -0x18(%rax),%rax
    fe08:	48 8d 7c 03 10       	lea    0x10(%rbx,%rax,1),%rdi
    fe0d:	48 8b 05 94 48 20 00 	mov    0x204894(%rip),%rax        # 2146a8 <_ZTTSt18basic_stringstreamIcSt11char_traitsIcESaIcEE@@GLIBCXX_3.4+0x28>
    fe14:	48 89 07             	mov    %rax,(%rdi)
    fe17:	e8 54 34 ff ff       	callq  3270 <_ZNSt9basic_iosIcSt11char_traitsIcEE4initEPSt15basic_streambufIcS1_E@plt>
    fe1c:	48 8b 05 65 48 20 00 	mov    0x204865(%rip),%rax        # 214688 <_ZTTSt18basic_stringstreamIcSt11char_traitsIcESaIcEE@@GLIBCXX_3.4+0x8>
    fe23:	48 8b 35 86 48 20 00 	mov    0x204886(%rip),%rsi        # 2146b0 <_ZTTSt18basic_stringstreamIcSt11char_traitsIcESaIcEE@@GLIBCXX_3.4+0x30>
    fe2a:	48 8d 7b 50          	lea    0x50(%rbx),%rdi
    fe2e:	48 8b 40 e8          	mov    -0x18(%rax),%rax
    fe32:	48 89 b4 05 50 fe ff 	mov    %rsi,-0x1b0(%rbp,%rax,1)
    fe39:	ff 
    fe3a:	48 8d 05 d7 44 20 00 	lea    0x2044d7(%rip),%rax        # 214318 <_ZTVSt18basic_stringstreamIcSt11char_traitsIcESaIcEE@@GLIBCXX_3.4+0x18>
    fe41:	48 c7 85 70 fe ff ff 	movq   $0x0,-0x190(%rbp)
    fe48:	00 00 00 00 
    fe4c:	48 c7 85 78 fe ff ff 	movq   $0x0,-0x188(%rbp)
    fe53:	00 00 00 00 
    fe57:	48 c7 85 80 fe ff ff 	movq   $0x0,-0x180(%rbp)
    fe5e:	00 00 00 00 
    fe62:	48 89 85 50 fe ff ff 	mov    %rax,-0x1b0(%rbp)
    fe69:	48 8d 05 f8 44 20 00 	lea    0x2044f8(%rip),%rax        # 214368 <_ZTVSt18basic_stringstreamIcSt11char_traitsIcESaIcEE@@GLIBCXX_3.4+0x68>
    fe70:	48 c7 85 88 fe ff ff 	movq   $0x0,-0x178(%rbp)
    fe77:	00 00 00 00 
    fe7b:	48 c7 85 90 fe ff ff 	movq   $0x0,-0x170(%rbp)
    fe82:	00 00 00 00 
    fe86:	48 c7 85 98 fe ff ff 	movq   $0x0,-0x168(%rbp)
    fe8d:	00 00 00 00 
    fe91:	48 89 85 b8 fe ff ff 	mov    %rax,-0x148(%rbp)
    fe98:	48 8d 05 a1 44 20 00 	lea    0x2044a1(%rip),%rax        # 214340 <_ZTVSt18basic_stringstreamIcSt11char_traitsIcESaIcEE@@GLIBCXX_3.4+0x40>
    fe9f:	48 89 85 60 fe ff ff 	mov    %rax,-0x1a0(%rbp)
    fea6:	48 8d 05 e3 44 20 00 	lea    0x2044e3(%rip),%rax        # 214390 <_ZTVSt15basic_streambufIcSt11char_traitsIcEE@@GLIBCXX_3.4+0x10>
    fead:	48 89 85 68 fe ff ff 	mov    %rax,-0x198(%rbp)
    feb4:	e8 97 35 ff ff       	callq  3450 <_ZNSt6localeC1Ev@plt>
    feb9:	48 8d 05 d0 46 20 00 	lea    0x2046d0(%rip),%rax        # 214590 <_ZTVSt15basic_stringbufIcSt11char_traitsIcESaIcEE@@GLIBCXX_3.4+0x10>
    fec0:	48 8d 73 18          	lea    0x18(%rbx),%rsi
    fec4:	48 8d 7b 68          	lea    0x68(%rbx),%rdi
    fec8:	c7 85 a8 fe ff ff 18 	movl   $0x18,-0x158(%rbp)
    fecf:	00 00 00 
    fed2:	48 89 85 68 fe ff ff 	mov    %rax,-0x198(%rbp)
    fed9:	48 8d 05 18 44 20 00 	lea    0x204418(%rip),%rax        # 2142f8 <_ZNSs4_Rep20_S_empty_rep_storageE@@GLIBCXX_3.4+0x18>
    fee0:	48 89 85 b0 fe ff ff 	mov    %rax,-0x150(%rbp)
    fee7:	e8 84 33 ff ff       	callq  3270 <_ZNSt9basic_iosIcSt11char_traitsIcEE4initEPSt15basic_streambufIcS1_E@plt>
    feec:	48 8d 7b 68          	lea    0x68(%rbx),%rdi
    fef0:	31 f6                	xor    %esi,%esi
    fef2:	e8 79 34 ff ff       	callq  3370 <_ZNSt9basic_iosIcSt11char_traitsIcEE5clearESt12_Ios_Iostate@plt>
    fef7:	48 8b 85 38 fb ff ff 	mov    -0x4c8(%rbp),%rax
    fefe:	48 8d 7b 10          	lea    0x10(%rbx),%rdi
    ff02:	44 89 b5 d0 fe ff ff 	mov    %r14d,-0x130(%rbp)
    ff09:	48 8b 30             	mov    (%rax),%rsi
    ff0c:	48 8b 56 e8          	mov    -0x18(%rsi),%rdx
    ff10:	e8 db 32 ff ff       	callq  31f0 <_ZSt16__ostream_insertIcSt11char_traitsIcEERSt13basic_ostreamIT_T0_ES6_PKS3_l@plt>
    ff15:	48 8d b5 4c fb ff ff 	lea    -0x4b4(%rbp),%rsi
    ff1c:	48 89 df             	mov    %rbx,%rdi
    ff1f:	e8 1c 35 ff ff       	callq  3440 <_ZNSi10_M_extractIfEERSiRT_@plt>
    ff24:	8b 85 d8 fe ff ff    	mov    -0x128(%rbp),%eax
    ff2a:	41 be 03 00 00 00    	mov    $0x3,%r14d
    ff30:	a8 05                	test   $0x5,%al
    ff32:	75 0d                	jne    ff41 <_ZN6GetOpt9GetOpt_pp6_parseERKSt6vectorISsSaISsEE+0xd11>
    ff34:	83 e0 02             	and    $0x2,%eax
    ff37:	83 f8 01             	cmp    $0x1,%eax
    ff3a:	45 19 f6             	sbb    %r14d,%r14d
    ff3d:	41 83 e6 03          	and    $0x3,%r14d
    ff41:	48 8d 05 d0 43 20 00 	lea    0x2043d0(%rip),%rax        # 214318 <_ZTVSt18basic_stringstreamIcSt11char_traitsIcESaIcEE@@GLIBCXX_3.4+0x18>
    ff48:	48 89 85 50 fe ff ff 	mov    %rax,-0x1b0(%rbp)
    ff4f:	48 8d 05 12 44 20 00 	lea    0x204412(%rip),%rax        # 214368 <_ZTVSt18basic_stringstreamIcSt11char_traitsIcESaIcEE@@GLIBCXX_3.4+0x68>
    ff56:	48 89 85 b8 fe ff ff 	mov    %rax,-0x148(%rbp)
    ff5d:	48 8d 05 dc 43 20 00 	lea    0x2043dc(%rip),%rax        # 214340 <_ZTVSt18basic_stringstreamIcSt11char_traitsIcESaIcEE@@GLIBCXX_3.4+0x40>
    ff64:	48 89 85 60 fe ff ff 	mov    %rax,-0x1a0(%rbp)
    ff6b:	48 8d 05 1e 46 20 00 	lea    0x20461e(%rip),%rax        # 214590 <_ZTVSt15basic_stringbufIcSt11char_traitsIcESaIcEE@@GLIBCXX_3.4+0x10>
    ff72:	48 89 85 68 fe ff ff 	mov    %rax,-0x198(%rbp)
    ff79:	48 8b 85 b0 fe ff ff 	mov    -0x150(%rbp),%rax
    ff80:	48 8d 78 e8          	lea    -0x18(%rax),%rdi
    ff84:	48 3b bd 20 fb ff ff 	cmp    -0x4e0(%rbp),%rdi
    ff8b:	0f 85 00 06 00 00    	jne    10591 <_ZN6GetOpt9GetOpt_pp6_parseERKSt6vectorISsSaISsEE+0x1361>
    ff91:	48 8d 05 f8 43 20 00 	lea    0x2043f8(%rip),%rax        # 214390 <_ZTVSt15basic_streambufIcSt11char_traitsIcEE@@GLIBCXX_3.4+0x10>
    ff98:	48 8d 7b 50          	lea    0x50(%rbx),%rdi
    ff9c:	48 89 85 68 fe ff ff 	mov    %rax,-0x198(%rbp)
    ffa3:	e8 d8 32 ff ff       	callq  3280 <_ZNSt6localeD1Ev@plt>
    ffa8:	48 8b 05 d9 46 20 00 	mov    0x2046d9(%rip),%rax        # 214688 <_ZTTSt18basic_stringstreamIcSt11char_traitsIcESaIcEE@@GLIBCXX_3.4+0x8>
    ffaf:	48 8b 35 fa 46 20 00 	mov    0x2046fa(%rip),%rsi        # 2146b0 <_ZTTSt18basic_stringstreamIcSt11char_traitsIcESaIcEE@@GLIBCXX_3.4+0x30>
    ffb6:	48 8d 7b 68          	lea    0x68(%rbx),%rdi
    ffba:	48 8b 0d e7 46 20 00 	mov    0x2046e7(%rip),%rcx        # 2146a8 <_ZTTSt18basic_stringstreamIcSt11char_traitsIcESaIcEE@@GLIBCXX_3.4+0x28>
    ffc1:	48 8b 40 e8          	mov    -0x18(%rax),%rax
    ffc5:	48 89 b4 05 50 fe ff 	mov    %rsi,-0x1b0(%rbp,%rax,1)
    ffcc:	ff 
    ffcd:	48 8b 05 cc 46 20 00 	mov    0x2046cc(%rip),%rax        # 2146a0 <_ZTTSt18basic_stringstreamIcSt11char_traitsIcESaIcEE@@GLIBCXX_3.4+0x20>
    ffd4:	48 8b 35 bd 46 20 00 	mov    0x2046bd(%rip),%rsi        # 214698 <_ZTTSt18basic_stringstreamIcSt11char_traitsIcESaIcEE@@GLIBCXX_3.4+0x18>
    ffdb:	48 8b 40 e8          	mov    -0x18(%rax),%rax
    ffdf:	48 89 8c 05 60 fe ff 	mov    %rcx,-0x1a0(%rbp,%rax,1)
    ffe6:	ff 
    ffe7:	48 8b 05 a2 46 20 00 	mov    0x2046a2(%rip),%rax        # 214690 <_ZTTSt18basic_stringstreamIcSt11char_traitsIcESaIcEE@@GLIBCXX_3.4+0x10>
    ffee:	48 8b 40 e8          	mov    -0x18(%rax),%rax
    fff2:	48 89 b4 05 50 fe ff 	mov    %rsi,-0x1b0(%rbp,%rax,1)
    fff9:	ff 
    fffa:	48 8d 05 cf 42 20 00 	lea    0x2042cf(%rip),%rax        # 2142d0 <_ZTVSt9basic_iosIcSt11char_traitsIcEE@@GLIBCXX_3.4+0x10>
   10001:	48 89 85 b8 fe ff ff 	mov    %rax,-0x148(%rbp)
   10008:	e8 c3 2f ff ff       	callq  2fd0 <_ZNSt8ios_baseD2Ev@plt>
   1000d:	45 85 f6             	test   %r14d,%r14d
   10010:	0f 84 f3 03 00 00    	je     10409 <_ZN6GetOpt9GetOpt_pp6_parseERKSt6vectorISsSaISsEE+0x11d9>
   10016:	48 8b 85 38 fb ff ff 	mov    -0x4c8(%rbp),%rax
   1001d:	41 be 01 00 00 00    	mov    $0x1,%r14d
   10023:	4c 8b 28             	mov    (%rax),%r13
   10026:	49 8d 44 24 08       	lea    0x8(%r12),%rax
   1002b:	48 89 85 30 fb ff ff 	mov    %rax,-0x4d0(%rbp)
   10032:	48 8d 85 50 fb ff ff 	lea    -0x4b0(%rbp),%rax
   10039:	49 83 7d e8 01       	cmpq   $0x1,-0x18(%r13)
   1003e:	48 89 85 10 fb ff ff 	mov    %rax,-0x4f0(%rbp)
   10045:	48 8d 85 60 fb ff ff 	lea    -0x4a0(%rbp),%rax
   1004c:	48 89 85 d0 fa ff ff 	mov    %rax,-0x530(%rbp)
   10053:	0f 86 78 fa ff ff    	jbe    fad1 <_ZN6GetOpt9GetOpt_pp6_parseERKSt6vectorISsSaISsEE+0x8a1>
   10059:	49 8b 44 24 10       	mov    0x10(%r12),%rax
   1005e:	4d 01 f5             	add    %r14,%r13
   10061:	48 85 c0             	test   %rax,%rax
   10064:	0f 84 52 01 00 00    	je     101bc <_ZN6GetOpt9GetOpt_pp6_parseERKSt6vectorISsSaISsEE+0xf8c>
   1006a:	66 0f 1f 44 00 00    	nopw   0x0(%rax,%rax,1)
   10070:	41 0f b6 55 00       	movzbl 0x0(%r13),%edx
   10075:	48 8b 9d 30 fb ff ff 	mov    -0x4d0(%rbp),%rbx
   1007c:	eb 0e                	jmp    1008c <_ZN6GetOpt9GetOpt_pp6_parseERKSt6vectorISsSaISsEE+0xe5c>
   1007e:	66 90                	xchg   %ax,%ax
   10080:	48 89 c3             	mov    %rax,%rbx
   10083:	48 8b 40 10          	mov    0x10(%rax),%rax
   10087:	48 85 c0             	test   %rax,%rax
   1008a:	74 0e                	je     1009a <_ZN6GetOpt9GetOpt_pp6_parseERKSt6vectorISsSaISsEE+0xe6a>
   1008c:	38 50 20             	cmp    %dl,0x20(%rax)
   1008f:	7d ef                	jge    10080 <_ZN6GetOpt9GetOpt_pp6_parseERKSt6vectorISsSaISsEE+0xe50>
   10091:	48 8b 40 18          	mov    0x18(%rax),%rax
   10095:	48 85 c0             	test   %rax,%rax
   10098:	75 f2                	jne    1008c <_ZN6GetOpt9GetOpt_pp6_parseERKSt6vectorISsSaISsEE+0xe5c>
   1009a:	48 3b 9d 30 fb ff ff 	cmp    -0x4d0(%rbp),%rbx
   100a1:	74 05                	je     100a8 <_ZN6GetOpt9GetOpt_pp6_parseERKSt6vectorISsSaISsEE+0xe78>
   100a3:	38 53 20             	cmp    %dl,0x20(%rbx)
   100a6:	7e 72                	jle    1011a <_ZN6GetOpt9GetOpt_pp6_parseERKSt6vectorISsSaISsEE+0xeea>
   100a8:	bf 38 00 00 00       	mov    $0x38,%edi
   100ad:	e8 be 30 ff ff       	callq  3170 <_Znwm@plt>
   100b2:	49 89 c7             	mov    %rax,%r15
   100b5:	41 0f b6 45 00       	movzbl 0x0(%r13),%eax
   100ba:	48 89 de             	mov    %rbx,%rsi
   100bd:	49 8d 57 20          	lea    0x20(%r15),%rdx
   100c1:	41 c7 47 28 00 00 00 	movl   $0x0,0x28(%r15)
   100c8:	00 
   100c9:	4c 89 e7             	mov    %r12,%rdi
   100cc:	41 88 47 20          	mov    %al,0x20(%r15)
   100d0:	e8 6b e2 ff ff       	callq  e340 <_ZNSt8_Rb_treeIcSt4pairIKcN6GetOpt10OptionDataEESt10_Select1stIS4_ESt4lessIcESaIS4_EE29_M_get_insert_hint_unique_posESt23_Rb_tree_const_iteratorIS4_ERS1_>
   100d5:	48 85 d2             	test   %rdx,%rdx
   100d8:	0f 84 22 01 00 00    	je     10200 <_ZN6GetOpt9GetOpt_pp6_parseERKSt6vectorISsSaISsEE+0xfd0>
   100de:	48 39 95 30 fb ff ff 	cmp    %rdx,-0x4d0(%rbp)
   100e5:	0f 84 50 04 00 00    	je     1053b <_ZN6GetOpt9GetOpt_pp6_parseERKSt6vectorISsSaISsEE+0x130b>
   100eb:	48 85 c0             	test   %rax,%rax
   100ee:	0f 85 47 04 00 00    	jne    1053b <_ZN6GetOpt9GetOpt_pp6_parseERKSt6vectorISsSaISsEE+0x130b>
   100f4:	0f b6 42 20          	movzbl 0x20(%rdx),%eax
   100f8:	31 ff                	xor    %edi,%edi
   100fa:	41 38 47 20          	cmp    %al,0x20(%r15)
   100fe:	40 0f 9c c7          	setl   %dil
   10102:	48 8b 8d 30 fb ff ff 	mov    -0x4d0(%rbp),%rcx
   10109:	4c 89 fe             	mov    %r15,%rsi
   1010c:	4c 89 fb             	mov    %r15,%rbx
   1010f:	e8 5c 2e ff ff       	callq  2f70 <_ZSt29_Rb_tree_insert_and_rebalancebPSt18_Rb_tree_node_baseS0_RS_@plt>
   10114:	49 83 44 24 28 01    	addq   $0x1,0x28(%r12)
   1011a:	4c 8b bd 10 fb ff ff 	mov    -0x4f0(%rbp),%r15
   10121:	48 8b b5 38 fb ff ff 	mov    -0x4c8(%rbp),%rsi
   10128:	b9 01 00 00 00       	mov    $0x1,%ecx
   1012d:	4c 89 f2             	mov    %r14,%rdx
   10130:	4c 89 ff             	mov    %r15,%rdi
   10133:	e8 d8 31 ff ff       	callq  3310 <_ZNSsC1ERKSsmm@plt>
   10138:	bf 18 00 00 00       	mov    $0x18,%edi
   1013d:	e8 2e 30 ff ff       	callq  3170 <_Znwm@plt>
   10142:	48 8d 78 08          	lea    0x8(%rax),%rdi
   10146:	c7 00 00 00 00 00    	movl   $0x0,(%rax)
   1014c:	4c 89 fe             	mov    %r15,%rsi
   1014f:	49 89 c5             	mov    %rax,%r13
   10152:	e8 f9 2e ff ff       	callq  3050 <_ZNSsC1ERKSs@plt>
   10157:	49 83 7c 24 78 00    	cmpq   $0x0,0x78(%r12)
   1015d:	49 c7 45 10 00 00 00 	movq   $0x0,0x10(%r13)
   10164:	00 
   10165:	74 61                	je     101c8 <_ZN6GetOpt9GetOpt_pp6_parseERKSt6vectorISsSaISsEE+0xf98>
   10167:	49 8b 84 24 80 00 00 	mov    0x80(%r12),%rax
   1016e:	00 
   1016f:	4c 89 68 10          	mov    %r13,0x10(%rax)
   10173:	4d 89 ac 24 80 00 00 	mov    %r13,0x80(%r12)
   1017a:	00 
   1017b:	4c 89 6b 30          	mov    %r13,0x30(%rbx)
   1017f:	48 8b 85 50 fb ff ff 	mov    -0x4b0(%rbp),%rax
   10186:	48 8d 78 e8          	lea    -0x18(%rax),%rdi
   1018a:	48 3b bd 20 fb ff ff 	cmp    -0x4e0(%rbp),%rdi
   10191:	75 3c                	jne    101cf <_ZN6GetOpt9GetOpt_pp6_parseERKSt6vectorISsSaISsEE+0xf9f>
   10193:	48 8b 85 38 fb ff ff 	mov    -0x4c8(%rbp),%rax
   1019a:	49 83 c6 01          	add    $0x1,%r14
   1019e:	4c 8b 28             	mov    (%rax),%r13
   101a1:	4d 3b 75 e8          	cmp    -0x18(%r13),%r14
   101a5:	0f 83 26 f9 ff ff    	jae    fad1 <_ZN6GetOpt9GetOpt_pp6_parseERKSt6vectorISsSaISsEE+0x8a1>
   101ab:	49 8b 44 24 10       	mov    0x10(%r12),%rax
   101b0:	4d 01 f5             	add    %r14,%r13
   101b3:	48 85 c0             	test   %rax,%rax
   101b6:	0f 85 b4 fe ff ff    	jne    10070 <_ZN6GetOpt9GetOpt_pp6_parseERKSt6vectorISsSaISsEE+0xe40>
   101bc:	48 8b 9d 30 fb ff ff 	mov    -0x4d0(%rbp),%rbx
   101c3:	e9 e0 fe ff ff       	jmpq   100a8 <_ZN6GetOpt9GetOpt_pp6_parseERKSt6vectorISsSaISsEE+0xe78>
   101c8:	4d 89 6c 24 78       	mov    %r13,0x78(%r12)
   101cd:	eb a4                	jmp    10173 <_ZN6GetOpt9GetOpt_pp6_parseERKSt6vectorISsSaISsEE+0xf43>
   101cf:	48 83 3d 01 3e 20 00 	cmpq   $0x0,0x203e01(%rip)        # 213fd8 <_DYNAMIC+0x240>
   101d6:	00 
   101d7:	0f 84 09 01 00 00    	je     102e6 <_ZN6GetOpt9GetOpt_pp6_parseERKSt6vectorISsSaISsEE+0x10b6>
   101dd:	ba ff ff ff ff       	mov    $0xffffffff,%edx
   101e2:	f0 0f c1 50 f8       	lock xadd %edx,-0x8(%rax)
   101e7:	89 d0                	mov    %edx,%eax
   101e9:	85 c0                	test   %eax,%eax
   101eb:	7f a6                	jg     10193 <_ZN6GetOpt9GetOpt_pp6_parseERKSt6vectorISsSaISsEE+0xf63>
   101ed:	48 8b b5 d0 fa ff ff 	mov    -0x530(%rbp),%rsi
   101f4:	e8 e7 2e ff ff       	callq  30e0 <_ZNSs4_Rep10_M_destroyERKSaIcE@plt>
   101f9:	eb 98                	jmp    10193 <_ZN6GetOpt9GetOpt_pp6_parseERKSt6vectorISsSaISsEE+0xf63>
   101fb:	0f 1f 44 00 00       	nopl   0x0(%rax,%rax,1)
   10200:	4c 89 ff             	mov    %r15,%rdi
   10203:	48 89 85 d8 fa ff ff 	mov    %rax,-0x528(%rbp)
   1020a:	e8 31 2f ff ff       	callq  3140 <_ZdlPv@plt>
   1020f:	48 8b 85 d8 fa ff ff 	mov    -0x528(%rbp),%rax
   10216:	48 89 c3             	mov    %rax,%rbx
   10219:	e9 fc fe ff ff       	jmpq   1011a <_ZN6GetOpt9GetOpt_pp6_parseERKSt6vectorISsSaISsEE+0xeea>
   1021e:	49 8b 44 24 10       	mov    0x10(%r12),%rax
   10223:	49 8d 74 24 08       	lea    0x8(%r12),%rsi
   10228:	48 85 c0             	test   %rax,%rax
   1022b:	0f 84 9e 03 00 00    	je     105cf <_ZN6GetOpt9GetOpt_pp6_parseERKSt6vectorISsSaISsEE+0x139f>
   10231:	0f b6 51 01          	movzbl 0x1(%rcx),%edx
   10235:	48 89 f3             	mov    %rsi,%rbx
   10238:	eb 12                	jmp    1024c <_ZN6GetOpt9GetOpt_pp6_parseERKSt6vectorISsSaISsEE+0x101c>
   1023a:	66 0f 1f 44 00 00    	nopw   0x0(%rax,%rax,1)
   10240:	48 89 c3             	mov    %rax,%rbx
   10243:	48 8b 40 10          	mov    0x10(%rax),%rax
   10247:	48 85 c0             	test   %rax,%rax
   1024a:	74 0e                	je     1025a <_ZN6GetOpt9GetOpt_pp6_parseERKSt6vectorISsSaISsEE+0x102a>
   1024c:	38 50 20             	cmp    %dl,0x20(%rax)
   1024f:	7d ef                	jge    10240 <_ZN6GetOpt9GetOpt_pp6_parseERKSt6vectorISsSaISsEE+0x1010>
   10251:	48 8b 40 18          	mov    0x18(%rax),%rax
   10255:	48 85 c0             	test   %rax,%rax
   10258:	75 f2                	jne    1024c <_ZN6GetOpt9GetOpt_pp6_parseERKSt6vectorISsSaISsEE+0x101c>
   1025a:	48 39 de             	cmp    %rbx,%rsi
   1025d:	74 05                	je     10264 <_ZN6GetOpt9GetOpt_pp6_parseERKSt6vectorISsSaISsEE+0x1034>
   1025f:	38 53 20             	cmp    %dl,0x20(%rbx)
   10262:	7e 2e                	jle    10292 <_ZN6GetOpt9GetOpt_pp6_parseERKSt6vectorISsSaISsEE+0x1062>
   10264:	48 83 c1 01          	add    $0x1,%rcx
   10268:	4c 8d 85 47 fb ff ff 	lea    -0x4b9(%rbp),%r8
   1026f:	48 8d 15 cb 14 00 00 	lea    0x14cb(%rip),%rdx        # 11741 <_ZStL19piecewise_construct>
   10276:	48 89 8d 60 fb ff ff 	mov    %rcx,-0x4a0(%rbp)
   1027d:	48 8d 8d 60 fb ff ff 	lea    -0x4a0(%rbp),%rcx
   10284:	48 89 de             	mov    %rbx,%rsi
   10287:	4c 89 e7             	mov    %r12,%rdi
   1028a:	e8 81 dd ff ff       	callq  e010 <_ZNSt8_Rb_treeIcSt4pairIKcN6GetOpt10OptionDataEESt10_Select1stIS4_ESt4lessIcESaIS4_EE22_M_emplace_hint_uniqueIIRKSt21piecewise_construct_tSt5tupleIIRS1_EESF_IIEEEEESt17_Rb_tree_iteratorIS4_ESt23_Rb_tree_const_iteratorIS4_EDpOT_>
   1028f:	48 89 c3             	mov    %rax,%rbx
   10292:	bf 18 00 00 00       	mov    $0x18,%edi
   10297:	e8 d4 2e ff ff       	callq  3170 <_Znwm@plt>
   1029c:	48 8b b5 38 fb ff ff 	mov    -0x4c8(%rbp),%rsi
   102a3:	48 8d 78 08          	lea    0x8(%rax),%rdi
   102a7:	c7 00 05 00 00 00    	movl   $0x5,(%rax)
   102ad:	49 89 c5             	mov    %rax,%r13
   102b0:	e8 9b 2d ff ff       	callq  3050 <_ZNSsC1ERKSs@plt>
   102b5:	49 83 7c 24 78 00    	cmpq   $0x0,0x78(%r12)
   102bb:	49 c7 45 10 00 00 00 	movq   $0x0,0x10(%r13)
   102c2:	00 
   102c3:	0f 84 fc 02 00 00    	je     105c5 <_ZN6GetOpt9GetOpt_pp6_parseERKSt6vectorISsSaISsEE+0x1395>
   102c9:	49 8b 84 24 80 00 00 	mov    0x80(%r12),%rax
   102d0:	00 
   102d1:	4c 89 68 10          	mov    %r13,0x10(%rax)
   102d5:	4d 89 ac 24 80 00 00 	mov    %r13,0x80(%r12)
   102dc:	00 
   102dd:	4c 89 6b 30          	mov    %r13,0x30(%rbx)
   102e1:	e9 eb f7 ff ff       	jmpq   fad1 <_ZN6GetOpt9GetOpt_pp6_parseERKSt6vectorISsSaISsEE+0x8a1>
   102e6:	8b 50 f8             	mov    -0x8(%rax),%edx
   102e9:	8d 4a ff             	lea    -0x1(%rdx),%ecx
   102ec:	89 48 f8             	mov    %ecx,-0x8(%rax)
   102ef:	89 d0                	mov    %edx,%eax
   102f1:	e9 f3 fe ff ff       	jmpq   101e9 <_ZN6GetOpt9GetOpt_pp6_parseERKSt6vectorISsSaISsEE+0xfb9>
   102f6:	48 8b 85 38 fb ff ff 	mov    -0x4c8(%rbp),%rax
   102fd:	48 8d 8d 60 fb ff ff 	lea    -0x4a0(%rbp),%rcx
   10304:	49 8d 7c 24 30       	lea    0x30(%r12),%rdi
   10309:	4c 8d 85 50 fb ff ff 	lea    -0x4b0(%rbp),%r8
   10310:	48 8d 15 2a 14 00 00 	lea    0x142a(%rip),%rdx        # 11741 <_ZStL19piecewise_construct>
   10317:	48 89 de             	mov    %rbx,%rsi
   1031a:	48 89 85 60 fb ff ff 	mov    %rax,-0x4a0(%rbp)
   10321:	e8 aa ea ff ff       	callq  edd0 <_ZNSt8_Rb_treeISsSt4pairIKSsN6GetOpt10OptionDataEESt10_Select1stIS4_ESt4lessISsESaIS4_EE22_M_emplace_hint_uniqueIIRKSt21piecewise_construct_tSt5tupleIIRS1_EESF_IIEEEEESt17_Rb_tree_iteratorIS4_ESt23_Rb_tree_const_iteratorIS4_EDpOT_>
   10326:	48 89 c3             	mov    %rax,%rbx
   10329:	e9 d6 f9 ff ff       	jmpq   fd04 <_ZN6GetOpt9GetOpt_pp6_parseERKSt6vectorISsSaISsEE+0xad4>
   1032e:	48 8d 05 ab 3f 20 00 	lea    0x203fab(%rip),%rax        # 2142e0 <_ZNSs4_Rep20_S_empty_rep_storageE@@GLIBCXX_3.4>
   10335:	bf 38 00 00 00       	mov    $0x38,%edi
   1033a:	48 89 85 20 fb ff ff 	mov    %rax,-0x4e0(%rbp)
   10341:	e8 2a 2e ff ff       	callq  3170 <_Znwm@plt>
   10346:	49 89 c6             	mov    %rax,%r14
   10349:	48 8b 85 50 fb ff ff 	mov    -0x4b0(%rbp),%rax
   10350:	49 8d 7c 24 30       	lea    0x30(%r12),%rdi
   10355:	49 8d 56 20          	lea    0x20(%r14),%rdx
   10359:	48 89 de             	mov    %rbx,%rsi
   1035c:	41 c7 46 28 00 00 00 	movl   $0x0,0x28(%r14)
   10363:	00 
   10364:	49 89 46 20          	mov    %rax,0x20(%r14)
   10368:	48 8d 05 89 3f 20 00 	lea    0x203f89(%rip),%rax        # 2142f8 <_ZNSs4_Rep20_S_empty_rep_storageE@@GLIBCXX_3.4+0x18>
   1036f:	48 89 85 50 fb ff ff 	mov    %rax,-0x4b0(%rbp)
   10376:	e8 e5 e7 ff ff       	callq  eb60 <_ZNSt8_Rb_treeISsSt4pairIKSsN6GetOpt10OptionDataEESt10_Select1stIS4_ESt4lessISsESaIS4_EE29_M_get_insert_hint_unique_posESt23_Rb_tree_const_iteratorIS4_ERS1_>
   1037b:	48 85 d2             	test   %rdx,%rdx
   1037e:	48 89 c3             	mov    %rax,%rbx
   10381:	49 89 d7             	mov    %rdx,%r15
   10384:	0f 84 bb 01 00 00    	je     10545 <_ZN6GetOpt9GetOpt_pp6_parseERKSt6vectorISsSaISsEE+0x1315>
   1038a:	48 39 95 30 fb ff ff 	cmp    %rdx,-0x4d0(%rbp)
   10391:	0f 84 29 03 00 00    	je     106c0 <_ZN6GetOpt9GetOpt_pp6_parseERKSt6vectorISsSaISsEE+0x1490>
   10397:	48 85 c0             	test   %rax,%rax
   1039a:	0f 85 20 03 00 00    	jne    106c0 <_ZN6GetOpt9GetOpt_pp6_parseERKSt6vectorISsSaISsEE+0x1490>
   103a0:	48 8b 72 20          	mov    0x20(%rdx),%rsi
   103a4:	49 8b 7e 20          	mov    0x20(%r14),%rdi
   103a8:	48 8b 4e e8          	mov    -0x18(%rsi),%rcx
   103ac:	48 8b 5f e8          	mov    -0x18(%rdi),%rbx
   103b0:	48 89 ca             	mov    %rcx,%rdx
   103b3:	48 39 cb             	cmp    %rcx,%rbx
   103b6:	48 89 8d 20 fb ff ff 	mov    %rcx,-0x4e0(%rbp)
   103bd:	48 0f 46 d3          	cmovbe %rbx,%rdx
   103c1:	e8 4a 2c ff ff       	callq  3010 <memcmp@plt>
   103c6:	85 c0                	test   %eax,%eax
   103c8:	0f 85 53 02 00 00    	jne    10621 <_ZN6GetOpt9GetOpt_pp6_parseERKSt6vectorISsSaISsEE+0x13f1>
   103ce:	48 8b 8d 20 fb ff ff 	mov    -0x4e0(%rbp),%rcx
   103d5:	48 89 d8             	mov    %rbx,%rax
   103d8:	31 ff                	xor    %edi,%edi
   103da:	48 29 c8             	sub    %rcx,%rax
   103dd:	48 3d ff ff ff 7f    	cmp    $0x7fffffff,%rax
   103e3:	0f 8e 27 02 00 00    	jle    10610 <_ZN6GetOpt9GetOpt_pp6_parseERKSt6vectorISsSaISsEE+0x13e0>
   103e9:	48 8b 8d 30 fb ff ff 	mov    -0x4d0(%rbp),%rcx
   103f0:	4c 89 fa             	mov    %r15,%rdx
   103f3:	4c 89 f6             	mov    %r14,%rsi
   103f6:	4c 89 f3             	mov    %r14,%rbx
   103f9:	e8 72 2b ff ff       	callq  2f70 <_ZSt29_Rb_tree_insert_and_rebalancebPSt18_Rb_tree_node_baseS0_RS_@plt>
   103fe:	49 83 44 24 58 01    	addq   $0x1,0x58(%r12)
   10404:	e9 d6 f0 ff ff       	jmpq   f4df <_ZN6GetOpt9GetOpt_pp6_parseERKSt6vectorISsSaISsEE+0x2af>
   10409:	41 80 fd 01          	cmp    $0x1,%r13b
   1040d:	bf 18 00 00 00       	mov    $0x18,%edi
   10412:	45 19 ed             	sbb    %r13d,%r13d
   10415:	41 83 e5 fc          	and    $0xfffffffc,%r13d
   10419:	41 83 c5 06          	add    $0x6,%r13d
   1041d:	e8 4e 2d ff ff       	callq  3170 <_Znwm@plt>
   10422:	48 8b b5 38 fb ff ff 	mov    -0x4c8(%rbp),%rsi
   10429:	48 8d 78 08          	lea    0x8(%rax),%rdi
   1042d:	44 89 28             	mov    %r13d,(%rax)
   10430:	48 89 c3             	mov    %rax,%rbx
   10433:	e8 18 2c ff ff       	callq  3050 <_ZNSsC1ERKSs@plt>
   10438:	48 c7 43 10 00 00 00 	movq   $0x0,0x10(%rbx)
   1043f:	00 
   10440:	49 83 7c 24 78 00    	cmpq   $0x0,0x78(%r12)
   10446:	0f 85 71 f6 ff ff    	jne    fabd <_ZN6GetOpt9GetOpt_pp6_parseERKSt6vectorISsSaISsEE+0x88d>
   1044c:	49 89 5c 24 78       	mov    %rbx,0x78(%r12)
   10451:	e9 73 f6 ff ff       	jmpq   fac9 <_ZN6GetOpt9GetOpt_pp6_parseERKSt6vectorISsSaISsEE+0x899>
   10456:	49 89 5c 24 78       	mov    %rbx,0x78(%r12)
   1045b:	e9 f7 ee ff ff       	jmpq   f357 <_ZN6GetOpt9GetOpt_pp6_parseERKSt6vectorISsSaISsEE+0x127>
   10460:	48 83 3d 70 3b 20 00 	cmpq   $0x0,0x203b70(%rip)        # 213fd8 <_DYNAMIC+0x240>
   10467:	00 
   10468:	0f 84 03 01 00 00    	je     10571 <_ZN6GetOpt9GetOpt_pp6_parseERKSt6vectorISsSaISsEE+0x1341>
   1046e:	ba ff ff ff ff       	mov    $0xffffffff,%edx
   10473:	f0 0f c1 50 f8       	lock xadd %edx,-0x8(%rax)
   10478:	89 d0                	mov    %edx,%eax
   1047a:	85 c0                	test   %eax,%eax
   1047c:	0f 8f 9f f6 ff ff    	jg     fb21 <_ZN6GetOpt9GetOpt_pp6_parseERKSt6vectorISsSaISsEE+0x8f1>
   10482:	48 8d b5 60 fb ff ff 	lea    -0x4a0(%rbp),%rsi
   10489:	e8 52 2c ff ff       	callq  30e0 <_ZNSs4_Rep10_M_destroyERKSaIcE@plt>
   1048e:	e9 8e f6 ff ff       	jmpq   fb21 <_ZN6GetOpt9GetOpt_pp6_parseERKSt6vectorISsSaISsEE+0x8f1>
   10493:	48 83 3d 3d 3b 20 00 	cmpq   $0x0,0x203b3d(%rip)        # 213fd8 <_DYNAMIC+0x240>
   1049a:	00 
   1049b:	0f 84 e0 00 00 00    	je     10581 <_ZN6GetOpt9GetOpt_pp6_parseERKSt6vectorISsSaISsEE+0x1351>
   104a1:	ba ff ff ff ff       	mov    $0xffffffff,%edx
   104a6:	f0 0f c1 50 f8       	lock xadd %edx,-0x8(%rax)
   104ab:	89 d0                	mov    %edx,%eax
   104ad:	85 c0                	test   %eax,%eax
   104af:	0f 8f 26 f5 ff ff    	jg     f9db <_ZN6GetOpt9GetOpt_pp6_parseERKSt6vectorISsSaISsEE+0x7ab>
   104b5:	48 8d b5 60 fb ff ff 	lea    -0x4a0(%rbp),%rsi
   104bc:	e8 1f 2c ff ff       	callq  30e0 <_ZNSs4_Rep10_M_destroyERKSaIcE@plt>
   104c1:	e9 15 f5 ff ff       	jmpq   f9db <_ZN6GetOpt9GetOpt_pp6_parseERKSt6vectorISsSaISsEE+0x7ab>
   104c6:	48 8b 45 c8          	mov    -0x38(%rbp),%rax
   104ca:	64 48 33 04 25 28 00 	xor    %fs:0x28,%rax
   104d1:	00 00 
   104d3:	41 c7 44 24 64 00 00 	movl   $0x0,0x64(%r12)
   104da:	00 00 
   104dc:	0f 85 d9 01 00 00    	jne    106bb <_ZN6GetOpt9GetOpt_pp6_parseERKSt6vectorISsSaISsEE+0x148b>
   104e2:	48 81 c4 08 05 00 00 	add    $0x508,%rsp
   104e9:	5b                   	pop    %rbx
   104ea:	41 5c                	pop    %r12
   104ec:	41 5d                	pop    %r13
   104ee:	41 5e                	pop    %r14
   104f0:	41 5f                	pop    %r15
   104f2:	5d                   	pop    %rbp
   104f3:	c3                   	retq   
   104f4:	4d 89 6c 24 78       	mov    %r13,0x78(%r12)
   104f9:	e9 49 f8 ff ff       	jmpq   fd47 <_ZN6GetOpt9GetOpt_pp6_parseERKSt6vectorISsSaISsEE+0xb17>
   104fe:	48 83 3d d2 3a 20 00 	cmpq   $0x0,0x203ad2(%rip)        # 213fd8 <_DYNAMIC+0x240>
   10505:	00 
   10506:	0f 84 1f 01 00 00    	je     1062b <_ZN6GetOpt9GetOpt_pp6_parseERKSt6vectorISsSaISsEE+0x13fb>
   1050c:	ba ff ff ff ff       	mov    $0xffffffff,%edx
   10511:	f0 0f c1 50 f8       	lock xadd %edx,-0x8(%rax)
   10516:	89 d0                	mov    %edx,%eax
   10518:	85 c0                	test   %eax,%eax
   1051a:	0f 8f 6a f0 ff ff    	jg     f58a <_ZN6GetOpt9GetOpt_pp6_parseERKSt6vectorISsSaISsEE+0x35a>
   10520:	48 8d b5 4c fb ff ff 	lea    -0x4b4(%rbp),%rsi
   10527:	e8 b4 2b ff ff       	callq  30e0 <_ZNSs4_Rep10_M_destroyERKSaIcE@plt>
   1052c:	e9 59 f0 ff ff       	jmpq   f58a <_ZN6GetOpt9GetOpt_pp6_parseERKSt6vectorISsSaISsEE+0x35a>
   10531:	4d 89 74 24 78       	mov    %r14,0x78(%r12)
   10536:	e9 2b f0 ff ff       	jmpq   f566 <_ZN6GetOpt9GetOpt_pp6_parseERKSt6vectorISsSaISsEE+0x336>
   1053b:	bf 01 00 00 00       	mov    $0x1,%edi
   10540:	e9 bd fb ff ff       	jmpq   10102 <_ZN6GetOpt9GetOpt_pp6_parseERKSt6vectorISsSaISsEE+0xed2>
   10545:	49 8b 56 20          	mov    0x20(%r14),%rdx
   10549:	48 8d 05 90 3d 20 00 	lea    0x203d90(%rip),%rax        # 2142e0 <_ZNSs4_Rep20_S_empty_rep_storageE@@GLIBCXX_3.4>
   10550:	48 89 85 20 fb ff ff 	mov    %rax,-0x4e0(%rbp)
   10557:	48 8d 7a e8          	lea    -0x18(%rdx),%rdi
   1055b:	48 39 c7             	cmp    %rax,%rdi
   1055e:	0f 85 e7 00 00 00    	jne    1064b <_ZN6GetOpt9GetOpt_pp6_parseERKSt6vectorISsSaISsEE+0x141b>
   10564:	4c 89 f7             	mov    %r14,%rdi
   10567:	e8 d4 2b ff ff       	callq  3140 <_ZdlPv@plt>
   1056c:	e9 7c ef ff ff       	jmpq   f4ed <_ZN6GetOpt9GetOpt_pp6_parseERKSt6vectorISsSaISsEE+0x2bd>
   10571:	8b 50 f8             	mov    -0x8(%rax),%edx
   10574:	8d 4a ff             	lea    -0x1(%rdx),%ecx
   10577:	89 48 f8             	mov    %ecx,-0x8(%rax)
   1057a:	89 d0                	mov    %edx,%eax
   1057c:	e9 f9 fe ff ff       	jmpq   1047a <_ZN6GetOpt9GetOpt_pp6_parseERKSt6vectorISsSaISsEE+0x124a>
   10581:	8b 50 f8             	mov    -0x8(%rax),%edx
   10584:	8d 4a ff             	lea    -0x1(%rdx),%ecx
   10587:	89 48 f8             	mov    %ecx,-0x8(%rax)
   1058a:	89 d0                	mov    %edx,%eax
   1058c:	e9 1c ff ff ff       	jmpq   104ad <_ZN6GetOpt9GetOpt_pp6_parseERKSt6vectorISsSaISsEE+0x127d>
   10591:	48 83 3d 3f 3a 20 00 	cmpq   $0x0,0x203a3f(%rip)        # 213fd8 <_DYNAMIC+0x240>
   10598:	00 
   10599:	48 8d 57 10          	lea    0x10(%rdi),%rdx
   1059d:	0f 84 98 00 00 00    	je     1063b <_ZN6GetOpt9GetOpt_pp6_parseERKSt6vectorISsSaISsEE+0x140b>
   105a3:	b8 ff ff ff ff       	mov    $0xffffffff,%eax
   105a8:	f0 0f c1 02          	lock xadd %eax,(%rdx)
   105ac:	85 c0                	test   %eax,%eax
   105ae:	0f 8f dd f9 ff ff    	jg     ff91 <_ZN6GetOpt9GetOpt_pp6_parseERKSt6vectorISsSaISsEE+0xd61>
   105b4:	48 8d b5 60 fb ff ff 	lea    -0x4a0(%rbp),%rsi
   105bb:	e8 20 2b ff ff       	callq  30e0 <_ZNSs4_Rep10_M_destroyERKSaIcE@plt>
   105c0:	e9 cc f9 ff ff       	jmpq   ff91 <_ZN6GetOpt9GetOpt_pp6_parseERKSt6vectorISsSaISsEE+0xd61>
   105c5:	4d 89 6c 24 78       	mov    %r13,0x78(%r12)
   105ca:	e9 06 fd ff ff       	jmpq   102d5 <_ZN6GetOpt9GetOpt_pp6_parseERKSt6vectorISsSaISsEE+0x10a5>
   105cf:	48 89 f3             	mov    %rsi,%rbx
   105d2:	e9 8d fc ff ff       	jmpq   10264 <_ZN6GetOpt9GetOpt_pp6_parseERKSt6vectorISsSaISsEE+0x1034>
   105d7:	48 8d 7f 70          	lea    0x70(%rdi),%rdi
   105db:	e8 80 2c ff ff       	callq  3260 <_ZNSs6assignERKSs@plt>
   105e0:	48 c7 85 28 fb ff ff 	movq   $0x1,-0x4d8(%rbp)
   105e7:	01 00 00 00 
   105eb:	e9 b2 ec ff ff       	jmpq   f2a2 <_ZN6GetOpt9GetOpt_pp6_parseERKSt6vectorISsSaISsEE+0x72>
   105f0:	8b 50 f8             	mov    -0x8(%rax),%edx
   105f3:	8d 4a ff             	lea    -0x1(%rdx),%ecx
   105f6:	89 48 f8             	mov    %ecx,-0x8(%rax)
   105f9:	89 d0                	mov    %edx,%eax
   105fb:	e9 26 f6 ff ff       	jmpq   fc26 <_ZN6GetOpt9GetOpt_pp6_parseERKSt6vectorISsSaISsEE+0x9f6>
   10600:	8b 50 f8             	mov    -0x8(%rax),%edx
   10603:	8d 4a ff             	lea    -0x1(%rdx),%ecx
   10606:	89 48 f8             	mov    %ecx,-0x8(%rax)
   10609:	89 d0                	mov    %edx,%eax
   1060b:	e9 ac ef ff ff       	jmpq   f5bc <_ZN6GetOpt9GetOpt_pp6_parseERKSt6vectorISsSaISsEE+0x38c>
   10610:	48 3d 00 00 00 80    	cmp    $0xffffffff80000000,%rax
   10616:	bf 01 00 00 00       	mov    $0x1,%edi
   1061b:	0f 8c c8 fd ff ff    	jl     103e9 <_ZN6GetOpt9GetOpt_pp6_parseERKSt6vectorISsSaISsEE+0x11b9>
   10621:	c1 e8 1f             	shr    $0x1f,%eax
   10624:	89 c7                	mov    %eax,%edi
   10626:	e9 be fd ff ff       	jmpq   103e9 <_ZN6GetOpt9GetOpt_pp6_parseERKSt6vectorISsSaISsEE+0x11b9>
   1062b:	8b 50 f8             	mov    -0x8(%rax),%edx
   1062e:	8d 4a ff             	lea    -0x1(%rdx),%ecx
   10631:	89 48 f8             	mov    %ecx,-0x8(%rax)
   10634:	89 d0                	mov    %edx,%eax
   10636:	e9 dd fe ff ff       	jmpq   10518 <_ZN6GetOpt9GetOpt_pp6_parseERKSt6vectorISsSaISsEE+0x12e8>
   1063b:	8b 50 f8             	mov    -0x8(%rax),%edx
   1063e:	8d 4a ff             	lea    -0x1(%rdx),%ecx
   10641:	89 48 f8             	mov    %ecx,-0x8(%rax)
   10644:	89 d0                	mov    %edx,%eax
   10646:	e9 61 ff ff ff       	jmpq   105ac <_ZN6GetOpt9GetOpt_pp6_parseERKSt6vectorISsSaISsEE+0x137c>
   1064b:	48 83 3d 85 39 20 00 	cmpq   $0x0,0x203985(%rip)        # 213fd8 <_DYNAMIC+0x240>
   10652:	00 
   10653:	74 4b                	je     106a0 <_ZN6GetOpt9GetOpt_pp6_parseERKSt6vectorISsSaISsEE+0x1470>
   10655:	b8 ff ff ff ff       	mov    $0xffffffff,%eax
   1065a:	f0 0f c1 42 f8       	lock xadd %eax,-0x8(%rdx)
   1065f:	85 c0                	test   %eax,%eax
   10661:	0f 8f fd fe ff ff    	jg     10564 <_ZN6GetOpt9GetOpt_pp6_parseERKSt6vectorISsSaISsEE+0x1334>
   10667:	48 8d b5 60 fb ff ff 	lea    -0x4a0(%rbp),%rsi
   1066e:	e8 6d 2a ff ff       	callq  30e0 <_ZNSs4_Rep10_M_destroyERKSaIcE@plt>
   10673:	e9 ec fe ff ff       	jmpq   10564 <_ZN6GetOpt9GetOpt_pp6_parseERKSt6vectorISsSaISsEE+0x1334>
   10678:	48 8b bd f8 fa ff ff 	mov    -0x508(%rbp),%rdi
   1067f:	48 89 c3             	mov    %rax,%rbx
   10682:	e8 69 2c ff ff       	callq  32f0 <_ZNSt18basic_stringstreamIcSt11char_traitsIcESaIcEED1Ev@plt>
   10687:	48 8b bd e8 fa ff ff 	mov    -0x518(%rbp),%rdi
   1068e:	e8 5d 2c ff ff       	callq  32f0 <_ZNSt18basic_stringstreamIcSt11char_traitsIcESaIcEED1Ev@plt>
   10693:	48 89 df             	mov    %rbx,%rdi
   10696:	e8 15 2d ff ff       	callq  33b0 <_Unwind_Resume@plt>
   1069b:	48 89 c3             	mov    %rax,%rbx
   1069e:	eb e7                	jmp    10687 <_ZN6GetOpt9GetOpt_pp6_parseERKSt6vectorISsSaISsEE+0x1457>
   106a0:	8b 42 f8             	mov    -0x8(%rdx),%eax
   106a3:	8d 48 ff             	lea    -0x1(%rax),%ecx
   106a6:	89 4a f8             	mov    %ecx,-0x8(%rdx)
   106a9:	eb b4                	jmp    1065f <_ZN6GetOpt9GetOpt_pp6_parseERKSt6vectorISsSaISsEE+0x142f>
   106ab:	49 89 c4             	mov    %rax,%r12
   106ae:	48 89 df             	mov    %rbx,%rdi
   106b1:	e8 8a 2a ff ff       	callq  3140 <_ZdlPv@plt>
   106b6:	4c 89 e3             	mov    %r12,%rbx
   106b9:	eb cc                	jmp    10687 <_ZN6GetOpt9GetOpt_pp6_parseERKSt6vectorISsSaISsEE+0x1457>
   106bb:	e8 00 2b ff ff       	callq  31c0 <__stack_chk_fail@plt>
   106c0:	bf 01 00 00 00       	mov    $0x1,%edi
   106c5:	e9 1f fd ff ff       	jmpq   103e9 <_ZN6GetOpt9GetOpt_pp6_parseERKSt6vectorISsSaISsEE+0x11b9>
   106ca:	49 89 c4             	mov    %rax,%r12
   106cd:	48 89 df             	mov    %rbx,%rdi
   106d0:	e8 6b 2a ff ff       	callq  3140 <_ZdlPv@plt>
   106d5:	4c 89 e7             	mov    %r12,%rdi
   106d8:	e8 d3 2c ff ff       	callq  33b0 <_Unwind_Resume@plt>
   106dd:	48 89 c3             	mov    %rax,%rbx
   106e0:	48 8b bd e8 fa ff ff 	mov    -0x518(%rbp),%rdi
   106e7:	48 8d 05 e2 3b 20 00 	lea    0x203be2(%rip),%rax        # 2142d0 <_ZTVSt9basic_iosIcSt11char_traitsIcEE@@GLIBCXX_3.4+0x10>
   106ee:	48 89 85 d8 fb ff ff 	mov    %rax,-0x428(%rbp)
   106f5:	48 83 c7 68          	add    $0x68,%rdi
   106f9:	e8 d2 28 ff ff       	callq  2fd0 <_ZNSt8ios_baseD2Ev@plt>
   106fe:	48 89 df             	mov    %rbx,%rdi
   10701:	e8 aa 2c ff ff       	callq  33b0 <_Unwind_Resume@plt>
   10706:	48 8d 35 23 0f 00 00 	lea    0xf23(%rip),%rsi        # 11630 <_ZTSN6GetOpt13_DefValOptionIdNS_8_OptionTIdEEEE+0x90>
   1070d:	48 8d 3d 34 0f 00 00 	lea    0xf34(%rip),%rdi        # 11648 <_ZTSN6GetOpt13_DefValOptionIdNS_8_OptionTIdEEEE+0xa8>
   10714:	ba 02 00 00 00       	mov    $0x2,%edx
   10719:	31 c0                	xor    %eax,%eax
   1071b:	e8 c0 2b ff ff       	callq  32e0 <_ZSt24__throw_out_of_range_fmtPKcz@plt>
   10720:	48 89 c3             	mov    %rax,%rbx
   10723:	48 8b 85 50 fb ff ff 	mov    -0x4b0(%rbp),%rax
   1072a:	48 8d 78 e8          	lea    -0x18(%rax),%rdi
   1072e:	48 3b bd 20 fb ff ff 	cmp    -0x4e0(%rbp),%rdi
   10735:	0f 84 58 ff ff ff    	je     10693 <_ZN6GetOpt9GetOpt_pp6_parseERKSt6vectorISsSaISsEE+0x1463>
   1073b:	48 8d b5 4c fb ff ff 	lea    -0x4b4(%rbp),%rsi
   10742:	e8 19 2d ff ff       	callq  3460 <_ZNSs4_Rep10_M_disposeERKSaIcE.part.2>
   10747:	e9 47 ff ff ff       	jmpq   10693 <_ZN6GetOpt9GetOpt_pp6_parseERKSt6vectorISsSaISsEE+0x1463>
   1074c:	48 89 c3             	mov    %rax,%rbx
   1074f:	48 8b 85 60 fb ff ff 	mov    -0x4a0(%rbp),%rax
   10756:	48 8d 78 e8          	lea    -0x18(%rax),%rdi
   1075a:	48 3b bd 20 fb ff ff 	cmp    -0x4e0(%rbp),%rdi
   10761:	74 c0                	je     10723 <_ZN6GetOpt9GetOpt_pp6_parseERKSt6vectorISsSaISsEE+0x14f3>
   10763:	48 8d b5 4c fb ff ff 	lea    -0x4b4(%rbp),%rsi
   1076a:	e8 f1 2c ff ff       	callq  3460 <_ZNSs4_Rep10_M_disposeERKSaIcE.part.2>
   1076f:	eb b2                	jmp    10723 <_ZN6GetOpt9GetOpt_pp6_parseERKSt6vectorISsSaISsEE+0x14f3>
   10771:	48 89 c3             	mov    %rax,%rbx
   10774:	48 8b 85 f8 fa ff ff 	mov    -0x508(%rbp),%rax
   1077b:	48 8d 78 18          	lea    0x18(%rax),%rdi
   1077f:	e8 0c b8 ff ff       	callq  bf90 <_ZNSt15basic_stringbufIcSt11char_traitsIcESaIcEED1Ev>
   10784:	48 8b 05 fd 3e 20 00 	mov    0x203efd(%rip),%rax        # 214688 <_ZTTSt18basic_stringstreamIcSt11char_traitsIcESaIcEE@@GLIBCXX_3.4+0x8>
   1078b:	48 8b 0d 1e 3f 20 00 	mov    0x203f1e(%rip),%rcx        # 2146b0 <_ZTTSt18basic_stringstreamIcSt11char_traitsIcESaIcEE@@GLIBCXX_3.4+0x30>
   10792:	48 8b 35 0f 3f 20 00 	mov    0x203f0f(%rip),%rsi        # 2146a8 <_ZTTSt18basic_stringstreamIcSt11char_traitsIcESaIcEE@@GLIBCXX_3.4+0x28>
   10799:	48 8b 40 e8          	mov    -0x18(%rax),%rax
   1079d:	48 89 8c 05 e0 fc ff 	mov    %rcx,-0x320(%rbp,%rax,1)
   107a4:	ff 
   107a5:	48 8b 05 f4 3e 20 00 	mov    0x203ef4(%rip),%rax        # 2146a0 <_ZTTSt18basic_stringstreamIcSt11char_traitsIcESaIcEE@@GLIBCXX_3.4+0x20>
   107ac:	48 8b 0d e5 3e 20 00 	mov    0x203ee5(%rip),%rcx        # 214698 <_ZTTSt18basic_stringstreamIcSt11char_traitsIcESaIcEE@@GLIBCXX_3.4+0x18>
   107b3:	48 8b 40 e8          	mov    -0x18(%rax),%rax
   107b7:	48 89 b4 05 f0 fc ff 	mov    %rsi,-0x310(%rbp,%rax,1)
   107be:	ff 
   107bf:	48 8b 05 ca 3e 20 00 	mov    0x203eca(%rip),%rax        # 214690 <_ZTTSt18basic_stringstreamIcSt11char_traitsIcESaIcEE@@GLIBCXX_3.4+0x10>
   107c6:	48 8b 40 e8          	mov    -0x18(%rax),%rax
   107ca:	48 89 8c 05 e0 fc ff 	mov    %rcx,-0x320(%rbp,%rax,1)
   107d1:	ff 
   107d2:	48 8b bd f8 fa ff ff 	mov    -0x508(%rbp),%rdi
   107d9:	48 8d 05 f0 3a 20 00 	lea    0x203af0(%rip),%rax        # 2142d0 <_ZTVSt9basic_iosIcSt11char_traitsIcEE@@GLIBCXX_3.4+0x10>
   107e0:	48 89 85 48 fd ff ff 	mov    %rax,-0x2b8(%rbp)
   107e7:	48 83 c7 68          	add    $0x68,%rdi
   107eb:	e8 e0 27 ff ff       	callq  2fd0 <_ZNSt8ios_baseD2Ev@plt>
   107f0:	e9 92 fe ff ff       	jmpq   10687 <_ZN6GetOpt9GetOpt_pp6_parseERKSt6vectorISsSaISsEE+0x1457>
   107f5:	48 8b 35 94 3e 20 00 	mov    0x203e94(%rip),%rsi        # 214690 <_ZTTSt18basic_stringstreamIcSt11char_traitsIcESaIcEE@@GLIBCXX_3.4+0x10>
   107fc:	48 8b 0d 95 3e 20 00 	mov    0x203e95(%rip),%rcx        # 214698 <_ZTTSt18basic_stringstreamIcSt11char_traitsIcESaIcEE@@GLIBCXX_3.4+0x18>
   10803:	49 89 c4             	mov    %rax,%r12
   10806:	48 8b 56 e8          	mov    -0x18(%rsi),%rdx
   1080a:	48 89 8c 15 50 fe ff 	mov    %rcx,-0x1b0(%rbp,%rdx,1)
   10811:	ff 
   10812:	48 8d 05 b7 3a 20 00 	lea    0x203ab7(%rip),%rax        # 2142d0 <_ZTVSt9basic_iosIcSt11char_traitsIcEE@@GLIBCXX_3.4+0x10>
   10819:	48 8d 7b 68          	lea    0x68(%rbx),%rdi
   1081d:	4c 89 e3             	mov    %r12,%rbx
   10820:	48 89 85 b8 fe ff ff 	mov    %rax,-0x148(%rbp)
   10827:	e8 a4 27 ff ff       	callq  2fd0 <_ZNSt8ios_baseD2Ev@plt>
   1082c:	e9 56 fe ff ff       	jmpq   10687 <_ZN6GetOpt9GetOpt_pp6_parseERKSt6vectorISsSaISsEE+0x1457>
   10831:	e9 75 fe ff ff       	jmpq   106ab <_ZN6GetOpt9GetOpt_pp6_parseERKSt6vectorISsSaISsEE+0x147b>
   10836:	49 89 c4             	mov    %rax,%r12
   10839:	eb d7                	jmp    10812 <_ZN6GetOpt9GetOpt_pp6_parseERKSt6vectorISsSaISsEE+0x15e2>
   1083b:	48 89 c3             	mov    %rax,%rbx
   1083e:	4c 89 ef             	mov    %r13,%rdi
   10841:	e8 fa 28 ff ff       	callq  3140 <_ZdlPv@plt>
   10846:	48 89 df             	mov    %rbx,%rdi
   10849:	e8 62 2b ff ff       	callq  33b0 <_Unwind_Resume@plt>
   1084e:	4c 89 ef             	mov    %r13,%rdi
   10851:	48 89 c3             	mov    %rax,%rbx
   10854:	e8 e7 28 ff ff       	callq  3140 <_ZdlPv@plt>
   10859:	48 8b 85 50 fb ff ff 	mov    -0x4b0(%rbp),%rax
   10860:	48 8d 78 e8          	lea    -0x18(%rax),%rdi
   10864:	48 3b bd 20 fb ff ff 	cmp    -0x4e0(%rbp),%rdi
   1086b:	0f 84 16 fe ff ff    	je     10687 <_ZN6GetOpt9GetOpt_pp6_parseERKSt6vectorISsSaISsEE+0x1457>
   10871:	48 8d b5 60 fb ff ff 	lea    -0x4a0(%rbp),%rsi
   10878:	e8 e3 2b ff ff       	callq  3460 <_ZNSs4_Rep10_M_disposeERKSaIcE.part.2>
   1087d:	e9 05 fe ff ff       	jmpq   10687 <_ZN6GetOpt9GetOpt_pp6_parseERKSt6vectorISsSaISsEE+0x1457>
   10882:	4c 89 ef             	mov    %r13,%rdi
   10885:	48 89 c3             	mov    %rax,%rbx
   10888:	e8 b3 28 ff ff       	callq  3140 <_ZdlPv@plt>
   1088d:	e9 f5 fd ff ff       	jmpq   10687 <_ZN6GetOpt9GetOpt_pp6_parseERKSt6vectorISsSaISsEE+0x1457>
   10892:	48 89 c3             	mov    %rax,%rbx
   10895:	48 8b 85 60 fb ff ff 	mov    -0x4a0(%rbp),%rax
   1089c:	48 8d 78 e8          	lea    -0x18(%rax),%rdi
   108a0:	48 8d 05 39 3a 20 00 	lea    0x203a39(%rip),%rax        # 2142e0 <_ZNSs4_Rep20_S_empty_rep_storageE@@GLIBCXX_3.4>
   108a7:	48 39 c7             	cmp    %rax,%rdi
   108aa:	0f 84 e3 fd ff ff    	je     10693 <_ZN6GetOpt9GetOpt_pp6_parseERKSt6vectorISsSaISsEE+0x1463>
   108b0:	48 8d b5 50 fb ff ff 	lea    -0x4b0(%rbp),%rsi
   108b7:	e8 a4 2b ff ff       	callq  3460 <_ZNSs4_Rep10_M_disposeERKSaIcE.part.2>
   108bc:	e9 d2 fd ff ff       	jmpq   10693 <_ZN6GetOpt9GetOpt_pp6_parseERKSt6vectorISsSaISsEE+0x1463>
   108c1:	4c 89 f7             	mov    %r14,%rdi
   108c4:	48 89 c3             	mov    %rax,%rbx
   108c7:	e8 74 28 ff ff       	callq  3140 <_ZdlPv@plt>
   108cc:	e9 7e fe ff ff       	jmpq   1074f <_ZN6GetOpt9GetOpt_pp6_parseERKSt6vectorISsSaISsEE+0x151f>
   108d1:	48 8b 0d b8 3d 20 00 	mov    0x203db8(%rip),%rcx        # 214690 <_ZTTSt18basic_stringstreamIcSt11char_traitsIcESaIcEE@@GLIBCXX_3.4+0x10>
   108d8:	48 89 c3             	mov    %rax,%rbx
   108db:	48 8b 51 e8          	mov    -0x18(%rcx),%rdx
   108df:	48 8b 0d b2 3d 20 00 	mov    0x203db2(%rip),%rcx        # 214698 <_ZTTSt18basic_stringstreamIcSt11char_traitsIcESaIcEE@@GLIBCXX_3.4+0x18>
   108e6:	48 89 8c 15 70 fb ff 	mov    %rcx,-0x490(%rbp,%rdx,1)
   108ed:	ff 
   108ee:	e9 ed fd ff ff       	jmpq   106e0 <_ZN6GetOpt9GetOpt_pp6_parseERKSt6vectorISsSaISsEE+0x14b0>
   108f3:	48 89 c3             	mov    %rax,%rbx
   108f6:	48 8b 85 e8 fa ff ff 	mov    -0x518(%rbp),%rax
   108fd:	48 8d 78 18          	lea    0x18(%rax),%rdi
   10901:	e8 8a b6 ff ff       	callq  bf90 <_ZNSt15basic_stringbufIcSt11char_traitsIcESaIcEED1Ev>
   10906:	48 8b 05 7b 3d 20 00 	mov    0x203d7b(%rip),%rax        # 214688 <_ZTTSt18basic_stringstreamIcSt11char_traitsIcESaIcEE@@GLIBCXX_3.4+0x8>
   1090d:	48 8b 0d 9c 3d 20 00 	mov    0x203d9c(%rip),%rcx        # 2146b0 <_ZTTSt18basic_stringstreamIcSt11char_traitsIcESaIcEE@@GLIBCXX_3.4+0x30>
   10914:	48 8b 35 8d 3d 20 00 	mov    0x203d8d(%rip),%rsi        # 2146a8 <_ZTTSt18basic_stringstreamIcSt11char_traitsIcESaIcEE@@GLIBCXX_3.4+0x28>
   1091b:	48 8b 40 e8          	mov    -0x18(%rax),%rax
   1091f:	48 89 8c 05 70 fb ff 	mov    %rcx,-0x490(%rbp,%rax,1)
   10926:	ff 
   10927:	48 8b 05 72 3d 20 00 	mov    0x203d72(%rip),%rax        # 2146a0 <_ZTTSt18basic_stringstreamIcSt11char_traitsIcESaIcEE@@GLIBCXX_3.4+0x20>
   1092e:	48 8b 0d 63 3d 20 00 	mov    0x203d63(%rip),%rcx        # 214698 <_ZTTSt18basic_stringstreamIcSt11char_traitsIcESaIcEE@@GLIBCXX_3.4+0x18>
   10935:	48 8b 40 e8          	mov    -0x18(%rax),%rax
   10939:	48 89 b4 05 80 fb ff 	mov    %rsi,-0x480(%rbp,%rax,1)
   10940:	ff 
   10941:	48 8b 05 48 3d 20 00 	mov    0x203d48(%rip),%rax        # 214690 <_ZTTSt18basic_stringstreamIcSt11char_traitsIcESaIcEE@@GLIBCXX_3.4+0x10>
   10948:	48 8b 40 e8          	mov    -0x18(%rax),%rax
   1094c:	48 89 8c 05 70 fb ff 	mov    %rcx,-0x490(%rbp,%rax,1)
   10953:	ff 
   10954:	e9 87 fd ff ff       	jmpq   106e0 <_ZN6GetOpt9GetOpt_pp6_parseERKSt6vectorISsSaISsEE+0x14b0>
   10959:	48 89 c3             	mov    %rax,%rbx
   1095c:	e9 71 fe ff ff       	jmpq   107d2 <_ZN6GetOpt9GetOpt_pp6_parseERKSt6vectorISsSaISsEE+0x15a2>
   10961:	48 89 c3             	mov    %rax,%rbx
   10964:	48 8b 05 25 3d 20 00 	mov    0x203d25(%rip),%rax        # 214690 <_ZTTSt18basic_stringstreamIcSt11char_traitsIcESaIcEE@@GLIBCXX_3.4+0x10>
   1096b:	48 8b 35 26 3d 20 00 	mov    0x203d26(%rip),%rsi        # 214698 <_ZTTSt18basic_stringstreamIcSt11char_traitsIcESaIcEE@@GLIBCXX_3.4+0x18>
   10972:	48 8b 40 e8          	mov    -0x18(%rax),%rax
   10976:	48 89 b4 05 e0 fc ff 	mov    %rsi,-0x320(%rbp,%rax,1)
   1097d:	ff 
   1097e:	e9 4f fe ff ff       	jmpq   107d2 <_ZN6GetOpt9GetOpt_pp6_parseERKSt6vectorISsSaISsEE+0x15a2>
   10983:	48 8d 7b 18          	lea    0x18(%rbx),%rdi
   10987:	49 89 c4             	mov    %rax,%r12
   1098a:	e8 01 b6 ff ff       	callq  bf90 <_ZNSt15basic_stringbufIcSt11char_traitsIcESaIcEED1Ev>
   1098f:	48 8b 05 f2 3c 20 00 	mov    0x203cf2(%rip),%rax        # 214688 <_ZTTSt18basic_stringstreamIcSt11char_traitsIcESaIcEE@@GLIBCXX_3.4+0x8>
   10996:	48 8b 35 13 3d 20 00 	mov    0x203d13(%rip),%rsi        # 2146b0 <_ZTTSt18basic_stringstreamIcSt11char_traitsIcESaIcEE@@GLIBCXX_3.4+0x30>
   1099d:	48 8b 0d 04 3d 20 00 	mov    0x203d04(%rip),%rcx        # 2146a8 <_ZTTSt18basic_stringstreamIcSt11char_traitsIcESaIcEE@@GLIBCXX_3.4+0x28>
   109a4:	48 8b 40 e8          	mov    -0x18(%rax),%rax
   109a8:	48 89 b4 05 50 fe ff 	mov    %rsi,-0x1b0(%rbp,%rax,1)
   109af:	ff 
   109b0:	48 8b 05 e9 3c 20 00 	mov    0x203ce9(%rip),%rax        # 2146a0 <_ZTTSt18basic_stringstreamIcSt11char_traitsIcESaIcEE@@GLIBCXX_3.4+0x20>
   109b7:	48 8b 35 da 3c 20 00 	mov    0x203cda(%rip),%rsi        # 214698 <_ZTTSt18basic_stringstreamIcSt11char_traitsIcESaIcEE@@GLIBCXX_3.4+0x18>
   109be:	48 8b 40 e8          	mov    -0x18(%rax),%rax
   109c2:	48 89 8c 05 60 fe ff 	mov    %rcx,-0x1a0(%rbp,%rax,1)
   109c9:	ff 
   109ca:	48 8b 05 bf 3c 20 00 	mov    0x203cbf(%rip),%rax        # 214690 <_ZTTSt18basic_stringstreamIcSt11char_traitsIcESaIcEE@@GLIBCXX_3.4+0x10>
   109d1:	48 8b 40 e8          	mov    -0x18(%rax),%rax
   109d5:	48 89 b4 05 50 fe ff 	mov    %rsi,-0x1b0(%rbp,%rax,1)
   109dc:	ff 
   109dd:	e9 30 fe ff ff       	jmpq   10812 <_ZN6GetOpt9GetOpt_pp6_parseERKSt6vectorISsSaISsEE+0x15e2>
   109e2:	49 89 c4             	mov    %rax,%r12
   109e5:	48 89 df             	mov    %rbx,%rdi
   109e8:	e8 03 29 ff ff       	callq  32f0 <_ZNSt18basic_stringstreamIcSt11char_traitsIcESaIcEED1Ev@plt>
   109ed:	4c 89 e3             	mov    %r12,%rbx
   109f0:	e9 92 fc ff ff       	jmpq   10687 <_ZN6GetOpt9GetOpt_pp6_parseERKSt6vectorISsSaISsEE+0x1457>
   109f5:	48 89 c3             	mov    %rax,%rbx
   109f8:	e9 5c fe ff ff       	jmpq   10859 <_ZN6GetOpt9GetOpt_pp6_parseERKSt6vectorISsSaISsEE+0x1629>
   109fd:	0f 1f 00             	nopl   (%rax)

0000000000010a00 <_ZN6GetOpt9GetOpt_pp15_parse_sub_fileERKSs>:
   10a00:	55                   	push   %rbp
   10a01:	48 89 e5             	mov    %rsp,%rbp
   10a04:	41 57                	push   %r15
   10a06:	41 56                	push   %r14
   10a08:	41 55                	push   %r13
   10a0a:	41 54                	push   %r12
   10a0c:	53                   	push   %rbx
   10a0d:	48 81 ec 88 12 00 00 	sub    $0x1288,%rsp
   10a14:	48 83 0c 24 00       	orq    $0x0,(%rsp)
   10a19:	48 81 c4 20 10 00 00 	add    $0x1020,%rsp
   10a20:	4c 8b 36             	mov    (%rsi),%r14
   10a23:	4c 8d a5 c0 fd ff ff 	lea    -0x240(%rbp),%r12
   10a2a:	49 89 ff             	mov    %rdi,%r15
   10a2d:	48 89 f3             	mov    %rsi,%rbx
   10a30:	64 48 8b 04 25 28 00 	mov    %fs:0x28,%rax
   10a37:	00 00 
   10a39:	48 89 45 c8          	mov    %rax,-0x38(%rbp)
   10a3d:	31 c0                	xor    %eax,%eax
   10a3f:	49 8d bc 24 00 01 00 	lea    0x100(%r12),%rdi
   10a46:	00 
   10a47:	e8 74 25 ff ff       	callq  2fc0 <_ZNSt8ios_baseC2Ev@plt>
   10a4c:	4c 8b 2d d5 3d 20 00 	mov    0x203dd5(%rip),%r13        # 214828 <_ZTTSt14basic_ifstreamIcSt11char_traitsIcEE@@GLIBCXX_3.4+0x8>
   10a53:	48 8d 05 76 38 20 00 	lea    0x203876(%rip),%rax        # 2142d0 <_ZTVSt9basic_iosIcSt11char_traitsIcEE@@GLIBCXX_3.4+0x10>
   10a5a:	c6 45 a0 00          	movb   $0x0,-0x60(%rbp)
   10a5e:	48 8b 0d cb 3d 20 00 	mov    0x203dcb(%rip),%rcx        # 214830 <_ZTTSt14basic_ifstreamIcSt11char_traitsIcEE@@GLIBCXX_3.4+0x10>
   10a65:	48 c7 45 98 00 00 00 	movq   $0x0,-0x68(%rbp)
   10a6c:	00 
   10a6d:	4c 89 e7             	mov    %r12,%rdi
   10a70:	48 89 85 c0 fe ff ff 	mov    %rax,-0x140(%rbp)
   10a77:	c6 45 a1 00          	movb   $0x0,-0x5f(%rbp)
   10a7b:	31 f6                	xor    %esi,%esi
   10a7d:	49 8b 45 e8          	mov    -0x18(%r13),%rax
   10a81:	48 c7 45 a8 00 00 00 	movq   $0x0,-0x58(%rbp)
   10a88:	00 
   10a89:	48 c7 45 b0 00 00 00 	movq   $0x0,-0x50(%rbp)
   10a90:	00 
   10a91:	48 c7 45 b8 00 00 00 	movq   $0x0,-0x48(%rbp)
   10a98:	00 
   10a99:	48 c7 45 c0 00 00 00 	movq   $0x0,-0x40(%rbp)
   10aa0:	00 
   10aa1:	4c 89 ad c0 fd ff ff 	mov    %r13,-0x240(%rbp)
   10aa8:	48 89 8c 05 c0 fd ff 	mov    %rcx,-0x240(%rbp,%rax,1)
   10aaf:	ff 
   10ab0:	48 c7 85 c8 fd ff ff 	movq   $0x0,-0x238(%rbp)
   10ab7:	00 00 00 00 
   10abb:	49 03 7d e8          	add    -0x18(%r13),%rdi
   10abf:	e8 ac 27 ff ff       	callq  3270 <_ZNSt9basic_iosIcSt11char_traitsIcEE4initEPSt15basic_streambufIcS1_E@plt>
   10ac4:	48 8d 05 4d 39 20 00 	lea    0x20394d(%rip),%rax        # 214418 <_ZTVSt14basic_ifstreamIcSt11char_traitsIcEE@@GLIBCXX_3.4+0x18>
   10acb:	49 8d 7c 24 10       	lea    0x10(%r12),%rdi
   10ad0:	48 89 85 c0 fd ff ff 	mov    %rax,-0x240(%rbp)
   10ad7:	48 8d 05 62 39 20 00 	lea    0x203962(%rip),%rax        # 214440 <_ZTVSt14basic_ifstreamIcSt11char_traitsIcEE@@GLIBCXX_3.4+0x40>
   10ade:	48 89 85 c0 fe ff ff 	mov    %rax,-0x140(%rbp)
   10ae5:	e8 a6 26 ff ff       	callq  3190 <_ZNSt13basic_filebufIcSt11char_traitsIcEEC1Ev@plt>
   10aea:	49 8d 74 24 10       	lea    0x10(%r12),%rsi
   10aef:	49 8d bc 24 00 01 00 	lea    0x100(%r12),%rdi
   10af6:	00 
   10af7:	e8 74 27 ff ff       	callq  3270 <_ZNSt9basic_iosIcSt11char_traitsIcEE4initEPSt15basic_streambufIcS1_E@plt>
   10afc:	49 8d 7c 24 10       	lea    0x10(%r12),%rdi
   10b01:	ba 08 00 00 00       	mov    $0x8,%edx
   10b06:	4c 89 f6             	mov    %r14,%rsi
   10b09:	e8 22 26 ff ff       	callq  3130 <_ZNSt13basic_filebufIcSt11char_traitsIcEE4openEPKcSt13_Ios_Openmode@plt>
   10b0e:	48 85 c0             	test   %rax,%rax
   10b11:	4c 89 e7             	mov    %r12,%rdi
   10b14:	48 8b 85 c0 fd ff ff 	mov    -0x240(%rbp),%rax
   10b1b:	0f 84 8c 02 00 00    	je     10dad <_ZN6GetOpt9GetOpt_pp15_parse_sub_fileERKSs+0x3ad>
   10b21:	48 03 78 e8          	add    -0x18(%rax),%rdi
   10b25:	31 f6                	xor    %esi,%esi
   10b27:	e8 44 28 ff ff       	callq  3370 <_ZNSt9basic_iosIcSt11char_traitsIcEE5clearESt12_Ios_Iostate@plt>
   10b2c:	f6 85 e0 fe ff ff 05 	testb  $0x5,-0x120(%rbp)
   10b33:	0f 85 95 02 00 00    	jne    10dce <_ZN6GetOpt9GetOpt_pp15_parse_sub_fileERKSs+0x3ce>
   10b39:	48 8d 05 b8 37 20 00 	lea    0x2037b8(%rip),%rax        # 2142f8 <_ZNSs4_Rep20_S_empty_rep_storageE@@GLIBCXX_3.4+0x18>
   10b40:	48 c7 85 a0 fd ff ff 	movq   $0x0,-0x260(%rbp)
   10b47:	00 00 00 00 
   10b4b:	48 c7 85 a8 fd ff ff 	movq   $0x0,-0x258(%rbp)
   10b52:	00 00 00 00 
   10b56:	48 c7 85 b0 fd ff ff 	movq   $0x0,-0x250(%rbp)
   10b5d:	00 00 00 00 
   10b61:	48 8d 9d 90 fd ff ff 	lea    -0x270(%rbp),%rbx
   10b68:	4c 8d b5 a0 fd ff ff 	lea    -0x260(%rbp),%r14
   10b6f:	48 89 85 90 fd ff ff 	mov    %rax,-0x270(%rbp)
   10b76:	eb 27                	jmp    10b9f <_ZN6GetOpt9GetOpt_pp15_parse_sub_fileERKSs+0x19f>
   10b78:	0f 1f 84 00 00 00 00 	nopl   0x0(%rax,%rax,1)
   10b7f:	00 
   10b80:	48 85 ff             	test   %rdi,%rdi
   10b83:	74 0f                	je     10b94 <_ZN6GetOpt9GetOpt_pp15_parse_sub_fileERKSs+0x194>
   10b85:	48 89 de             	mov    %rbx,%rsi
   10b88:	e8 c3 24 ff ff       	callq  3050 <_ZNSsC1ERKSs@plt>
   10b8d:	48 8b bd a8 fd ff ff 	mov    -0x258(%rbp),%rdi
   10b94:	48 83 c7 08          	add    $0x8,%rdi
   10b98:	48 89 bd a8 fd ff ff 	mov    %rdi,-0x258(%rbp)
   10b9f:	48 89 de             	mov    %rbx,%rsi
   10ba2:	4c 89 e7             	mov    %r12,%rdi
   10ba5:	e8 76 24 ff ff       	callq  3020 <_ZStrsIcSt11char_traitsIcESaIcEERSt13basic_istreamIT_T0_ES7_RSbIS4_S5_T1_E@plt>
   10baa:	48 8b 10             	mov    (%rax),%rdx
   10bad:	48 8b 52 e8          	mov    -0x18(%rdx),%rdx
   10bb1:	f6 44 10 20 05       	testb  $0x5,0x20(%rax,%rdx,1)
   10bb6:	75 20                	jne    10bd8 <_ZN6GetOpt9GetOpt_pp15_parse_sub_fileERKSs+0x1d8>
   10bb8:	48 8b bd a8 fd ff ff 	mov    -0x258(%rbp),%rdi
   10bbf:	48 3b bd b0 fd ff ff 	cmp    -0x250(%rbp),%rdi
   10bc6:	75 b8                	jne    10b80 <_ZN6GetOpt9GetOpt_pp15_parse_sub_fileERKSs+0x180>
   10bc8:	48 89 de             	mov    %rbx,%rsi
   10bcb:	4c 89 f7             	mov    %r14,%rdi
   10bce:	e8 9d d1 ff ff       	callq  dd70 <_ZNSt6vectorISsSaISsEE19_M_emplace_back_auxIIRKSsEEEvDpOT_>
   10bd3:	eb ca                	jmp    10b9f <_ZN6GetOpt9GetOpt_pp15_parse_sub_fileERKSs+0x19f>
   10bd5:	0f 1f 00             	nopl   (%rax)
   10bd8:	4c 89 f6             	mov    %r14,%rsi
   10bdb:	4c 89 ff             	mov    %r15,%rdi
   10bde:	e8 4d e6 ff ff       	callq  f230 <_ZN6GetOpt9GetOpt_pp6_parseERKSt6vectorISsSaISsEE>
   10be3:	48 8b 85 90 fd ff ff 	mov    -0x270(%rbp),%rax
   10bea:	4c 8d 3d ef 36 20 00 	lea    0x2036ef(%rip),%r15        # 2142e0 <_ZNSs4_Rep20_S_empty_rep_storageE@@GLIBCXX_3.4>
   10bf1:	48 8d 78 e8          	lea    -0x18(%rax),%rdi
   10bf5:	4c 39 ff             	cmp    %r15,%rdi
   10bf8:	0f 85 80 01 00 00    	jne    10d7e <_ZN6GetOpt9GetOpt_pp15_parse_sub_fileERKSs+0x37e>
   10bfe:	4c 8b b5 a8 fd ff ff 	mov    -0x258(%rbp),%r14
   10c05:	48 8b 9d a0 fd ff ff 	mov    -0x260(%rbp),%rbx
   10c0c:	49 39 de             	cmp    %rbx,%r14
   10c0f:	74 6e                	je     10c7f <_ZN6GetOpt9GetOpt_pp15_parse_sub_fileERKSs+0x27f>
   10c11:	48 83 3d bf 33 20 00 	cmpq   $0x0,0x2033bf(%rip)        # 213fd8 <_DYNAMIC+0x240>
   10c18:	00 
   10c19:	48 8d 8d 8f fd ff ff 	lea    -0x271(%rbp),%rcx
   10c20:	75 17                	jne    10c39 <_ZN6GetOpt9GetOpt_pp15_parse_sub_fileERKSs+0x239>
   10c22:	e9 0e 01 00 00       	jmpq   10d35 <_ZN6GetOpt9GetOpt_pp15_parse_sub_fileERKSs+0x335>
   10c27:	66 0f 1f 84 00 00 00 	nopw   0x0(%rax,%rax,1)
   10c2e:	00 00 
   10c30:	48 83 c3 08          	add    $0x8,%rbx
   10c34:	49 39 de             	cmp    %rbx,%r14
   10c37:	74 3f                	je     10c78 <_ZN6GetOpt9GetOpt_pp15_parse_sub_fileERKSs+0x278>
   10c39:	48 8b 03             	mov    (%rbx),%rax
   10c3c:	48 8d 78 e8          	lea    -0x18(%rax),%rdi
   10c40:	4c 39 ff             	cmp    %r15,%rdi
   10c43:	74 eb                	je     10c30 <_ZN6GetOpt9GetOpt_pp15_parse_sub_fileERKSs+0x230>
   10c45:	ba ff ff ff ff       	mov    $0xffffffff,%edx
   10c4a:	f0 0f c1 50 f8       	lock xadd %edx,-0x8(%rax)
   10c4f:	85 d2                	test   %edx,%edx
   10c51:	7f dd                	jg     10c30 <_ZN6GetOpt9GetOpt_pp15_parse_sub_fileERKSs+0x230>
   10c53:	48 89 ce             	mov    %rcx,%rsi
   10c56:	48 83 c3 08          	add    $0x8,%rbx
   10c5a:	48 89 8d 78 fd ff ff 	mov    %rcx,-0x288(%rbp)
   10c61:	e8 7a 24 ff ff       	callq  30e0 <_ZNSs4_Rep10_M_destroyERKSaIcE@plt>
   10c66:	49 39 de             	cmp    %rbx,%r14
   10c69:	48 8b 8d 78 fd ff ff 	mov    -0x288(%rbp),%rcx
   10c70:	75 c7                	jne    10c39 <_ZN6GetOpt9GetOpt_pp15_parse_sub_fileERKSs+0x239>
   10c72:	66 0f 1f 44 00 00    	nopw   0x0(%rax,%rax,1)
   10c78:	4c 8b b5 a0 fd ff ff 	mov    -0x260(%rbp),%r14
   10c7f:	4d 85 f6             	test   %r14,%r14
   10c82:	74 08                	je     10c8c <_ZN6GetOpt9GetOpt_pp15_parse_sub_fileERKSs+0x28c>
   10c84:	4c 89 f7             	mov    %r14,%rdi
   10c87:	e8 b4 24 ff ff       	callq  3140 <_ZdlPv@plt>
   10c8c:	48 8d 05 85 37 20 00 	lea    0x203785(%rip),%rax        # 214418 <_ZTVSt14basic_ifstreamIcSt11char_traitsIcEE@@GLIBCXX_3.4+0x18>
   10c93:	49 8d 7c 24 10       	lea    0x10(%r12),%rdi
   10c98:	48 89 85 c0 fd ff ff 	mov    %rax,-0x240(%rbp)
   10c9f:	48 8d 05 9a 37 20 00 	lea    0x20379a(%rip),%rax        # 214440 <_ZTVSt14basic_ifstreamIcSt11char_traitsIcEE@@GLIBCXX_3.4+0x40>
   10ca6:	48 89 85 c0 fe ff ff 	mov    %rax,-0x140(%rbp)
   10cad:	48 8d 05 5c 39 20 00 	lea    0x20395c(%rip),%rax        # 214610 <_ZTVSt13basic_filebufIcSt11char_traitsIcEE@@GLIBCXX_3.4+0x10>
   10cb4:	48 89 85 d0 fd ff ff 	mov    %rax,-0x230(%rbp)
   10cbb:	e8 e0 22 ff ff       	callq  2fa0 <_ZNSt13basic_filebufIcSt11char_traitsIcEE5closeEv@plt>
   10cc0:	49 8d 7c 24 78       	lea    0x78(%r12),%rdi
   10cc5:	e8 06 27 ff ff       	callq  33d0 <_ZNSt12__basic_fileIcED1Ev@plt>
   10cca:	48 8d 05 bf 36 20 00 	lea    0x2036bf(%rip),%rax        # 214390 <_ZTVSt15basic_streambufIcSt11char_traitsIcEE@@GLIBCXX_3.4+0x10>
   10cd1:	49 8d 7c 24 48       	lea    0x48(%r12),%rdi
   10cd6:	48 89 85 d0 fd ff ff 	mov    %rax,-0x230(%rbp)
   10cdd:	e8 9e 25 ff ff       	callq  3280 <_ZNSt6localeD1Ev@plt>
   10ce2:	49 8b 45 e8          	mov    -0x18(%r13),%rax
   10ce6:	48 8b 0d 43 3b 20 00 	mov    0x203b43(%rip),%rcx        # 214830 <_ZTTSt14basic_ifstreamIcSt11char_traitsIcEE@@GLIBCXX_3.4+0x10>
   10ced:	49 8d bc 24 00 01 00 	lea    0x100(%r12),%rdi
   10cf4:	00 
   10cf5:	48 89 8c 05 c0 fd ff 	mov    %rcx,-0x240(%rbp,%rax,1)
   10cfc:	ff 
   10cfd:	48 8d 05 cc 35 20 00 	lea    0x2035cc(%rip),%rax        # 2142d0 <_ZTVSt9basic_iosIcSt11char_traitsIcEE@@GLIBCXX_3.4+0x10>
   10d04:	48 89 85 c0 fe ff ff 	mov    %rax,-0x140(%rbp)
   10d0b:	e8 c0 22 ff ff       	callq  2fd0 <_ZNSt8ios_baseD2Ev@plt>
   10d10:	48 8b 45 c8          	mov    -0x38(%rbp),%rax
   10d14:	64 48 33 04 25 28 00 	xor    %fs:0x28,%rax
   10d1b:	00 00 
   10d1d:	0f 85 98 01 00 00    	jne    10ebb <_ZN6GetOpt9GetOpt_pp15_parse_sub_fileERKSs+0x4bb>
   10d23:	48 81 c4 68 02 00 00 	add    $0x268,%rsp
   10d2a:	5b                   	pop    %rbx
   10d2b:	41 5c                	pop    %r12
   10d2d:	41 5d                	pop    %r13
   10d2f:	41 5e                	pop    %r14
   10d31:	41 5f                	pop    %r15
   10d33:	5d                   	pop    %rbp
   10d34:	c3                   	retq   
   10d35:	49 89 c8             	mov    %rcx,%r8
   10d38:	eb 13                	jmp    10d4d <_ZN6GetOpt9GetOpt_pp15_parse_sub_fileERKSs+0x34d>
   10d3a:	66 0f 1f 44 00 00    	nopw   0x0(%rax,%rax,1)
   10d40:	48 83 c3 08          	add    $0x8,%rbx
   10d44:	49 39 de             	cmp    %rbx,%r14
   10d47:	0f 84 2b ff ff ff    	je     10c78 <_ZN6GetOpt9GetOpt_pp15_parse_sub_fileERKSs+0x278>
   10d4d:	48 8b 03             	mov    (%rbx),%rax
   10d50:	48 8d 78 e8          	lea    -0x18(%rax),%rdi
   10d54:	4c 39 ff             	cmp    %r15,%rdi
   10d57:	74 e7                	je     10d40 <_ZN6GetOpt9GetOpt_pp15_parse_sub_fileERKSs+0x340>
   10d59:	8b 50 f8             	mov    -0x8(%rax),%edx
   10d5c:	8d 4a ff             	lea    -0x1(%rdx),%ecx
   10d5f:	85 d2                	test   %edx,%edx
   10d61:	89 48 f8             	mov    %ecx,-0x8(%rax)
   10d64:	7f da                	jg     10d40 <_ZN6GetOpt9GetOpt_pp15_parse_sub_fileERKSs+0x340>
   10d66:	4c 89 c6             	mov    %r8,%rsi
   10d69:	4c 89 85 78 fd ff ff 	mov    %r8,-0x288(%rbp)
   10d70:	e8 6b 23 ff ff       	callq  30e0 <_ZNSs4_Rep10_M_destroyERKSaIcE@plt>
   10d75:	4c 8b 85 78 fd ff ff 	mov    -0x288(%rbp),%r8
   10d7c:	eb c2                	jmp    10d40 <_ZN6GetOpt9GetOpt_pp15_parse_sub_fileERKSs+0x340>
   10d7e:	48 83 3d 52 32 20 00 	cmpq   $0x0,0x203252(%rip)        # 213fd8 <_DYNAMIC+0x240>
   10d85:	00 
   10d86:	74 39                	je     10dc1 <_ZN6GetOpt9GetOpt_pp15_parse_sub_fileERKSs+0x3c1>
   10d88:	ba ff ff ff ff       	mov    $0xffffffff,%edx
   10d8d:	f0 0f c1 50 f8       	lock xadd %edx,-0x8(%rax)
   10d92:	89 d0                	mov    %edx,%eax
   10d94:	85 c0                	test   %eax,%eax
   10d96:	0f 8f 62 fe ff ff    	jg     10bfe <_ZN6GetOpt9GetOpt_pp15_parse_sub_fileERKSs+0x1fe>
   10d9c:	48 8d b5 8f fd ff ff 	lea    -0x271(%rbp),%rsi
   10da3:	e8 38 23 ff ff       	callq  30e0 <_ZNSs4_Rep10_M_destroyERKSaIcE@plt>
   10da8:	e9 51 fe ff ff       	jmpq   10bfe <_ZN6GetOpt9GetOpt_pp15_parse_sub_fileERKSs+0x1fe>
   10dad:	48 03 78 e8          	add    -0x18(%rax),%rdi
   10db1:	8b 77 20             	mov    0x20(%rdi),%esi
   10db4:	83 ce 04             	or     $0x4,%esi
   10db7:	e8 b4 25 ff ff       	callq  3370 <_ZNSt9basic_iosIcSt11char_traitsIcEE5clearESt12_Ios_Iostate@plt>
   10dbc:	e9 6b fd ff ff       	jmpq   10b2c <_ZN6GetOpt9GetOpt_pp15_parse_sub_fileERKSs+0x12c>
   10dc1:	8b 50 f8             	mov    -0x8(%rax),%edx
   10dc4:	8d 4a ff             	lea    -0x1(%rdx),%ecx
   10dc7:	89 48 f8             	mov    %ecx,-0x8(%rax)
   10dca:	89 d0                	mov    %edx,%eax
   10dcc:	eb c6                	jmp    10d94 <_ZN6GetOpt9GetOpt_pp15_parse_sub_fileERKSs+0x394>
   10dce:	bf 10 00 00 00       	mov    $0x10,%edi
   10dd3:	e8 68 22 ff ff       	callq  3040 <__cxa_allocate_exception@plt>
   10dd8:	49 89 c5             	mov    %rax,%r13
   10ddb:	48 8d 05 9e 2f 20 00 	lea    0x202f9e(%rip),%rax        # 213d80 <_ZTVN6GetOpt21OptionsFileNotFoundExE+0x10>
   10de2:	48 89 de             	mov    %rbx,%rsi
   10de5:	49 8d 7d 08          	lea    0x8(%r13),%rdi
   10de9:	49 89 45 00          	mov    %rax,0x0(%r13)
   10ded:	e8 5e 22 ff ff       	callq  3050 <_ZNSsC1ERKSs@plt>
   10df2:	48 8d 15 c7 c7 ff ff 	lea    -0x3839(%rip),%rdx        # d5c0 <_ZN6GetOpt21OptionsFileNotFoundExD1Ev>
   10df9:	48 8d 35 90 2e 20 00 	lea    0x202e90(%rip),%rsi        # 213c90 <_ZTIN6GetOpt21OptionsFileNotFoundExE>
   10e00:	4c 89 ef             	mov    %r13,%rdi
   10e03:	e8 88 25 ff ff       	callq  3390 <__cxa_throw@plt>
   10e08:	49 8d 7c 24 10       	lea    0x10(%r12),%rdi
   10e0d:	48 89 c3             	mov    %rax,%rbx
   10e10:	e8 0b 25 ff ff       	callq  3320 <_ZNSt13basic_filebufIcSt11char_traitsIcEED1Ev@plt>
   10e15:	48 89 d8             	mov    %rbx,%rax
   10e18:	49 8b 55 e8          	mov    -0x18(%r13),%rdx
   10e1c:	48 8b 0d 0d 3a 20 00 	mov    0x203a0d(%rip),%rcx        # 214830 <_ZTTSt14basic_ifstreamIcSt11char_traitsIcEE@@GLIBCXX_3.4+0x10>
   10e23:	48 89 c3             	mov    %rax,%rbx
   10e26:	48 89 8c 15 c0 fd ff 	mov    %rcx,-0x240(%rbp,%rdx,1)
   10e2d:	ff 
   10e2e:	48 8d 05 9b 34 20 00 	lea    0x20349b(%rip),%rax        # 2142d0 <_ZTVSt9basic_iosIcSt11char_traitsIcEE@@GLIBCXX_3.4+0x10>
   10e35:	49 8d bc 24 00 01 00 	lea    0x100(%r12),%rdi
   10e3c:	00 
   10e3d:	48 89 85 c0 fe ff ff 	mov    %rax,-0x140(%rbp)
   10e44:	e8 87 21 ff ff       	callq  2fd0 <_ZNSt8ios_baseD2Ev@plt>
   10e49:	48 89 df             	mov    %rbx,%rdi
   10e4c:	e8 5f 25 ff ff       	callq  33b0 <_Unwind_Resume@plt>
   10e51:	48 89 c3             	mov    %rax,%rbx
   10e54:	4c 89 e7             	mov    %r12,%rdi
   10e57:	e8 54 21 ff ff       	callq  2fb0 <_ZNSt14basic_ifstreamIcSt11char_traitsIcEED1Ev@plt>
   10e5c:	48 89 df             	mov    %rbx,%rdi
   10e5f:	e8 4c 25 ff ff       	callq  33b0 <_Unwind_Resume@plt>
   10e64:	48 89 c3             	mov    %rax,%rbx
   10e67:	48 8d 05 32 2d 20 00 	lea    0x202d32(%rip),%rax        # 213ba0 <_ZTVN6GetOpt8GetOptExE+0x10>
   10e6e:	4c 89 ef             	mov    %r13,%rdi
   10e71:	49 89 45 00          	mov    %rax,0x0(%r13)
   10e75:	e8 46 25 ff ff       	callq  33c0 <_ZNSt9exceptionD2Ev@plt>
   10e7a:	4c 89 ef             	mov    %r13,%rdi
   10e7d:	e8 2e 22 ff ff       	callq  30b0 <__cxa_free_exception@plt>
   10e82:	eb d0                	jmp    10e54 <_ZN6GetOpt9GetOpt_pp15_parse_sub_fileERKSs+0x454>
   10e84:	eb 92                	jmp    10e18 <_ZN6GetOpt9GetOpt_pp15_parse_sub_fileERKSs+0x418>
   10e86:	48 89 c3             	mov    %rax,%rbx
   10e89:	eb a3                	jmp    10e2e <_ZN6GetOpt9GetOpt_pp15_parse_sub_fileERKSs+0x42e>
   10e8b:	48 89 c3             	mov    %rax,%rbx
   10e8e:	48 8b 85 90 fd ff ff 	mov    -0x270(%rbp),%rax
   10e95:	48 8d 78 e8          	lea    -0x18(%rax),%rdi
   10e99:	48 8d 05 40 34 20 00 	lea    0x203440(%rip),%rax        # 2142e0 <_ZNSs4_Rep20_S_empty_rep_storageE@@GLIBCXX_3.4>
   10ea0:	48 39 c7             	cmp    %rax,%rdi
   10ea3:	74 0c                	je     10eb1 <_ZN6GetOpt9GetOpt_pp15_parse_sub_fileERKSs+0x4b1>
   10ea5:	48 8d b5 8f fd ff ff 	lea    -0x271(%rbp),%rsi
   10eac:	e8 af 25 ff ff       	callq  3460 <_ZNSs4_Rep10_M_disposeERKSaIcE.part.2>
   10eb1:	4c 89 f7             	mov    %r14,%rdi
   10eb4:	e8 a7 cd ff ff       	callq  dc60 <_ZNSt6vectorISsSaISsEED1Ev>
   10eb9:	eb 99                	jmp    10e54 <_ZN6GetOpt9GetOpt_pp15_parse_sub_fileERKSs+0x454>
   10ebb:	e8 00 23 ff ff       	callq  31c0 <__stack_chk_fail@plt>

0000000000010ec0 <_ZN6GetOpt9GetOpt_ppC1EiPKPKc>:
   10ec0:	55                   	push   %rbp
   10ec1:	48 89 e5             	mov    %rsp,%rbp
   10ec4:	41 56                	push   %r14
   10ec6:	41 55                	push   %r13
   10ec8:	41 54                	push   %r12
   10eca:	53                   	push   %rbx
   10ecb:	48 81 ec 50 10 00 00 	sub    $0x1050,%rsp
   10ed2:	48 83 0c 24 00       	orq    $0x0,(%rsp)
   10ed7:	48 81 c4 20 10 00 00 	add    $0x1020,%rsp
   10ede:	64 48 8b 04 25 28 00 	mov    %fs:0x28,%rax
   10ee5:	00 00 
   10ee7:	48 89 45 d8          	mov    %rax,-0x28(%rbp)
   10eeb:	31 c0                	xor    %eax,%eax
   10eed:	48 8d 47 08          	lea    0x8(%rdi),%rax
   10ef1:	c7 47 08 00 00 00 00 	movl   $0x0,0x8(%rdi)
   10ef8:	48 c7 47 10 00 00 00 	movq   $0x0,0x10(%rdi)
   10eff:	00 
   10f00:	48 c7 47 28 00 00 00 	movq   $0x0,0x28(%rdi)
   10f07:	00 
   10f08:	c7 47 38 00 00 00 00 	movl   $0x0,0x38(%rdi)
   10f0f:	48 89 fb             	mov    %rdi,%rbx
   10f12:	48 89 47 18          	mov    %rax,0x18(%rdi)
   10f16:	48 89 47 20          	mov    %rax,0x20(%rdi)
   10f1a:	48 8d 47 38          	lea    0x38(%rdi),%rax
   10f1e:	48 c7 47 40 00 00 00 	movq   $0x0,0x40(%rdi)
   10f25:	00 
   10f26:	48 c7 47 58 00 00 00 	movq   $0x0,0x58(%rdi)
   10f2d:	00 
   10f2e:	41 89 f5             	mov    %esi,%r13d
   10f31:	48 89 47 48          	mov    %rax,0x48(%rdi)
   10f35:	48 89 47 50          	mov    %rax,0x50(%rdi)
   10f39:	48 8d 05 b8 33 20 00 	lea    0x2033b8(%rip),%rax        # 2142f8 <_ZNSs4_Rep20_S_empty_rep_storageE@@GLIBCXX_3.4+0x18>
   10f40:	c7 47 60 00 00 00 00 	movl   $0x0,0x60(%rdi)
   10f47:	48 c7 47 78 00 00 00 	movq   $0x0,0x78(%rdi)
   10f4e:	00 
   10f4f:	49 89 d6             	mov    %rdx,%r14
   10f52:	48 89 47 70          	mov    %rax,0x70(%rdi)
   10f56:	48 8d 47 78          	lea    0x78(%rdi),%rax
   10f5a:	48 c7 87 80 00 00 00 	movq   $0x0,0x80(%rdi)
   10f61:	00 00 00 00 
   10f65:	48 89 87 88 00 00 00 	mov    %rax,0x88(%rdi)
   10f6c:	e8 7f c9 ff ff       	callq  d8f0 <_ZN6GetOpt9GetOpt_pp11_init_flagsEv>
   10f71:	4c 8d 65 c0          	lea    -0x40(%rbp),%r12
   10f75:	4c 89 f6             	mov    %r14,%rsi
   10f78:	44 89 ef             	mov    %r13d,%edi
   10f7b:	48 c7 45 c0 00 00 00 	movq   $0x0,-0x40(%rbp)
   10f82:	00 
   10f83:	48 c7 45 c8 00 00 00 	movq   $0x0,-0x38(%rbp)
   10f8a:	00 
   10f8b:	4c 89 e2             	mov    %r12,%rdx
   10f8e:	48 c7 45 d0 00 00 00 	movq   $0x0,-0x30(%rbp)
   10f95:	00 
   10f96:	e8 75 d8 ff ff       	callq  e810 <_ZN6GetOpt9GetOpt_pp20_argc_argv_to_vectorEiPKPKcRSt6vectorISsSaISsEE>
   10f9b:	4c 89 e6             	mov    %r12,%rsi
   10f9e:	48 89 df             	mov    %rbx,%rdi
   10fa1:	e8 8a e2 ff ff       	callq  f230 <_ZN6GetOpt9GetOpt_pp6_parseERKSt6vectorISsSaISsEE>
   10fa6:	4c 8b 65 c8          	mov    -0x38(%rbp),%r12
   10faa:	48 8b 5d c0          	mov    -0x40(%rbp),%rbx
   10fae:	49 39 dc             	cmp    %rbx,%r12
   10fb1:	74 59                	je     1100c <_ZN6GetOpt9GetOpt_ppC1EiPKPKc+0x14c>
   10fb3:	48 83 3d 1d 30 20 00 	cmpq   $0x0,0x20301d(%rip)        # 213fd8 <_DYNAMIC+0x240>
   10fba:	00 
   10fbb:	4c 8d 2d 1e 33 20 00 	lea    0x20331e(%rip),%r13        # 2142e0 <_ZNSs4_Rep20_S_empty_rep_storageE@@GLIBCXX_3.4>
   10fc2:	4c 8d 75 bf          	lea    -0x41(%rbp),%r14
   10fc6:	75 11                	jne    10fd9 <_ZN6GetOpt9GetOpt_ppC1EiPKPKc+0x119>
   10fc8:	e9 94 00 00 00       	jmpq   11061 <_ZN6GetOpt9GetOpt_ppC1EiPKPKc+0x1a1>
   10fcd:	0f 1f 00             	nopl   (%rax)
   10fd0:	48 83 c3 08          	add    $0x8,%rbx
   10fd4:	49 39 dc             	cmp    %rbx,%r12
   10fd7:	74 2f                	je     11008 <_ZN6GetOpt9GetOpt_ppC1EiPKPKc+0x148>
   10fd9:	48 8b 03             	mov    (%rbx),%rax
   10fdc:	48 8d 78 e8          	lea    -0x18(%rax),%rdi
   10fe0:	4c 39 ef             	cmp    %r13,%rdi
   10fe3:	74 eb                	je     10fd0 <_ZN6GetOpt9GetOpt_ppC1EiPKPKc+0x110>
   10fe5:	ba ff ff ff ff       	mov    $0xffffffff,%edx
   10fea:	f0 0f c1 50 f8       	lock xadd %edx,-0x8(%rax)
   10fef:	85 d2                	test   %edx,%edx
   10ff1:	7f dd                	jg     10fd0 <_ZN6GetOpt9GetOpt_ppC1EiPKPKc+0x110>
   10ff3:	4c 89 f6             	mov    %r14,%rsi
   10ff6:	48 83 c3 08          	add    $0x8,%rbx
   10ffa:	e8 e1 20 ff ff       	callq  30e0 <_ZNSs4_Rep10_M_destroyERKSaIcE@plt>
   10fff:	49 39 dc             	cmp    %rbx,%r12
   11002:	75 d5                	jne    10fd9 <_ZN6GetOpt9GetOpt_ppC1EiPKPKc+0x119>
   11004:	0f 1f 40 00          	nopl   0x0(%rax)
   11008:	4c 8b 65 c0          	mov    -0x40(%rbp),%r12
   1100c:	4d 85 e4             	test   %r12,%r12
   1100f:	74 08                	je     11019 <_ZN6GetOpt9GetOpt_ppC1EiPKPKc+0x159>
   11011:	4c 89 e7             	mov    %r12,%rdi
   11014:	e8 27 21 ff ff       	callq  3140 <_ZdlPv@plt>
   11019:	48 8b 45 d8          	mov    -0x28(%rbp),%rax
   1101d:	64 48 33 04 25 28 00 	xor    %fs:0x28,%rax
   11024:	00 00 
   11026:	0f 85 90 00 00 00    	jne    110bc <_ZN6GetOpt9GetOpt_ppC1EiPKPKc+0x1fc>
   1102c:	48 83 c4 30          	add    $0x30,%rsp
   11030:	5b                   	pop    %rbx
   11031:	41 5c                	pop    %r12
   11033:	41 5d                	pop    %r13
   11035:	41 5e                	pop    %r14
   11037:	5d                   	pop    %rbp
   11038:	c3                   	retq   
   11039:	0f 1f 80 00 00 00 00 	nopl   0x0(%rax)
   11040:	8b 50 f8             	mov    -0x8(%rax),%edx
   11043:	8d 4a ff             	lea    -0x1(%rdx),%ecx
   11046:	85 d2                	test   %edx,%edx
   11048:	89 48 f8             	mov    %ecx,-0x8(%rax)
   1104b:	7f 0b                	jg     11058 <_ZN6GetOpt9GetOpt_ppC1EiPKPKc+0x198>
   1104d:	4c 89 f6             	mov    %r14,%rsi
   11050:	e8 8b 20 ff ff       	callq  30e0 <_ZNSs4_Rep10_M_destroyERKSaIcE@plt>
   11055:	0f 1f 00             	nopl   (%rax)
   11058:	48 83 c3 08          	add    $0x8,%rbx
   1105c:	49 39 dc             	cmp    %rbx,%r12
   1105f:	74 a7                	je     11008 <_ZN6GetOpt9GetOpt_ppC1EiPKPKc+0x148>
   11061:	48 8b 03             	mov    (%rbx),%rax
   11064:	48 8d 78 e8          	lea    -0x18(%rax),%rdi
   11068:	4c 39 ef             	cmp    %r13,%rdi
   1106b:	74 eb                	je     11058 <_ZN6GetOpt9GetOpt_ppC1EiPKPKc+0x198>
   1106d:	eb d1                	jmp    11040 <_ZN6GetOpt9GetOpt_ppC1EiPKPKc+0x180>
   1106f:	49 89 c4             	mov    %rax,%r12
   11072:	48 8d bb 88 00 00 00 	lea    0x88(%rbx),%rdi
   11079:	e8 f2 c5 ff ff       	callq  d670 <_ZN6GetOpt9GetOpt_pp13TokensDeleterD1Ev>
   1107e:	48 8b 43 70          	mov    0x70(%rbx),%rax
   11082:	48 8d 78 e8          	lea    -0x18(%rax),%rdi
   11086:	48 8d 05 53 32 20 00 	lea    0x203253(%rip),%rax        # 2142e0 <_ZNSs4_Rep20_S_empty_rep_storageE@@GLIBCXX_3.4>
   1108d:	48 39 c7             	cmp    %rax,%rdi
   11090:	74 09                	je     1109b <_ZN6GetOpt9GetOpt_ppC1EiPKPKc+0x1db>
   11092:	48 8d 75 c0          	lea    -0x40(%rbp),%rsi
   11096:	e8 c5 23 ff ff       	callq  3460 <_ZNSs4_Rep10_M_disposeERKSaIcE.part.2>
   1109b:	48 8b 73 40          	mov    0x40(%rbx),%rsi
   1109f:	48 8d 7b 30          	lea    0x30(%rbx),%rdi
   110a3:	e8 58 69 ff ff       	callq  7a00 <_ZNSt8_Rb_treeISsSt4pairIKSsN6GetOpt10OptionDataEESt10_Select1stIS4_ESt4lessISsESaIS4_EE8_M_eraseEPSt13_Rb_tree_nodeIS4_E>
   110a8:	48 8b 73 10          	mov    0x10(%rbx),%rsi
   110ac:	48 89 df             	mov    %rbx,%rdi
   110af:	e8 bc 65 ff ff       	callq  7670 <_ZNSt8_Rb_treeIcSt4pairIKcN6GetOpt10OptionDataEESt10_Select1stIS4_ESt4lessIcESaIS4_EE8_M_eraseEPSt13_Rb_tree_nodeIS4_E>
   110b4:	4c 89 e7             	mov    %r12,%rdi
   110b7:	e8 f4 22 ff ff       	callq  33b0 <_Unwind_Resume@plt>
   110bc:	e8 ff 20 ff ff       	callq  31c0 <__stack_chk_fail@plt>
   110c1:	49 89 c5             	mov    %rax,%r13
   110c4:	4c 89 e7             	mov    %r12,%rdi
   110c7:	e8 94 cb ff ff       	callq  dc60 <_ZNSt6vectorISsSaISsEED1Ev>
   110cc:	4d 89 ec             	mov    %r13,%r12
   110cf:	eb a1                	jmp    11072 <_ZN6GetOpt9GetOpt_ppC1EiPKPKc+0x1b2>
   110d1:	66 2e 0f 1f 84 00 00 	nopw   %cs:0x0(%rax,%rax,1)
   110d8:	00 00 00 
   110db:	0f 1f 44 00 00       	nopl   0x0(%rax,%rax,1)

00000000000110e0 <__libc_csu_init>:
   110e0:	41 57                	push   %r15
   110e2:	41 56                	push   %r14
   110e4:	41 89 ff             	mov    %edi,%r15d
   110e7:	41 55                	push   %r13
   110e9:	41 54                	push   %r12
   110eb:	4c 8d 25 3e 29 20 00 	lea    0x20293e(%rip),%r12        # 213a30 <__frame_dummy_init_array_entry>
   110f2:	55                   	push   %rbp
   110f3:	48 8d 2d 46 29 20 00 	lea    0x202946(%rip),%rbp        # 213a40 <__init_array_end>
   110fa:	53                   	push   %rbx
   110fb:	49 89 f6             	mov    %rsi,%r14
   110fe:	49 89 d5             	mov    %rdx,%r13
   11101:	4c 29 e5             	sub    %r12,%rbp
   11104:	48 83 ec 08          	sub    $0x8,%rsp
   11108:	48 c1 fd 03          	sar    $0x3,%rbp
   1110c:	e8 17 1e ff ff       	callq  2f28 <_init>
   11111:	48 85 ed             	test   %rbp,%rbp
   11114:	74 20                	je     11136 <__libc_csu_init+0x56>
   11116:	31 db                	xor    %ebx,%ebx
   11118:	0f 1f 84 00 00 00 00 	nopl   0x0(%rax,%rax,1)
   1111f:	00 
   11120:	4c 89 ea             	mov    %r13,%rdx
   11123:	4c 89 f6             	mov    %r14,%rsi
   11126:	44 89 ff             	mov    %r15d,%edi
   11129:	41 ff 14 dc          	callq  *(%r12,%rbx,8)
   1112d:	48 83 c3 01          	add    $0x1,%rbx
   11131:	48 39 eb             	cmp    %rbp,%rbx
   11134:	75 ea                	jne    11120 <__libc_csu_init+0x40>
   11136:	48 83 c4 08          	add    $0x8,%rsp
   1113a:	5b                   	pop    %rbx
   1113b:	5d                   	pop    %rbp
   1113c:	41 5c                	pop    %r12
   1113e:	41 5d                	pop    %r13
   11140:	41 5e                	pop    %r14
   11142:	41 5f                	pop    %r15
   11144:	c3                   	retq   
   11145:	90                   	nop
   11146:	66 2e 0f 1f 84 00 00 	nopw   %cs:0x0(%rax,%rax,1)
   1114d:	00 00 00 

0000000000011150 <__libc_csu_fini>:
   11150:	f3 c3                	repz retq 

Disassembly of section .fini:

0000000000011154 <_fini>:
   11154:	48 83 ec 08          	sub    $0x8,%rsp
   11158:	48 83 c4 08          	add    $0x8,%rsp
   1115c:	c3                   	retq   
